   1              	 .syntax unified
   2              	 .cpu cortex-m4
   3              	 .eabi_attribute 27,3
   4              	 .fpu fpv4-sp-d16
   5              	 .eabi_attribute 20,1
   6              	 .eabi_attribute 21,1
   7              	 .eabi_attribute 23,3
   8              	 .eabi_attribute 24,1
   9              	 .eabi_attribute 25,1
  10              	 .eabi_attribute 26,1
  11              	 .eabi_attribute 30,6
  12              	 .eabi_attribute 34,1
  13              	 .eabi_attribute 18,4
  14              	 .thumb
  15              	 .file "Low_Pass_Filter.c"
  16              	 .text
  17              	.Ltext0:
  18              	 .cfi_sections .debug_frame
  19              	 .comm FilteredValue_old,2,2
  20              	 .comm time,4,4
  21              	 .comm T_Oil,44,4
  22              	 .comm T_Water,44,4
  23              	 .comm p_Oil,44,4
  24              	 .comm p_Pneu,44,4
  25              	 .comm x_DP_RL,44,4
  26              	 .comm x_DP_RR,44,4
  27              	 .comm x_RH_RL,44,4
  28              	 .comm x_RH_RR,44,4
  29              	 .comm f_LC_RL,44,4
  30              	 .comm f_LC_RR,44,4
  31              	 .comm T_Board,44,4
  32              	 .comm u_12V_Meas,44,4
  33              	 .comm u_5V_ANA_Meas,44,4
  34              	 .comm u_OUT1_Meas,44,4
  35              	 .comm u_OUT2_Meas,44,4
  36              	 .comm NTC1,44,4
  37              	 .global __aeabi_i2d
  38              	 .global __aeabi_dmul
  39              	 .global __aeabi_ui2d
  40              	 .global __aeabi_dadd
  41              	 .global __aeabi_d2f
  42              	 .section .text.Low_Pass_Filter,"ax",%progbits
  43              	 .align 2
  44              	 .global Low_Pass_Filter
  45              	 .thumb
  46              	 .thumb_func
  48              	Low_Pass_Filter:
  49              	.LFB387:
  50              	 .file 1 "../Low_Pass_Filter.c"
   1:../Low_Pass_Filter.c **** #include <Low_Pass_Filter.h>
   2:../Low_Pass_Filter.c **** #include "Header.h"
   3:../Low_Pass_Filter.c **** 
   4:../Low_Pass_Filter.c **** //-------------exponentially weighted moving average------------------
   5:../Low_Pass_Filter.c **** //---------------------(digital low pass)-----------------------------
   6:../Low_Pass_Filter.c **** //https://en.wikipedia.org/wiki/Low-pass_filter#Simple_infinite_impulse_response_filter
   7:../Low_Pass_Filter.c **** 
   8:../Low_Pass_Filter.c **** 
   9:../Low_Pass_Filter.c **** 
  10:../Low_Pass_Filter.c **** void Low_Pass_Filter(Analog_Sensor_t *const Sensor)
  11:../Low_Pass_Filter.c **** {
  51              	 .loc 1 11 0
  52              	 .cfi_startproc
  53              	 
  54              	 
  55 0000 B0B5     	 push {r4,r5,r7,lr}
  56              	 .cfi_def_cfa_offset 16
  57              	 .cfi_offset 4,-16
  58              	 .cfi_offset 5,-12
  59              	 .cfi_offset 7,-8
  60              	 .cfi_offset 14,-4
  61 0002 82B0     	 sub sp,sp,#8
  62              	 .cfi_def_cfa_offset 24
  63 0004 00AF     	 add r7,sp,#0
  64              	 .cfi_def_cfa_register 7
  65 0006 7860     	 str r0,[r7,#4]
  12:../Low_Pass_Filter.c **** 
  13:../Low_Pass_Filter.c **** 	Sensor->FilteredValue = alpha * Sensor->Value + (1-alpha) * Sensor->FilteredValue_old;
  66              	 .loc 1 13 0
  67 0008 7B68     	 ldr r3,[r7,#4]
  68 000a 1B88     	 ldrh r3,[r3]
  69 000c 1846     	 mov r0,r3
  70 000e FFF7FEFF 	 bl __aeabi_i2d
  71 0012 0246     	 mov r2,r0
  72 0014 0B46     	 mov r3,r1
  73 0016 1046     	 mov r0,r2
  74 0018 1946     	 mov r1,r3
  75 001a 19A3     	 adr r3,.L2
  76 001c D3E90023 	 ldrd r2,[r3]
  77 0020 FFF7FEFF 	 bl __aeabi_dmul
  78 0024 0246     	 mov r2,r0
  79 0026 0B46     	 mov r3,r1
  80 0028 1446     	 mov r4,r2
  81 002a 1D46     	 mov r5,r3
  82 002c 7B68     	 ldr r3,[r7,#4]
  83 002e 9B68     	 ldr r3,[r3,#8]
  84 0030 1846     	 mov r0,r3
  85 0032 FFF7FEFF 	 bl __aeabi_ui2d
  86 0036 0246     	 mov r2,r0
  87 0038 0B46     	 mov r3,r1
  88 003a 1046     	 mov r0,r2
  89 003c 1946     	 mov r1,r3
  90 003e 12A3     	 adr r3,.L2+8
  91 0040 D3E90023 	 ldrd r2,[r3]
  92 0044 FFF7FEFF 	 bl __aeabi_dmul
  93 0048 0246     	 mov r2,r0
  94 004a 0B46     	 mov r3,r1
  95 004c 2046     	 mov r0,r4
  96 004e 2946     	 mov r1,r5
  97 0050 FFF7FEFF 	 bl __aeabi_dadd
  98 0054 0246     	 mov r2,r0
  99 0056 0B46     	 mov r3,r1
 100 0058 1046     	 mov r0,r2
 101 005a 1946     	 mov r1,r3
 102 005c FFF7FEFF 	 bl __aeabi_d2f
 103 0060 0246     	 mov r2,r0
 104 0062 7B68     	 ldr r3,[r7,#4]
 105 0064 5A60     	 str r2,[r3,#4]
  14:../Low_Pass_Filter.c **** 
  15:../Low_Pass_Filter.c **** 	Sensor->FilteredValue_old = Sensor->FilteredValue;
 106              	 .loc 1 15 0
 107 0066 7B68     	 ldr r3,[r7,#4]
 108 0068 D3ED017A 	 flds s15,[r3,#4]
 109 006c FCEEE77A 	 ftouizs s15,s15
 110 0070 17EE902A 	 fmrs r2,s15
 111 0074 7B68     	 ldr r3,[r7,#4]
 112 0076 9A60     	 str r2,[r3,#8]
  16:../Low_Pass_Filter.c **** 
  17:../Low_Pass_Filter.c **** }
 113              	 .loc 1 17 0
 114 0078 0837     	 adds r7,r7,#8
 115              	 .cfi_def_cfa_offset 16
 116 007a BD46     	 mov sp,r7
 117              	 .cfi_def_cfa_register 13
 118              	 
 119 007c B0BD     	 pop {r4,r5,r7,pc}
 120              	.L3:
 121 007e 00BF     	 .align 3
 122              	.L2:
 123 0080 CDCCCCCC 	 .word -858993459
 124 0084 CCCCEC3F 	 .word 1072483532
 125 0088 98999999 	 .word -1717986920
 126 008c 9999B93F 	 .word 1069128089
 127              	 .cfi_endproc
 128              	.LFE387:
 130              	 .text
 131              	.Letext0:
 132              	 .file 2 "c:\\dave\\dave-ide-4.4.2-64bit\\eclipse\\arm-gcc-49\\arm-none-eabi\\include\\machine\\_default_types.h"
 133              	 .file 3 "c:\\dave\\dave-ide-4.4.2-64bit\\eclipse\\arm-gcc-49\\arm-none-eabi\\include\\stdint.h"
 134              	 .file 4 "C:/Users/Yoshi/Documents/GitHub/Software/01_jrg/04_CANModule/CAN_Modul_keckvale_AH/Libraries/CMSIS/Infineon/XMC4500_series/Include/XMC4500.h"
 135              	 .file 5 "C:/Users/Yoshi/Documents/GitHub/Software/01_jrg/04_CANModule/CAN_Modul_keckvale_AH/Libraries/XMCLib/inc/xmc4_gpio.h"
 136              	 .file 6 "C:/Users/Yoshi/Documents/GitHub/Software/01_jrg/04_CANModule/CAN_Modul_keckvale_AH/Libraries/XMCLib/inc/xmc_vadc.h"
 137              	 .file 7 "C:/Users/Yoshi/Documents/GitHub/Software/01_jrg/04_CANModule/CAN_Modul_keckvale_AH/Dave/Generated/ANALOG_IO/analog_io.h"
 138              	 .file 8 "C:/Users/Yoshi/Documents/GitHub/Software/01_jrg/04_CANModule/CAN_Modul_keckvale_AH/Dave/Generated/ADC_MEASUREMENT/adc_measurement.h"
 139              	 .file 9 "../Header.h"
 140              	 .file 10 "C:/Users/Yoshi/Documents/GitHub/Software/01_jrg/04_CANModule/CAN_Modul_keckvale_AH/Libraries/CMSIS/Include/cmsis_gcc.h"
 141              	 .file 11 "C:/Users/Yoshi/Documents/GitHub/Software/01_jrg/04_CANModule/CAN_Modul_keckvale_AH/Libraries/CMSIS/Include/core_cm4.h"
 142              	 .file 12 "C:/Users/Yoshi/Documents/GitHub/Software/01_jrg/04_CANModule/CAN_Modul_keckvale_AH/Libraries/CMSIS/Infineon/XMC4500_series/Include/system_XMC4500.h"
 143              	 .file 13 "C:/Users/Yoshi/Documents/GitHub/Software/01_jrg/04_CANModule/CAN_Modul_keckvale_AH/Low_Pass_Filter.h"