   1              	 .syntax unified
   2              	 .cpu cortex-m4
   3              	 .eabi_attribute 27,3
   4              	 .fpu fpv4-sp-d16
   5              	 .eabi_attribute 20,1
   6              	 .eabi_attribute 21,1
   7              	 .eabi_attribute 23,3
   8              	 .eabi_attribute 24,1
   9              	 .eabi_attribute 25,1
  10              	 .eabi_attribute 26,1
  11              	 .eabi_attribute 30,6
  12              	 .eabi_attribute 34,1
  13              	 .eabi_attribute 18,4
  14              	 .thumb
  15              	 .file "Subsystem_Transmission.c"
  16              	 .text
  17              	.Ltext0:
  18              	 .cfi_sections .debug_frame
  19              	 .section .text.FUNC_Transmission_Init,"ax",%progbits
  20              	 .align 2
  21              	 .global FUNC_Transmission_Init
  22              	 .thumb
  23              	 .thumb_func
  25              	FUNC_Transmission_Init:
  26              	.LFB175:
  27              	 .file 1 "../Simulink/Subsystem_Transmission.c"
   1:../Simulink/Subsystem_Transmission.c **** /*
   2:../Simulink/Subsystem_Transmission.c ****  * Academic License - for use in teaching, academic research, and meeting
   3:../Simulink/Subsystem_Transmission.c ****  * course requirements at degree granting institutions only.  Not for
   4:../Simulink/Subsystem_Transmission.c ****  * government, commercial, or other organizational use.
   5:../Simulink/Subsystem_Transmission.c ****  *
   6:../Simulink/Subsystem_Transmission.c ****  * File: Subsystem_Transmission.c
   7:../Simulink/Subsystem_Transmission.c ****  *
   8:../Simulink/Subsystem_Transmission.c ****  * Code generated for Simulink model : VCU.
   9:../Simulink/Subsystem_Transmission.c ****  * Model version      : 1.312
  10:../Simulink/Subsystem_Transmission.c ****  * Simulink Coder version    : 8.14 (R2018a) 06-Feb-2018
  11:../Simulink/Subsystem_Transmission.c ****  * TLC version       : 8.14 (Feb 22 2018)
  12:../Simulink/Subsystem_Transmission.c ****  * C/C++ source code generated on  : Wed Jul 14 18:29:54 2021
  13:../Simulink/Subsystem_Transmission.c ****  *
  14:../Simulink/Subsystem_Transmission.c ****  * Target selection: Infineon_XMC_Family.tlc
  15:../Simulink/Subsystem_Transmission.c ****  * Embedded hardware selection: ARM Compatible->ARM Cortex
  16:../Simulink/Subsystem_Transmission.c ****  * Code generation objectives: Unspecified
  17:../Simulink/Subsystem_Transmission.c ****  * Validation result: Not run
  18:../Simulink/Subsystem_Transmission.c ****  */
  19:../Simulink/Subsystem_Transmission.c **** 
  20:../Simulink/Subsystem_Transmission.c **** #include "Subsystem_Transmission.h"
  21:../Simulink/Subsystem_Transmission.c **** 
  22:../Simulink/Subsystem_Transmission.c **** /* Include model header file for global data */
  23:../Simulink/Subsystem_Transmission.c **** #include "VCU.h"
  24:../Simulink/Subsystem_Transmission.c **** #include "VCU_private.h"
  25:../Simulink/Subsystem_Transmission.c **** 
  26:../Simulink/Subsystem_Transmission.c **** /* System initialize for atomic system: '<Root>/Transmission' */
  27:../Simulink/Subsystem_Transmission.c **** void FUNC_Transmission_Init(void)
  28:../Simulink/Subsystem_Transmission.c **** {
  28              	 .loc 1 28 0
  29              	 .cfi_startproc
  30              	 
  31              	 
  32              	 
  33 0000 80B4     	 push {r7}
  34              	.LCFI0:
  35              	 .cfi_def_cfa_offset 4
  36              	 .cfi_offset 7,-4
  37 0002 00AF     	 add r7,sp,#0
  38              	.LCFI1:
  39              	 .cfi_def_cfa_register 7
  29:../Simulink/Subsystem_Transmission.c ****   /* SystemInitialize for Enabled SubSystem: '<S7>/LC_jr19' */
  30:../Simulink/Subsystem_Transmission.c ****   /* InitializeConditions for S-Function (sdspcount2): '<S145>/Counter1' */
  31:../Simulink/Subsystem_Transmission.c ****   VCU_DW.Counter1_Count_k = 0U;
  40              	 .loc 1 31 0
  41 0004 0D4B     	 ldr r3,.L2
  42 0006 0022     	 movs r2,#0
  43 0008 83F8FC20 	 strb r2,[r3,#252]
  32:../Simulink/Subsystem_Transmission.c **** 
  33:../Simulink/Subsystem_Transmission.c ****   /* InitializeConditions for S-Function (sdspcount2): '<S144>/Counter' */
  34:../Simulink/Subsystem_Transmission.c ****   VCU_DW.Counter_Count_m = 0U;
  44              	 .loc 1 34 0
  45 000c 0B4B     	 ldr r3,.L2
  46 000e 0022     	 movs r2,#0
  47 0010 A3F89E20 	 strh r2,[r3,#158]
  35:../Simulink/Subsystem_Transmission.c **** 
  36:../Simulink/Subsystem_Transmission.c ****   /* InitializeConditions for S-Function (sdspcount2): '<S145>/Counter' */
  37:../Simulink/Subsystem_Transmission.c ****   VCU_DW.Counter_Count_a = 0U;
  48              	 .loc 1 37 0
  49 0014 094B     	 ldr r3,.L2
  50 0016 0022     	 movs r2,#0
  51 0018 83F8FD20 	 strb r2,[r3,#253]
  38:../Simulink/Subsystem_Transmission.c **** 
  39:../Simulink/Subsystem_Transmission.c ****   /* End of SystemInitialize for SubSystem: '<S7>/LC_jr19' */
  40:../Simulink/Subsystem_Transmission.c **** 
  41:../Simulink/Subsystem_Transmission.c ****   /* SystemInitialize for Enabled SubSystem: '<S7>/semi_auto_jr18' */
  42:../Simulink/Subsystem_Transmission.c ****   /* InitializeConditions for S-Function (sdspcount2): '<S200>/Counter1' */
  43:../Simulink/Subsystem_Transmission.c ****   VCU_DW.Counter1_Count = 0U;
  52              	 .loc 1 43 0
  53 001c 074B     	 ldr r3,.L2
  54 001e 0022     	 movs r2,#0
  55 0020 83F8FA20 	 strb r2,[r3,#250]
  44:../Simulink/Subsystem_Transmission.c **** 
  45:../Simulink/Subsystem_Transmission.c ****   /* InitializeConditions for S-Function (sdspcount2): '<S199>/Counter' */
  46:../Simulink/Subsystem_Transmission.c ****   VCU_DW.Counter_Count = 0U;
  56              	 .loc 1 46 0
  57 0024 054B     	 ldr r3,.L2
  58 0026 0022     	 movs r2,#0
  59 0028 A3F89C20 	 strh r2,[r3,#156]
  47:../Simulink/Subsystem_Transmission.c **** 
  48:../Simulink/Subsystem_Transmission.c ****   /* InitializeConditions for S-Function (sdspcount2): '<S200>/Counter' */
  49:../Simulink/Subsystem_Transmission.c ****   VCU_DW.Counter_Count_i = 0U;
  60              	 .loc 1 49 0
  61 002c 034B     	 ldr r3,.L2
  62 002e 0022     	 movs r2,#0
  63 0030 83F8FB20 	 strb r2,[r3,#251]
  50:../Simulink/Subsystem_Transmission.c **** 
  51:../Simulink/Subsystem_Transmission.c ****   /* End of SystemInitialize for SubSystem: '<S7>/semi_auto_jr18' */
  52:../Simulink/Subsystem_Transmission.c **** }
  64              	 .loc 1 52 0
  65 0034 BD46     	 mov sp,r7
  66              	.LCFI2:
  67              	 .cfi_def_cfa_register 13
  68              	 
  69 0036 5DF8047B 	 ldr r7,[sp],#4
  70              	.LCFI3:
  71              	 .cfi_restore 7
  72              	 .cfi_def_cfa_offset 0
  73 003a 7047     	 bx lr
  74              	.L3:
  75              	 .align 2
  76              	.L2:
  77 003c 00000000 	 .word VCU_DW
  78              	 .cfi_endproc
  79              	.LFE175:
  81              	 .global __aeabi_dcmplt
  82              	 .global __aeabi_d2uiz
  83              	 .global __aeabi_dcmpgt
  84              	 .global __aeabi_ui2d
  85              	 .global __aeabi_dadd
  86              	 .global __aeabi_dcmpge
  87              	 .global __aeabi_i2d
  88              	 .global __aeabi_dmul
  89              	 .global __aeabi_dcmpeq
  90              	 .global __aeabi_dsub
  91              	 .section .text.FUNC_Transmission,"ax",%progbits
  92              	 .align 2
  93              	 .global FUNC_Transmission
  94              	 .thumb
  95              	 .thumb_func
  97              	FUNC_Transmission:
  98              	.LFB176:
  53:../Simulink/Subsystem_Transmission.c **** 
  54:../Simulink/Subsystem_Transmission.c **** /* Output and update for atomic system: '<Root>/Transmission' */
  55:../Simulink/Subsystem_Transmission.c **** void FUNC_Transmission(void)
  56:../Simulink/Subsystem_Transmission.c **** {
  99              	 .loc 1 56 0
 100              	 .cfi_startproc
 101              	 
 102              	 
 103 0000 F0B5     	 push {r4,r5,r6,r7,lr}
 104              	.LCFI4:
 105              	 .cfi_def_cfa_offset 20
 106              	 .cfi_offset 4,-20
 107              	 .cfi_offset 5,-16
 108              	 .cfi_offset 6,-12
 109              	 .cfi_offset 7,-8
 110              	 .cfi_offset 14,-4
 111 0002 89B0     	 sub sp,sp,#36
 112              	.LCFI5:
 113              	 .cfi_def_cfa_offset 56
 114 0004 02AF     	 add r7,sp,#8
 115              	.LCFI6:
 116              	 .cfi_def_cfa 7,48
  57:../Simulink/Subsystem_Transmission.c ****   int32_T rowIdx;
  58:../Simulink/Subsystem_Transmission.c ****   boolean_T tmp;
  59:../Simulink/Subsystem_Transmission.c ****   real_T tmp_0;
  60:../Simulink/Subsystem_Transmission.c **** 
  61:../Simulink/Subsystem_Transmission.c ****   /* DataTypeConversion: '<S7>/Data Type Conversion' */
  62:../Simulink/Subsystem_Transmission.c ****   tmp_0 = floor(VCU_B.STW_transmission_mode);
 117              	 .loc 1 62 0
 118 0006 8E4B     	 ldr r3,.L257
 119 0008 03F59E63 	 add r3,r3,#1264
 120 000c D3E90023 	 ldrd r2,[r3]
 121 0010 1046     	 mov r0,r2
 122 0012 1946     	 mov r1,r3
 123 0014 FFF7FEFF 	 bl floor
 124 0018 C7E90201 	 strd r0,[r7,#8]
  63:../Simulink/Subsystem_Transmission.c ****   if (rtIsNaN(tmp_0) || rtIsInf(tmp_0)) {
 125              	 .loc 1 63 0
 126 001c D7E90201 	 ldrd r0,[r7,#8]
 127 0020 FFF7FEFF 	 bl rtIsNaN
 128 0024 0346     	 mov r3,r0
 129 0026 002B     	 cmp r3,#0
 130 0028 06D1     	 bne .L5
 131              	 .loc 1 63 0 is_stmt 0 discriminator 1
 132 002a D7E90201 	 ldrd r0,[r7,#8]
 133 002e FFF7FEFF 	 bl rtIsInf
 134 0032 0346     	 mov r3,r0
 135 0034 002B     	 cmp r3,#0
 136 0036 06D0     	 beq .L6
 137              	.L5:
  64:../Simulink/Subsystem_Transmission.c ****     tmp_0 = 0.0;
 138              	 .loc 1 64 0 is_stmt 1
 139 0038 4FF00002 	 mov r2,#0
 140 003c 4FF00003 	 mov r3,#0
 141 0040 C7E90223 	 strd r2,[r7,#8]
 142 0044 08E0     	 b .L7
 143              	.L6:
  65:../Simulink/Subsystem_Transmission.c ****   } else {
  66:../Simulink/Subsystem_Transmission.c ****     tmp_0 = fmod(tmp_0, 256.0);
 144              	 .loc 1 66 0
 145 0046 D7E90201 	 ldrd r0,[r7,#8]
 146 004a 4FF00002 	 mov r2,#0
 147 004e 7D4B     	 ldr r3,.L257+4
 148 0050 FFF7FEFF 	 bl fmod
 149 0054 C7E90201 	 strd r0,[r7,#8]
 150              	.L7:
  67:../Simulink/Subsystem_Transmission.c ****   }
  68:../Simulink/Subsystem_Transmission.c **** 
  69:../Simulink/Subsystem_Transmission.c ****   VCU_B.DataTypeConversion_cg = (int8_T)(tmp_0 < 0.0 ? (int32_T)(int8_T)-(int8_T)
 151              	 .loc 1 69 0
 152 0058 D7E90201 	 ldrd r0,[r7,#8]
 153 005c 4FF00002 	 mov r2,#0
 154 0060 4FF00003 	 mov r3,#0
 155 0064 FFF7FEFF 	 bl __aeabi_dcmplt
 156 0068 0346     	 mov r3,r0
 157 006a 002B     	 cmp r3,#0
 158 006c 0DD0     	 beq .L243
  70:../Simulink/Subsystem_Transmission.c ****     (uint8_T)-tmp_0 : (int32_T)(int8_T)(uint8_T)tmp_0);
 159              	 .loc 1 70 0 discriminator 1
 160 006e BC68     	 ldr r4,[r7,#8]
 161 0070 FB68     	 ldr r3,[r7,#12]
 162 0072 83F00045 	 eor r5,r3,#-2147483648
 163 0076 2046     	 mov r0,r4
 164 0078 2946     	 mov r1,r5
 165 007a FFF7FEFF 	 bl __aeabi_d2uiz
 166 007e 0346     	 mov r3,r0
 167 0080 DBB2     	 uxtb r3,r3
  69:../Simulink/Subsystem_Transmission.c ****     (uint8_T)-tmp_0 : (int32_T)(int8_T)(uint8_T)tmp_0);
 168              	 .loc 1 69 0 discriminator 1
 169 0082 5B42     	 negs r3,r3
 170 0084 DBB2     	 uxtb r3,r3
 171 0086 DBB2     	 uxtb r3,r3
 172 0088 06E0     	 b .L10
 173              	.L243:
 174              	 .loc 1 70 0 discriminator 2
 175 008a D7E90201 	 ldrd r0,[r7,#8]
 176 008e FFF7FEFF 	 bl __aeabi_d2uiz
 177 0092 0346     	 mov r3,r0
 178 0094 DBB2     	 uxtb r3,r3
  69:../Simulink/Subsystem_Transmission.c ****     (uint8_T)-tmp_0 : (int32_T)(int8_T)(uint8_T)tmp_0);
 179              	 .loc 1 69 0 discriminator 2
 180 0096 DBB2     	 uxtb r3,r3
 181              	.L10:
  69:../Simulink/Subsystem_Transmission.c ****     (uint8_T)-tmp_0 : (int32_T)(int8_T)(uint8_T)tmp_0);
 182              	 .loc 1 69 0 is_stmt 0 discriminator 4
 183 0098 694A     	 ldr r2,.L257
 184 009a 82F8C836 	 strb r3,[r2,#1736]
  71:../Simulink/Subsystem_Transmission.c **** 
  72:../Simulink/Subsystem_Transmission.c ****   /* End of DataTypeConversion: '<S7>/Data Type Conversion' */
  73:../Simulink/Subsystem_Transmission.c **** 
  74:../Simulink/Subsystem_Transmission.c ****   /* RelationalOperator: '<S135>/Compare' incorporates:
  75:../Simulink/Subsystem_Transmission.c ****    *  Constant: '<S135>/Constant'
  76:../Simulink/Subsystem_Transmission.c ****    */
  77:../Simulink/Subsystem_Transmission.c ****   VCU_B.Compare = (VCU_B.DataTypeConversion_cg == 3);
 185              	 .loc 1 77 0 is_stmt 1 discriminator 4
 186 009e 684B     	 ldr r3,.L257
 187 00a0 93F8C836 	 ldrb r3,[r3,#1736]
 188 00a4 5BB2     	 sxtb r3,r3
 189 00a6 032B     	 cmp r3,#3
 190 00a8 0CBF     	 ite eq
 191 00aa 0123     	 moveq r3,#1
 192 00ac 0023     	 movne r3,#0
 193 00ae DBB2     	 uxtb r3,r3
 194 00b0 1A46     	 mov r2,r3
 195 00b2 634B     	 ldr r3,.L257
 196 00b4 83F8C926 	 strb r2,[r3,#1737]
  78:../Simulink/Subsystem_Transmission.c **** 
  79:../Simulink/Subsystem_Transmission.c ****   /* Outputs for Enabled SubSystem: '<S7>/LC_jr19' incorporates:
  80:../Simulink/Subsystem_Transmission.c ****    *  EnablePort: '<S136>/Enable'
  81:../Simulink/Subsystem_Transmission.c ****    */
  82:../Simulink/Subsystem_Transmission.c ****   if (VCU_B.Compare) {
 197              	 .loc 1 82 0 discriminator 4
 198 00b8 614B     	 ldr r3,.L257
 199 00ba 93F8C936 	 ldrb r3,[r3,#1737]
 200 00be 002B     	 cmp r3,#0
 201 00c0 01F02780 	 beq .L11
  83:../Simulink/Subsystem_Transmission.c ****     /* Memory: '<S147>/Memory' */
  84:../Simulink/Subsystem_Transmission.c ****     VCU_B.Memory_dj = VCU_DW.Memory_PreviousInput_g;
 202              	 .loc 1 84 0
 203 00c4 604B     	 ldr r3,.L257+8
 204 00c6 93F83D21 	 ldrb r2,[r3,#317]
 205 00ca 5D4B     	 ldr r3,.L257
 206 00cc 83F82127 	 strb r2,[r3,#1825]
  85:../Simulink/Subsystem_Transmission.c **** 
  86:../Simulink/Subsystem_Transmission.c ****     /* CombinatorialLogic: '<S189>/Logic' incorporates:
  87:../Simulink/Subsystem_Transmission.c ****      *  RelationalOperator: '<S147>/GreaterThan'
  88:../Simulink/Subsystem_Transmission.c ****      */
  89:../Simulink/Subsystem_Transmission.c ****     VCU_B.GreaterThan_l = ((int32_T)VCU_B.LC_dash_bit > (int32_T)VCU_B.Memory_dj);
 207              	 .loc 1 89 0
 208 00d0 5B4B     	 ldr r3,.L257
 209 00d2 93F87F27 	 ldrb r2,[r3,#1919]
 210 00d6 5A4B     	 ldr r3,.L257
 211 00d8 93F82137 	 ldrb r3,[r3,#1825]
 212 00dc 9A42     	 cmp r2,r3
 213 00de 8CBF     	 ite hi
 214 00e0 0123     	 movhi r3,#1
 215 00e2 0023     	 movls r3,#0
 216 00e4 DBB2     	 uxtb r3,r3
 217 00e6 1A46     	 mov r2,r3
 218 00e8 554B     	 ldr r3,.L257
 219 00ea 83F82227 	 strb r2,[r3,#1826]
  90:../Simulink/Subsystem_Transmission.c **** 
  91:../Simulink/Subsystem_Transmission.c ****     /* Logic: '<S147>/Logical Operator2' */
  92:../Simulink/Subsystem_Transmission.c ****     VCU_B.LogicalOperator2_m = !VCU_B.LC_dash_bit;
 220              	 .loc 1 92 0
 221 00ee 544B     	 ldr r3,.L257
 222 00f0 93F87F37 	 ldrb r3,[r3,#1919]
 223 00f4 002B     	 cmp r3,#0
 224 00f6 0CBF     	 ite eq
 225 00f8 0123     	 moveq r3,#1
 226 00fa 0023     	 movne r3,#0
 227 00fc DBB2     	 uxtb r3,r3
 228 00fe 1A46     	 mov r2,r3
 229 0100 4F4B     	 ldr r3,.L257
 230 0102 83F82327 	 strb r2,[r3,#1827]
  93:../Simulink/Subsystem_Transmission.c **** 
  94:../Simulink/Subsystem_Transmission.c ****     /* Memory: '<S147>/Memory1' */
  95:../Simulink/Subsystem_Transmission.c ****     VCU_B.Memory1_a = VCU_DW.Memory1_PreviousInput_p;
 231              	 .loc 1 95 0
 232 0106 504B     	 ldr r3,.L257+8
 233 0108 93F83E21 	 ldrb r2,[r3,#318]
 234 010c 4C4B     	 ldr r3,.L257
 235 010e 83F82427 	 strb r2,[r3,#1828]
  96:../Simulink/Subsystem_Transmission.c **** 
  97:../Simulink/Subsystem_Transmission.c ****     /* RelationalOperator: '<S147>/Relational Operator' incorporates:
  98:../Simulink/Subsystem_Transmission.c ****      *  Constant: '<S147>/Constant'
  99:../Simulink/Subsystem_Transmission.c ****      */
 100:../Simulink/Subsystem_Transmission.c ****     VCU_B.RelationalOperator_k = (VCU_B.Sensitivity1538mVbar > 3.0);
 236              	 .loc 1 100 0
 237 0112 4B4B     	 ldr r3,.L257
 238 0114 03F5B163 	 add r3,r3,#1416
 239 0118 D3E90023 	 ldrd r2,[r3]
 240 011c 0121     	 movs r1,#1
 241 011e 0C46     	 mov r4,r1
 242 0120 1046     	 mov r0,r2
 243 0122 1946     	 mov r1,r3
 244 0124 4FF00002 	 mov r2,#0
 245 0128 484B     	 ldr r3,.L257+12
 246 012a FFF7FEFF 	 bl __aeabi_dcmpgt
 247 012e 0346     	 mov r3,r0
 248 0130 002B     	 cmp r3,#0
 249 0132 01D1     	 bne .L12
 250 0134 0023     	 movs r3,#0
 251 0136 1C46     	 mov r4,r3
 252              	.L12:
 253 0138 E3B2     	 uxtb r3,r4
 254 013a 1A46     	 mov r2,r3
 255 013c 404B     	 ldr r3,.L257
 256 013e 83F82527 	 strb r2,[r3,#1829]
 101:../Simulink/Subsystem_Transmission.c **** 
 102:../Simulink/Subsystem_Transmission.c ****     /* RelationalOperator: '<S147>/Relational Operator1' incorporates:
 103:../Simulink/Subsystem_Transmission.c ****      *  Constant: '<S147>/Constant'
 104:../Simulink/Subsystem_Transmission.c ****      */
 105:../Simulink/Subsystem_Transmission.c ****     VCU_B.RelationalOperator1_d = (3.0 < VCU_B.Add1_m);
 257              	 .loc 1 105 0
 258 0142 3F4B     	 ldr r3,.L257
 259 0144 03F58363 	 add r3,r3,#1048
 260 0148 D3E90023 	 ldrd r2,[r3]
 261 014c 0121     	 movs r1,#1
 262 014e 0C46     	 mov r4,r1
 263 0150 1046     	 mov r0,r2
 264 0152 1946     	 mov r1,r3
 265 0154 4FF00002 	 mov r2,#0
 266 0158 3C4B     	 ldr r3,.L257+12
 267 015a FFF7FEFF 	 bl __aeabi_dcmpgt
 268 015e 0346     	 mov r3,r0
 269 0160 002B     	 cmp r3,#0
 270 0162 01D1     	 bne .L13
 271 0164 0023     	 movs r3,#0
 272 0166 1C46     	 mov r4,r3
 273              	.L13:
 274 0168 E3B2     	 uxtb r3,r4
 275 016a 1A46     	 mov r2,r3
 276 016c 344B     	 ldr r3,.L257
 277 016e 83F82627 	 strb r2,[r3,#1830]
 106:../Simulink/Subsystem_Transmission.c **** 
 107:../Simulink/Subsystem_Transmission.c ****     /* Logic: '<S147>/Logical Operator' */
 108:../Simulink/Subsystem_Transmission.c ****     VCU_B.Brakelight_n = (VCU_B.RelationalOperator_k ||
 278              	 .loc 1 108 0
 279 0172 334B     	 ldr r3,.L257
 280 0174 93F82537 	 ldrb r3,[r3,#1829]
 281 0178 002B     	 cmp r3,#0
 282 017a 04D1     	 bne .L14
 109:../Simulink/Subsystem_Transmission.c ****                           VCU_B.RelationalOperator1_d);
 283              	 .loc 1 109 0 discriminator 2
 284 017c 304B     	 ldr r3,.L257
 285 017e 93F82637 	 ldrb r3,[r3,#1830]
 108:../Simulink/Subsystem_Transmission.c ****                           VCU_B.RelationalOperator1_d);
 286              	 .loc 1 108 0 discriminator 2
 287 0182 002B     	 cmp r3,#0
 288 0184 01D0     	 beq .L15
 289              	.L14:
 108:../Simulink/Subsystem_Transmission.c ****                           VCU_B.RelationalOperator1_d);
 290              	 .loc 1 108 0 is_stmt 0 discriminator 3
 291 0186 0123     	 movs r3,#1
 292 0188 00E0     	 b .L16
 293              	.L15:
 108:../Simulink/Subsystem_Transmission.c ****                           VCU_B.RelationalOperator1_d);
 294              	 .loc 1 108 0 discriminator 4
 295 018a 0023     	 movs r3,#0
 296              	.L16:
 108:../Simulink/Subsystem_Transmission.c ****                           VCU_B.RelationalOperator1_d);
 297              	 .loc 1 108 0 discriminator 6
 298 018c DAB2     	 uxtb r2,r3
 299 018e 2C4B     	 ldr r3,.L257
 300 0190 83F82727 	 strb r2,[r3,#1831]
 110:../Simulink/Subsystem_Transmission.c **** 
 111:../Simulink/Subsystem_Transmission.c ****     /* RelationalOperator: '<S147>/GreaterThan1' */
 112:../Simulink/Subsystem_Transmission.c ****     VCU_B.GreaterThan1_d = ((int32_T)VCU_B.Memory1_a > (int32_T)
 301              	 .loc 1 112 0 is_stmt 1 discriminator 6
 302 0194 2A4B     	 ldr r3,.L257
 303 0196 93F82427 	 ldrb r2,[r3,#1828]
 113:../Simulink/Subsystem_Transmission.c ****       VCU_B.Brakelight_n);
 304              	 .loc 1 113 0 discriminator 6
 305 019a 294B     	 ldr r3,.L257
 306 019c 93F82737 	 ldrb r3,[r3,#1831]
 112:../Simulink/Subsystem_Transmission.c ****       VCU_B.Brakelight_n);
 307              	 .loc 1 112 0 discriminator 6
 308 01a0 9A42     	 cmp r2,r3
 309 01a2 8CBF     	 ite hi
 310 01a4 0123     	 movhi r3,#1
 311 01a6 0023     	 movls r3,#0
 312 01a8 DBB2     	 uxtb r3,r3
 313 01aa 1A46     	 mov r2,r3
 314 01ac 244B     	 ldr r3,.L257
 315 01ae 83F82827 	 strb r2,[r3,#1832]
 114:../Simulink/Subsystem_Transmission.c **** 
 115:../Simulink/Subsystem_Transmission.c ****     /* CombinatorialLogic: '<S189>/Logic' incorporates:
 116:../Simulink/Subsystem_Transmission.c ****      *  Logic: '<S147>/Logical Operator1'
 117:../Simulink/Subsystem_Transmission.c ****      *  Memory: '<S189>/Memory'
 118:../Simulink/Subsystem_Transmission.c ****      */
 119:../Simulink/Subsystem_Transmission.c ****     VCU_B.LogicalOperator1_o = (VCU_B.LogicalOperator2_m || VCU_B.GreaterThan1_d);
 316              	 .loc 1 119 0 discriminator 6
 317 01b2 234B     	 ldr r3,.L257
 318 01b4 93F82337 	 ldrb r3,[r3,#1827]
 319 01b8 002B     	 cmp r3,#0
 320 01ba 04D1     	 bne .L17
 321              	 .loc 1 119 0 is_stmt 0 discriminator 2
 322 01bc 204B     	 ldr r3,.L257
 323 01be 93F82837 	 ldrb r3,[r3,#1832]
 324 01c2 002B     	 cmp r3,#0
 325 01c4 01D0     	 beq .L18
 326              	.L17:
 327              	 .loc 1 119 0 discriminator 3
 328 01c6 0123     	 movs r3,#1
 329 01c8 00E0     	 b .L19
 330              	.L18:
 331              	 .loc 1 119 0 discriminator 4
 332 01ca 0023     	 movs r3,#0
 333              	.L19:
 334              	 .loc 1 119 0 discriminator 6
 335 01cc DAB2     	 uxtb r2,r3
 336 01ce 1C4B     	 ldr r3,.L257
 337 01d0 83F82927 	 strb r2,[r3,#1833]
 120:../Simulink/Subsystem_Transmission.c ****     VCU_B.Memory_aw = VCU_DW.Memory_PreviousInput_gi;
 338              	 .loc 1 120 0 is_stmt 1 discriminator 6
 339 01d4 1C4B     	 ldr r3,.L257+8
 340 01d6 93F83F21 	 ldrb r2,[r3,#319]
 341 01da 194B     	 ldr r3,.L257
 342 01dc 83F82A27 	 strb r2,[r3,#1834]
 121:../Simulink/Subsystem_Transmission.c ****     rowIdx = VCU_B.GreaterThan_l;
 343              	 .loc 1 121 0 discriminator 6
 344 01e0 174B     	 ldr r3,.L257
 345 01e2 93F82237 	 ldrb r3,[r3,#1826]
 346 01e6 7B61     	 str r3,[r7,#20]
 122:../Simulink/Subsystem_Transmission.c ****     rowIdx = (int32_T)(((uint32_T)rowIdx << 1) + VCU_B.LogicalOperator1_o);
 347              	 .loc 1 122 0 discriminator 6
 348 01e8 7B69     	 ldr r3,[r7,#20]
 349 01ea 5B00     	 lsls r3,r3,#1
 350 01ec 144A     	 ldr r2,.L257
 351 01ee 92F82927 	 ldrb r2,[r2,#1833]
 352 01f2 1344     	 add r3,r3,r2
 353 01f4 7B61     	 str r3,[r7,#20]
 123:../Simulink/Subsystem_Transmission.c ****     rowIdx = (int32_T)(((uint32_T)rowIdx << 1) + VCU_B.Memory_aw);
 354              	 .loc 1 123 0 discriminator 6
 355 01f6 7B69     	 ldr r3,[r7,#20]
 356 01f8 5B00     	 lsls r3,r3,#1
 357 01fa 114A     	 ldr r2,.L257
 358 01fc 92F82A27 	 ldrb r2,[r2,#1834]
 359 0200 1344     	 add r3,r3,r2
 360 0202 7B61     	 str r3,[r7,#20]
 124:../Simulink/Subsystem_Transmission.c ****     VCU_B.Logic_b[0U] = VCU_ConstP.pooled37[(uint32_T)rowIdx];
 361              	 .loc 1 124 0 discriminator 6
 362 0204 7B69     	 ldr r3,[r7,#20]
 363 0206 124A     	 ldr r2,.L257+16
 364 0208 1344     	 add r3,r3,r2
 365 020a 93F83023 	 ldrb r2,[r3,#816]
 366 020e 0C4B     	 ldr r3,.L257
 367 0210 83F82B27 	 strb r2,[r3,#1835]
 125:../Simulink/Subsystem_Transmission.c ****     VCU_B.Logic_b[1U] = VCU_ConstP.pooled37[rowIdx + 8U];
 368              	 .loc 1 125 0 discriminator 6
 369 0214 7B69     	 ldr r3,[r7,#20]
 370 0216 0833     	 adds r3,r3,#8
 371 0218 0D4A     	 ldr r2,.L257+16
 372 021a 1344     	 add r3,r3,r2
 373 021c 93F83023 	 ldrb r2,[r3,#816]
 374 0220 074B     	 ldr r3,.L257
 375 0222 83F82C27 	 strb r2,[r3,#1836]
 126:../Simulink/Subsystem_Transmission.c **** 
 127:../Simulink/Subsystem_Transmission.c ****     /* Logic: '<S147>/Logical Operator3' */
 128:../Simulink/Subsystem_Transmission.c ****     VCU_B.LogicalOperator3_f = (VCU_B.Logic_b[0] && VCU_B.Brakelight_n);
 376              	 .loc 1 128 0 discriminator 6
 377 0226 064B     	 ldr r3,.L257
 378 0228 93F82B37 	 ldrb r3,[r3,#1835]
 379 022c 002B     	 cmp r3,#0
 380 022e 11D0     	 beq .L20
 381              	 .loc 1 128 0 is_stmt 0 discriminator 1
 382 0230 034B     	 ldr r3,.L257
 383 0232 93F82737 	 ldrb r3,[r3,#1831]
 384 0236 002B     	 cmp r3,#0
 385 0238 0CD0     	 beq .L20
 386              	 .loc 1 128 0 discriminator 3
 387 023a 0123     	 movs r3,#1
 388 023c 0BE0     	 b .L21
 389              	.L258:
 390 023e 00BF     	 .align 2
 391              	.L257:
 392 0240 00000000 	 .word VCU_B
 393 0244 00007040 	 .word 1081081856
 394 0248 00000000 	 .word VCU_DW
 395 024c 00000840 	 .word 1074266112
 396 0250 00000000 	 .word VCU_ConstP
 397              	.L20:
 398              	 .loc 1 128 0 discriminator 4
 399 0254 0023     	 movs r3,#0
 400              	.L21:
 401              	 .loc 1 128 0 discriminator 6
 402 0256 DAB2     	 uxtb r2,r3
 403 0258 934B     	 ldr r3,.L259+16
 404 025a 83F82D27 	 strb r2,[r3,#1837]
 129:../Simulink/Subsystem_Transmission.c **** 
 130:../Simulink/Subsystem_Transmission.c ****     /* DataTypeConversion: '<S136>/Data Type Conversion10' */
 131:../Simulink/Subsystem_Transmission.c ****     VCU_B.LC_active_bit_a = VCU_B.LogicalOperator3_f;
 405              	 .loc 1 131 0 is_stmt 1 discriminator 6
 406 025e 924B     	 ldr r3,.L259+16
 407 0260 93F82D27 	 ldrb r2,[r3,#1837]
 408 0264 904B     	 ldr r3,.L259+16
 409 0266 83F82E27 	 strb r2,[r3,#1838]
 132:../Simulink/Subsystem_Transmission.c **** 
 133:../Simulink/Subsystem_Transmission.c ****     /* CombinatorialLogic: '<S174>/Logic' incorporates:
 134:../Simulink/Subsystem_Transmission.c ****      *  Delay: '<S144>/Delay'
 135:../Simulink/Subsystem_Transmission.c ****      *  Memory: '<S174>/Memory'
 136:../Simulink/Subsystem_Transmission.c ****      *  UnitDelay: '<S144>/Unit Delay1'
 137:../Simulink/Subsystem_Transmission.c ****      */
 138:../Simulink/Subsystem_Transmission.c ****     VCU_B.UnitDelay1_o = VCU_DW.UnitDelay1_DSTATE_p;
 410              	 .loc 1 138 0 discriminator 6
 411 026a 904B     	 ldr r3,.L259+20
 412 026c 93F8DD20 	 ldrb r2,[r3,#221]
 413 0270 8D4B     	 ldr r3,.L259+16
 414 0272 83F82F27 	 strb r2,[r3,#1839]
 139:../Simulink/Subsystem_Transmission.c ****     VCU_B.Delay_e = VCU_DW.Delay_DSTATE_j[0];
 415              	 .loc 1 139 0 discriminator 6
 416 0276 8D4B     	 ldr r3,.L259+20
 417 0278 93F8DE20 	 ldrb r2,[r3,#222]
 418 027c 8A4B     	 ldr r3,.L259+16
 419 027e 83F83027 	 strb r2,[r3,#1840]
 140:../Simulink/Subsystem_Transmission.c ****     VCU_B.Memory_lj = VCU_DW.Memory_PreviousInput_pa;
 420              	 .loc 1 140 0 discriminator 6
 421 0282 8A4B     	 ldr r3,.L259+20
 422 0284 93F84021 	 ldrb r2,[r3,#320]
 423 0288 874B     	 ldr r3,.L259+16
 424 028a 83F83127 	 strb r2,[r3,#1841]
 141:../Simulink/Subsystem_Transmission.c ****     rowIdx = VCU_B.UnitDelay1_o;
 425              	 .loc 1 141 0 discriminator 6
 426 028e 864B     	 ldr r3,.L259+16
 427 0290 93F82F37 	 ldrb r3,[r3,#1839]
 428 0294 7B61     	 str r3,[r7,#20]
 142:../Simulink/Subsystem_Transmission.c ****     rowIdx = (int32_T)(((uint32_T)rowIdx << 1) + VCU_B.Delay_e);
 429              	 .loc 1 142 0 discriminator 6
 430 0296 7B69     	 ldr r3,[r7,#20]
 431 0298 5B00     	 lsls r3,r3,#1
 432 029a 834A     	 ldr r2,.L259+16
 433 029c 92F83027 	 ldrb r2,[r2,#1840]
 434 02a0 1344     	 add r3,r3,r2
 435 02a2 7B61     	 str r3,[r7,#20]
 143:../Simulink/Subsystem_Transmission.c ****     rowIdx = (int32_T)(((uint32_T)rowIdx << 1) + VCU_B.Memory_lj);
 436              	 .loc 1 143 0 discriminator 6
 437 02a4 7B69     	 ldr r3,[r7,#20]
 438 02a6 5B00     	 lsls r3,r3,#1
 439 02a8 7F4A     	 ldr r2,.L259+16
 440 02aa 92F83127 	 ldrb r2,[r2,#1841]
 441 02ae 1344     	 add r3,r3,r2
 442 02b0 7B61     	 str r3,[r7,#20]
 144:../Simulink/Subsystem_Transmission.c ****     VCU_B.Logic_g[0U] = VCU_ConstP.pooled37[(uint32_T)rowIdx];
 443              	 .loc 1 144 0 discriminator 6
 444 02b2 7B69     	 ldr r3,[r7,#20]
 445 02b4 7E4A     	 ldr r2,.L259+24
 446 02b6 1344     	 add r3,r3,r2
 447 02b8 93F83023 	 ldrb r2,[r3,#816]
 448 02bc 7A4B     	 ldr r3,.L259+16
 449 02be 83F83227 	 strb r2,[r3,#1842]
 145:../Simulink/Subsystem_Transmission.c ****     VCU_B.Logic_g[1U] = VCU_ConstP.pooled37[rowIdx + 8U];
 450              	 .loc 1 145 0 discriminator 6
 451 02c2 7B69     	 ldr r3,[r7,#20]
 452 02c4 0833     	 adds r3,r3,#8
 453 02c6 7A4A     	 ldr r2,.L259+24
 454 02c8 1344     	 add r3,r3,r2
 455 02ca 93F83023 	 ldrb r2,[r3,#816]
 456 02ce 764B     	 ldr r3,.L259+16
 457 02d0 83F83327 	 strb r2,[r3,#1843]
 146:../Simulink/Subsystem_Transmission.c **** 
 147:../Simulink/Subsystem_Transmission.c ****     /* DataTypeConversion: '<S136>/Data Type Conversion11' */
 148:../Simulink/Subsystem_Transmission.c ****     VCU_B.VOVG_ShiftDown_a = VCU_B.Logic_g[0];
 458              	 .loc 1 148 0 discriminator 6
 459 02d4 744B     	 ldr r3,.L259+16
 460 02d6 93F83237 	 ldrb r3,[r3,#1842]
 461 02da 1846     	 mov r0,r3
 462 02dc FFF7FEFF 	 bl __aeabi_ui2d
 463 02e0 0246     	 mov r2,r0
 464 02e2 0B46     	 mov r3,r1
 465 02e4 7049     	 ldr r1,.L259+16
 466 02e6 C1E96423 	 strd r2,[r1,#400]
 149:../Simulink/Subsystem_Transmission.c **** 
 150:../Simulink/Subsystem_Transmission.c ****     /* UnitDelay: '<S171>/Delay Input1'
 151:../Simulink/Subsystem_Transmission.c ****      *
 152:../Simulink/Subsystem_Transmission.c ****      * Block description for '<S171>/Delay Input1':
 153:../Simulink/Subsystem_Transmission.c ****      *
 154:../Simulink/Subsystem_Transmission.c ****      *  Store in Global RAM
 155:../Simulink/Subsystem_Transmission.c ****      */
 156:../Simulink/Subsystem_Transmission.c ****     VCU_B.Uk1_o = VCU_DW.DelayInput1_DSTATE_j;
 467              	 .loc 1 156 0 discriminator 6
 468 02ea 704B     	 ldr r3,.L259+20
 469 02ec D3E90423 	 ldrd r2,[r3,#16]
 470 02f0 6D49     	 ldr r1,.L259+16
 471 02f2 C1E96623 	 strd r2,[r1,#408]
 157:../Simulink/Subsystem_Transmission.c **** 
 158:../Simulink/Subsystem_Transmission.c ****     /* CombinatorialLogic: '<S172>/Logic' incorporates:
 159:../Simulink/Subsystem_Transmission.c ****      *  Delay: '<S144>/Delay1'
 160:../Simulink/Subsystem_Transmission.c ****      *  Memory: '<S172>/Memory'
 161:../Simulink/Subsystem_Transmission.c ****      *  RelationalOperator: '<S171>/FixPt Relational Operator'
 162:../Simulink/Subsystem_Transmission.c ****      */
 163:../Simulink/Subsystem_Transmission.c ****     VCU_B.FixPtRelationalOperator_p = (VCU_B.STW_shift_down_request >
 472              	 .loc 1 163 0 discriminator 6
 473 02f6 6C4B     	 ldr r3,.L259+16
 474 02f8 03F59D63 	 add r3,r3,#1256
 475 02fc D3E90001 	 ldrd r0,[r3]
 164:../Simulink/Subsystem_Transmission.c ****       VCU_B.Uk1_o);
 476              	 .loc 1 164 0 discriminator 6
 477 0300 694B     	 ldr r3,.L259+16
 478 0302 D3E96623 	 ldrd r2,[r3,#408]
 163:../Simulink/Subsystem_Transmission.c ****       VCU_B.Uk1_o);
 479              	 .loc 1 163 0 discriminator 6
 480 0306 0124     	 movs r4,#1
 481 0308 FFF7FEFF 	 bl __aeabi_dcmpgt
 482 030c 0346     	 mov r3,r0
 483 030e 002B     	 cmp r3,#0
 484 0310 01D1     	 bne .L22
 485 0312 0023     	 movs r3,#0
 486 0314 1C46     	 mov r4,r3
 487              	.L22:
 488 0316 E3B2     	 uxtb r3,r4
 489 0318 1A46     	 mov r2,r3
 490 031a 634B     	 ldr r3,.L259+16
 491 031c 83F83427 	 strb r2,[r3,#1844]
 165:../Simulink/Subsystem_Transmission.c ****     VCU_B.Delay1_p = VCU_DW.Delay1_DSTATE_p;
 492              	 .loc 1 165 0 discriminator 6
 493 0320 624B     	 ldr r3,.L259+20
 494 0322 93F8F220 	 ldrb r2,[r3,#242]
 495 0326 604B     	 ldr r3,.L259+16
 496 0328 83F83527 	 strb r2,[r3,#1845]
 166:../Simulink/Subsystem_Transmission.c ****     VCU_B.Memory_i = VCU_DW.Memory_PreviousInput_c;
 497              	 .loc 1 166 0 discriminator 6
 498 032c 5F4B     	 ldr r3,.L259+20
 499 032e 93F84121 	 ldrb r2,[r3,#321]
 500 0332 5D4B     	 ldr r3,.L259+16
 501 0334 83F83627 	 strb r2,[r3,#1846]
 167:../Simulink/Subsystem_Transmission.c ****     rowIdx = VCU_B.FixPtRelationalOperator_p;
 502              	 .loc 1 167 0 discriminator 6
 503 0338 5B4B     	 ldr r3,.L259+16
 504 033a 93F83437 	 ldrb r3,[r3,#1844]
 505 033e 7B61     	 str r3,[r7,#20]
 168:../Simulink/Subsystem_Transmission.c ****     rowIdx = (int32_T)(((uint32_T)rowIdx << 1) + VCU_B.Delay1_p);
 506              	 .loc 1 168 0 discriminator 6
 507 0340 7B69     	 ldr r3,[r7,#20]
 508 0342 5B00     	 lsls r3,r3,#1
 509 0344 584A     	 ldr r2,.L259+16
 510 0346 92F83527 	 ldrb r2,[r2,#1845]
 511 034a 1344     	 add r3,r3,r2
 512 034c 7B61     	 str r3,[r7,#20]
 169:../Simulink/Subsystem_Transmission.c ****     rowIdx = (int32_T)(((uint32_T)rowIdx << 1) + VCU_B.Memory_i);
 513              	 .loc 1 169 0 discriminator 6
 514 034e 7B69     	 ldr r3,[r7,#20]
 515 0350 5B00     	 lsls r3,r3,#1
 516 0352 554A     	 ldr r2,.L259+16
 517 0354 92F83627 	 ldrb r2,[r2,#1846]
 518 0358 1344     	 add r3,r3,r2
 519 035a 7B61     	 str r3,[r7,#20]
 170:../Simulink/Subsystem_Transmission.c ****     VCU_B.Logic_c[0U] = VCU_ConstP.pooled37[(uint32_T)rowIdx];
 520              	 .loc 1 170 0 discriminator 6
 521 035c 7B69     	 ldr r3,[r7,#20]
 522 035e 544A     	 ldr r2,.L259+24
 523 0360 1344     	 add r3,r3,r2
 524 0362 93F83023 	 ldrb r2,[r3,#816]
 525 0366 504B     	 ldr r3,.L259+16
 526 0368 83F83727 	 strb r2,[r3,#1847]
 171:../Simulink/Subsystem_Transmission.c ****     VCU_B.Logic_c[1U] = VCU_ConstP.pooled37[rowIdx + 8U];
 527              	 .loc 1 171 0 discriminator 6
 528 036c 7B69     	 ldr r3,[r7,#20]
 529 036e 0833     	 adds r3,r3,#8
 530 0370 4F4A     	 ldr r2,.L259+24
 531 0372 1344     	 add r3,r3,r2
 532 0374 93F83023 	 ldrb r2,[r3,#816]
 533 0378 4B4B     	 ldr r3,.L259+16
 534 037a 83F83827 	 strb r2,[r3,#1848]
 172:../Simulink/Subsystem_Transmission.c **** 
 173:../Simulink/Subsystem_Transmission.c ****     /* UnitDelay: '<S144>/Unit Delay4' */
 174:../Simulink/Subsystem_Transmission.c ****     VCU_B.UnitDelay4_h = VCU_DW.UnitDelay4_DSTATE_e;
 535              	 .loc 1 174 0 discriminator 6
 536 037e 4B4B     	 ldr r3,.L259+20
 537 0380 93F8F320 	 ldrb r2,[r3,#243]
 538 0384 484B     	 ldr r3,.L259+16
 539 0386 83F83927 	 strb r2,[r3,#1849]
 175:../Simulink/Subsystem_Transmission.c **** 
 176:../Simulink/Subsystem_Transmission.c ****     /* Gain: '<S175>/Gain' */
 177:../Simulink/Subsystem_Transmission.c ****     VCU_B.Gain_i = 2.0 * VCU_B.DataTypeConversion1;
 540              	 .loc 1 177 0 discriminator 6
 541 038a 474B     	 ldr r3,.L259+16
 542 038c 03F58F63 	 add r3,r3,#1144
 543 0390 D3E90023 	 ldrd r2,[r3]
 544 0394 1046     	 mov r0,r2
 545 0396 1946     	 mov r1,r3
 546 0398 FFF7FEFF 	 bl __aeabi_dadd
 547 039c 0246     	 mov r2,r0
 548 039e 0B46     	 mov r3,r1
 549 03a0 4149     	 ldr r1,.L259+16
 550 03a2 C1E96823 	 strd r2,[r1,#416]
 178:../Simulink/Subsystem_Transmission.c **** 
 179:../Simulink/Subsystem_Transmission.c ****     /* RelationalOperator: '<S175>/Relational Operator' incorporates:
 180:../Simulink/Subsystem_Transmission.c ****      *  Constant: '<S175>/Constant'
 181:../Simulink/Subsystem_Transmission.c ****      */
 182:../Simulink/Subsystem_Transmission.c ****     VCU_B.RelationalOperator_a = (VCU_B.Gain_i > 169.0);
 551              	 .loc 1 182 0 discriminator 6
 552 03a6 404B     	 ldr r3,.L259+16
 553 03a8 D3E96823 	 ldrd r2,[r3,#416]
 554 03ac 0121     	 movs r1,#1
 555 03ae 0C46     	 mov r4,r1
 556 03b0 1046     	 mov r0,r2
 557 03b2 1946     	 mov r1,r3
 558 03b4 38A3     	 adr r3,.L259
 559 03b6 D3E90023 	 ldrd r2,[r3]
 560 03ba FFF7FEFF 	 bl __aeabi_dcmpgt
 561 03be 0346     	 mov r3,r0
 562 03c0 002B     	 cmp r3,#0
 563 03c2 01D1     	 bne .L23
 564 03c4 0023     	 movs r3,#0
 565 03c6 1C46     	 mov r4,r3
 566              	.L23:
 567 03c8 E3B2     	 uxtb r3,r4
 568 03ca 1A46     	 mov r2,r3
 569 03cc 364B     	 ldr r3,.L259+16
 570 03ce 83F83A27 	 strb r2,[r3,#1850]
 183:../Simulink/Subsystem_Transmission.c **** 
 184:../Simulink/Subsystem_Transmission.c ****     /* RelationalOperator: '<S175>/Relational Operator1' incorporates:
 185:../Simulink/Subsystem_Transmission.c ****      *  Constant: '<S175>/Constant1'
 186:../Simulink/Subsystem_Transmission.c ****      */
 187:../Simulink/Subsystem_Transmission.c ****     VCU_B.RelationalOperator1_g = (VCU_B.Gain_i > 228.0);
 571              	 .loc 1 187 0 discriminator 6
 572 03d2 354B     	 ldr r3,.L259+16
 573 03d4 D3E96823 	 ldrd r2,[r3,#416]
 574 03d8 0121     	 movs r1,#1
 575 03da 0C46     	 mov r4,r1
 576 03dc 1046     	 mov r0,r2
 577 03de 1946     	 mov r1,r3
 578 03e0 4FF00002 	 mov r2,#0
 579 03e4 334B     	 ldr r3,.L259+28
 580 03e6 FFF7FEFF 	 bl __aeabi_dcmpgt
 581 03ea 0346     	 mov r3,r0
 582 03ec 002B     	 cmp r3,#0
 583 03ee 01D1     	 bne .L24
 584 03f0 0023     	 movs r3,#0
 585 03f2 1C46     	 mov r4,r3
 586              	.L24:
 587 03f4 E3B2     	 uxtb r3,r4
 588 03f6 1A46     	 mov r2,r3
 589 03f8 2B4B     	 ldr r3,.L259+16
 590 03fa 83F83B27 	 strb r2,[r3,#1851]
 188:../Simulink/Subsystem_Transmission.c **** 
 189:../Simulink/Subsystem_Transmission.c ****     /* RelationalOperator: '<S175>/Relational Operator2' incorporates:
 190:../Simulink/Subsystem_Transmission.c ****      *  Constant: '<S175>/Constant2'
 191:../Simulink/Subsystem_Transmission.c ****      */
 192:../Simulink/Subsystem_Transmission.c ****     VCU_B.RelationalOperator2_e = (VCU_B.Gain_i > 325.0);
 591              	 .loc 1 192 0 discriminator 6
 592 03fe 2A4B     	 ldr r3,.L259+16
 593 0400 D3E96823 	 ldrd r2,[r3,#416]
 594 0404 0121     	 movs r1,#1
 595 0406 0C46     	 mov r4,r1
 596 0408 1046     	 mov r0,r2
 597 040a 1946     	 mov r1,r3
 598 040c 24A3     	 adr r3,.L259+8
 599 040e D3E90023 	 ldrd r2,[r3]
 600 0412 FFF7FEFF 	 bl __aeabi_dcmpgt
 601 0416 0346     	 mov r3,r0
 602 0418 002B     	 cmp r3,#0
 603 041a 01D1     	 bne .L25
 604 041c 0023     	 movs r3,#0
 605 041e 1C46     	 mov r4,r3
 606              	.L25:
 607 0420 E3B2     	 uxtb r3,r4
 608 0422 1A46     	 mov r2,r3
 609 0424 204B     	 ldr r3,.L259+16
 610 0426 83F83C27 	 strb r2,[r3,#1852]
 193:../Simulink/Subsystem_Transmission.c **** 
 194:../Simulink/Subsystem_Transmission.c ****     /* Sum: '<S175>/Add' */
 195:../Simulink/Subsystem_Transmission.c ****     VCU_B.Add_fn = (uint8_T)(((uint32_T)VCU_B.RelationalOperator_a +
 611              	 .loc 1 195 0 discriminator 6
 612 042a 1F4B     	 ldr r3,.L259+16
 613 042c 93F83A27 	 ldrb r2,[r3,#1850]
 196:../Simulink/Subsystem_Transmission.c ****       VCU_B.RelationalOperator1_g) + VCU_B.RelationalOperator2_e);
 614              	 .loc 1 196 0 discriminator 6
 615 0430 1D4B     	 ldr r3,.L259+16
 616 0432 93F83B37 	 ldrb r3,[r3,#1851]
 195:../Simulink/Subsystem_Transmission.c ****       VCU_B.RelationalOperator1_g) + VCU_B.RelationalOperator2_e);
 617              	 .loc 1 195 0 discriminator 6
 618 0436 1344     	 add r3,r3,r2
 619 0438 DAB2     	 uxtb r2,r3
 620              	 .loc 1 196 0 discriminator 6
 621 043a 1B4B     	 ldr r3,.L259+16
 622 043c 93F83C37 	 ldrb r3,[r3,#1852]
 195:../Simulink/Subsystem_Transmission.c ****       VCU_B.RelationalOperator1_g) + VCU_B.RelationalOperator2_e);
 623              	 .loc 1 195 0 discriminator 6
 624 0440 1344     	 add r3,r3,r2
 625 0442 DAB2     	 uxtb r2,r3
 626 0444 184B     	 ldr r3,.L259+16
 627 0446 83F88926 	 strb r2,[r3,#1673]
 197:../Simulink/Subsystem_Transmission.c **** 
 198:../Simulink/Subsystem_Transmission.c ****     /* RelationalOperator: '<S165>/Compare' incorporates:
 199:../Simulink/Subsystem_Transmission.c ****      *  Constant: '<S165>/Constant'
 200:../Simulink/Subsystem_Transmission.c ****      */
 201:../Simulink/Subsystem_Transmission.c ****     VCU_B.Compare_j1 = (VCU_B.x_clutch_STW >= 15.0);
 628              	 .loc 1 201 0 discriminator 6
 629 044a 174B     	 ldr r3,.L259+16
 630 044c 03F59A63 	 add r3,r3,#1232
 631 0450 D3E90023 	 ldrd r2,[r3]
 632 0454 0121     	 movs r1,#1
 633 0456 0C46     	 mov r4,r1
 634 0458 1046     	 mov r0,r2
 635 045a 1946     	 mov r1,r3
 636 045c 4FF00002 	 mov r2,#0
 637 0460 154B     	 ldr r3,.L259+32
 638 0462 FFF7FEFF 	 bl __aeabi_dcmpge
 639 0466 0346     	 mov r3,r0
 640 0468 002B     	 cmp r3,#0
 641 046a 01D1     	 bne .L26
 642 046c 0023     	 movs r3,#0
 643 046e 1C46     	 mov r4,r3
 644              	.L26:
 645 0470 E3B2     	 uxtb r3,r4
 646 0472 1A46     	 mov r2,r3
 647 0474 0C4B     	 ldr r3,.L259+16
 648 0476 83F83D27 	 strb r2,[r3,#1853]
 202:../Simulink/Subsystem_Transmission.c **** 
 203:../Simulink/Subsystem_Transmission.c ****     /* Switch: '<S144>/Switch' incorporates:
 204:../Simulink/Subsystem_Transmission.c ****      *  Constant: '<S144>/Constant'
 205:../Simulink/Subsystem_Transmission.c ****      *  Constant: '<S144>/Constant1'
 206:../Simulink/Subsystem_Transmission.c ****      */
 207:../Simulink/Subsystem_Transmission.c ****     if (VCU_B.Compare_j1) {
 649              	 .loc 1 207 0 discriminator 6
 650 047a 0B4B     	 ldr r3,.L259+16
 651 047c 93F83D37 	 ldrb r3,[r3,#1853]
 652 0480 002B     	 cmp r3,#0
 653 0482 1DD0     	 beq .L27
 208:../Simulink/Subsystem_Transmission.c ****       VCU_B.Switch_m = 1.0;
 654              	 .loc 1 208 0
 655 0484 0849     	 ldr r1,.L259+16
 656 0486 4FF00002 	 mov r2,#0
 657 048a 0C4B     	 ldr r3,.L259+36
 658 048c C1E96A23 	 strd r2,[r1,#424]
 659 0490 1DE0     	 b .L28
 660              	.L260:
 661 0492 00BFAFF3 	 .align 3
 661      0080
 662              	.L259:
 663 0498 00000000 	 .word 0
 664 049c 00206540 	 .word 1080369152
 665 04a0 00000000 	 .word 0
 666 04a4 00507440 	 .word 1081364480
 667 04a8 00000000 	 .word VCU_B
 668 04ac 00000000 	 .word VCU_DW
 669 04b0 00000000 	 .word VCU_ConstP
 670 04b4 00806C40 	 .word 1080852480
 671 04b8 00002E40 	 .word 1076756480
 672 04bc 0000F03F 	 .word 1072693248
 673              	.L27:
 209:../Simulink/Subsystem_Transmission.c ****     } else {
 210:../Simulink/Subsystem_Transmission.c ****       VCU_B.Switch_m = 2.0;
 674              	 .loc 1 210 0
 675 04c0 5F49     	 ldr r1,.L261+16
 676 04c2 4FF00002 	 mov r2,#0
 677 04c6 4FF08043 	 mov r3,#1073741824
 678 04ca C1E96A23 	 strd r2,[r1,#424]
 679              	.L28:
 211:../Simulink/Subsystem_Transmission.c ****     }
 212:../Simulink/Subsystem_Transmission.c **** 
 213:../Simulink/Subsystem_Transmission.c ****     /* End of Switch: '<S144>/Switch' */
 214:../Simulink/Subsystem_Transmission.c **** 
 215:../Simulink/Subsystem_Transmission.c ****     /* RelationalOperator: '<S144>/Relational Operator' */
 216:../Simulink/Subsystem_Transmission.c ****     VCU_B.LessthanNeutral_j = (VCU_B.Add_fn < VCU_B.Switch_m);
 680              	 .loc 1 216 0
 681 04ce 5C4B     	 ldr r3,.L261+16
 682 04d0 93F88936 	 ldrb r3,[r3,#1673]
 683 04d4 1846     	 mov r0,r3
 684 04d6 FFF7FEFF 	 bl __aeabi_i2d
 685 04da 0446     	 mov r4,r0
 686 04dc 0D46     	 mov r5,r1
 687 04de 584B     	 ldr r3,.L261+16
 688 04e0 D3E96A23 	 ldrd r2,[r3,#424]
 689 04e4 0121     	 movs r1,#1
 690 04e6 0E46     	 mov r6,r1
 691 04e8 2046     	 mov r0,r4
 692 04ea 2946     	 mov r1,r5
 693 04ec FFF7FEFF 	 bl __aeabi_dcmplt
 694 04f0 0346     	 mov r3,r0
 695 04f2 002B     	 cmp r3,#0
 696 04f4 01D1     	 bne .L29
 697 04f6 0023     	 movs r3,#0
 698 04f8 1E46     	 mov r6,r3
 699              	.L29:
 700 04fa F3B2     	 uxtb r3,r6
 701 04fc 1A46     	 mov r2,r3
 702 04fe 504B     	 ldr r3,.L261+16
 703 0500 83F83E27 	 strb r2,[r3,#1854]
 217:../Simulink/Subsystem_Transmission.c **** 
 218:../Simulink/Subsystem_Transmission.c ****     /* UnitDelay: '<S145>/Unit Delay' */
 219:../Simulink/Subsystem_Transmission.c ****     VCU_B.UnitDelay_b = VCU_DW.UnitDelay_DSTATE_g;
 704              	 .loc 1 219 0
 705 0504 4F4B     	 ldr r3,.L261+20
 706 0506 93F8F420 	 ldrb r2,[r3,#244]
 707 050a 4D4B     	 ldr r3,.L261+16
 708 050c 83F83F27 	 strb r2,[r3,#1855]
 220:../Simulink/Subsystem_Transmission.c **** 
 221:../Simulink/Subsystem_Transmission.c ****     /* UnitDelay: '<S144>/Unit Delay2' */
 222:../Simulink/Subsystem_Transmission.c ****     VCU_B.Timeout_p = VCU_DW.UnitDelay2_DSTATE_k;
 709              	 .loc 1 222 0
 710 0510 4C4B     	 ldr r3,.L261+20
 711 0512 93F8F520 	 ldrb r2,[r3,#245]
 712 0516 4A4B     	 ldr r3,.L261+16
 713 0518 83F84027 	 strb r2,[r3,#1856]
 223:../Simulink/Subsystem_Transmission.c **** 
 224:../Simulink/Subsystem_Transmission.c ****     /* RelationalOperator: '<S166>/Compare' incorporates:
 225:../Simulink/Subsystem_Transmission.c ****      *  Constant: '<S166>/Constant'
 226:../Simulink/Subsystem_Transmission.c ****      */
 227:../Simulink/Subsystem_Transmission.c ****     VCU_B.Compare_jn = (VCU_B.DataTypeConversion2 > 5000.0);
 714              	 .loc 1 227 0
 715 051c 484B     	 ldr r3,.L261+16
 716 051e 03F59063 	 add r3,r3,#1152
 717 0522 D3E90023 	 ldrd r2,[r3]
 718 0526 0121     	 movs r1,#1
 719 0528 0C46     	 mov r4,r1
 720 052a 1046     	 mov r0,r2
 721 052c 1946     	 mov r1,r3
 722 052e 40A3     	 adr r3,.L261
 723 0530 D3E90023 	 ldrd r2,[r3]
 724 0534 FFF7FEFF 	 bl __aeabi_dcmpgt
 725 0538 0346     	 mov r3,r0
 726 053a 002B     	 cmp r3,#0
 727 053c 01D1     	 bne .L30
 728 053e 0023     	 movs r3,#0
 729 0540 1C46     	 mov r4,r3
 730              	.L30:
 731 0542 E3B2     	 uxtb r3,r4
 732 0544 1A46     	 mov r2,r3
 733 0546 3E4B     	 ldr r3,.L261+16
 734 0548 83F84127 	 strb r2,[r3,#1857]
 228:../Simulink/Subsystem_Transmission.c **** 
 229:../Simulink/Subsystem_Transmission.c ****     /* RelationalOperator: '<S167>/Compare' incorporates:
 230:../Simulink/Subsystem_Transmission.c ****      *  Constant: '<S167>/Constant'
 231:../Simulink/Subsystem_Transmission.c ****      */
 232:../Simulink/Subsystem_Transmission.c ****     VCU_B.Compare_lh = (VCU_B.Add_fn == 2);
 735              	 .loc 1 232 0
 736 054c 3C4B     	 ldr r3,.L261+16
 737 054e 93F88936 	 ldrb r3,[r3,#1673]
 738 0552 022B     	 cmp r3,#2
 739 0554 0CBF     	 ite eq
 740 0556 0123     	 moveq r3,#1
 741 0558 0023     	 movne r3,#0
 742 055a DBB2     	 uxtb r3,r3
 743 055c 1A46     	 mov r2,r3
 744 055e 384B     	 ldr r3,.L261+16
 745 0560 83F84227 	 strb r2,[r3,#1858]
 233:../Simulink/Subsystem_Transmission.c **** 
 234:../Simulink/Subsystem_Transmission.c ****     /* Logic: '<S144>/Logical Operator1' */
 235:../Simulink/Subsystem_Transmission.c ****     VCU_B.RPMcheckgear21_f = (VCU_B.Compare_lh && VCU_B.Compare_jn);
 746              	 .loc 1 235 0
 747 0564 364B     	 ldr r3,.L261+16
 748 0566 93F84237 	 ldrb r3,[r3,#1858]
 749 056a 002B     	 cmp r3,#0
 750 056c 06D0     	 beq .L31
 751              	 .loc 1 235 0 is_stmt 0 discriminator 1
 752 056e 344B     	 ldr r3,.L261+16
 753 0570 93F84137 	 ldrb r3,[r3,#1857]
 754 0574 002B     	 cmp r3,#0
 755 0576 01D0     	 beq .L31
 756              	 .loc 1 235 0 discriminator 3
 757 0578 0123     	 movs r3,#1
 758 057a 00E0     	 b .L32
 759              	.L31:
 760              	 .loc 1 235 0 discriminator 4
 761 057c 0023     	 movs r3,#0
 762              	.L32:
 763              	 .loc 1 235 0 discriminator 6
 764 057e DAB2     	 uxtb r2,r3
 765 0580 2F4B     	 ldr r3,.L261+16
 766 0582 83F84327 	 strb r2,[r3,#1859]
 236:../Simulink/Subsystem_Transmission.c **** 
 237:../Simulink/Subsystem_Transmission.c ****     /* RelationalOperator: '<S168>/Compare' incorporates:
 238:../Simulink/Subsystem_Transmission.c ****      *  Constant: '<S168>/Constant'
 239:../Simulink/Subsystem_Transmission.c ****      */
 240:../Simulink/Subsystem_Transmission.c ****     VCU_B.Compare_gw = (VCU_B.DataTypeConversion2 > 5300.0);
 767              	 .loc 1 240 0 is_stmt 1 discriminator 6
 768 0586 2E4B     	 ldr r3,.L261+16
 769 0588 03F59063 	 add r3,r3,#1152
 770 058c D3E90023 	 ldrd r2,[r3]
 771 0590 0121     	 movs r1,#1
 772 0592 0C46     	 mov r4,r1
 773 0594 1046     	 mov r0,r2
 774 0596 1946     	 mov r1,r3
 775 0598 27A3     	 adr r3,.L261+8
 776 059a D3E90023 	 ldrd r2,[r3]
 777 059e FFF7FEFF 	 bl __aeabi_dcmpgt
 778 05a2 0346     	 mov r3,r0
 779 05a4 002B     	 cmp r3,#0
 780 05a6 01D1     	 bne .L33
 781 05a8 0023     	 movs r3,#0
 782 05aa 1C46     	 mov r4,r3
 783              	.L33:
 784 05ac E3B2     	 uxtb r3,r4
 785 05ae 1A46     	 mov r2,r3
 786 05b0 234B     	 ldr r3,.L261+16
 787 05b2 83F84427 	 strb r2,[r3,#1860]
 241:../Simulink/Subsystem_Transmission.c **** 
 242:../Simulink/Subsystem_Transmission.c ****     /* RelationalOperator: '<S169>/Compare' incorporates:
 243:../Simulink/Subsystem_Transmission.c ****      *  Constant: '<S169>/Constant'
 244:../Simulink/Subsystem_Transmission.c ****      */
 245:../Simulink/Subsystem_Transmission.c ****     VCU_B.Compare_aq = (VCU_B.Add_fn == 3);
 788              	 .loc 1 245 0 discriminator 6
 789 05b6 224B     	 ldr r3,.L261+16
 790 05b8 93F88936 	 ldrb r3,[r3,#1673]
 791 05bc 032B     	 cmp r3,#3
 792 05be 0CBF     	 ite eq
 793 05c0 0123     	 moveq r3,#1
 794 05c2 0023     	 movne r3,#0
 795 05c4 DBB2     	 uxtb r3,r3
 796 05c6 1A46     	 mov r2,r3
 797 05c8 1D4B     	 ldr r3,.L261+16
 798 05ca 83F84527 	 strb r2,[r3,#1861]
 246:../Simulink/Subsystem_Transmission.c **** 
 247:../Simulink/Subsystem_Transmission.c ****     /* Logic: '<S144>/Logical Operator2' */
 248:../Simulink/Subsystem_Transmission.c ****     VCU_B.RPMcheckgear31_d = (VCU_B.Compare_gw && VCU_B.Compare_aq);
 799              	 .loc 1 248 0 discriminator 6
 800 05ce 1C4B     	 ldr r3,.L261+16
 801 05d0 93F84437 	 ldrb r3,[r3,#1860]
 802 05d4 002B     	 cmp r3,#0
 803 05d6 06D0     	 beq .L34
 804              	 .loc 1 248 0 is_stmt 0 discriminator 1
 805 05d8 194B     	 ldr r3,.L261+16
 806 05da 93F84537 	 ldrb r3,[r3,#1861]
 807 05de 002B     	 cmp r3,#0
 808 05e0 01D0     	 beq .L34
 809              	 .loc 1 248 0 discriminator 3
 810 05e2 0123     	 movs r3,#1
 811 05e4 00E0     	 b .L35
 812              	.L34:
 813              	 .loc 1 248 0 discriminator 4
 814 05e6 0023     	 movs r3,#0
 815              	.L35:
 816              	 .loc 1 248 0 discriminator 6
 817 05e8 DAB2     	 uxtb r2,r3
 818 05ea 154B     	 ldr r3,.L261+16
 819 05ec 83F84627 	 strb r2,[r3,#1862]
 249:../Simulink/Subsystem_Transmission.c **** 
 250:../Simulink/Subsystem_Transmission.c ****     /* CombinatorialLogic: '<S173>/Logic' incorporates:
 251:../Simulink/Subsystem_Transmission.c ****      *  Logic: '<S144>/Logical Operator'
 252:../Simulink/Subsystem_Transmission.c ****      *  Memory: '<S173>/Memory'
 253:../Simulink/Subsystem_Transmission.c ****      */
 254:../Simulink/Subsystem_Transmission.c ****     VCU_B.LogicalOperator_n = (VCU_B.UnitDelay4_h || VCU_B.LessthanNeutral_j ||
 820              	 .loc 1 254 0 is_stmt 1 discriminator 6
 821 05f0 134B     	 ldr r3,.L261+16
 822 05f2 93F83937 	 ldrb r3,[r3,#1849]
 255:../Simulink/Subsystem_Transmission.c ****       VCU_B.UnitDelay_b || VCU_B.Timeout_p || VCU_B.RPMcheckgear21_f ||
 823              	 .loc 1 255 0 discriminator 6
 824 05f6 002B     	 cmp r3,#0
 825 05f8 18D1     	 bne .L36
 254:../Simulink/Subsystem_Transmission.c ****       VCU_B.UnitDelay_b || VCU_B.Timeout_p || VCU_B.RPMcheckgear21_f ||
 826              	 .loc 1 254 0
 827 05fa 114B     	 ldr r3,.L261+16
 828 05fc 93F83E37 	 ldrb r3,[r3,#1854]
 829 0600 002B     	 cmp r3,#0
 830 0602 13D1     	 bne .L36
 831              	 .loc 1 255 0 discriminator 1
 832 0604 0E4B     	 ldr r3,.L261+16
 833 0606 93F83F37 	 ldrb r3,[r3,#1855]
 254:../Simulink/Subsystem_Transmission.c ****       VCU_B.UnitDelay_b || VCU_B.Timeout_p || VCU_B.RPMcheckgear21_f ||
 834              	 .loc 1 254 0 discriminator 1
 835 060a 002B     	 cmp r3,#0
 836 060c 0ED1     	 bne .L36
 837              	 .loc 1 255 0 discriminator 2
 838 060e 0C4B     	 ldr r3,.L261+16
 839 0610 93F84037 	 ldrb r3,[r3,#1856]
 840 0614 002B     	 cmp r3,#0
 841 0616 09D1     	 bne .L36
 842              	 .loc 1 255 0 is_stmt 0 discriminator 3
 843 0618 094B     	 ldr r3,.L261+16
 844 061a 93F84337 	 ldrb r3,[r3,#1859]
 845 061e 002B     	 cmp r3,#0
 846 0620 04D1     	 bne .L36
 256:../Simulink/Subsystem_Transmission.c ****       VCU_B.RPMcheckgear31_d);
 847              	 .loc 1 256 0 is_stmt 1 discriminator 5
 848 0622 074B     	 ldr r3,.L261+16
 849 0624 93F84637 	 ldrb r3,[r3,#1862]
 255:../Simulink/Subsystem_Transmission.c ****       VCU_B.UnitDelay_b || VCU_B.Timeout_p || VCU_B.RPMcheckgear21_f ||
 850              	 .loc 1 255 0 discriminator 5
 851 0628 002B     	 cmp r3,#0
 852 062a 0DD0     	 beq .L37
 853              	.L36:
 255:../Simulink/Subsystem_Transmission.c ****       VCU_B.UnitDelay_b || VCU_B.Timeout_p || VCU_B.RPMcheckgear21_f ||
 854              	 .loc 1 255 0 is_stmt 0 discriminator 6
 855 062c 0123     	 movs r3,#1
 856 062e 0CE0     	 b .L38
 857              	.L262:
 858              	 .align 3
 859              	.L261:
 860 0630 00000000 	 .word 0
 861 0634 0088B340 	 .word 1085507584
 862 0638 00000000 	 .word 0
 863 063c 00B4B440 	 .word 1085584384
 864 0640 00000000 	 .word VCU_B
 865 0644 00000000 	 .word VCU_DW
 866              	.L37:
 255:../Simulink/Subsystem_Transmission.c ****       VCU_B.UnitDelay_b || VCU_B.Timeout_p || VCU_B.RPMcheckgear21_f ||
 867              	 .loc 1 255 0 discriminator 7
 868 0648 0023     	 movs r3,#0
 869              	.L38:
 254:../Simulink/Subsystem_Transmission.c ****       VCU_B.UnitDelay_b || VCU_B.Timeout_p || VCU_B.RPMcheckgear21_f ||
 870              	 .loc 1 254 0 is_stmt 1
 871 064a DAB2     	 uxtb r2,r3
 872 064c B44B     	 ldr r3,.L263+16
 873 064e 83F84727 	 strb r2,[r3,#1863]
 257:../Simulink/Subsystem_Transmission.c ****     VCU_B.Memory_c5 = VCU_DW.Memory_PreviousInput_jz;
 874              	 .loc 1 257 0
 875 0652 B44B     	 ldr r3,.L263+20
 876 0654 93F84221 	 ldrb r2,[r3,#322]
 877 0658 B14B     	 ldr r3,.L263+16
 878 065a 83F84827 	 strb r2,[r3,#1864]
 258:../Simulink/Subsystem_Transmission.c ****     tmp = VCU_B.Logic_c[0];
 879              	 .loc 1 258 0
 880 065e B04B     	 ldr r3,.L263+16
 881 0660 93F83737 	 ldrb r3,[r3,#1847]
 882 0664 FB71     	 strb r3,[r7,#7]
 259:../Simulink/Subsystem_Transmission.c ****     rowIdx = tmp;
 883              	 .loc 1 259 0
 884 0666 FB79     	 ldrb r3,[r7,#7]
 885 0668 7B61     	 str r3,[r7,#20]
 260:../Simulink/Subsystem_Transmission.c ****     rowIdx = (int32_T)(((uint32_T)rowIdx << 1) + VCU_B.LogicalOperator_n);
 886              	 .loc 1 260 0
 887 066a 7B69     	 ldr r3,[r7,#20]
 888 066c 5B00     	 lsls r3,r3,#1
 889 066e AC4A     	 ldr r2,.L263+16
 890 0670 92F84727 	 ldrb r2,[r2,#1863]
 891 0674 1344     	 add r3,r3,r2
 892 0676 7B61     	 str r3,[r7,#20]
 261:../Simulink/Subsystem_Transmission.c ****     rowIdx = (int32_T)(((uint32_T)rowIdx << 1) + VCU_B.Memory_c5);
 893              	 .loc 1 261 0
 894 0678 7B69     	 ldr r3,[r7,#20]
 895 067a 5B00     	 lsls r3,r3,#1
 896 067c A84A     	 ldr r2,.L263+16
 897 067e 92F84827 	 ldrb r2,[r2,#1864]
 898 0682 1344     	 add r3,r3,r2
 899 0684 7B61     	 str r3,[r7,#20]
 262:../Simulink/Subsystem_Transmission.c ****     VCU_B.Logic_j[0U] = VCU_ConstP.pooled37[(uint32_T)rowIdx];
 900              	 .loc 1 262 0
 901 0686 7B69     	 ldr r3,[r7,#20]
 902 0688 A74A     	 ldr r2,.L263+24
 903 068a 1344     	 add r3,r3,r2
 904 068c 93F83023 	 ldrb r2,[r3,#816]
 905 0690 A34B     	 ldr r3,.L263+16
 906 0692 83F84927 	 strb r2,[r3,#1865]
 263:../Simulink/Subsystem_Transmission.c ****     VCU_B.Logic_j[1U] = VCU_ConstP.pooled37[rowIdx + 8U];
 907              	 .loc 1 263 0
 908 0696 7B69     	 ldr r3,[r7,#20]
 909 0698 0833     	 adds r3,r3,#8
 910 069a A34A     	 ldr r2,.L263+24
 911 069c 1344     	 add r3,r3,r2
 912 069e 93F83023 	 ldrb r2,[r3,#816]
 913 06a2 9F4B     	 ldr r3,.L263+16
 914 06a4 83F84A27 	 strb r2,[r3,#1866]
 264:../Simulink/Subsystem_Transmission.c **** 
 265:../Simulink/Subsystem_Transmission.c ****     /* Sum: '<S185>/Add' */
 266:../Simulink/Subsystem_Transmission.c ****     VCU_B.Add_b = VCU_B.Add1_k + VCU_B.Add1_de;
 915              	 .loc 1 266 0
 916 06a8 9D4B     	 ldr r3,.L263+16
 917 06aa 03F58963 	 add r3,r3,#1096
 918 06ae D3E90001 	 ldrd r0,[r3]
 919 06b2 9B4B     	 ldr r3,.L263+16
 920 06b4 03F58A63 	 add r3,r3,#1104
 921 06b8 D3E90023 	 ldrd r2,[r3]
 922 06bc FFF7FEFF 	 bl __aeabi_dadd
 923 06c0 0246     	 mov r2,r0
 924 06c2 0B46     	 mov r3,r1
 925 06c4 9649     	 ldr r1,.L263+16
 926 06c6 C1E96C23 	 strd r2,[r1,#432]
 267:../Simulink/Subsystem_Transmission.c **** 
 268:../Simulink/Subsystem_Transmission.c ****     /* Gain: '<S185>/Gain' */
 269:../Simulink/Subsystem_Transmission.c ****     VCU_B.v_Veh = 0.5 * VCU_B.Add_b;
 927              	 .loc 1 269 0
 928 06ca 954B     	 ldr r3,.L263+16
 929 06cc D3E96C23 	 ldrd r2,[r3,#432]
 930 06d0 1046     	 mov r0,r2
 931 06d2 1946     	 mov r1,r3
 932 06d4 4FF00002 	 mov r2,#0
 933 06d8 944B     	 ldr r3,.L263+28
 934 06da FFF7FEFF 	 bl __aeabi_dmul
 935 06de 0246     	 mov r2,r0
 936 06e0 0B46     	 mov r3,r1
 937 06e2 8F49     	 ldr r1,.L263+16
 938 06e4 C1E96E23 	 strd r2,[r1,#440]
 270:../Simulink/Subsystem_Transmission.c **** 
 271:../Simulink/Subsystem_Transmission.c ****     /* RelationalOperator: '<S185>/Relational Operator' incorporates:
 272:../Simulink/Subsystem_Transmission.c ****      *  Constant: '<S185>/Const_vVeh_Threshold'
 273:../Simulink/Subsystem_Transmission.c ****      */
 274:../Simulink/Subsystem_Transmission.c ****     VCU_B.RelationalOperator_h = (VCU_B.v_Veh > 15.0);
 939              	 .loc 1 274 0
 940 06e8 8D4B     	 ldr r3,.L263+16
 941 06ea D3E96E23 	 ldrd r2,[r3,#440]
 942 06ee 0121     	 movs r1,#1
 943 06f0 0C46     	 mov r4,r1
 944 06f2 1046     	 mov r0,r2
 945 06f4 1946     	 mov r1,r3
 946 06f6 4FF00002 	 mov r2,#0
 947 06fa 8D4B     	 ldr r3,.L263+32
 948 06fc FFF7FEFF 	 bl __aeabi_dcmpgt
 949 0700 0346     	 mov r3,r0
 950 0702 002B     	 cmp r3,#0
 951 0704 01D1     	 bne .L39
 952 0706 0023     	 movs r3,#0
 953 0708 1C46     	 mov r4,r3
 954              	.L39:
 955 070a E3B2     	 uxtb r3,r4
 956 070c 1A46     	 mov r2,r3
 957 070e 844B     	 ldr r3,.L263+16
 958 0710 83F84B27 	 strb r2,[r3,#1867]
 275:../Simulink/Subsystem_Transmission.c **** 
 276:../Simulink/Subsystem_Transmission.c ****     /* Gain: '<S184>/Gain' */
 277:../Simulink/Subsystem_Transmission.c ****     VCU_B.Gain_a = 2.0 * VCU_B.DataTypeConversion1;
 959              	 .loc 1 277 0
 960 0714 824B     	 ldr r3,.L263+16
 961 0716 03F58F63 	 add r3,r3,#1144
 962 071a D3E90023 	 ldrd r2,[r3]
 963 071e 1046     	 mov r0,r2
 964 0720 1946     	 mov r1,r3
 965 0722 FFF7FEFF 	 bl __aeabi_dadd
 966 0726 0246     	 mov r2,r0
 967 0728 0B46     	 mov r3,r1
 968 072a 7D49     	 ldr r1,.L263+16
 969 072c C1E97023 	 strd r2,[r1,#448]
 278:../Simulink/Subsystem_Transmission.c **** 
 279:../Simulink/Subsystem_Transmission.c ****     /* RelationalOperator: '<S184>/Relational Operator' incorporates:
 280:../Simulink/Subsystem_Transmission.c ****      *  Constant: '<S184>/Constant'
 281:../Simulink/Subsystem_Transmission.c ****      */
 282:../Simulink/Subsystem_Transmission.c ****     VCU_B.RelationalOperator_p = (VCU_B.Gain_a > 169.0);
 970              	 .loc 1 282 0
 971 0730 7B4B     	 ldr r3,.L263+16
 972 0732 D3E97023 	 ldrd r2,[r3,#448]
 973 0736 0121     	 movs r1,#1
 974 0738 0C46     	 mov r4,r1
 975 073a 1046     	 mov r0,r2
 976 073c 1946     	 mov r1,r3
 977 073e 74A3     	 adr r3,.L263
 978 0740 D3E90023 	 ldrd r2,[r3]
 979 0744 FFF7FEFF 	 bl __aeabi_dcmpgt
 980 0748 0346     	 mov r3,r0
 981 074a 002B     	 cmp r3,#0
 982 074c 01D1     	 bne .L40
 983 074e 0023     	 movs r3,#0
 984 0750 1C46     	 mov r4,r3
 985              	.L40:
 986 0752 E3B2     	 uxtb r3,r4
 987 0754 1A46     	 mov r2,r3
 988 0756 724B     	 ldr r3,.L263+16
 989 0758 83F84C27 	 strb r2,[r3,#1868]
 283:../Simulink/Subsystem_Transmission.c **** 
 284:../Simulink/Subsystem_Transmission.c ****     /* RelationalOperator: '<S184>/Relational Operator1' incorporates:
 285:../Simulink/Subsystem_Transmission.c ****      *  Constant: '<S184>/Constant1'
 286:../Simulink/Subsystem_Transmission.c ****      */
 287:../Simulink/Subsystem_Transmission.c ****     VCU_B.RelationalOperator1_l = (VCU_B.Gain_a > 269.0);
 990              	 .loc 1 287 0
 991 075c 704B     	 ldr r3,.L263+16
 992 075e D3E97023 	 ldrd r2,[r3,#448]
 993 0762 0121     	 movs r1,#1
 994 0764 0C46     	 mov r4,r1
 995 0766 1046     	 mov r0,r2
 996 0768 1946     	 mov r1,r3
 997 076a 6BA3     	 adr r3,.L263+8
 998 076c D3E90023 	 ldrd r2,[r3]
 999 0770 FFF7FEFF 	 bl __aeabi_dcmpgt
 1000 0774 0346     	 mov r3,r0
 1001 0776 002B     	 cmp r3,#0
 1002 0778 01D1     	 bne .L41
 1003 077a 0023     	 movs r3,#0
 1004 077c 1C46     	 mov r4,r3
 1005              	.L41:
 1006 077e E3B2     	 uxtb r3,r4
 1007 0780 1A46     	 mov r2,r3
 1008 0782 674B     	 ldr r3,.L263+16
 1009 0784 83F84D27 	 strb r2,[r3,#1869]
 288:../Simulink/Subsystem_Transmission.c **** 
 289:../Simulink/Subsystem_Transmission.c ****     /* RelationalOperator: '<S184>/Relational Operator2' incorporates:
 290:../Simulink/Subsystem_Transmission.c ****      *  Constant: '<S184>/Constant2'
 291:../Simulink/Subsystem_Transmission.c ****      */
 292:../Simulink/Subsystem_Transmission.c ****     VCU_B.RelationalOperator2_l = (VCU_B.Gain_a > 360.0);
 1010              	 .loc 1 292 0
 1011 0788 654B     	 ldr r3,.L263+16
 1012 078a D3E97023 	 ldrd r2,[r3,#448]
 1013 078e 0121     	 movs r1,#1
 1014 0790 0C46     	 mov r4,r1
 1015 0792 1046     	 mov r0,r2
 1016 0794 1946     	 mov r1,r3
 1017 0796 4FF00002 	 mov r2,#0
 1018 079a 664B     	 ldr r3,.L263+36
 1019 079c FFF7FEFF 	 bl __aeabi_dcmpgt
 1020 07a0 0346     	 mov r3,r0
 1021 07a2 002B     	 cmp r3,#0
 1022 07a4 01D1     	 bne .L42
 1023 07a6 0023     	 movs r3,#0
 1024 07a8 1C46     	 mov r4,r3
 1025              	.L42:
 1026 07aa E3B2     	 uxtb r3,r4
 1027 07ac 1A46     	 mov r2,r3
 1028 07ae 5C4B     	 ldr r3,.L263+16
 1029 07b0 83F84E27 	 strb r2,[r3,#1870]
 293:../Simulink/Subsystem_Transmission.c **** 
 294:../Simulink/Subsystem_Transmission.c ****     /* Sum: '<S184>/Add' */
 295:../Simulink/Subsystem_Transmission.c ****     VCU_B.Add_ax = (uint8_T)(((uint32_T)VCU_B.RelationalOperator_p +
 1030              	 .loc 1 295 0
 1031 07b4 5A4B     	 ldr r3,.L263+16
 1032 07b6 93F84C27 	 ldrb r2,[r3,#1868]
 296:../Simulink/Subsystem_Transmission.c ****       VCU_B.RelationalOperator1_l) + VCU_B.RelationalOperator2_l);
 1033              	 .loc 1 296 0
 1034 07ba 594B     	 ldr r3,.L263+16
 1035 07bc 93F84D37 	 ldrb r3,[r3,#1869]
 295:../Simulink/Subsystem_Transmission.c ****       VCU_B.RelationalOperator1_l) + VCU_B.RelationalOperator2_l);
 1036              	 .loc 1 295 0
 1037 07c0 1344     	 add r3,r3,r2
 1038 07c2 DAB2     	 uxtb r2,r3
 1039              	 .loc 1 296 0
 1040 07c4 564B     	 ldr r3,.L263+16
 1041 07c6 93F84E37 	 ldrb r3,[r3,#1870]
 295:../Simulink/Subsystem_Transmission.c ****       VCU_B.RelationalOperator1_l) + VCU_B.RelationalOperator2_l);
 1042              	 .loc 1 295 0
 1043 07ca 1344     	 add r3,r3,r2
 1044 07cc DAB2     	 uxtb r2,r3
 1045 07ce 544B     	 ldr r3,.L263+16
 1046 07d0 83F88A26 	 strb r2,[r3,#1674]
 297:../Simulink/Subsystem_Transmission.c **** 
 298:../Simulink/Subsystem_Transmission.c ****     /* RelationalOperator: '<S186>/Compare' incorporates:
 299:../Simulink/Subsystem_Transmission.c ****      *  Constant: '<S186>/Constant'
 300:../Simulink/Subsystem_Transmission.c ****      */
 301:../Simulink/Subsystem_Transmission.c ****     VCU_B.Compare_k = (VCU_B.Add_ax == 2);
 1047              	 .loc 1 301 0
 1048 07d4 524B     	 ldr r3,.L263+16
 1049 07d6 93F88A36 	 ldrb r3,[r3,#1674]
 1050 07da 022B     	 cmp r3,#2
 1051 07dc 0CBF     	 ite eq
 1052 07de 0123     	 moveq r3,#1
 1053 07e0 0023     	 movne r3,#0
 1054 07e2 DBB2     	 uxtb r3,r3
 1055 07e4 1A46     	 mov r2,r3
 1056 07e6 4E4B     	 ldr r3,.L263+16
 1057 07e8 83F84F27 	 strb r2,[r3,#1871]
 302:../Simulink/Subsystem_Transmission.c **** 
 303:../Simulink/Subsystem_Transmission.c ****     /* Logic: '<S185>/Logical Operator3' */
 304:../Simulink/Subsystem_Transmission.c ****     VCU_B.LogicalOperator3_n = (VCU_B.RelationalOperator_h && VCU_B.Compare_k);
 1058              	 .loc 1 304 0
 1059 07ec 4C4B     	 ldr r3,.L263+16
 1060 07ee 93F84B37 	 ldrb r3,[r3,#1867]
 1061 07f2 002B     	 cmp r3,#0
 1062 07f4 06D0     	 beq .L43
 1063              	 .loc 1 304 0 is_stmt 0 discriminator 1
 1064 07f6 4A4B     	 ldr r3,.L263+16
 1065 07f8 93F84F37 	 ldrb r3,[r3,#1871]
 1066 07fc 002B     	 cmp r3,#0
 1067 07fe 01D0     	 beq .L43
 1068              	 .loc 1 304 0 discriminator 3
 1069 0800 0123     	 movs r3,#1
 1070 0802 00E0     	 b .L44
 1071              	.L43:
 1072              	 .loc 1 304 0 discriminator 4
 1073 0804 0023     	 movs r3,#0
 1074              	.L44:
 1075              	 .loc 1 304 0 discriminator 6
 1076 0806 DAB2     	 uxtb r2,r3
 1077 0808 454B     	 ldr r3,.L263+16
 1078 080a 83F85027 	 strb r2,[r3,#1872]
 305:../Simulink/Subsystem_Transmission.c **** 
 306:../Simulink/Subsystem_Transmission.c ****     /* UnitDelay: '<S187>/Delay Input1'
 307:../Simulink/Subsystem_Transmission.c ****      *
 308:../Simulink/Subsystem_Transmission.c ****      * Block description for '<S187>/Delay Input1':
 309:../Simulink/Subsystem_Transmission.c ****      *
 310:../Simulink/Subsystem_Transmission.c ****      *  Store in Global RAM
 311:../Simulink/Subsystem_Transmission.c ****      */
 312:../Simulink/Subsystem_Transmission.c ****     VCU_B.Uk1_ii = VCU_DW.DelayInput1_DSTATE_m5;
 1079              	 .loc 1 312 0 is_stmt 1 discriminator 6
 1080 080e 454B     	 ldr r3,.L263+20
 1081 0810 93F8F620 	 ldrb r2,[r3,#246]
 1082 0814 424B     	 ldr r3,.L263+16
 1083 0816 83F85127 	 strb r2,[r3,#1873]
 313:../Simulink/Subsystem_Transmission.c **** 
 314:../Simulink/Subsystem_Transmission.c ****     /* CombinatorialLogic: '<S188>/Logic' incorporates:
 315:../Simulink/Subsystem_Transmission.c ****      *  RelationalOperator: '<S187>/FixPt Relational Operator'
 316:../Simulink/Subsystem_Transmission.c ****      */
 317:../Simulink/Subsystem_Transmission.c ****     VCU_B.FixPtRelationalOperator_dz = ((int32_T)VCU_B.LogicalOperator3_n >
 1084              	 .loc 1 317 0 discriminator 6
 1085 081a 414B     	 ldr r3,.L263+16
 1086 081c 93F85027 	 ldrb r2,[r3,#1872]
 318:../Simulink/Subsystem_Transmission.c ****       (int32_T)VCU_B.Uk1_ii);
 1087              	 .loc 1 318 0 discriminator 6
 1088 0820 3F4B     	 ldr r3,.L263+16
 1089 0822 93F85137 	 ldrb r3,[r3,#1873]
 317:../Simulink/Subsystem_Transmission.c ****       (int32_T)VCU_B.Uk1_ii);
 1090              	 .loc 1 317 0 discriminator 6
 1091 0826 9A42     	 cmp r2,r3
 1092 0828 8CBF     	 ite hi
 1093 082a 0123     	 movhi r3,#1
 1094 082c 0023     	 movls r3,#0
 1095 082e DBB2     	 uxtb r3,r3
 1096 0830 1A46     	 mov r2,r3
 1097 0832 3B4B     	 ldr r3,.L263+16
 1098 0834 83F85227 	 strb r2,[r3,#1874]
 319:../Simulink/Subsystem_Transmission.c **** 
 320:../Simulink/Subsystem_Transmission.c ****     /* Logic: '<S185>/Logical Operator' */
 321:../Simulink/Subsystem_Transmission.c ****     VCU_B.LogicalOperator_g = !VCU_B.Compare_k;
 1099              	 .loc 1 321 0 discriminator 6
 1100 0838 394B     	 ldr r3,.L263+16
 1101 083a 93F84F37 	 ldrb r3,[r3,#1871]
 1102 083e 002B     	 cmp r3,#0
 1103 0840 0CBF     	 ite eq
 1104 0842 0123     	 moveq r3,#1
 1105 0844 0023     	 movne r3,#0
 1106 0846 DBB2     	 uxtb r3,r3
 1107 0848 1A46     	 mov r2,r3
 1108 084a 354B     	 ldr r3,.L263+16
 1109 084c 83F85327 	 strb r2,[r3,#1875]
 322:../Simulink/Subsystem_Transmission.c **** 
 323:../Simulink/Subsystem_Transmission.c ****     /* UnitDelay: '<S180>/Delay Input1'
 324:../Simulink/Subsystem_Transmission.c ****      *
 325:../Simulink/Subsystem_Transmission.c ****      * Block description for '<S180>/Delay Input1':
 326:../Simulink/Subsystem_Transmission.c ****      *
 327:../Simulink/Subsystem_Transmission.c ****      *  Store in Global RAM
 328:../Simulink/Subsystem_Transmission.c ****      */
 329:../Simulink/Subsystem_Transmission.c ****     VCU_B.Uk1_p = VCU_DW.DelayInput1_DSTATE_m;
 1110              	 .loc 1 329 0 discriminator 6
 1111 0850 344B     	 ldr r3,.L263+20
 1112 0852 93F8BF20 	 ldrb r2,[r3,#191]
 1113 0856 324B     	 ldr r3,.L263+16
 1114 0858 83F88B26 	 strb r2,[r3,#1675]
 330:../Simulink/Subsystem_Transmission.c **** 
 331:../Simulink/Subsystem_Transmission.c ****     /* RelationalOperator: '<S180>/FixPt Relational Operator' */
 332:../Simulink/Subsystem_Transmission.c ****     VCU_B.FixPtRelationalOperator_j = (VCU_B.Add_ax > VCU_B.Uk1_p);
 1115              	 .loc 1 332 0 discriminator 6
 1116 085c 304B     	 ldr r3,.L263+16
 1117 085e 93F88A26 	 ldrb r2,[r3,#1674]
 1118 0862 2F4B     	 ldr r3,.L263+16
 1119 0864 93F88B36 	 ldrb r3,[r3,#1675]
 1120 0868 9A42     	 cmp r2,r3
 1121 086a 8CBF     	 ite hi
 1122 086c 0123     	 movhi r3,#1
 1123 086e 0023     	 movls r3,#0
 1124 0870 DBB2     	 uxtb r3,r3
 1125 0872 1A46     	 mov r2,r3
 1126 0874 2A4B     	 ldr r3,.L263+16
 1127 0876 83F85427 	 strb r2,[r3,#1876]
 333:../Simulink/Subsystem_Transmission.c **** 
 334:../Simulink/Subsystem_Transmission.c ****     /* RelationalOperator: '<S176>/Compare' incorporates:
 335:../Simulink/Subsystem_Transmission.c ****      *  Constant: '<S176>/Constant'
 336:../Simulink/Subsystem_Transmission.c ****      */
 337:../Simulink/Subsystem_Transmission.c ****     VCU_B.Compare_j0 = (VCU_B.Add_ax >= 3);
 1128              	 .loc 1 337 0 discriminator 6
 1129 087a 294B     	 ldr r3,.L263+16
 1130 087c 93F88A36 	 ldrb r3,[r3,#1674]
 1131 0880 022B     	 cmp r3,#2
 1132 0882 8CBF     	 ite hi
 1133 0884 0123     	 movhi r3,#1
 1134 0886 0023     	 movls r3,#0
 1135 0888 DBB2     	 uxtb r3,r3
 1136 088a 1A46     	 mov r2,r3
 1137 088c 244B     	 ldr r3,.L263+16
 1138 088e 83F85527 	 strb r2,[r3,#1877]
 338:../Simulink/Subsystem_Transmission.c **** 
 339:../Simulink/Subsystem_Transmission.c ****     /* UnitDelay: '<S144>/Unit Delay' */
 340:../Simulink/Subsystem_Transmission.c ****     VCU_B.UnitDelay_g = VCU_DW.UnitDelay_DSTATE_n;
 1139              	 .loc 1 340 0 discriminator 6
 1140 0892 244B     	 ldr r3,.L263+20
 1141 0894 93F8F720 	 ldrb r2,[r3,#247]
 1142 0898 214B     	 ldr r3,.L263+16
 1143 089a 83F85627 	 strb r2,[r3,#1878]
 341:../Simulink/Subsystem_Transmission.c **** 
 342:../Simulink/Subsystem_Transmission.c ****     /* UnitDelay: '<S145>/Unit Delay1' */
 343:../Simulink/Subsystem_Transmission.c ****     VCU_B.Timeout_px = VCU_DW.UnitDelay1_DSTATE_l;
 1144              	 .loc 1 343 0 discriminator 6
 1145 089e 214B     	 ldr r3,.L263+20
 1146 08a0 93F8F820 	 ldrb r2,[r3,#248]
 1147 08a4 1E4B     	 ldr r3,.L263+16
 1148 08a6 83F85727 	 strb r2,[r3,#1879]
 344:../Simulink/Subsystem_Transmission.c **** 
 345:../Simulink/Subsystem_Transmission.c ****     /* RelationalOperator: '<S178>/Compare' incorporates:
 346:../Simulink/Subsystem_Transmission.c ****      *  Constant: '<S178>/Constant'
 347:../Simulink/Subsystem_Transmission.c ****      */
 348:../Simulink/Subsystem_Transmission.c ****     VCU_B.Compare_d = (VCU_B.Add_ax == 0);
 1149              	 .loc 1 348 0 discriminator 6
 1150 08aa 1D4B     	 ldr r3,.L263+16
 1151 08ac 93F88A36 	 ldrb r3,[r3,#1674]
 1152 08b0 002B     	 cmp r3,#0
 1153 08b2 0CBF     	 ite eq
 1154 08b4 0123     	 moveq r3,#1
 1155 08b6 0023     	 movne r3,#0
 1156 08b8 DBB2     	 uxtb r3,r3
 1157 08ba 1A46     	 mov r2,r3
 1158 08bc 184B     	 ldr r3,.L263+16
 1159 08be 83F85827 	 strb r2,[r3,#1880]
 349:../Simulink/Subsystem_Transmission.c **** 
 350:../Simulink/Subsystem_Transmission.c ****     /* RelationalOperator: '<S177>/Compare' incorporates:
 351:../Simulink/Subsystem_Transmission.c ****      *  Constant: '<S177>/Constant'
 352:../Simulink/Subsystem_Transmission.c ****      */
 353:../Simulink/Subsystem_Transmission.c ****     VCU_B.Compare_i = (VCU_B.x_clutch_STW < 15.0);
 1160              	 .loc 1 353 0 discriminator 6
 1161 08c2 174B     	 ldr r3,.L263+16
 1162 08c4 03F59A63 	 add r3,r3,#1232
 1163 08c8 D3E90023 	 ldrd r2,[r3]
 1164 08cc 0121     	 movs r1,#1
 1165 08ce 0C46     	 mov r4,r1
 1166 08d0 1046     	 mov r0,r2
 1167 08d2 1946     	 mov r1,r3
 1168 08d4 4FF00002 	 mov r2,#0
 1169 08d8 154B     	 ldr r3,.L263+32
 1170 08da FFF7FEFF 	 bl __aeabi_dcmplt
 1171 08de 0346     	 mov r3,r0
 1172 08e0 002B     	 cmp r3,#0
 1173 08e2 01D1     	 bne .L45
 1174 08e4 0023     	 movs r3,#0
 1175 08e6 1C46     	 mov r4,r3
 1176              	.L45:
 1177 08e8 E3B2     	 uxtb r3,r4
 1178 08ea 1A46     	 mov r2,r3
 1179 08ec 0C4B     	 ldr r3,.L263+16
 1180 08ee 83F85927 	 strb r2,[r3,#1881]
 354:../Simulink/Subsystem_Transmission.c **** 
 355:../Simulink/Subsystem_Transmission.c ****     /* Logic: '<S145>/Logical Operator1' */
 356:../Simulink/Subsystem_Transmission.c ****     VCU_B.FailSafefirstgear_n = (VCU_B.Compare_d && VCU_B.Compare_i);
 1181              	 .loc 1 356 0 discriminator 6
 1182 08f2 0B4B     	 ldr r3,.L263+16
 1183 08f4 93F85837 	 ldrb r3,[r3,#1880]
 1184 08f8 002B     	 cmp r3,#0
 1185 08fa 1DD0     	 beq .L46
 1186              	 .loc 1 356 0 is_stmt 0 discriminator 1
 1187 08fc 084B     	 ldr r3,.L263+16
 1188 08fe 93F85937 	 ldrb r3,[r3,#1881]
 1189 0902 002B     	 cmp r3,#0
 1190 0904 18D0     	 beq .L46
 1191              	 .loc 1 356 0 discriminator 3
 1192 0906 0123     	 movs r3,#1
 1193 0908 17E0     	 b .L47
 1194              	.L264:
 1195 090a 00BFAFF3 	 .align 3
 1195      0080
 1196              	.L263:
 1197 0910 00000000 	 .word 0
 1198 0914 00206540 	 .word 1080369152
 1199 0918 00000000 	 .word 0
 1200 091c 00D07040 	 .word 1081135104
 1201 0920 00000000 	 .word VCU_B
 1202 0924 00000000 	 .word VCU_DW
 1203 0928 00000000 	 .word VCU_ConstP
 1204 092c 0000E03F 	 .word 1071644672
 1205 0930 00002E40 	 .word 1076756480
 1206 0934 00807640 	 .word 1081507840
 1207              	.L46:
 1208              	 .loc 1 356 0 discriminator 4
 1209 0938 0023     	 movs r3,#0
 1210              	.L47:
 1211              	 .loc 1 356 0 discriminator 6
 1212 093a DAB2     	 uxtb r2,r3
 1213 093c B74B     	 ldr r3,.L265
 1214 093e 83F85A27 	 strb r2,[r3,#1882]
 357:../Simulink/Subsystem_Transmission.c **** 
 358:../Simulink/Subsystem_Transmission.c ****     /* CombinatorialLogic: '<S182>/Logic' incorporates:
 359:../Simulink/Subsystem_Transmission.c ****      *  Logic: '<S145>/Logical Operator'
 360:../Simulink/Subsystem_Transmission.c ****      */
 361:../Simulink/Subsystem_Transmission.c ****     VCU_B.LogicalOperator_ny = (VCU_B.FixPtRelationalOperator_j ||
 1215              	 .loc 1 361 0 is_stmt 1 discriminator 6
 1216 0942 B64B     	 ldr r3,.L265
 1217 0944 93F85437 	 ldrb r3,[r3,#1876]
 362:../Simulink/Subsystem_Transmission.c ****       VCU_B.Compare_j0 || VCU_B.UnitDelay_g || VCU_B.Timeout_px ||
 1218              	 .loc 1 362 0 discriminator 6
 1219 0948 002B     	 cmp r3,#0
 1220 094a 13D1     	 bne .L48
 1221              	 .loc 1 362 0 is_stmt 0 discriminator 2
 1222 094c B34B     	 ldr r3,.L265
 1223 094e 93F85537 	 ldrb r3,[r3,#1877]
 361:../Simulink/Subsystem_Transmission.c ****       VCU_B.Compare_j0 || VCU_B.UnitDelay_g || VCU_B.Timeout_px ||
 1224              	 .loc 1 361 0 is_stmt 1 discriminator 2
 1225 0952 002B     	 cmp r3,#0
 1226 0954 0ED1     	 bne .L48
 1227              	 .loc 1 362 0 discriminator 3
 1228 0956 B14B     	 ldr r3,.L265
 1229 0958 93F85637 	 ldrb r3,[r3,#1878]
 1230 095c 002B     	 cmp r3,#0
 1231 095e 09D1     	 bne .L48
 1232              	 .loc 1 362 0 is_stmt 0 discriminator 4
 1233 0960 AE4B     	 ldr r3,.L265
 1234 0962 93F85737 	 ldrb r3,[r3,#1879]
 1235 0966 002B     	 cmp r3,#0
 1236 0968 04D1     	 bne .L48
 363:../Simulink/Subsystem_Transmission.c ****       VCU_B.FailSafefirstgear_n);
 1237              	 .loc 1 363 0 is_stmt 1 discriminator 6
 1238 096a AC4B     	 ldr r3,.L265
 1239 096c 93F85A37 	 ldrb r3,[r3,#1882]
 362:../Simulink/Subsystem_Transmission.c ****       VCU_B.Compare_j0 || VCU_B.UnitDelay_g || VCU_B.Timeout_px ||
 1240              	 .loc 1 362 0 discriminator 6
 1241 0970 002B     	 cmp r3,#0
 1242 0972 01D0     	 beq .L49
 1243              	.L48:
 362:../Simulink/Subsystem_Transmission.c ****       VCU_B.Compare_j0 || VCU_B.UnitDelay_g || VCU_B.Timeout_px ||
 1244              	 .loc 1 362 0 is_stmt 0 discriminator 7
 1245 0974 0123     	 movs r3,#1
 1246 0976 00E0     	 b .L50
 1247              	.L49:
 362:../Simulink/Subsystem_Transmission.c ****       VCU_B.Compare_j0 || VCU_B.UnitDelay_g || VCU_B.Timeout_px ||
 1248              	 .loc 1 362 0 discriminator 8
 1249 0978 0023     	 movs r3,#0
 1250              	.L50:
 361:../Simulink/Subsystem_Transmission.c ****       VCU_B.Compare_j0 || VCU_B.UnitDelay_g || VCU_B.Timeout_px ||
 1251              	 .loc 1 361 0 is_stmt 1
 1252 097a DAB2     	 uxtb r2,r3
 1253 097c A74B     	 ldr r3,.L265
 1254 097e 83F85B27 	 strb r2,[r3,#1883]
 364:../Simulink/Subsystem_Transmission.c **** 
 365:../Simulink/Subsystem_Transmission.c ****     /* CombinatorialLogic: '<S188>/Logic' incorporates:
 366:../Simulink/Subsystem_Transmission.c ****      *  Logic: '<S185>/Logical Operator1'
 367:../Simulink/Subsystem_Transmission.c ****      *  Memory: '<S188>/Memory'
 368:../Simulink/Subsystem_Transmission.c ****      */
 369:../Simulink/Subsystem_Transmission.c ****     VCU_B.LogicalOperator1_b = (VCU_B.LogicalOperator_g ||
 1255              	 .loc 1 369 0
 1256 0982 A64B     	 ldr r3,.L265
 1257 0984 93F85337 	 ldrb r3,[r3,#1875]
 370:../Simulink/Subsystem_Transmission.c ****       (VCU_B.STW_shift_up_request != 0.0) || VCU_B.LogicalOperator_ny);
 1258              	 .loc 1 370 0
 1259 0988 002B     	 cmp r3,#0
 1260 098a 14D1     	 bne .L51
 1261              	 .loc 1 370 0 is_stmt 0 discriminator 2
 1262 098c A34B     	 ldr r3,.L265
 1263 098e 03F59C63 	 add r3,r3,#1248
 1264 0992 D3E90023 	 ldrd r2,[r3]
 369:../Simulink/Subsystem_Transmission.c ****       (VCU_B.STW_shift_up_request != 0.0) || VCU_B.LogicalOperator_ny);
 1265              	 .loc 1 369 0 is_stmt 1 discriminator 2
 1266 0996 1046     	 mov r0,r2
 1267 0998 1946     	 mov r1,r3
 1268 099a 4FF00002 	 mov r2,#0
 1269 099e 4FF00003 	 mov r3,#0
 1270 09a2 FFF7FEFF 	 bl __aeabi_dcmpeq
 1271 09a6 0346     	 mov r3,r0
 1272 09a8 002B     	 cmp r3,#0
 1273 09aa 04D0     	 beq .L51
 1274              	 .loc 1 370 0 discriminator 3
 1275 09ac 9B4B     	 ldr r3,.L265
 1276 09ae 93F85B37 	 ldrb r3,[r3,#1883]
 1277 09b2 002B     	 cmp r3,#0
 1278 09b4 01D0     	 beq .L52
 1279              	.L51:
 1280              	 .loc 1 370 0 is_stmt 0 discriminator 1
 1281 09b6 0123     	 movs r3,#1
 1282 09b8 00E0     	 b .L53
 1283              	.L52:
 1284              	 .loc 1 370 0 discriminator 4
 1285 09ba 0023     	 movs r3,#0
 1286              	.L53:
 369:../Simulink/Subsystem_Transmission.c ****       (VCU_B.STW_shift_up_request != 0.0) || VCU_B.LogicalOperator_ny);
 1287              	 .loc 1 369 0 is_stmt 1
 1288 09bc DAB2     	 uxtb r2,r3
 1289 09be 974B     	 ldr r3,.L265
 1290 09c0 83F85C27 	 strb r2,[r3,#1884]
 371:../Simulink/Subsystem_Transmission.c ****     VCU_B.Memory_p = VCU_DW.Memory_PreviousInput_n;
 1291              	 .loc 1 371 0
 1292 09c4 964B     	 ldr r3,.L265+4
 1293 09c6 93F84321 	 ldrb r2,[r3,#323]
 1294 09ca 944B     	 ldr r3,.L265
 1295 09cc 83F85D27 	 strb r2,[r3,#1885]
 372:../Simulink/Subsystem_Transmission.c ****     rowIdx = VCU_B.FixPtRelationalOperator_dz;
 1296              	 .loc 1 372 0
 1297 09d0 924B     	 ldr r3,.L265
 1298 09d2 93F85237 	 ldrb r3,[r3,#1874]
 1299 09d6 7B61     	 str r3,[r7,#20]
 373:../Simulink/Subsystem_Transmission.c ****     rowIdx = (int32_T)(((uint32_T)rowIdx << 1) + VCU_B.LogicalOperator1_b);
 1300              	 .loc 1 373 0
 1301 09d8 7B69     	 ldr r3,[r7,#20]
 1302 09da 5B00     	 lsls r3,r3,#1
 1303 09dc 8F4A     	 ldr r2,.L265
 1304 09de 92F85C27 	 ldrb r2,[r2,#1884]
 1305 09e2 1344     	 add r3,r3,r2
 1306 09e4 7B61     	 str r3,[r7,#20]
 374:../Simulink/Subsystem_Transmission.c ****     rowIdx = (int32_T)(((uint32_T)rowIdx << 1) + VCU_B.Memory_p);
 1307              	 .loc 1 374 0
 1308 09e6 7B69     	 ldr r3,[r7,#20]
 1309 09e8 5B00     	 lsls r3,r3,#1
 1310 09ea 8C4A     	 ldr r2,.L265
 1311 09ec 92F85D27 	 ldrb r2,[r2,#1885]
 1312 09f0 1344     	 add r3,r3,r2
 1313 09f2 7B61     	 str r3,[r7,#20]
 375:../Simulink/Subsystem_Transmission.c ****     VCU_B.Logic_gy[0U] = VCU_ConstP.pooled37[(uint32_T)rowIdx];
 1314              	 .loc 1 375 0
 1315 09f4 7B69     	 ldr r3,[r7,#20]
 1316 09f6 8B4A     	 ldr r2,.L265+8
 1317 09f8 1344     	 add r3,r3,r2
 1318 09fa 93F83023 	 ldrb r2,[r3,#816]
 1319 09fe 874B     	 ldr r3,.L265
 1320 0a00 83F85E27 	 strb r2,[r3,#1886]
 376:../Simulink/Subsystem_Transmission.c ****     VCU_B.Logic_gy[1U] = VCU_ConstP.pooled37[rowIdx + 8U];
 1321              	 .loc 1 376 0
 1322 0a04 7B69     	 ldr r3,[r7,#20]
 1323 0a06 0833     	 adds r3,r3,#8
 1324 0a08 864A     	 ldr r2,.L265+8
 1325 0a0a 1344     	 add r3,r3,r2
 1326 0a0c 93F83023 	 ldrb r2,[r3,#816]
 1327 0a10 824B     	 ldr r3,.L265
 1328 0a12 83F85F27 	 strb r2,[r3,#1887]
 377:../Simulink/Subsystem_Transmission.c **** 
 378:../Simulink/Subsystem_Transmission.c ****     /* Logic: '<S145>/Logical Operator3' */
 379:../Simulink/Subsystem_Transmission.c ****     VCU_B.LogicalOperator3_e = ((VCU_B.STW_shift_up_request != 0.0) ||
 1329              	 .loc 1 379 0
 1330 0a16 814B     	 ldr r3,.L265
 1331 0a18 03F59C63 	 add r3,r3,#1248
 1332 0a1c D3E90023 	 ldrd r2,[r3]
 1333 0a20 1046     	 mov r0,r2
 1334 0a22 1946     	 mov r1,r3
 1335 0a24 4FF00002 	 mov r2,#0
 1336 0a28 4FF00003 	 mov r3,#0
 1337 0a2c FFF7FEFF 	 bl __aeabi_dcmpeq
 1338 0a30 0346     	 mov r3,r0
 1339 0a32 002B     	 cmp r3,#0
 1340 0a34 04D0     	 beq .L54
 380:../Simulink/Subsystem_Transmission.c ****       VCU_B.Logic_gy[0]);
 1341              	 .loc 1 380 0 discriminator 2
 1342 0a36 794B     	 ldr r3,.L265
 1343 0a38 93F85E37 	 ldrb r3,[r3,#1886]
 379:../Simulink/Subsystem_Transmission.c ****       VCU_B.Logic_gy[0]);
 1344              	 .loc 1 379 0 discriminator 2
 1345 0a3c 002B     	 cmp r3,#0
 1346 0a3e 01D0     	 beq .L55
 1347              	.L54:
 379:../Simulink/Subsystem_Transmission.c ****       VCU_B.Logic_gy[0]);
 1348              	 .loc 1 379 0 is_stmt 0 discriminator 3
 1349 0a40 0123     	 movs r3,#1
 1350 0a42 00E0     	 b .L56
 1351              	.L55:
 379:../Simulink/Subsystem_Transmission.c ****       VCU_B.Logic_gy[0]);
 1352              	 .loc 1 379 0 discriminator 4
 1353 0a44 0023     	 movs r3,#0
 1354              	.L56:
 379:../Simulink/Subsystem_Transmission.c ****       VCU_B.Logic_gy[0]);
 1355              	 .loc 1 379 0 discriminator 6
 1356 0a46 DAB2     	 uxtb r2,r3
 1357 0a48 744B     	 ldr r3,.L265
 1358 0a4a 83F86027 	 strb r2,[r3,#1888]
 381:../Simulink/Subsystem_Transmission.c **** 
 382:../Simulink/Subsystem_Transmission.c ****     /* UnitDelay: '<S179>/Delay Input1'
 383:../Simulink/Subsystem_Transmission.c ****      *
 384:../Simulink/Subsystem_Transmission.c ****      * Block description for '<S179>/Delay Input1':
 385:../Simulink/Subsystem_Transmission.c ****      *
 386:../Simulink/Subsystem_Transmission.c ****      *  Store in Global RAM
 387:../Simulink/Subsystem_Transmission.c ****      */
 388:../Simulink/Subsystem_Transmission.c ****     VCU_B.Uk1_d = VCU_DW.DelayInput1_DSTATE_e;
 1359              	 .loc 1 388 0 is_stmt 1 discriminator 6
 1360 0a4e 744B     	 ldr r3,.L265+4
 1361 0a50 93F8F920 	 ldrb r2,[r3,#249]
 1362 0a54 714B     	 ldr r3,.L265
 1363 0a56 83F86127 	 strb r2,[r3,#1889]
 389:../Simulink/Subsystem_Transmission.c **** 
 390:../Simulink/Subsystem_Transmission.c ****     /* CombinatorialLogic: '<S182>/Logic' incorporates:
 391:../Simulink/Subsystem_Transmission.c ****      *  Memory: '<S182>/Memory'
 392:../Simulink/Subsystem_Transmission.c ****      *  RelationalOperator: '<S179>/FixPt Relational Operator'
 393:../Simulink/Subsystem_Transmission.c ****      */
 394:../Simulink/Subsystem_Transmission.c ****     VCU_B.FixPtRelationalOperator_i = ((int32_T)VCU_B.LogicalOperator3_e >
 1364              	 .loc 1 394 0 discriminator 6
 1365 0a5a 704B     	 ldr r3,.L265
 1366 0a5c 93F86027 	 ldrb r2,[r3,#1888]
 395:../Simulink/Subsystem_Transmission.c ****       (int32_T)VCU_B.Uk1_d);
 1367              	 .loc 1 395 0 discriminator 6
 1368 0a60 6E4B     	 ldr r3,.L265
 1369 0a62 93F86137 	 ldrb r3,[r3,#1889]
 394:../Simulink/Subsystem_Transmission.c ****       (int32_T)VCU_B.Uk1_d);
 1370              	 .loc 1 394 0 discriminator 6
 1371 0a66 9A42     	 cmp r2,r3
 1372 0a68 8CBF     	 ite hi
 1373 0a6a 0123     	 movhi r3,#1
 1374 0a6c 0023     	 movls r3,#0
 1375 0a6e DBB2     	 uxtb r3,r3
 1376 0a70 1A46     	 mov r2,r3
 1377 0a72 6A4B     	 ldr r3,.L265
 1378 0a74 83F86227 	 strb r2,[r3,#1890]
 396:../Simulink/Subsystem_Transmission.c ****     VCU_B.Memory_ig = VCU_DW.Memory_PreviousInput_e;
 1379              	 .loc 1 396 0 discriminator 6
 1380 0a78 694B     	 ldr r3,.L265+4
 1381 0a7a 93F84421 	 ldrb r2,[r3,#324]
 1382 0a7e 674B     	 ldr r3,.L265
 1383 0a80 83F86327 	 strb r2,[r3,#1891]
 397:../Simulink/Subsystem_Transmission.c ****     rowIdx = VCU_B.FixPtRelationalOperator_i;
 1384              	 .loc 1 397 0 discriminator 6
 1385 0a84 654B     	 ldr r3,.L265
 1386 0a86 93F86237 	 ldrb r3,[r3,#1890]
 1387 0a8a 7B61     	 str r3,[r7,#20]
 398:../Simulink/Subsystem_Transmission.c ****     rowIdx = (int32_T)(((uint32_T)rowIdx << 1) + VCU_B.LogicalOperator_ny);
 1388              	 .loc 1 398 0 discriminator 6
 1389 0a8c 7B69     	 ldr r3,[r7,#20]
 1390 0a8e 5B00     	 lsls r3,r3,#1
 1391 0a90 624A     	 ldr r2,.L265
 1392 0a92 92F85B27 	 ldrb r2,[r2,#1883]
 1393 0a96 1344     	 add r3,r3,r2
 1394 0a98 7B61     	 str r3,[r7,#20]
 399:../Simulink/Subsystem_Transmission.c ****     rowIdx = (int32_T)(((uint32_T)rowIdx << 1) + VCU_B.Memory_ig);
 1395              	 .loc 1 399 0 discriminator 6
 1396 0a9a 7B69     	 ldr r3,[r7,#20]
 1397 0a9c 5B00     	 lsls r3,r3,#1
 1398 0a9e 5F4A     	 ldr r2,.L265
 1399 0aa0 92F86327 	 ldrb r2,[r2,#1891]
 1400 0aa4 1344     	 add r3,r3,r2
 1401 0aa6 7B61     	 str r3,[r7,#20]
 400:../Simulink/Subsystem_Transmission.c ****     VCU_B.Logic_jv[0U] = VCU_ConstP.pooled37[(uint32_T)rowIdx];
 1402              	 .loc 1 400 0 discriminator 6
 1403 0aa8 7B69     	 ldr r3,[r7,#20]
 1404 0aaa 5E4A     	 ldr r2,.L265+8
 1405 0aac 1344     	 add r3,r3,r2
 1406 0aae 93F83023 	 ldrb r2,[r3,#816]
 1407 0ab2 5A4B     	 ldr r3,.L265
 1408 0ab4 83F86427 	 strb r2,[r3,#1892]
 401:../Simulink/Subsystem_Transmission.c ****     VCU_B.Logic_jv[1U] = VCU_ConstP.pooled37[rowIdx + 8U];
 1409              	 .loc 1 401 0 discriminator 6
 1410 0ab8 7B69     	 ldr r3,[r7,#20]
 1411 0aba 0833     	 adds r3,r3,#8
 1412 0abc 594A     	 ldr r2,.L265+8
 1413 0abe 1344     	 add r3,r3,r2
 1414 0ac0 93F83023 	 ldrb r2,[r3,#816]
 1415 0ac4 554B     	 ldr r3,.L265
 1416 0ac6 83F86527 	 strb r2,[r3,#1893]
 402:../Simulink/Subsystem_Transmission.c **** 
 403:../Simulink/Subsystem_Transmission.c ****     /* CombinatorialLogic: '<S183>/Logic' incorporates:
 404:../Simulink/Subsystem_Transmission.c ****      *  S-Function (sdspcount2): '<S145>/Counter1'
 405:../Simulink/Subsystem_Transmission.c ****      */
 406:../Simulink/Subsystem_Transmission.c ****     VCU_B.Counter1_p = false;
 1417              	 .loc 1 406 0 discriminator 6
 1418 0aca 544B     	 ldr r3,.L265
 1419 0acc 0022     	 movs r2,#0
 1420 0ace 83F86627 	 strb r2,[r3,#1894]
 407:../Simulink/Subsystem_Transmission.c **** 
 408:../Simulink/Subsystem_Transmission.c ****     /* S-Function (sdspcount2): '<S145>/Counter1' */
 409:../Simulink/Subsystem_Transmission.c ****     if (VCU_B.LogicalOperator_ny) {
 1421              	 .loc 1 409 0 discriminator 6
 1422 0ad2 524B     	 ldr r3,.L265
 1423 0ad4 93F85B37 	 ldrb r3,[r3,#1883]
 1424 0ad8 002B     	 cmp r3,#0
 1425 0ada 03D0     	 beq .L57
 410:../Simulink/Subsystem_Transmission.c ****       VCU_DW.Counter1_Count_k = 0U;
 1426              	 .loc 1 410 0
 1427 0adc 504B     	 ldr r3,.L265+4
 1428 0ade 0022     	 movs r2,#0
 1429 0ae0 83F8FC20 	 strb r2,[r3,#252]
 1430              	.L57:
 411:../Simulink/Subsystem_Transmission.c ****     }
 412:../Simulink/Subsystem_Transmission.c **** 
 413:../Simulink/Subsystem_Transmission.c ****     if (VCU_B.Logic_jv[0]) {
 1431              	 .loc 1 413 0
 1432 0ae4 4D4B     	 ldr r3,.L265
 1433 0ae6 93F86437 	 ldrb r3,[r3,#1892]
 1434 0aea 002B     	 cmp r3,#0
 1435 0aec 11D0     	 beq .L58
 414:../Simulink/Subsystem_Transmission.c ****       if (VCU_DW.Counter1_Count_k < 60) {
 1436              	 .loc 1 414 0
 1437 0aee 4C4B     	 ldr r3,.L265+4
 1438 0af0 93F8FC30 	 ldrb r3,[r3,#252]
 1439 0af4 3B2B     	 cmp r3,#59
 1440 0af6 08D8     	 bhi .L59
 415:../Simulink/Subsystem_Transmission.c ****         VCU_DW.Counter1_Count_k++;
 1441              	 .loc 1 415 0
 1442 0af8 494B     	 ldr r3,.L265+4
 1443 0afa 93F8FC30 	 ldrb r3,[r3,#252]
 1444 0afe 0133     	 adds r3,r3,#1
 1445 0b00 DAB2     	 uxtb r2,r3
 1446 0b02 474B     	 ldr r3,.L265+4
 1447 0b04 83F8FC20 	 strb r2,[r3,#252]
 1448 0b08 03E0     	 b .L58
 1449              	.L59:
 416:../Simulink/Subsystem_Transmission.c ****       } else {
 417:../Simulink/Subsystem_Transmission.c ****         VCU_DW.Counter1_Count_k = 0U;
 1450              	 .loc 1 417 0
 1451 0b0a 454B     	 ldr r3,.L265+4
 1452 0b0c 0022     	 movs r2,#0
 1453 0b0e 83F8FC20 	 strb r2,[r3,#252]
 1454              	.L58:
 418:../Simulink/Subsystem_Transmission.c ****       }
 419:../Simulink/Subsystem_Transmission.c ****     }
 420:../Simulink/Subsystem_Transmission.c **** 
 421:../Simulink/Subsystem_Transmission.c ****     if (VCU_DW.Counter1_Count_k == 1) {
 1455              	 .loc 1 421 0
 1456 0b12 434B     	 ldr r3,.L265+4
 1457 0b14 93F8FC30 	 ldrb r3,[r3,#252]
 1458 0b18 012B     	 cmp r3,#1
 1459 0b1a 03D1     	 bne .L60
 422:../Simulink/Subsystem_Transmission.c ****       /* CombinatorialLogic: '<S183>/Logic' */
 423:../Simulink/Subsystem_Transmission.c ****       VCU_B.Counter1_p = true;
 1460              	 .loc 1 423 0
 1461 0b1c 3F4B     	 ldr r3,.L265
 1462 0b1e 0122     	 movs r2,#1
 1463 0b20 83F86627 	 strb r2,[r3,#1894]
 1464              	.L60:
 424:../Simulink/Subsystem_Transmission.c ****     }
 425:../Simulink/Subsystem_Transmission.c **** 
 426:../Simulink/Subsystem_Transmission.c ****     /* UnitDelay: '<S181>/Delay Input1'
 427:../Simulink/Subsystem_Transmission.c ****      *
 428:../Simulink/Subsystem_Transmission.c ****      * Block description for '<S181>/Delay Input1':
 429:../Simulink/Subsystem_Transmission.c ****      *
 430:../Simulink/Subsystem_Transmission.c ****      *  Store in Global RAM
 431:../Simulink/Subsystem_Transmission.c ****      */
 432:../Simulink/Subsystem_Transmission.c ****     VCU_B.Uk1_e = VCU_DW.DelayInput1_DSTATE_b;
 1465              	 .loc 1 432 0
 1466 0b24 3E4B     	 ldr r3,.L265+4
 1467 0b26 93F8C020 	 ldrb r2,[r3,#192]
 1468 0b2a 3C4B     	 ldr r3,.L265
 1469 0b2c 83F88C26 	 strb r2,[r3,#1676]
 433:../Simulink/Subsystem_Transmission.c **** 
 434:../Simulink/Subsystem_Transmission.c ****     /* RelationalOperator: '<S181>/FixPt Relational Operator' */
 435:../Simulink/Subsystem_Transmission.c ****     VCU_B.FixPtRelationalOperator_ia = (VCU_B.Add_ax > VCU_B.Uk1_e);
 1470              	 .loc 1 435 0
 1471 0b30 3A4B     	 ldr r3,.L265
 1472 0b32 93F88A26 	 ldrb r2,[r3,#1674]
 1473 0b36 394B     	 ldr r3,.L265
 1474 0b38 93F88C36 	 ldrb r3,[r3,#1676]
 1475 0b3c 9A42     	 cmp r2,r3
 1476 0b3e 8CBF     	 ite hi
 1477 0b40 0123     	 movhi r3,#1
 1478 0b42 0023     	 movls r3,#0
 1479 0b44 DBB2     	 uxtb r3,r3
 1480 0b46 1A46     	 mov r2,r3
 1481 0b48 344B     	 ldr r3,.L265
 1482 0b4a 83F86727 	 strb r2,[r3,#1895]
 436:../Simulink/Subsystem_Transmission.c **** 
 437:../Simulink/Subsystem_Transmission.c ****     /* CombinatorialLogic: '<S183>/Logic' incorporates:
 438:../Simulink/Subsystem_Transmission.c ****      *  Logic: '<S145>/Logical Operator2'
 439:../Simulink/Subsystem_Transmission.c ****      *  Memory: '<S183>/Memory'
 440:../Simulink/Subsystem_Transmission.c ****      */
 441:../Simulink/Subsystem_Transmission.c ****     VCU_B.LogicalOperator2_c = (VCU_B.LogicalOperator_ny ||
 1483              	 .loc 1 441 0
 1484 0b4e 334B     	 ldr r3,.L265
 1485 0b50 93F85B37 	 ldrb r3,[r3,#1883]
 1486 0b54 002B     	 cmp r3,#0
 1487 0b56 04D1     	 bne .L61
 442:../Simulink/Subsystem_Transmission.c ****       VCU_B.FixPtRelationalOperator_ia);
 1488              	 .loc 1 442 0 discriminator 2
 1489 0b58 304B     	 ldr r3,.L265
 1490 0b5a 93F86737 	 ldrb r3,[r3,#1895]
 441:../Simulink/Subsystem_Transmission.c ****       VCU_B.FixPtRelationalOperator_ia);
 1491              	 .loc 1 441 0 discriminator 2
 1492 0b5e 002B     	 cmp r3,#0
 1493 0b60 01D0     	 beq .L62
 1494              	.L61:
 441:../Simulink/Subsystem_Transmission.c ****       VCU_B.FixPtRelationalOperator_ia);
 1495              	 .loc 1 441 0 is_stmt 0 discriminator 3
 1496 0b62 0123     	 movs r3,#1
 1497 0b64 00E0     	 b .L63
 1498              	.L62:
 441:../Simulink/Subsystem_Transmission.c ****       VCU_B.FixPtRelationalOperator_ia);
 1499              	 .loc 1 441 0 discriminator 4
 1500 0b66 0023     	 movs r3,#0
 1501              	.L63:
 441:../Simulink/Subsystem_Transmission.c ****       VCU_B.FixPtRelationalOperator_ia);
 1502              	 .loc 1 441 0 discriminator 6
 1503 0b68 DAB2     	 uxtb r2,r3
 1504 0b6a 2C4B     	 ldr r3,.L265
 1505 0b6c 83F86827 	 strb r2,[r3,#1896]
 443:../Simulink/Subsystem_Transmission.c ****     VCU_B.Memory_py = VCU_DW.Memory_PreviousInput_ez;
 1506              	 .loc 1 443 0 is_stmt 1 discriminator 6
 1507 0b70 2B4B     	 ldr r3,.L265+4
 1508 0b72 93F84521 	 ldrb r2,[r3,#325]
 1509 0b76 294B     	 ldr r3,.L265
 1510 0b78 83F86927 	 strb r2,[r3,#1897]
 444:../Simulink/Subsystem_Transmission.c ****     rowIdx = VCU_B.Counter1_p;
 1511              	 .loc 1 444 0 discriminator 6
 1512 0b7c 274B     	 ldr r3,.L265
 1513 0b7e 93F86637 	 ldrb r3,[r3,#1894]
 1514 0b82 7B61     	 str r3,[r7,#20]
 445:../Simulink/Subsystem_Transmission.c ****     rowIdx = (int32_T)(((uint32_T)rowIdx << 1) + VCU_B.LogicalOperator2_c);
 1515              	 .loc 1 445 0 discriminator 6
 1516 0b84 7B69     	 ldr r3,[r7,#20]
 1517 0b86 5B00     	 lsls r3,r3,#1
 1518 0b88 244A     	 ldr r2,.L265
 1519 0b8a 92F86827 	 ldrb r2,[r2,#1896]
 1520 0b8e 1344     	 add r3,r3,r2
 1521 0b90 7B61     	 str r3,[r7,#20]
 446:../Simulink/Subsystem_Transmission.c ****     rowIdx = (int32_T)(((uint32_T)rowIdx << 1) + VCU_B.Memory_py);
 1522              	 .loc 1 446 0 discriminator 6
 1523 0b92 7B69     	 ldr r3,[r7,#20]
 1524 0b94 5B00     	 lsls r3,r3,#1
 1525 0b96 214A     	 ldr r2,.L265
 1526 0b98 92F86927 	 ldrb r2,[r2,#1897]
 1527 0b9c 1344     	 add r3,r3,r2
 1528 0b9e 7B61     	 str r3,[r7,#20]
 447:../Simulink/Subsystem_Transmission.c ****     VCU_B.Logic_p[0U] = VCU_ConstP.pooled37[(uint32_T)rowIdx];
 1529              	 .loc 1 447 0 discriminator 6
 1530 0ba0 7B69     	 ldr r3,[r7,#20]
 1531 0ba2 204A     	 ldr r2,.L265+8
 1532 0ba4 1344     	 add r3,r3,r2
 1533 0ba6 93F83023 	 ldrb r2,[r3,#816]
 1534 0baa 1C4B     	 ldr r3,.L265
 1535 0bac 83F86A27 	 strb r2,[r3,#1898]
 448:../Simulink/Subsystem_Transmission.c ****     VCU_B.Logic_p[1U] = VCU_ConstP.pooled37[rowIdx + 8U];
 1536              	 .loc 1 448 0 discriminator 6
 1537 0bb0 7B69     	 ldr r3,[r7,#20]
 1538 0bb2 0833     	 adds r3,r3,#8
 1539 0bb4 1B4A     	 ldr r2,.L265+8
 1540 0bb6 1344     	 add r3,r3,r2
 1541 0bb8 93F83023 	 ldrb r2,[r3,#816]
 1542 0bbc 174B     	 ldr r3,.L265
 1543 0bbe 83F86B27 	 strb r2,[r3,#1899]
 449:../Simulink/Subsystem_Transmission.c **** 
 450:../Simulink/Subsystem_Transmission.c ****     /* DataTypeConversion: '<S136>/Data Type Conversion12' */
 451:../Simulink/Subsystem_Transmission.c ****     VCU_B.Ignition_Cut_d = VCU_B.Logic_p[0];
 1544              	 .loc 1 451 0 discriminator 6
 1545 0bc2 164B     	 ldr r3,.L265
 1546 0bc4 93F86A37 	 ldrb r3,[r3,#1898]
 1547 0bc8 1846     	 mov r0,r3
 1548 0bca FFF7FEFF 	 bl __aeabi_ui2d
 1549 0bce 0246     	 mov r2,r0
 1550 0bd0 0B46     	 mov r3,r1
 1551 0bd2 1249     	 ldr r1,.L265
 1552 0bd4 C1E97223 	 strd r2,[r1,#456]
 452:../Simulink/Subsystem_Transmission.c **** 
 453:../Simulink/Subsystem_Transmission.c ****     /* S-Function (sdspcount2): '<S144>/Counter' */
 454:../Simulink/Subsystem_Transmission.c ****     VCU_B.Counter_f = false;
 1553              	 .loc 1 454 0 discriminator 6
 1554 0bd8 104B     	 ldr r3,.L265
 1555 0bda 0022     	 movs r2,#0
 1556 0bdc 83F86C27 	 strb r2,[r3,#1900]
 455:../Simulink/Subsystem_Transmission.c ****     if (VCU_B.LogicalOperator_n) {
 1557              	 .loc 1 455 0 discriminator 6
 1558 0be0 0E4B     	 ldr r3,.L265
 1559 0be2 93F84737 	 ldrb r3,[r3,#1863]
 1560 0be6 002B     	 cmp r3,#0
 1561 0be8 03D0     	 beq .L64
 456:../Simulink/Subsystem_Transmission.c ****       VCU_DW.Counter_Count_m = 0U;
 1562              	 .loc 1 456 0
 1563 0bea 0D4B     	 ldr r3,.L265+4
 1564 0bec 0022     	 movs r2,#0
 1565 0bee A3F89E20 	 strh r2,[r3,#158]
 1566              	.L64:
 457:../Simulink/Subsystem_Transmission.c ****     }
 458:../Simulink/Subsystem_Transmission.c **** 
 459:../Simulink/Subsystem_Transmission.c ****     if (VCU_B.Logic_c[0]) {
 1567              	 .loc 1 459 0
 1568 0bf2 0A4B     	 ldr r3,.L265
 1569 0bf4 93F83737 	 ldrb r3,[r3,#1847]
 1570 0bf8 002B     	 cmp r3,#0
 1571 0bfa 19D0     	 beq .L65
 460:../Simulink/Subsystem_Transmission.c ****       if (VCU_DW.Counter_Count_m < 500) {
 1572              	 .loc 1 460 0
 1573 0bfc 084B     	 ldr r3,.L265+4
 1574 0bfe B3F89E30 	 ldrh r3,[r3,#158]
 1575 0c02 B3F5FA7F 	 cmp r3,#500
 1576 0c06 0FD2     	 bcs .L66
 461:../Simulink/Subsystem_Transmission.c ****         VCU_DW.Counter_Count_m++;
 1577              	 .loc 1 461 0
 1578 0c08 054B     	 ldr r3,.L265+4
 1579 0c0a B3F89E30 	 ldrh r3,[r3,#158]
 1580 0c0e 0133     	 adds r3,r3,#1
 1581 0c10 9AB2     	 uxth r2,r3
 1582 0c12 034B     	 ldr r3,.L265+4
 1583 0c14 A3F89E20 	 strh r2,[r3,#158]
 1584 0c18 0AE0     	 b .L65
 1585              	.L266:
 1586 0c1a 00BF     	 .align 2
 1587              	.L265:
 1588 0c1c 00000000 	 .word VCU_B
 1589 0c20 00000000 	 .word VCU_DW
 1590 0c24 00000000 	 .word VCU_ConstP
 1591              	.L66:
 462:../Simulink/Subsystem_Transmission.c ****       } else {
 463:../Simulink/Subsystem_Transmission.c ****         VCU_DW.Counter_Count_m = 0U;
 1592              	 .loc 1 463 0
 1593 0c28 A04B     	 ldr r3,.L267
 1594 0c2a 0022     	 movs r2,#0
 1595 0c2c A3F89E20 	 strh r2,[r3,#158]
 1596              	.L65:
 464:../Simulink/Subsystem_Transmission.c ****       }
 465:../Simulink/Subsystem_Transmission.c ****     }
 466:../Simulink/Subsystem_Transmission.c **** 
 467:../Simulink/Subsystem_Transmission.c ****     if (VCU_DW.Counter_Count_m == 500) {
 1597              	 .loc 1 467 0
 1598 0c30 9E4B     	 ldr r3,.L267
 1599 0c32 B3F89E30 	 ldrh r3,[r3,#158]
 1600 0c36 B3F5FA7F 	 cmp r3,#500
 1601 0c3a 03D1     	 bne .L67
 468:../Simulink/Subsystem_Transmission.c ****       VCU_B.Counter_f = true;
 1602              	 .loc 1 468 0
 1603 0c3c 9C4B     	 ldr r3,.L267+4
 1604 0c3e 0122     	 movs r2,#1
 1605 0c40 83F86C27 	 strb r2,[r3,#1900]
 1606              	.L67:
 469:../Simulink/Subsystem_Transmission.c ****     }
 470:../Simulink/Subsystem_Transmission.c **** 
 471:../Simulink/Subsystem_Transmission.c ****     /* End of S-Function (sdspcount2): '<S144>/Counter' */
 472:../Simulink/Subsystem_Transmission.c **** 
 473:../Simulink/Subsystem_Transmission.c ****     /* S-Function (sdspcount2): '<S145>/Counter' */
 474:../Simulink/Subsystem_Transmission.c ****     VCU_B.Counter_g = false;
 1607              	 .loc 1 474 0
 1608 0c44 9A4B     	 ldr r3,.L267+4
 1609 0c46 0022     	 movs r2,#0
 1610 0c48 83F86D27 	 strb r2,[r3,#1901]
 475:../Simulink/Subsystem_Transmission.c ****     if (VCU_B.LogicalOperator_ny) {
 1611              	 .loc 1 475 0
 1612 0c4c 984B     	 ldr r3,.L267+4
 1613 0c4e 93F85B37 	 ldrb r3,[r3,#1883]
 1614 0c52 002B     	 cmp r3,#0
 1615 0c54 03D0     	 beq .L68
 476:../Simulink/Subsystem_Transmission.c ****       VCU_DW.Counter_Count_a = 0U;
 1616              	 .loc 1 476 0
 1617 0c56 954B     	 ldr r3,.L267
 1618 0c58 0022     	 movs r2,#0
 1619 0c5a 83F8FD20 	 strb r2,[r3,#253]
 1620              	.L68:
 477:../Simulink/Subsystem_Transmission.c ****     }
 478:../Simulink/Subsystem_Transmission.c **** 
 479:../Simulink/Subsystem_Transmission.c ****     if (VCU_B.Logic_jv[0]) {
 1621              	 .loc 1 479 0
 1622 0c5e 944B     	 ldr r3,.L267+4
 1623 0c60 93F86437 	 ldrb r3,[r3,#1892]
 1624 0c64 002B     	 cmp r3,#0
 1625 0c66 11D0     	 beq .L69
 480:../Simulink/Subsystem_Transmission.c ****       if (VCU_DW.Counter_Count_a < 200) {
 1626              	 .loc 1 480 0
 1627 0c68 904B     	 ldr r3,.L267
 1628 0c6a 93F8FD30 	 ldrb r3,[r3,#253]
 1629 0c6e C72B     	 cmp r3,#199
 1630 0c70 08D8     	 bhi .L70
 481:../Simulink/Subsystem_Transmission.c ****         VCU_DW.Counter_Count_a++;
 1631              	 .loc 1 481 0
 1632 0c72 8E4B     	 ldr r3,.L267
 1633 0c74 93F8FD30 	 ldrb r3,[r3,#253]
 1634 0c78 0133     	 adds r3,r3,#1
 1635 0c7a DAB2     	 uxtb r2,r3
 1636 0c7c 8B4B     	 ldr r3,.L267
 1637 0c7e 83F8FD20 	 strb r2,[r3,#253]
 1638 0c82 03E0     	 b .L69
 1639              	.L70:
 482:../Simulink/Subsystem_Transmission.c ****       } else {
 483:../Simulink/Subsystem_Transmission.c ****         VCU_DW.Counter_Count_a = 0U;
 1640              	 .loc 1 483 0
 1641 0c84 894B     	 ldr r3,.L267
 1642 0c86 0022     	 movs r2,#0
 1643 0c88 83F8FD20 	 strb r2,[r3,#253]
 1644              	.L69:
 484:../Simulink/Subsystem_Transmission.c ****       }
 485:../Simulink/Subsystem_Transmission.c ****     }
 486:../Simulink/Subsystem_Transmission.c **** 
 487:../Simulink/Subsystem_Transmission.c ****     if (VCU_DW.Counter_Count_a == 180) {
 1645              	 .loc 1 487 0
 1646 0c8c 874B     	 ldr r3,.L267
 1647 0c8e 93F8FD30 	 ldrb r3,[r3,#253]
 1648 0c92 B42B     	 cmp r3,#180
 1649 0c94 03D1     	 bne .L71
 488:../Simulink/Subsystem_Transmission.c ****       VCU_B.Counter_g = true;
 1650              	 .loc 1 488 0
 1651 0c96 864B     	 ldr r3,.L267+4
 1652 0c98 0122     	 movs r2,#1
 1653 0c9a 83F86D27 	 strb r2,[r3,#1901]
 1654              	.L71:
 489:../Simulink/Subsystem_Transmission.c ****     }
 490:../Simulink/Subsystem_Transmission.c **** 
 491:../Simulink/Subsystem_Transmission.c ****     /* End of S-Function (sdspcount2): '<S145>/Counter' */
 492:../Simulink/Subsystem_Transmission.c **** 
 493:../Simulink/Subsystem_Transmission.c ****     /* DataTypeConversion: '<S136>/Data Type Conversion21' */
 494:../Simulink/Subsystem_Transmission.c ****     VCU_B.VOVG_ShiftUp_oi = VCU_B.Logic_jv[0];
 1655              	 .loc 1 494 0
 1656 0c9e 844B     	 ldr r3,.L267+4
 1657 0ca0 93F86437 	 ldrb r3,[r3,#1892]
 1658 0ca4 1846     	 mov r0,r3
 1659 0ca6 FFF7FEFF 	 bl __aeabi_ui2d
 1660 0caa 0246     	 mov r2,r0
 1661 0cac 0B46     	 mov r3,r1
 1662 0cae 8049     	 ldr r1,.L267+4
 1663 0cb0 C1E97423 	 strd r2,[r1,#464]
 495:../Simulink/Subsystem_Transmission.c **** 
 496:../Simulink/Subsystem_Transmission.c ****     /* UnitDelay: '<S170>/Delay Input1'
 497:../Simulink/Subsystem_Transmission.c ****      *
 498:../Simulink/Subsystem_Transmission.c ****      * Block description for '<S170>/Delay Input1':
 499:../Simulink/Subsystem_Transmission.c ****      *
 500:../Simulink/Subsystem_Transmission.c ****      *  Store in Global RAM
 501:../Simulink/Subsystem_Transmission.c ****      */
 502:../Simulink/Subsystem_Transmission.c ****     VCU_B.Uk1_m1 = VCU_DW.DelayInput1_DSTATE_n;
 1664              	 .loc 1 502 0
 1665 0cb4 7D4B     	 ldr r3,.L267
 1666 0cb6 93F8C120 	 ldrb r2,[r3,#193]
 1667 0cba 7D4B     	 ldr r3,.L267+4
 1668 0cbc 83F88D26 	 strb r2,[r3,#1677]
 503:../Simulink/Subsystem_Transmission.c **** 
 504:../Simulink/Subsystem_Transmission.c ****     /* RelationalOperator: '<S170>/FixPt Relational Operator' */
 505:../Simulink/Subsystem_Transmission.c ****     VCU_B.FixPtRelationalOperator_o = (VCU_B.Add_fn < VCU_B.Uk1_m1);
 1669              	 .loc 1 505 0
 1670 0cc0 7B4B     	 ldr r3,.L267+4
 1671 0cc2 93F88926 	 ldrb r2,[r3,#1673]
 1672 0cc6 7A4B     	 ldr r3,.L267+4
 1673 0cc8 93F88D36 	 ldrb r3,[r3,#1677]
 1674 0ccc 9A42     	 cmp r2,r3
 1675 0cce 34BF     	 ite cc
 1676 0cd0 0123     	 movcc r3,#1
 1677 0cd2 0023     	 movcs r3,#0
 1678 0cd4 DBB2     	 uxtb r3,r3
 1679 0cd6 1A46     	 mov r2,r3
 1680 0cd8 754B     	 ldr r3,.L267+4
 1681 0cda 83F86E27 	 strb r2,[r3,#1902]
 506:../Simulink/Subsystem_Transmission.c **** 
 507:../Simulink/Subsystem_Transmission.c ****     /* Switch: '<S139>/Switch' */
 508:../Simulink/Subsystem_Transmission.c ****     if (VCU_B.Logic_c[0]) {
 1682              	 .loc 1 508 0
 1683 0cde 744B     	 ldr r3,.L267+4
 1684 0ce0 93F83737 	 ldrb r3,[r3,#1847]
 1685 0ce4 002B     	 cmp r3,#0
 1686 0ce6 06D0     	 beq .L72
 509:../Simulink/Subsystem_Transmission.c ****       /* MinMax: '<S139>/MinMax' incorporates:
 510:../Simulink/Subsystem_Transmission.c ****        *  Constant: '<S139>/Constant'
 511:../Simulink/Subsystem_Transmission.c ****        */
 512:../Simulink/Subsystem_Transmission.c ****       VCU_B.Switch_h = 20.0;
 1687              	 .loc 1 512 0
 1688 0ce8 7149     	 ldr r1,.L267+4
 1689 0cea 4FF00002 	 mov r2,#0
 1690 0cee 714B     	 ldr r3,.L267+8
 1691 0cf0 C1E97623 	 strd r2,[r1,#472]
 1692 0cf4 06E0     	 b .L73
 1693              	.L72:
 513:../Simulink/Subsystem_Transmission.c ****     } else {
 514:../Simulink/Subsystem_Transmission.c ****       /* MinMax: '<S139>/MinMax' incorporates:
 515:../Simulink/Subsystem_Transmission.c ****        *  Constant: '<S139>/Constant1'
 516:../Simulink/Subsystem_Transmission.c ****        */
 517:../Simulink/Subsystem_Transmission.c ****       VCU_B.Switch_h = 0.0;
 1694              	 .loc 1 517 0
 1695 0cf6 6E49     	 ldr r1,.L267+4
 1696 0cf8 4FF00002 	 mov r2,#0
 1697 0cfc 4FF00003 	 mov r3,#0
 1698 0d00 C1E97623 	 strd r2,[r1,#472]
 1699              	.L73:
 518:../Simulink/Subsystem_Transmission.c ****     }
 519:../Simulink/Subsystem_Transmission.c **** 
 520:../Simulink/Subsystem_Transmission.c ****     /* End of Switch: '<S139>/Switch' */
 521:../Simulink/Subsystem_Transmission.c **** 
 522:../Simulink/Subsystem_Transmission.c ****     /* MinMax: '<S139>/MinMax' */
 523:../Simulink/Subsystem_Transmission.c ****     if ((VCU_B.x_clutch_STW > VCU_B.Switch_h) || rtIsNaN(VCU_B.Switch_h)) {
 1700              	 .loc 1 523 0
 1701 0d04 6A4B     	 ldr r3,.L267+4
 1702 0d06 03F59A63 	 add r3,r3,#1232
 1703 0d0a D3E90001 	 ldrd r0,[r3]
 1704 0d0e 684B     	 ldr r3,.L267+4
 1705 0d10 D3E97623 	 ldrd r2,[r3,#472]
 1706 0d14 FFF7FEFF 	 bl __aeabi_dcmpgt
 1707 0d18 0346     	 mov r3,r0
 1708 0d1a 002B     	 cmp r3,#0
 1709 0d1c 09D1     	 bne .L74
 1710              	 .loc 1 523 0 is_stmt 0 discriminator 1
 1711 0d1e 644B     	 ldr r3,.L267+4
 1712 0d20 D3E97623 	 ldrd r2,[r3,#472]
 1713 0d24 1046     	 mov r0,r2
 1714 0d26 1946     	 mov r1,r3
 1715 0d28 FFF7FEFF 	 bl rtIsNaN
 1716 0d2c 0346     	 mov r3,r0
 1717 0d2e 002B     	 cmp r3,#0
 1718 0d30 08D0     	 beq .L75
 1719              	.L74:
 524:../Simulink/Subsystem_Transmission.c ****       VCU_B.MinMax_n = VCU_B.x_clutch_STW;
 1720              	 .loc 1 524 0 is_stmt 1
 1721 0d32 5F4B     	 ldr r3,.L267+4
 1722 0d34 03F59A63 	 add r3,r3,#1232
 1723 0d38 D3E90023 	 ldrd r2,[r3]
 1724 0d3c 5C49     	 ldr r1,.L267+4
 1725 0d3e C1E97823 	 strd r2,[r1,#480]
 1726 0d42 05E0     	 b .L76
 1727              	.L75:
 525:../Simulink/Subsystem_Transmission.c ****     } else {
 526:../Simulink/Subsystem_Transmission.c ****       VCU_B.MinMax_n = VCU_B.Switch_h;
 1728              	 .loc 1 526 0
 1729 0d44 5A4B     	 ldr r3,.L267+4
 1730 0d46 D3E97623 	 ldrd r2,[r3,#472]
 1731 0d4a 5949     	 ldr r1,.L267+4
 1732 0d4c C1E97823 	 strd r2,[r1,#480]
 1733              	.L76:
 527:../Simulink/Subsystem_Transmission.c ****     }
 528:../Simulink/Subsystem_Transmission.c **** 
 529:../Simulink/Subsystem_Transmission.c ****     if (!(VCU_B.MinMax_n > 0.0)) {
 1734              	 .loc 1 529 0
 1735 0d50 574B     	 ldr r3,.L267+4
 1736 0d52 D3E97823 	 ldrd r2,[r3,#480]
 1737 0d56 0121     	 movs r1,#1
 1738 0d58 0C46     	 mov r4,r1
 1739 0d5a 1046     	 mov r0,r2
 1740 0d5c 1946     	 mov r1,r3
 1741 0d5e 4FF00002 	 mov r2,#0
 1742 0d62 4FF00003 	 mov r3,#0
 1743 0d66 FFF7FEFF 	 bl __aeabi_dcmpgt
 1744 0d6a 0346     	 mov r3,r0
 1745 0d6c 002B     	 cmp r3,#0
 1746 0d6e 01D1     	 bne .L77
 1747 0d70 0023     	 movs r3,#0
 1748 0d72 1C46     	 mov r4,r3
 1749              	.L77:
 1750 0d74 E3B2     	 uxtb r3,r4
 1751 0d76 83F00103 	 eor r3,r3,#1
 1752 0d7a DBB2     	 uxtb r3,r3
 1753 0d7c 002B     	 cmp r3,#0
 1754 0d7e 06D0     	 beq .L78
 530:../Simulink/Subsystem_Transmission.c ****       VCU_B.MinMax_n = 0.0;
 1755              	 .loc 1 530 0
 1756 0d80 4B49     	 ldr r1,.L267+4
 1757 0d82 4FF00002 	 mov r2,#0
 1758 0d86 4FF00003 	 mov r3,#0
 1759 0d8a C1E97823 	 strd r2,[r1,#480]
 1760              	.L78:
 531:../Simulink/Subsystem_Transmission.c ****     }
 532:../Simulink/Subsystem_Transmission.c **** 
 533:../Simulink/Subsystem_Transmission.c ****     /* RelationalOperator: '<S148>/Compare' incorporates:
 534:../Simulink/Subsystem_Transmission.c ****      *  Constant: '<S148>/Constant'
 535:../Simulink/Subsystem_Transmission.c ****      */
 536:../Simulink/Subsystem_Transmission.c ****     VCU_B.Compare_gr = (VCU_B.MinMax_n > 1.0);
 1761              	 .loc 1 536 0
 1762 0d8e 484B     	 ldr r3,.L267+4
 1763 0d90 D3E97823 	 ldrd r2,[r3,#480]
 1764 0d94 0121     	 movs r1,#1
 1765 0d96 0C46     	 mov r4,r1
 1766 0d98 1046     	 mov r0,r2
 1767 0d9a 1946     	 mov r1,r3
 1768 0d9c 4FF00002 	 mov r2,#0
 1769 0da0 454B     	 ldr r3,.L267+12
 1770 0da2 FFF7FEFF 	 bl __aeabi_dcmpgt
 1771 0da6 0346     	 mov r3,r0
 1772 0da8 002B     	 cmp r3,#0
 1773 0daa 01D1     	 bne .L79
 1774 0dac 0023     	 movs r3,#0
 1775 0dae 1C46     	 mov r4,r3
 1776              	.L79:
 1777 0db0 E3B2     	 uxtb r3,r4
 1778 0db2 1A46     	 mov r2,r3
 1779 0db4 3E4B     	 ldr r3,.L267+4
 1780 0db6 83F86F27 	 strb r2,[r3,#1903]
 537:../Simulink/Subsystem_Transmission.c **** 
 538:../Simulink/Subsystem_Transmission.c ****     /* DataTypeConversion: '<S136>/Data Type Conversion13' */
 539:../Simulink/Subsystem_Transmission.c ****     VCU_B.VOVG_IN_g = VCU_B.Compare_gr;
 1781              	 .loc 1 539 0
 1782 0dba 3D4B     	 ldr r3,.L267+4
 1783 0dbc 93F86F37 	 ldrb r3,[r3,#1903]
 1784 0dc0 1846     	 mov r0,r3
 1785 0dc2 FFF7FEFF 	 bl __aeabi_ui2d
 1786 0dc6 0246     	 mov r2,r0
 1787 0dc8 0B46     	 mov r3,r1
 1788 0dca 3949     	 ldr r1,.L267+4
 1789 0dcc C1E97A23 	 strd r2,[r1,#488]
 540:../Simulink/Subsystem_Transmission.c **** 
 541:../Simulink/Subsystem_Transmission.c ****     /* Sum: '<S139>/Add' */
 542:../Simulink/Subsystem_Transmission.c ****     VCU_B.Add_g = VCU_B.MinMax_n - VCU_B.x_clutch_b;
 1790              	 .loc 1 542 0
 1791 0dd0 374B     	 ldr r3,.L267+4
 1792 0dd2 D3E97801 	 ldrd r0,[r3,#480]
 1793 0dd6 364B     	 ldr r3,.L267+4
 1794 0dd8 03F5AB63 	 add r3,r3,#1368
 1795 0ddc D3E90023 	 ldrd r2,[r3]
 1796 0de0 FFF7FEFF 	 bl __aeabi_dsub
 1797 0de4 0246     	 mov r2,r0
 1798 0de6 0B46     	 mov r3,r1
 1799 0de8 3149     	 ldr r1,.L267+4
 1800 0dea C1E97C23 	 strd r2,[r1,#496]
 543:../Simulink/Subsystem_Transmission.c **** 
 544:../Simulink/Subsystem_Transmission.c ****     /* RelationalOperator: '<S150>/Compare' incorporates:
 545:../Simulink/Subsystem_Transmission.c ****      *  Constant: '<S150>/Constant'
 546:../Simulink/Subsystem_Transmission.c ****      */
 547:../Simulink/Subsystem_Transmission.c ****     VCU_B.Compare_gp = (VCU_B.Add_g < -0.5);
 1801              	 .loc 1 547 0
 1802 0dee 304B     	 ldr r3,.L267+4
 1803 0df0 D3E97C23 	 ldrd r2,[r3,#496]
 1804 0df4 0121     	 movs r1,#1
 1805 0df6 0C46     	 mov r4,r1
 1806 0df8 1046     	 mov r0,r2
 1807 0dfa 1946     	 mov r1,r3
 1808 0dfc 4FF00002 	 mov r2,#0
 1809 0e00 2E4B     	 ldr r3,.L267+16
 1810 0e02 FFF7FEFF 	 bl __aeabi_dcmplt
 1811 0e06 0346     	 mov r3,r0
 1812 0e08 002B     	 cmp r3,#0
 1813 0e0a 01D1     	 bne .L80
 1814 0e0c 0023     	 movs r3,#0
 1815 0e0e 1C46     	 mov r4,r3
 1816              	.L80:
 1817 0e10 E3B2     	 uxtb r3,r4
 1818 0e12 1A46     	 mov r2,r3
 1819 0e14 264B     	 ldr r3,.L267+4
 1820 0e16 83F87027 	 strb r2,[r3,#1904]
 548:../Simulink/Subsystem_Transmission.c **** 
 549:../Simulink/Subsystem_Transmission.c ****     /* Lookup_n-D: '<S139>/Duty Cycle MHJ1' */
 550:../Simulink/Subsystem_Transmission.c ****     VCU_B.DutyCycleMHJ1_n = look1_binlxpw(VCU_B.Add_g, VCU_ConstP.pooled29,
 1821              	 .loc 1 550 0
 1822 0e1a 254B     	 ldr r3,.L267+4
 1823 0e1c D3E97C23 	 ldrd r2,[r3,#496]
 1824 0e20 0E21     	 movs r1,#14
 1825 0e22 0091     	 str r1,[sp]
 1826 0e24 1046     	 mov r0,r2
 1827 0e26 1946     	 mov r1,r3
 1828 0e28 254A     	 ldr r2,.L267+20
 1829 0e2a 264B     	 ldr r3,.L267+24
 1830 0e2c FFF7FEFF 	 bl look1_binlxpw
 1831 0e30 0246     	 mov r2,r0
 1832 0e32 0B46     	 mov r3,r1
 1833 0e34 1E49     	 ldr r1,.L267+4
 1834 0e36 C1E97E23 	 strd r2,[r1,#504]
 551:../Simulink/Subsystem_Transmission.c ****       VCU_ConstP.pooled28, 14U);
 552:../Simulink/Subsystem_Transmission.c **** 
 553:../Simulink/Subsystem_Transmission.c ****     /* Product: '<S139>/Product1' */
 554:../Simulink/Subsystem_Transmission.c ****     VCU_B.Product1_f = VCU_B.DutyCycleMHJ1_n * (real_T)VCU_B.Compare_gp;
 1835              	 .loc 1 554 0
 1836 0e3a 1D4B     	 ldr r3,.L267+4
 1837 0e3c D3E97E45 	 ldrd r4,[r3,#504]
 1838 0e40 1B4B     	 ldr r3,.L267+4
 1839 0e42 93F87037 	 ldrb r3,[r3,#1904]
 1840 0e46 1846     	 mov r0,r3
 1841 0e48 FFF7FEFF 	 bl __aeabi_ui2d
 1842 0e4c 0246     	 mov r2,r0
 1843 0e4e 0B46     	 mov r3,r1
 1844 0e50 2046     	 mov r0,r4
 1845 0e52 2946     	 mov r1,r5
 1846 0e54 FFF7FEFF 	 bl __aeabi_dmul
 1847 0e58 0246     	 mov r2,r0
 1848 0e5a 0B46     	 mov r3,r1
 1849 0e5c 1449     	 ldr r1,.L267+4
 1850 0e5e C1E98023 	 strd r2,[r1,#512]
 555:../Simulink/Subsystem_Transmission.c **** 
 556:../Simulink/Subsystem_Transmission.c ****     /* RelationalOperator: '<S149>/Compare' incorporates:
 557:../Simulink/Subsystem_Transmission.c ****      *  Constant: '<S149>/Constant'
 558:../Simulink/Subsystem_Transmission.c ****      */
 559:../Simulink/Subsystem_Transmission.c ****     VCU_B.Compare_kk = (VCU_B.x_clutch_b > 20.0);
 1851              	 .loc 1 559 0
 1852 0e62 134B     	 ldr r3,.L267+4
 1853 0e64 03F5AB63 	 add r3,r3,#1368
 1854 0e68 D3E90023 	 ldrd r2,[r3]
 1855 0e6c 0121     	 movs r1,#1
 1856 0e6e 0C46     	 mov r4,r1
 1857 0e70 1046     	 mov r0,r2
 1858 0e72 1946     	 mov r1,r3
 1859 0e74 4FF00002 	 mov r2,#0
 1860 0e78 0E4B     	 ldr r3,.L267+8
 1861 0e7a FFF7FEFF 	 bl __aeabi_dcmpgt
 1862 0e7e 0346     	 mov r3,r0
 1863 0e80 002B     	 cmp r3,#0
 1864 0e82 01D1     	 bne .L81
 1865 0e84 0023     	 movs r3,#0
 1866 0e86 1C46     	 mov r4,r3
 1867              	.L81:
 1868 0e88 E3B2     	 uxtb r3,r4
 1869 0e8a 1A46     	 mov r2,r3
 1870 0e8c 084B     	 ldr r3,.L267+4
 1871 0e8e 83F87127 	 strb r2,[r3,#1905]
 560:../Simulink/Subsystem_Transmission.c **** 
 561:../Simulink/Subsystem_Transmission.c ****     /* Switch: '<S139>/Switch1' incorporates:
 562:../Simulink/Subsystem_Transmission.c ****      *  Constant: '<S139>/Constant2'
 563:../Simulink/Subsystem_Transmission.c ****      *  Constant: '<S139>/Constant3'
 564:../Simulink/Subsystem_Transmission.c ****      */
 565:../Simulink/Subsystem_Transmission.c ****     if (VCU_B.Compare_kk) {
 1872              	 .loc 1 565 0
 1873 0e92 074B     	 ldr r3,.L267+4
 1874 0e94 93F87137 	 ldrb r3,[r3,#1905]
 1875 0e98 002B     	 cmp r3,#0
 1876 0e9a 15D0     	 beq .L82
 566:../Simulink/Subsystem_Transmission.c ****       VCU_B.Switch1_n = 2.0;
 1877              	 .loc 1 566 0
 1878 0e9c 0449     	 ldr r1,.L267+4
 1879 0e9e 4FF00002 	 mov r2,#0
 1880 0ea2 4FF08043 	 mov r3,#1073741824
 1881 0ea6 C1E98223 	 strd r2,[r1,#520]
 1882 0eaa 13E0     	 b .L83
 1883              	.L268:
 1884              	 .align 2
 1885              	.L267:
 1886 0eac 00000000 	 .word VCU_DW
 1887 0eb0 00000000 	 .word VCU_B
 1888 0eb4 00003440 	 .word 1077149696
 1889 0eb8 0000F03F 	 .word 1072693248
 1890 0ebc 0000E0BF 	 .word -1075838976
 1891 0ec0 B0020000 	 .word VCU_ConstP+688
 1892 0ec4 38020000 	 .word VCU_ConstP+568
 1893              	.L82:
 567:../Simulink/Subsystem_Transmission.c ****     } else {
 568:../Simulink/Subsystem_Transmission.c ****       VCU_B.Switch1_n = 1.0;
 1894              	 .loc 1 568 0
 1895 0ec8 A549     	 ldr r1,.L269
 1896 0eca 4FF00002 	 mov r2,#0
 1897 0ece A54B     	 ldr r3,.L269+4
 1898 0ed0 C1E98223 	 strd r2,[r1,#520]
 1899              	.L83:
 569:../Simulink/Subsystem_Transmission.c ****     }
 570:../Simulink/Subsystem_Transmission.c **** 
 571:../Simulink/Subsystem_Transmission.c ****     /* End of Switch: '<S139>/Switch1' */
 572:../Simulink/Subsystem_Transmission.c **** 
 573:../Simulink/Subsystem_Transmission.c ****     /* Product: '<S139>/Product2' */
 574:../Simulink/Subsystem_Transmission.c ****     VCU_B.Product2_f = VCU_B.Product1_f * VCU_B.Switch1_n;
 1900              	 .loc 1 574 0
 1901 0ed4 A24B     	 ldr r3,.L269
 1902 0ed6 D3E98001 	 ldrd r0,[r3,#512]
 1903 0eda A14B     	 ldr r3,.L269
 1904 0edc D3E98223 	 ldrd r2,[r3,#520]
 1905 0ee0 FFF7FEFF 	 bl __aeabi_dmul
 1906 0ee4 0246     	 mov r2,r0
 1907 0ee6 0B46     	 mov r3,r1
 1908 0ee8 9D49     	 ldr r1,.L269
 1909 0eea C1E98423 	 strd r2,[r1,#528]
 575:../Simulink/Subsystem_Transmission.c **** 
 576:../Simulink/Subsystem_Transmission.c ****     /* DataTypeConversion: '<S136>/Data Type Conversion16' */
 577:../Simulink/Subsystem_Transmission.c ****     VCU_B.MHJ9_OUT_d5 = VCU_B.Product2_f;
 1910              	 .loc 1 577 0
 1911 0eee 9C4B     	 ldr r3,.L269
 1912 0ef0 D3E98423 	 ldrd r2,[r3,#528]
 1913 0ef4 9A49     	 ldr r1,.L269
 1914 0ef6 C1E98623 	 strd r2,[r1,#536]
 578:../Simulink/Subsystem_Transmission.c **** 
 579:../Simulink/Subsystem_Transmission.c ****     /* RelationalOperator: '<S151>/Compare' incorporates:
 580:../Simulink/Subsystem_Transmission.c ****      *  Constant: '<S151>/Constant'
 581:../Simulink/Subsystem_Transmission.c ****      */
 582:../Simulink/Subsystem_Transmission.c ****     VCU_B.Compare_js = (VCU_B.Add_g > 0.0);
 1915              	 .loc 1 582 0
 1916 0efa 994B     	 ldr r3,.L269
 1917 0efc D3E97C23 	 ldrd r2,[r3,#496]
 1918 0f00 0121     	 movs r1,#1
 1919 0f02 0C46     	 mov r4,r1
 1920 0f04 1046     	 mov r0,r2
 1921 0f06 1946     	 mov r1,r3
 1922 0f08 4FF00002 	 mov r2,#0
 1923 0f0c 4FF00003 	 mov r3,#0
 1924 0f10 FFF7FEFF 	 bl __aeabi_dcmpgt
 1925 0f14 0346     	 mov r3,r0
 1926 0f16 002B     	 cmp r3,#0
 1927 0f18 01D1     	 bne .L84
 1928 0f1a 0023     	 movs r3,#0
 1929 0f1c 1C46     	 mov r4,r3
 1930              	.L84:
 1931 0f1e E3B2     	 uxtb r3,r4
 1932 0f20 1A46     	 mov r2,r3
 1933 0f22 8F4B     	 ldr r3,.L269
 1934 0f24 83F87227 	 strb r2,[r3,#1906]
 583:../Simulink/Subsystem_Transmission.c **** 
 584:../Simulink/Subsystem_Transmission.c ****     /* Product: '<S139>/Product3' */
 585:../Simulink/Subsystem_Transmission.c ****     VCU_B.Product3_n = VCU_B.DutyCycleMHJ1_n * (real_T)VCU_B.Compare_js;
 1935              	 .loc 1 585 0
 1936 0f28 8D4B     	 ldr r3,.L269
 1937 0f2a D3E97E45 	 ldrd r4,[r3,#504]
 1938 0f2e 8C4B     	 ldr r3,.L269
 1939 0f30 93F87237 	 ldrb r3,[r3,#1906]
 1940 0f34 1846     	 mov r0,r3
 1941 0f36 FFF7FEFF 	 bl __aeabi_ui2d
 1942 0f3a 0246     	 mov r2,r0
 1943 0f3c 0B46     	 mov r3,r1
 1944 0f3e 2046     	 mov r0,r4
 1945 0f40 2946     	 mov r1,r5
 1946 0f42 FFF7FEFF 	 bl __aeabi_dmul
 1947 0f46 0246     	 mov r2,r0
 1948 0f48 0B46     	 mov r3,r1
 1949 0f4a 8549     	 ldr r1,.L269
 1950 0f4c C1E98823 	 strd r2,[r1,#544]
 586:../Simulink/Subsystem_Transmission.c **** 
 587:../Simulink/Subsystem_Transmission.c ****     /* DataTypeConversion: '<S136>/Data Type Conversion15' */
 588:../Simulink/Subsystem_Transmission.c ****     VCU_B.MHJ9_IN_h = VCU_B.Product3_n;
 1951              	 .loc 1 588 0
 1952 0f50 834B     	 ldr r3,.L269
 1953 0f52 D3E98823 	 ldrd r2,[r3,#544]
 1954 0f56 8249     	 ldr r1,.L269
 1955 0f58 C1E98A23 	 strd r2,[r1,#552]
 589:../Simulink/Subsystem_Transmission.c **** 
 590:../Simulink/Subsystem_Transmission.c ****     /* RelationalOperator: '<S152>/Compare' incorporates:
 591:../Simulink/Subsystem_Transmission.c ****      *  Constant: '<S152>/Constant'
 592:../Simulink/Subsystem_Transmission.c ****      */
 593:../Simulink/Subsystem_Transmission.c ****     VCU_B.Compare_hu = (VCU_B.Add_g < -20.0);
 1956              	 .loc 1 593 0
 1957 0f5c 804B     	 ldr r3,.L269
 1958 0f5e D3E97C23 	 ldrd r2,[r3,#496]
 1959 0f62 0121     	 movs r1,#1
 1960 0f64 0C46     	 mov r4,r1
 1961 0f66 1046     	 mov r0,r2
 1962 0f68 1946     	 mov r1,r3
 1963 0f6a 4FF00002 	 mov r2,#0
 1964 0f6e 7E4B     	 ldr r3,.L269+8
 1965 0f70 FFF7FEFF 	 bl __aeabi_dcmplt
 1966 0f74 0346     	 mov r3,r0
 1967 0f76 002B     	 cmp r3,#0
 1968 0f78 01D1     	 bne .L85
 1969 0f7a 0023     	 movs r3,#0
 1970 0f7c 1C46     	 mov r4,r3
 1971              	.L85:
 1972 0f7e E3B2     	 uxtb r3,r4
 1973 0f80 1A46     	 mov r2,r3
 1974 0f82 774B     	 ldr r3,.L269
 1975 0f84 83F87327 	 strb r2,[r3,#1907]
 594:../Simulink/Subsystem_Transmission.c **** 
 595:../Simulink/Subsystem_Transmission.c ****     /* DataTypeConversion: '<S136>/Data Type Conversion14' */
 596:../Simulink/Subsystem_Transmission.c ****     VCU_B.VOVG_OUT_b = VCU_B.Compare_hu;
 1976              	 .loc 1 596 0
 1977 0f88 754B     	 ldr r3,.L269
 1978 0f8a 93F87337 	 ldrb r3,[r3,#1907]
 1979 0f8e 1846     	 mov r0,r3
 1980 0f90 FFF7FEFF 	 bl __aeabi_ui2d
 1981 0f94 0246     	 mov r2,r0
 1982 0f96 0B46     	 mov r3,r1
 1983 0f98 7149     	 ldr r1,.L269
 1984 0f9a C1E98C23 	 strd r2,[r1,#560]
 597:../Simulink/Subsystem_Transmission.c **** 
 598:../Simulink/Subsystem_Transmission.c ****     /* DataTypeConversion: '<S136>/Data Type Conversion20' incorporates:
 599:../Simulink/Subsystem_Transmission.c ****      *  Constant: '<S136>/Constant'
 600:../Simulink/Subsystem_Transmission.c ****      */
 601:../Simulink/Subsystem_Transmission.c ****     VCU_B.LC_ready_bit_p = true;
 1985              	 .loc 1 601 0
 1986 0f9e 704B     	 ldr r3,.L269
 1987 0fa0 0122     	 movs r2,#1
 1988 0fa2 83F87427 	 strb r2,[r3,#1908]
 602:../Simulink/Subsystem_Transmission.c **** 
 603:../Simulink/Subsystem_Transmission.c ****     /* DataTypeConversion: '<S136>/Data Type Conversion17' */
 604:../Simulink/Subsystem_Transmission.c ****     VCU_B.x_clutch_LC_bg = 0.0;
 1989              	 .loc 1 604 0
 1990 0fa6 6E49     	 ldr r1,.L269
 1991 0fa8 4FF00002 	 mov r2,#0
 1992 0fac 4FF00003 	 mov r3,#0
 1993 0fb0 C1E98E23 	 strd r2,[r1,#568]
 605:../Simulink/Subsystem_Transmission.c **** 
 606:../Simulink/Subsystem_Transmission.c ****     /* DataTypeConversion: '<S136>/Data Type Conversion18' */
 607:../Simulink/Subsystem_Transmission.c ****     VCU_B.LC_Mdes_o = 0.0;
 1994              	 .loc 1 607 0
 1995 0fb4 6A49     	 ldr r1,.L269
 1996 0fb6 4FF00002 	 mov r2,#0
 1997 0fba 4FF00003 	 mov r3,#0
 1998 0fbe C1E99023 	 strd r2,[r1,#576]
 608:../Simulink/Subsystem_Transmission.c **** 
 609:../Simulink/Subsystem_Transmission.c ****     /* DataTypeConversion: '<S136>/Data Type Conversion19' */
 610:../Simulink/Subsystem_Transmission.c ****     VCU_B.LC_Fnr_lv = 0.0;
 1999              	 .loc 1 610 0
 2000 0fc2 6749     	 ldr r1,.L269
 2001 0fc4 4FF00002 	 mov r2,#0
 2002 0fc8 4FF00003 	 mov r3,#0
 2003 0fcc C1E99223 	 strd r2,[r1,#584]
 611:../Simulink/Subsystem_Transmission.c **** 
 612:../Simulink/Subsystem_Transmission.c ****     /* Update for Memory: '<S147>/Memory' */
 613:../Simulink/Subsystem_Transmission.c ****     VCU_DW.Memory_PreviousInput_g = VCU_B.LC_dash_bit;
 2004              	 .loc 1 613 0
 2005 0fd0 634B     	 ldr r3,.L269
 2006 0fd2 93F87F27 	 ldrb r2,[r3,#1919]
 2007 0fd6 654B     	 ldr r3,.L269+12
 2008 0fd8 83F83D21 	 strb r2,[r3,#317]
 614:../Simulink/Subsystem_Transmission.c **** 
 615:../Simulink/Subsystem_Transmission.c ****     /* Update for Memory: '<S147>/Memory1' */
 616:../Simulink/Subsystem_Transmission.c ****     VCU_DW.Memory1_PreviousInput_p = VCU_B.Brakelight_n;
 2009              	 .loc 1 616 0
 2010 0fdc 604B     	 ldr r3,.L269
 2011 0fde 93F82727 	 ldrb r2,[r3,#1831]
 2012 0fe2 624B     	 ldr r3,.L269+12
 2013 0fe4 83F83E21 	 strb r2,[r3,#318]
 617:../Simulink/Subsystem_Transmission.c **** 
 618:../Simulink/Subsystem_Transmission.c ****     /* Update for Memory: '<S189>/Memory' */
 619:../Simulink/Subsystem_Transmission.c ****     VCU_DW.Memory_PreviousInput_gi = VCU_B.Logic_b[0];
 2014              	 .loc 1 619 0
 2015 0fe8 5D4B     	 ldr r3,.L269
 2016 0fea 93F82B27 	 ldrb r2,[r3,#1835]
 2017 0fee 5F4B     	 ldr r3,.L269+12
 2018 0ff0 83F83F21 	 strb r2,[r3,#319]
 620:../Simulink/Subsystem_Transmission.c **** 
 621:../Simulink/Subsystem_Transmission.c ****     /* Update for UnitDelay: '<S144>/Unit Delay1' */
 622:../Simulink/Subsystem_Transmission.c ****     VCU_DW.UnitDelay1_DSTATE_p = VCU_B.Logic_c[0];
 2019              	 .loc 1 622 0
 2020 0ff4 5A4B     	 ldr r3,.L269
 2021 0ff6 93F83727 	 ldrb r2,[r3,#1847]
 2022 0ffa 5C4B     	 ldr r3,.L269+12
 2023 0ffc 83F8DD20 	 strb r2,[r3,#221]
 623:../Simulink/Subsystem_Transmission.c **** 
 624:../Simulink/Subsystem_Transmission.c ****     /* Update for Delay: '<S144>/Delay' */
 625:../Simulink/Subsystem_Transmission.c ****     for (rowIdx = 0; rowIdx < 19; rowIdx++) {
 2024              	 .loc 1 625 0
 2025 1000 0023     	 movs r3,#0
 2026 1002 7B61     	 str r3,[r7,#20]
 2027 1004 0EE0     	 b .L86
 2028              	.L87:
 626:../Simulink/Subsystem_Transmission.c ****       VCU_DW.Delay_DSTATE_j[rowIdx] = VCU_DW.Delay_DSTATE_j[rowIdx + 1];
 2029              	 .loc 1 626 0 discriminator 3
 2030 1006 7B69     	 ldr r3,[r7,#20]
 2031 1008 0133     	 adds r3,r3,#1
 2032 100a 584A     	 ldr r2,.L269+12
 2033 100c 1344     	 add r3,r3,r2
 2034 100e 93F8DE10 	 ldrb r1,[r3,#222]
 2035 1012 564A     	 ldr r2,.L269+12
 2036 1014 7B69     	 ldr r3,[r7,#20]
 2037 1016 1344     	 add r3,r3,r2
 2038 1018 D833     	 adds r3,r3,#216
 2039 101a 0A46     	 mov r2,r1
 2040 101c 9A71     	 strb r2,[r3,#6]
 625:../Simulink/Subsystem_Transmission.c ****       VCU_DW.Delay_DSTATE_j[rowIdx] = VCU_DW.Delay_DSTATE_j[rowIdx + 1];
 2041              	 .loc 1 625 0 discriminator 3
 2042 101e 7B69     	 ldr r3,[r7,#20]
 2043 1020 0133     	 adds r3,r3,#1
 2044 1022 7B61     	 str r3,[r7,#20]
 2045              	.L86:
 625:../Simulink/Subsystem_Transmission.c ****       VCU_DW.Delay_DSTATE_j[rowIdx] = VCU_DW.Delay_DSTATE_j[rowIdx + 1];
 2046              	 .loc 1 625 0 is_stmt 0 discriminator 1
 2047 1024 7B69     	 ldr r3,[r7,#20]
 2048 1026 122B     	 cmp r3,#18
 2049 1028 EDDD     	 ble .L87
 627:../Simulink/Subsystem_Transmission.c ****     }
 628:../Simulink/Subsystem_Transmission.c **** 
 629:../Simulink/Subsystem_Transmission.c ****     VCU_DW.Delay_DSTATE_j[19] = VCU_B.LogicalOperator_n;
 2050              	 .loc 1 629 0 is_stmt 1
 2051 102a 4D4B     	 ldr r3,.L269
 2052 102c 93F84727 	 ldrb r2,[r3,#1863]
 2053 1030 4E4B     	 ldr r3,.L269+12
 2054 1032 83F8F120 	 strb r2,[r3,#241]
 630:../Simulink/Subsystem_Transmission.c **** 
 631:../Simulink/Subsystem_Transmission.c ****     /* End of Update for Delay: '<S144>/Delay' */
 632:../Simulink/Subsystem_Transmission.c **** 
 633:../Simulink/Subsystem_Transmission.c ****     /* Update for Memory: '<S174>/Memory' */
 634:../Simulink/Subsystem_Transmission.c ****     VCU_DW.Memory_PreviousInput_pa = VCU_B.Logic_g[0];
 2055              	 .loc 1 634 0
 2056 1036 4A4B     	 ldr r3,.L269
 2057 1038 93F83227 	 ldrb r2,[r3,#1842]
 2058 103c 4B4B     	 ldr r3,.L269+12
 2059 103e 83F84021 	 strb r2,[r3,#320]
 635:../Simulink/Subsystem_Transmission.c **** 
 636:../Simulink/Subsystem_Transmission.c ****     /* Update for UnitDelay: '<S171>/Delay Input1'
 637:../Simulink/Subsystem_Transmission.c ****      *
 638:../Simulink/Subsystem_Transmission.c ****      * Block description for '<S171>/Delay Input1':
 639:../Simulink/Subsystem_Transmission.c ****      *
 640:../Simulink/Subsystem_Transmission.c ****      *  Store in Global RAM
 641:../Simulink/Subsystem_Transmission.c ****      */
 642:../Simulink/Subsystem_Transmission.c ****     VCU_DW.DelayInput1_DSTATE_j = VCU_B.STW_shift_down_request;
 2060              	 .loc 1 642 0
 2061 1042 474B     	 ldr r3,.L269
 2062 1044 03F59D63 	 add r3,r3,#1256
 2063 1048 D3E90023 	 ldrd r2,[r3]
 2064 104c 4749     	 ldr r1,.L269+12
 2065 104e C1E90423 	 strd r2,[r1,#16]
 643:../Simulink/Subsystem_Transmission.c **** 
 644:../Simulink/Subsystem_Transmission.c ****     /* Update for Delay: '<S144>/Delay1' */
 645:../Simulink/Subsystem_Transmission.c ****     VCU_DW.Delay1_DSTATE_p = VCU_B.LogicalOperator_n;
 2066              	 .loc 1 645 0
 2067 1052 434B     	 ldr r3,.L269
 2068 1054 93F84727 	 ldrb r2,[r3,#1863]
 2069 1058 444B     	 ldr r3,.L269+12
 2070 105a 83F8F220 	 strb r2,[r3,#242]
 646:../Simulink/Subsystem_Transmission.c **** 
 647:../Simulink/Subsystem_Transmission.c ****     /* Update for Memory: '<S172>/Memory' */
 648:../Simulink/Subsystem_Transmission.c ****     VCU_DW.Memory_PreviousInput_c = VCU_B.Logic_c[0];
 2071              	 .loc 1 648 0
 2072 105e 404B     	 ldr r3,.L269
 2073 1060 93F83727 	 ldrb r2,[r3,#1847]
 2074 1064 414B     	 ldr r3,.L269+12
 2075 1066 83F84121 	 strb r2,[r3,#321]
 649:../Simulink/Subsystem_Transmission.c **** 
 650:../Simulink/Subsystem_Transmission.c ****     /* Update for UnitDelay: '<S144>/Unit Delay4' */
 651:../Simulink/Subsystem_Transmission.c ****     VCU_DW.UnitDelay4_DSTATE_e = VCU_B.FixPtRelationalOperator_o;
 2076              	 .loc 1 651 0
 2077 106a 3D4B     	 ldr r3,.L269
 2078 106c 93F86E27 	 ldrb r2,[r3,#1902]
 2079 1070 3E4B     	 ldr r3,.L269+12
 2080 1072 83F8F320 	 strb r2,[r3,#243]
 652:../Simulink/Subsystem_Transmission.c **** 
 653:../Simulink/Subsystem_Transmission.c ****     /* Update for UnitDelay: '<S145>/Unit Delay' */
 654:../Simulink/Subsystem_Transmission.c ****     VCU_DW.UnitDelay_DSTATE_g = VCU_B.Logic_jv[0];
 2081              	 .loc 1 654 0
 2082 1076 3A4B     	 ldr r3,.L269
 2083 1078 93F86427 	 ldrb r2,[r3,#1892]
 2084 107c 3B4B     	 ldr r3,.L269+12
 2085 107e 83F8F420 	 strb r2,[r3,#244]
 655:../Simulink/Subsystem_Transmission.c **** 
 656:../Simulink/Subsystem_Transmission.c ****     /* Update for UnitDelay: '<S144>/Unit Delay2' */
 657:../Simulink/Subsystem_Transmission.c ****     VCU_DW.UnitDelay2_DSTATE_k = VCU_B.Counter_f;
 2086              	 .loc 1 657 0
 2087 1082 374B     	 ldr r3,.L269
 2088 1084 93F86C27 	 ldrb r2,[r3,#1900]
 2089 1088 384B     	 ldr r3,.L269+12
 2090 108a 83F8F520 	 strb r2,[r3,#245]
 658:../Simulink/Subsystem_Transmission.c **** 
 659:../Simulink/Subsystem_Transmission.c ****     /* Update for Memory: '<S173>/Memory' */
 660:../Simulink/Subsystem_Transmission.c ****     VCU_DW.Memory_PreviousInput_jz = VCU_B.Logic_j[0];
 2091              	 .loc 1 660 0
 2092 108e 344B     	 ldr r3,.L269
 2093 1090 93F84927 	 ldrb r2,[r3,#1865]
 2094 1094 354B     	 ldr r3,.L269+12
 2095 1096 83F84221 	 strb r2,[r3,#322]
 661:../Simulink/Subsystem_Transmission.c **** 
 662:../Simulink/Subsystem_Transmission.c ****     /* Update for UnitDelay: '<S187>/Delay Input1'
 663:../Simulink/Subsystem_Transmission.c ****      *
 664:../Simulink/Subsystem_Transmission.c ****      * Block description for '<S187>/Delay Input1':
 665:../Simulink/Subsystem_Transmission.c ****      *
 666:../Simulink/Subsystem_Transmission.c ****      *  Store in Global RAM
 667:../Simulink/Subsystem_Transmission.c ****      */
 668:../Simulink/Subsystem_Transmission.c ****     VCU_DW.DelayInput1_DSTATE_m5 = VCU_B.LogicalOperator3_n;
 2096              	 .loc 1 668 0
 2097 109a 314B     	 ldr r3,.L269
 2098 109c 93F85027 	 ldrb r2,[r3,#1872]
 2099 10a0 324B     	 ldr r3,.L269+12
 2100 10a2 83F8F620 	 strb r2,[r3,#246]
 669:../Simulink/Subsystem_Transmission.c **** 
 670:../Simulink/Subsystem_Transmission.c ****     /* Update for UnitDelay: '<S180>/Delay Input1'
 671:../Simulink/Subsystem_Transmission.c ****      *
 672:../Simulink/Subsystem_Transmission.c ****      * Block description for '<S180>/Delay Input1':
 673:../Simulink/Subsystem_Transmission.c ****      *
 674:../Simulink/Subsystem_Transmission.c ****      *  Store in Global RAM
 675:../Simulink/Subsystem_Transmission.c ****      */
 676:../Simulink/Subsystem_Transmission.c ****     VCU_DW.DelayInput1_DSTATE_m = VCU_B.Add_ax;
 2101              	 .loc 1 676 0
 2102 10a6 2E4B     	 ldr r3,.L269
 2103 10a8 93F88A26 	 ldrb r2,[r3,#1674]
 2104 10ac 2F4B     	 ldr r3,.L269+12
 2105 10ae 83F8BF20 	 strb r2,[r3,#191]
 677:../Simulink/Subsystem_Transmission.c **** 
 678:../Simulink/Subsystem_Transmission.c ****     /* Update for UnitDelay: '<S144>/Unit Delay' */
 679:../Simulink/Subsystem_Transmission.c ****     VCU_DW.UnitDelay_DSTATE_n = VCU_B.Logic_j[0];
 2106              	 .loc 1 679 0
 2107 10b2 2B4B     	 ldr r3,.L269
 2108 10b4 93F84927 	 ldrb r2,[r3,#1865]
 2109 10b8 2C4B     	 ldr r3,.L269+12
 2110 10ba 83F8F720 	 strb r2,[r3,#247]
 680:../Simulink/Subsystem_Transmission.c **** 
 681:../Simulink/Subsystem_Transmission.c ****     /* Update for UnitDelay: '<S145>/Unit Delay1' */
 682:../Simulink/Subsystem_Transmission.c ****     VCU_DW.UnitDelay1_DSTATE_l = VCU_B.Counter_g;
 2111              	 .loc 1 682 0
 2112 10be 284B     	 ldr r3,.L269
 2113 10c0 93F86D27 	 ldrb r2,[r3,#1901]
 2114 10c4 294B     	 ldr r3,.L269+12
 2115 10c6 83F8F820 	 strb r2,[r3,#248]
 683:../Simulink/Subsystem_Transmission.c **** 
 684:../Simulink/Subsystem_Transmission.c ****     /* Update for Memory: '<S188>/Memory' */
 685:../Simulink/Subsystem_Transmission.c ****     VCU_DW.Memory_PreviousInput_n = VCU_B.Logic_gy[0];
 2116              	 .loc 1 685 0
 2117 10ca 254B     	 ldr r3,.L269
 2118 10cc 93F85E27 	 ldrb r2,[r3,#1886]
 2119 10d0 264B     	 ldr r3,.L269+12
 2120 10d2 83F84321 	 strb r2,[r3,#323]
 686:../Simulink/Subsystem_Transmission.c **** 
 687:../Simulink/Subsystem_Transmission.c ****     /* Update for UnitDelay: '<S179>/Delay Input1'
 688:../Simulink/Subsystem_Transmission.c ****      *
 689:../Simulink/Subsystem_Transmission.c ****      * Block description for '<S179>/Delay Input1':
 690:../Simulink/Subsystem_Transmission.c ****      *
 691:../Simulink/Subsystem_Transmission.c ****      *  Store in Global RAM
 692:../Simulink/Subsystem_Transmission.c ****      */
 693:../Simulink/Subsystem_Transmission.c ****     VCU_DW.DelayInput1_DSTATE_e = VCU_B.LogicalOperator3_e;
 2121              	 .loc 1 693 0
 2122 10d6 224B     	 ldr r3,.L269
 2123 10d8 93F86027 	 ldrb r2,[r3,#1888]
 2124 10dc 234B     	 ldr r3,.L269+12
 2125 10de 83F8F920 	 strb r2,[r3,#249]
 694:../Simulink/Subsystem_Transmission.c **** 
 695:../Simulink/Subsystem_Transmission.c ****     /* Update for Memory: '<S182>/Memory' */
 696:../Simulink/Subsystem_Transmission.c ****     VCU_DW.Memory_PreviousInput_e = VCU_B.Logic_jv[0];
 2126              	 .loc 1 696 0
 2127 10e2 1F4B     	 ldr r3,.L269
 2128 10e4 93F86427 	 ldrb r2,[r3,#1892]
 2129 10e8 204B     	 ldr r3,.L269+12
 2130 10ea 83F84421 	 strb r2,[r3,#324]
 697:../Simulink/Subsystem_Transmission.c **** 
 698:../Simulink/Subsystem_Transmission.c ****     /* Update for UnitDelay: '<S181>/Delay Input1'
 699:../Simulink/Subsystem_Transmission.c ****      *
 700:../Simulink/Subsystem_Transmission.c ****      * Block description for '<S181>/Delay Input1':
 701:../Simulink/Subsystem_Transmission.c ****      *
 702:../Simulink/Subsystem_Transmission.c ****      *  Store in Global RAM
 703:../Simulink/Subsystem_Transmission.c ****      */
 704:../Simulink/Subsystem_Transmission.c ****     VCU_DW.DelayInput1_DSTATE_b = VCU_B.Add_ax;
 2131              	 .loc 1 704 0
 2132 10ee 1C4B     	 ldr r3,.L269
 2133 10f0 93F88A26 	 ldrb r2,[r3,#1674]
 2134 10f4 1D4B     	 ldr r3,.L269+12
 2135 10f6 83F8C020 	 strb r2,[r3,#192]
 705:../Simulink/Subsystem_Transmission.c **** 
 706:../Simulink/Subsystem_Transmission.c ****     /* Update for Memory: '<S183>/Memory' */
 707:../Simulink/Subsystem_Transmission.c ****     VCU_DW.Memory_PreviousInput_ez = VCU_B.Logic_p[0];
 2136              	 .loc 1 707 0
 2137 10fa 194B     	 ldr r3,.L269
 2138 10fc 93F86A27 	 ldrb r2,[r3,#1898]
 2139 1100 1A4B     	 ldr r3,.L269+12
 2140 1102 83F84521 	 strb r2,[r3,#325]
 708:../Simulink/Subsystem_Transmission.c **** 
 709:../Simulink/Subsystem_Transmission.c ****     /* Update for UnitDelay: '<S170>/Delay Input1'
 710:../Simulink/Subsystem_Transmission.c ****      *
 711:../Simulink/Subsystem_Transmission.c ****      * Block description for '<S170>/Delay Input1':
 712:../Simulink/Subsystem_Transmission.c ****      *
 713:../Simulink/Subsystem_Transmission.c ****      *  Store in Global RAM
 714:../Simulink/Subsystem_Transmission.c ****      */
 715:../Simulink/Subsystem_Transmission.c ****     VCU_DW.DelayInput1_DSTATE_n = VCU_B.Add_fn;
 2141              	 .loc 1 715 0
 2142 1106 164B     	 ldr r3,.L269
 2143 1108 93F88926 	 ldrb r2,[r3,#1673]
 2144 110c 174B     	 ldr r3,.L269+12
 2145 110e 83F8C120 	 strb r2,[r3,#193]
 2146              	.L11:
 716:../Simulink/Subsystem_Transmission.c ****   }
 717:../Simulink/Subsystem_Transmission.c **** 
 718:../Simulink/Subsystem_Transmission.c ****   /* End of Outputs for SubSystem: '<S7>/LC_jr19' */
 719:../Simulink/Subsystem_Transmission.c **** 
 720:../Simulink/Subsystem_Transmission.c ****   /* RelationalOperator: '<S132>/Compare' incorporates:
 721:../Simulink/Subsystem_Transmission.c ****    *  Constant: '<S132>/Constant'
 722:../Simulink/Subsystem_Transmission.c ****    */
 723:../Simulink/Subsystem_Transmission.c ****   VCU_B.Compare_c = (VCU_B.DataTypeConversion_cg == 1);
 2147              	 .loc 1 723 0
 2148 1112 134B     	 ldr r3,.L269
 2149 1114 93F8C836 	 ldrb r3,[r3,#1736]
 2150 1118 5BB2     	 sxtb r3,r3
 2151 111a 012B     	 cmp r3,#1
 2152 111c 0CBF     	 ite eq
 2153 111e 0123     	 moveq r3,#1
 2154 1120 0023     	 movne r3,#0
 2155 1122 DBB2     	 uxtb r3,r3
 2156 1124 1A46     	 mov r2,r3
 2157 1126 0E4B     	 ldr r3,.L269
 2158 1128 83F8CA26 	 strb r2,[r3,#1738]
 724:../Simulink/Subsystem_Transmission.c **** 
 725:../Simulink/Subsystem_Transmission.c ****   /* RelationalOperator: '<S133>/Compare' incorporates:
 726:../Simulink/Subsystem_Transmission.c ****    *  Constant: '<S133>/Constant'
 727:../Simulink/Subsystem_Transmission.c ****    */
 728:../Simulink/Subsystem_Transmission.c ****   VCU_B.Compare_g = (VCU_B.DataTypeConversion_cg > 3);
 2159              	 .loc 1 728 0
 2160 112c 0C4B     	 ldr r3,.L269
 2161 112e 93F8C836 	 ldrb r3,[r3,#1736]
 2162 1132 5BB2     	 sxtb r3,r3
 2163 1134 032B     	 cmp r3,#3
 2164 1136 CCBF     	 ite gt
 2165 1138 0123     	 movgt r3,#1
 2166 113a 0023     	 movle r3,#0
 2167 113c DBB2     	 uxtb r3,r3
 2168 113e 1A46     	 mov r2,r3
 2169 1140 074B     	 ldr r3,.L269
 2170 1142 83F8CB26 	 strb r2,[r3,#1739]
 729:../Simulink/Subsystem_Transmission.c **** 
 730:../Simulink/Subsystem_Transmission.c ****   /* Logic: '<S7>/Logical Operator' */
 731:../Simulink/Subsystem_Transmission.c ****   VCU_B.LogicalOperator = (VCU_B.Compare_c || VCU_B.Compare_g);
 2171              	 .loc 1 731 0
 2172 1146 064B     	 ldr r3,.L269
 2173 1148 93F8CA36 	 ldrb r3,[r3,#1738]
 2174 114c 002B     	 cmp r3,#0
 2175 114e 04D1     	 bne .L88
 2176              	 .loc 1 731 0 is_stmt 0 discriminator 2
 2177 1150 034B     	 ldr r3,.L269
 2178 1152 93F8CB36 	 ldrb r3,[r3,#1739]
 2179 1156 002B     	 cmp r3,#0
 2180 1158 0AD0     	 beq .L89
 2181              	.L88:
 2182              	 .loc 1 731 0 discriminator 3
 2183 115a 0123     	 movs r3,#1
 2184 115c 09E0     	 b .L90
 2185              	.L270:
 2186 115e 00BF     	 .align 2
 2187              	.L269:
 2188 1160 00000000 	 .word VCU_B
 2189 1164 0000F03F 	 .word 1072693248
 2190 1168 000034C0 	 .word -1070333952
 2191 116c 00000000 	 .word VCU_DW
 2192              	.L89:
 2193              	 .loc 1 731 0 discriminator 4
 2194 1170 0023     	 movs r3,#0
 2195              	.L90:
 2196              	 .loc 1 731 0 discriminator 6
 2197 1172 DAB2     	 uxtb r2,r3
 2198 1174 624B     	 ldr r3,.L271
 2199 1176 83F8CC26 	 strb r2,[r3,#1740]
 732:../Simulink/Subsystem_Transmission.c **** 
 733:../Simulink/Subsystem_Transmission.c ****   /* Outputs for Enabled SubSystem: '<S7>/semi_auto_jr18' incorporates:
 734:../Simulink/Subsystem_Transmission.c ****    *  EnablePort: '<S138>/Enable'
 735:../Simulink/Subsystem_Transmission.c ****    */
 736:../Simulink/Subsystem_Transmission.c ****   if (VCU_B.LogicalOperator) {
 2200              	 .loc 1 736 0 is_stmt 1 discriminator 6
 2201 117a 614B     	 ldr r3,.L271
 2202 117c 93F8CC36 	 ldrb r3,[r3,#1740]
 2203 1180 002B     	 cmp r3,#0
 2204 1182 00F04387 	 beq .L91
 737:../Simulink/Subsystem_Transmission.c ****     /* Memory: '<S201>/Memory' */
 738:../Simulink/Subsystem_Transmission.c ****     VCU_B.Memory = VCU_DW.Memory_PreviousInput;
 2205              	 .loc 1 738 0
 2206 1186 5F4B     	 ldr r3,.L271+4
 2207 1188 93F83521 	 ldrb r2,[r3,#309]
 2208 118c 5C4B     	 ldr r3,.L271
 2209 118e 83F8D026 	 strb r2,[r3,#1744]
 739:../Simulink/Subsystem_Transmission.c **** 
 740:../Simulink/Subsystem_Transmission.c ****     /* CombinatorialLogic: '<S227>/Logic' incorporates:
 741:../Simulink/Subsystem_Transmission.c ****      *  RelationalOperator: '<S201>/GreaterThan'
 742:../Simulink/Subsystem_Transmission.c ****      */
 743:../Simulink/Subsystem_Transmission.c ****     VCU_B.GreaterThan = ((int32_T)VCU_B.LC_dash_bit > (int32_T)VCU_B.Memory);
 2210              	 .loc 1 743 0
 2211 1192 5B4B     	 ldr r3,.L271
 2212 1194 93F87F27 	 ldrb r2,[r3,#1919]
 2213 1198 594B     	 ldr r3,.L271
 2214 119a 93F8D036 	 ldrb r3,[r3,#1744]
 2215 119e 9A42     	 cmp r2,r3
 2216 11a0 8CBF     	 ite hi
 2217 11a2 0123     	 movhi r3,#1
 2218 11a4 0023     	 movls r3,#0
 2219 11a6 DBB2     	 uxtb r3,r3
 2220 11a8 1A46     	 mov r2,r3
 2221 11aa 554B     	 ldr r3,.L271
 2222 11ac 83F8D126 	 strb r2,[r3,#1745]
 744:../Simulink/Subsystem_Transmission.c **** 
 745:../Simulink/Subsystem_Transmission.c ****     /* Logic: '<S201>/Logical Operator2' */
 746:../Simulink/Subsystem_Transmission.c ****     VCU_B.LogicalOperator2 = !VCU_B.LC_dash_bit;
 2223              	 .loc 1 746 0
 2224 11b0 534B     	 ldr r3,.L271
 2225 11b2 93F87F37 	 ldrb r3,[r3,#1919]
 2226 11b6 002B     	 cmp r3,#0
 2227 11b8 0CBF     	 ite eq
 2228 11ba 0123     	 moveq r3,#1
 2229 11bc 0023     	 movne r3,#0
 2230 11be DBB2     	 uxtb r3,r3
 2231 11c0 1A46     	 mov r2,r3
 2232 11c2 4F4B     	 ldr r3,.L271
 2233 11c4 83F8D226 	 strb r2,[r3,#1746]
 747:../Simulink/Subsystem_Transmission.c **** 
 748:../Simulink/Subsystem_Transmission.c ****     /* Memory: '<S201>/Memory1' */
 749:../Simulink/Subsystem_Transmission.c ****     VCU_B.Memory1 = VCU_DW.Memory1_PreviousInput;
 2234              	 .loc 1 749 0
 2235 11c8 4E4B     	 ldr r3,.L271+4
 2236 11ca 93F83621 	 ldrb r2,[r3,#310]
 2237 11ce 4C4B     	 ldr r3,.L271
 2238 11d0 83F8D326 	 strb r2,[r3,#1747]
 750:../Simulink/Subsystem_Transmission.c **** 
 751:../Simulink/Subsystem_Transmission.c ****     /* RelationalOperator: '<S201>/Relational Operator' incorporates:
 752:../Simulink/Subsystem_Transmission.c ****      *  Constant: '<S201>/Constant'
 753:../Simulink/Subsystem_Transmission.c ****      */
 754:../Simulink/Subsystem_Transmission.c ****     VCU_B.RelationalOperator = (VCU_B.Sensitivity1538mVbar > 3.0);
 2239              	 .loc 1 754 0
 2240 11d4 4A4B     	 ldr r3,.L271
 2241 11d6 03F5B163 	 add r3,r3,#1416
 2242 11da D3E90023 	 ldrd r2,[r3]
 2243 11de 0121     	 movs r1,#1
 2244 11e0 0C46     	 mov r4,r1
 2245 11e2 1046     	 mov r0,r2
 2246 11e4 1946     	 mov r1,r3
 2247 11e6 4FF00002 	 mov r2,#0
 2248 11ea 474B     	 ldr r3,.L271+8
 2249 11ec FFF7FEFF 	 bl __aeabi_dcmpgt
 2250 11f0 0346     	 mov r3,r0
 2251 11f2 002B     	 cmp r3,#0
 2252 11f4 01D1     	 bne .L92
 2253 11f6 0023     	 movs r3,#0
 2254 11f8 1C46     	 mov r4,r3
 2255              	.L92:
 2256 11fa E3B2     	 uxtb r3,r4
 2257 11fc 1A46     	 mov r2,r3
 2258 11fe 404B     	 ldr r3,.L271
 2259 1200 83F8D426 	 strb r2,[r3,#1748]
 755:../Simulink/Subsystem_Transmission.c **** 
 756:../Simulink/Subsystem_Transmission.c ****     /* RelationalOperator: '<S201>/Relational Operator1' incorporates:
 757:../Simulink/Subsystem_Transmission.c ****      *  Constant: '<S201>/Constant'
 758:../Simulink/Subsystem_Transmission.c ****      */
 759:../Simulink/Subsystem_Transmission.c ****     VCU_B.RelationalOperator1 = (3.0 < VCU_B.Add1_m);
 2260              	 .loc 1 759 0
 2261 1204 3E4B     	 ldr r3,.L271
 2262 1206 03F58363 	 add r3,r3,#1048
 2263 120a D3E90023 	 ldrd r2,[r3]
 2264 120e 0121     	 movs r1,#1
 2265 1210 0C46     	 mov r4,r1
 2266 1212 1046     	 mov r0,r2
 2267 1214 1946     	 mov r1,r3
 2268 1216 4FF00002 	 mov r2,#0
 2269 121a 3B4B     	 ldr r3,.L271+8
 2270 121c FFF7FEFF 	 bl __aeabi_dcmpgt
 2271 1220 0346     	 mov r3,r0
 2272 1222 002B     	 cmp r3,#0
 2273 1224 01D1     	 bne .L93
 2274 1226 0023     	 movs r3,#0
 2275 1228 1C46     	 mov r4,r3
 2276              	.L93:
 2277 122a E3B2     	 uxtb r3,r4
 2278 122c 1A46     	 mov r2,r3
 2279 122e 344B     	 ldr r3,.L271
 2280 1230 83F8D526 	 strb r2,[r3,#1749]
 760:../Simulink/Subsystem_Transmission.c **** 
 761:../Simulink/Subsystem_Transmission.c ****     /* Logic: '<S201>/Logical Operator' */
 762:../Simulink/Subsystem_Transmission.c ****     VCU_B.Brakelight = (VCU_B.RelationalOperator || VCU_B.RelationalOperator1);
 2281              	 .loc 1 762 0
 2282 1234 324B     	 ldr r3,.L271
 2283 1236 93F8D436 	 ldrb r3,[r3,#1748]
 2284 123a 002B     	 cmp r3,#0
 2285 123c 04D1     	 bne .L94
 2286              	 .loc 1 762 0 is_stmt 0 discriminator 2
 2287 123e 304B     	 ldr r3,.L271
 2288 1240 93F8D536 	 ldrb r3,[r3,#1749]
 2289 1244 002B     	 cmp r3,#0
 2290 1246 01D0     	 beq .L95
 2291              	.L94:
 2292              	 .loc 1 762 0 discriminator 3
 2293 1248 0123     	 movs r3,#1
 2294 124a 00E0     	 b .L96
 2295              	.L95:
 2296              	 .loc 1 762 0 discriminator 4
 2297 124c 0023     	 movs r3,#0
 2298              	.L96:
 2299              	 .loc 1 762 0 discriminator 6
 2300 124e DAB2     	 uxtb r2,r3
 2301 1250 2B4B     	 ldr r3,.L271
 2302 1252 83F8D626 	 strb r2,[r3,#1750]
 763:../Simulink/Subsystem_Transmission.c **** 
 764:../Simulink/Subsystem_Transmission.c ****     /* RelationalOperator: '<S201>/GreaterThan1' */
 765:../Simulink/Subsystem_Transmission.c ****     VCU_B.GreaterThan1 = ((int32_T)VCU_B.Memory1 > (int32_T)VCU_B.Brakelight);
 2303              	 .loc 1 765 0 is_stmt 1 discriminator 6
 2304 1256 2A4B     	 ldr r3,.L271
 2305 1258 93F8D326 	 ldrb r2,[r3,#1747]
 2306 125c 284B     	 ldr r3,.L271
 2307 125e 93F8D636 	 ldrb r3,[r3,#1750]
 2308 1262 9A42     	 cmp r2,r3
 2309 1264 8CBF     	 ite hi
 2310 1266 0123     	 movhi r3,#1
 2311 1268 0023     	 movls r3,#0
 2312 126a DBB2     	 uxtb r3,r3
 2313 126c 1A46     	 mov r2,r3
 2314 126e 244B     	 ldr r3,.L271
 2315 1270 83F8D726 	 strb r2,[r3,#1751]
 766:../Simulink/Subsystem_Transmission.c **** 
 767:../Simulink/Subsystem_Transmission.c ****     /* CombinatorialLogic: '<S227>/Logic' incorporates:
 768:../Simulink/Subsystem_Transmission.c ****      *  Logic: '<S201>/Logical Operator1'
 769:../Simulink/Subsystem_Transmission.c ****      *  Memory: '<S227>/Memory'
 770:../Simulink/Subsystem_Transmission.c ****      */
 771:../Simulink/Subsystem_Transmission.c ****     VCU_B.LogicalOperator1 = (VCU_B.LogicalOperator2 || VCU_B.GreaterThan1);
 2316              	 .loc 1 771 0 discriminator 6
 2317 1274 224B     	 ldr r3,.L271
 2318 1276 93F8D236 	 ldrb r3,[r3,#1746]
 2319 127a 002B     	 cmp r3,#0
 2320 127c 04D1     	 bne .L97
 2321              	 .loc 1 771 0 is_stmt 0 discriminator 2
 2322 127e 204B     	 ldr r3,.L271
 2323 1280 93F8D736 	 ldrb r3,[r3,#1751]
 2324 1284 002B     	 cmp r3,#0
 2325 1286 01D0     	 beq .L98
 2326              	.L97:
 2327              	 .loc 1 771 0 discriminator 3
 2328 1288 0123     	 movs r3,#1
 2329 128a 00E0     	 b .L99
 2330              	.L98:
 2331              	 .loc 1 771 0 discriminator 4
 2332 128c 0023     	 movs r3,#0
 2333              	.L99:
 2334              	 .loc 1 771 0 discriminator 6
 2335 128e DAB2     	 uxtb r2,r3
 2336 1290 1B4B     	 ldr r3,.L271
 2337 1292 83F8D826 	 strb r2,[r3,#1752]
 772:../Simulink/Subsystem_Transmission.c ****     VCU_B.Memory_c = VCU_DW.Memory_PreviousInput_j;
 2338              	 .loc 1 772 0 is_stmt 1 discriminator 6
 2339 1296 1B4B     	 ldr r3,.L271+4
 2340 1298 93F83721 	 ldrb r2,[r3,#311]
 2341 129c 184B     	 ldr r3,.L271
 2342 129e 83F8D926 	 strb r2,[r3,#1753]
 773:../Simulink/Subsystem_Transmission.c ****     rowIdx = VCU_B.GreaterThan;
 2343              	 .loc 1 773 0 discriminator 6
 2344 12a2 174B     	 ldr r3,.L271
 2345 12a4 93F8D136 	 ldrb r3,[r3,#1745]
 2346 12a8 7B61     	 str r3,[r7,#20]
 774:../Simulink/Subsystem_Transmission.c ****     rowIdx = (int32_T)(((uint32_T)rowIdx << 1) + VCU_B.LogicalOperator1);
 2347              	 .loc 1 774 0 discriminator 6
 2348 12aa 7B69     	 ldr r3,[r7,#20]
 2349 12ac 5B00     	 lsls r3,r3,#1
 2350 12ae 144A     	 ldr r2,.L271
 2351 12b0 92F8D826 	 ldrb r2,[r2,#1752]
 2352 12b4 1344     	 add r3,r3,r2
 2353 12b6 7B61     	 str r3,[r7,#20]
 775:../Simulink/Subsystem_Transmission.c ****     rowIdx = (int32_T)(((uint32_T)rowIdx << 1) + VCU_B.Memory_c);
 2354              	 .loc 1 775 0 discriminator 6
 2355 12b8 7B69     	 ldr r3,[r7,#20]
 2356 12ba 5B00     	 lsls r3,r3,#1
 2357 12bc 104A     	 ldr r2,.L271
 2358 12be 92F8D926 	 ldrb r2,[r2,#1753]
 2359 12c2 1344     	 add r3,r3,r2
 2360 12c4 7B61     	 str r3,[r7,#20]
 776:../Simulink/Subsystem_Transmission.c ****     VCU_B.Logic[0U] = VCU_ConstP.pooled37[(uint32_T)rowIdx];
 2361              	 .loc 1 776 0 discriminator 6
 2362 12c6 7B69     	 ldr r3,[r7,#20]
 2363 12c8 104A     	 ldr r2,.L271+12
 2364 12ca 1344     	 add r3,r3,r2
 2365 12cc 93F83023 	 ldrb r2,[r3,#816]
 2366 12d0 0B4B     	 ldr r3,.L271
 2367 12d2 83F8DA26 	 strb r2,[r3,#1754]
 777:../Simulink/Subsystem_Transmission.c ****     VCU_B.Logic[1U] = VCU_ConstP.pooled37[rowIdx + 8U];
 2368              	 .loc 1 777 0 discriminator 6
 2369 12d6 7B69     	 ldr r3,[r7,#20]
 2370 12d8 0833     	 adds r3,r3,#8
 2371 12da 0C4A     	 ldr r2,.L271+12
 2372 12dc 1344     	 add r3,r3,r2
 2373 12de 93F83023 	 ldrb r2,[r3,#816]
 2374 12e2 074B     	 ldr r3,.L271
 2375 12e4 83F8DB26 	 strb r2,[r3,#1755]
 778:../Simulink/Subsystem_Transmission.c **** 
 779:../Simulink/Subsystem_Transmission.c ****     /* Logic: '<S201>/Logical Operator3' */
 780:../Simulink/Subsystem_Transmission.c ****     VCU_B.LogicalOperator3 = (VCU_B.Logic[0] && VCU_B.Brakelight);
 2376              	 .loc 1 780 0 discriminator 6
 2377 12e8 054B     	 ldr r3,.L271
 2378 12ea 93F8DA36 	 ldrb r3,[r3,#1754]
 2379 12ee 002B     	 cmp r3,#0
 2380 12f0 0ED0     	 beq .L100
 2381              	 .loc 1 780 0 is_stmt 0 discriminator 1
 2382 12f2 034B     	 ldr r3,.L271
 2383 12f4 93F8D636 	 ldrb r3,[r3,#1750]
 2384 12f8 002B     	 cmp r3,#0
 2385 12fa 09D0     	 beq .L100
 2386              	 .loc 1 780 0 discriminator 3
 2387 12fc 0123     	 movs r3,#1
 2388 12fe 08E0     	 b .L101
 2389              	.L272:
 2390              	 .align 2
 2391              	.L271:
 2392 1300 00000000 	 .word VCU_B
 2393 1304 00000000 	 .word VCU_DW
 2394 1308 00000840 	 .word 1074266112
 2395 130c 00000000 	 .word VCU_ConstP
 2396              	.L100:
 2397              	 .loc 1 780 0 discriminator 4
 2398 1310 0023     	 movs r3,#0
 2399              	.L101:
 2400              	 .loc 1 780 0 discriminator 6
 2401 1312 DAB2     	 uxtb r2,r3
 2402 1314 924B     	 ldr r3,.L273+16
 2403 1316 83F8DC26 	 strb r2,[r3,#1756]
 781:../Simulink/Subsystem_Transmission.c **** 
 782:../Simulink/Subsystem_Transmission.c ****     /* DataTypeConversion: '<S138>/Data Type Conversion1' */
 783:../Simulink/Subsystem_Transmission.c ****     VCU_B.LC_active_bit_f = VCU_B.LogicalOperator3;
 2404              	 .loc 1 783 0 is_stmt 1 discriminator 6
 2405 131a 914B     	 ldr r3,.L273+16
 2406 131c 93F8DC26 	 ldrb r2,[r3,#1756]
 2407 1320 8F4B     	 ldr r3,.L273+16
 2408 1322 83F8DD26 	 strb r2,[r3,#1757]
 784:../Simulink/Subsystem_Transmission.c **** 
 785:../Simulink/Subsystem_Transmission.c ****     /* CombinatorialLogic: '<S216>/Logic' incorporates:
 786:../Simulink/Subsystem_Transmission.c ****      *  Delay: '<S199>/Delay'
 787:../Simulink/Subsystem_Transmission.c ****      *  Memory: '<S216>/Memory'
 788:../Simulink/Subsystem_Transmission.c ****      *  UnitDelay: '<S199>/Unit Delay1'
 789:../Simulink/Subsystem_Transmission.c ****      */
 790:../Simulink/Subsystem_Transmission.c ****     VCU_B.UnitDelay1 = VCU_DW.UnitDelay1_DSTATE;
 2409              	 .loc 1 790 0 discriminator 6
 2410 1326 8F4B     	 ldr r3,.L273+20
 2411 1328 93F8C220 	 ldrb r2,[r3,#194]
 2412 132c 8C4B     	 ldr r3,.L273+16
 2413 132e 83F8DE26 	 strb r2,[r3,#1758]
 791:../Simulink/Subsystem_Transmission.c ****     VCU_B.Delay = VCU_DW.Delay_DSTATE[0];
 2414              	 .loc 1 791 0 discriminator 6
 2415 1332 8C4B     	 ldr r3,.L273+20
 2416 1334 93F8C320 	 ldrb r2,[r3,#195]
 2417 1338 894B     	 ldr r3,.L273+16
 2418 133a 83F8DF26 	 strb r2,[r3,#1759]
 792:../Simulink/Subsystem_Transmission.c ****     VCU_B.Memory_g = VCU_DW.Memory_PreviousInput_p;
 2419              	 .loc 1 792 0 discriminator 6
 2420 133e 894B     	 ldr r3,.L273+20
 2421 1340 93F83821 	 ldrb r2,[r3,#312]
 2422 1344 864B     	 ldr r3,.L273+16
 2423 1346 83F8E026 	 strb r2,[r3,#1760]
 793:../Simulink/Subsystem_Transmission.c ****     rowIdx = VCU_B.UnitDelay1;
 2424              	 .loc 1 793 0 discriminator 6
 2425 134a 854B     	 ldr r3,.L273+16
 2426 134c 93F8DE36 	 ldrb r3,[r3,#1758]
 2427 1350 7B61     	 str r3,[r7,#20]
 794:../Simulink/Subsystem_Transmission.c ****     rowIdx = (int32_T)(((uint32_T)rowIdx << 1) + VCU_B.Delay);
 2428              	 .loc 1 794 0 discriminator 6
 2429 1352 7B69     	 ldr r3,[r7,#20]
 2430 1354 5B00     	 lsls r3,r3,#1
 2431 1356 824A     	 ldr r2,.L273+16
 2432 1358 92F8DF26 	 ldrb r2,[r2,#1759]
 2433 135c 1344     	 add r3,r3,r2
 2434 135e 7B61     	 str r3,[r7,#20]
 795:../Simulink/Subsystem_Transmission.c ****     rowIdx = (int32_T)(((uint32_T)rowIdx << 1) + VCU_B.Memory_g);
 2435              	 .loc 1 795 0 discriminator 6
 2436 1360 7B69     	 ldr r3,[r7,#20]
 2437 1362 5B00     	 lsls r3,r3,#1
 2438 1364 7E4A     	 ldr r2,.L273+16
 2439 1366 92F8E026 	 ldrb r2,[r2,#1760]
 2440 136a 1344     	 add r3,r3,r2
 2441 136c 7B61     	 str r3,[r7,#20]
 796:../Simulink/Subsystem_Transmission.c ****     VCU_B.Logic_o[0U] = VCU_ConstP.pooled37[(uint32_T)rowIdx];
 2442              	 .loc 1 796 0 discriminator 6
 2443 136e 7B69     	 ldr r3,[r7,#20]
 2444 1370 7D4A     	 ldr r2,.L273+24
 2445 1372 1344     	 add r3,r3,r2
 2446 1374 93F83023 	 ldrb r2,[r3,#816]
 2447 1378 794B     	 ldr r3,.L273+16
 2448 137a 83F8E126 	 strb r2,[r3,#1761]
 797:../Simulink/Subsystem_Transmission.c ****     VCU_B.Logic_o[1U] = VCU_ConstP.pooled37[rowIdx + 8U];
 2449              	 .loc 1 797 0 discriminator 6
 2450 137e 7B69     	 ldr r3,[r7,#20]
 2451 1380 0833     	 adds r3,r3,#8
 2452 1382 794A     	 ldr r2,.L273+24
 2453 1384 1344     	 add r3,r3,r2
 2454 1386 93F83023 	 ldrb r2,[r3,#816]
 2455 138a 754B     	 ldr r3,.L273+16
 2456 138c 83F8E226 	 strb r2,[r3,#1762]
 798:../Simulink/Subsystem_Transmission.c **** 
 799:../Simulink/Subsystem_Transmission.c ****     /* DataTypeConversion: '<S138>/Data Type Conversion10' */
 800:../Simulink/Subsystem_Transmission.c ****     VCU_B.VOVG_ShiftDown_m = VCU_B.Logic_o[0];
 2457              	 .loc 1 800 0 discriminator 6
 2458 1390 734B     	 ldr r3,.L273+16
 2459 1392 93F8E136 	 ldrb r3,[r3,#1761]
 2460 1396 1846     	 mov r0,r3
 2461 1398 FFF7FEFF 	 bl __aeabi_ui2d
 2462 139c 0246     	 mov r2,r0
 2463 139e 0B46     	 mov r3,r1
 2464 13a0 6F49     	 ldr r1,.L273+16
 2465 13a2 C1E91423 	 strd r2,[r1,#80]
 801:../Simulink/Subsystem_Transmission.c **** 
 802:../Simulink/Subsystem_Transmission.c ****     /* UnitDelay: '<S213>/Delay Input1'
 803:../Simulink/Subsystem_Transmission.c ****      *
 804:../Simulink/Subsystem_Transmission.c ****      * Block description for '<S213>/Delay Input1':
 805:../Simulink/Subsystem_Transmission.c ****      *
 806:../Simulink/Subsystem_Transmission.c ****      *  Store in Global RAM
 807:../Simulink/Subsystem_Transmission.c ****      */
 808:../Simulink/Subsystem_Transmission.c ****     VCU_B.Uk1 = VCU_DW.DelayInput1_DSTATE;
 2466              	 .loc 1 808 0 discriminator 6
 2467 13a6 6F4B     	 ldr r3,.L273+20
 2468 13a8 D3E90023 	 ldrd r2,[r3]
 2469 13ac 6C49     	 ldr r1,.L273+16
 2470 13ae C1E91623 	 strd r2,[r1,#88]
 809:../Simulink/Subsystem_Transmission.c **** 
 810:../Simulink/Subsystem_Transmission.c ****     /* CombinatorialLogic: '<S214>/Logic' incorporates:
 811:../Simulink/Subsystem_Transmission.c ****      *  Delay: '<S199>/Delay1'
 812:../Simulink/Subsystem_Transmission.c ****      *  Memory: '<S214>/Memory'
 813:../Simulink/Subsystem_Transmission.c ****      *  RelationalOperator: '<S213>/FixPt Relational Operator'
 814:../Simulink/Subsystem_Transmission.c ****      */
 815:../Simulink/Subsystem_Transmission.c ****     VCU_B.FixPtRelationalOperator = (VCU_B.STW_shift_down_request > VCU_B.Uk1);
 2471              	 .loc 1 815 0 discriminator 6
 2472 13b2 6B4B     	 ldr r3,.L273+16
 2473 13b4 03F59D63 	 add r3,r3,#1256
 2474 13b8 D3E90001 	 ldrd r0,[r3]
 2475 13bc 684B     	 ldr r3,.L273+16
 2476 13be D3E91623 	 ldrd r2,[r3,#88]
 2477 13c2 0124     	 movs r4,#1
 2478 13c4 FFF7FEFF 	 bl __aeabi_dcmpgt
 2479 13c8 0346     	 mov r3,r0
 2480 13ca 002B     	 cmp r3,#0
 2481 13cc 01D1     	 bne .L102
 2482 13ce 0023     	 movs r3,#0
 2483 13d0 1C46     	 mov r4,r3
 2484              	.L102:
 2485 13d2 E3B2     	 uxtb r3,r4
 2486 13d4 1A46     	 mov r2,r3
 2487 13d6 624B     	 ldr r3,.L273+16
 2488 13d8 83F8E326 	 strb r2,[r3,#1763]
 816:../Simulink/Subsystem_Transmission.c ****     VCU_B.Delay1 = VCU_DW.Delay1_DSTATE;
 2489              	 .loc 1 816 0 discriminator 6
 2490 13dc 614B     	 ldr r3,.L273+20
 2491 13de 93F8D720 	 ldrb r2,[r3,#215]
 2492 13e2 5F4B     	 ldr r3,.L273+16
 2493 13e4 83F8E426 	 strb r2,[r3,#1764]
 817:../Simulink/Subsystem_Transmission.c ****     VCU_B.Memory_d = VCU_DW.Memory_PreviousInput_l;
 2494              	 .loc 1 817 0 discriminator 6
 2495 13e8 5E4B     	 ldr r3,.L273+20
 2496 13ea 93F83921 	 ldrb r2,[r3,#313]
 2497 13ee 5C4B     	 ldr r3,.L273+16
 2498 13f0 83F8E526 	 strb r2,[r3,#1765]
 818:../Simulink/Subsystem_Transmission.c ****     rowIdx = VCU_B.FixPtRelationalOperator;
 2499              	 .loc 1 818 0 discriminator 6
 2500 13f4 5A4B     	 ldr r3,.L273+16
 2501 13f6 93F8E336 	 ldrb r3,[r3,#1763]
 2502 13fa 7B61     	 str r3,[r7,#20]
 819:../Simulink/Subsystem_Transmission.c ****     rowIdx = (int32_T)(((uint32_T)rowIdx << 1) + VCU_B.Delay1);
 2503              	 .loc 1 819 0 discriminator 6
 2504 13fc 7B69     	 ldr r3,[r7,#20]
 2505 13fe 5B00     	 lsls r3,r3,#1
 2506 1400 574A     	 ldr r2,.L273+16
 2507 1402 92F8E426 	 ldrb r2,[r2,#1764]
 2508 1406 1344     	 add r3,r3,r2
 2509 1408 7B61     	 str r3,[r7,#20]
 820:../Simulink/Subsystem_Transmission.c ****     rowIdx = (int32_T)(((uint32_T)rowIdx << 1) + VCU_B.Memory_d);
 2510              	 .loc 1 820 0 discriminator 6
 2511 140a 7B69     	 ldr r3,[r7,#20]
 2512 140c 5B00     	 lsls r3,r3,#1
 2513 140e 544A     	 ldr r2,.L273+16
 2514 1410 92F8E526 	 ldrb r2,[r2,#1765]
 2515 1414 1344     	 add r3,r3,r2
 2516 1416 7B61     	 str r3,[r7,#20]
 821:../Simulink/Subsystem_Transmission.c ****     VCU_B.Logic_i[0U] = VCU_ConstP.pooled37[(uint32_T)rowIdx];
 2517              	 .loc 1 821 0 discriminator 6
 2518 1418 7B69     	 ldr r3,[r7,#20]
 2519 141a 534A     	 ldr r2,.L273+24
 2520 141c 1344     	 add r3,r3,r2
 2521 141e 93F83023 	 ldrb r2,[r3,#816]
 2522 1422 4F4B     	 ldr r3,.L273+16
 2523 1424 83F8E626 	 strb r2,[r3,#1766]
 822:../Simulink/Subsystem_Transmission.c ****     VCU_B.Logic_i[1U] = VCU_ConstP.pooled37[rowIdx + 8U];
 2524              	 .loc 1 822 0 discriminator 6
 2525 1428 7B69     	 ldr r3,[r7,#20]
 2526 142a 0833     	 adds r3,r3,#8
 2527 142c 4E4A     	 ldr r2,.L273+24
 2528 142e 1344     	 add r3,r3,r2
 2529 1430 93F83023 	 ldrb r2,[r3,#816]
 2530 1434 4A4B     	 ldr r3,.L273+16
 2531 1436 83F8E726 	 strb r2,[r3,#1767]
 823:../Simulink/Subsystem_Transmission.c **** 
 824:../Simulink/Subsystem_Transmission.c ****     /* UnitDelay: '<S199>/Unit Delay4' */
 825:../Simulink/Subsystem_Transmission.c ****     VCU_B.UnitDelay4 = VCU_DW.UnitDelay4_DSTATE;
 2532              	 .loc 1 825 0 discriminator 6
 2533 143a 4A4B     	 ldr r3,.L273+20
 2534 143c 93F8D820 	 ldrb r2,[r3,#216]
 2535 1440 474B     	 ldr r3,.L273+16
 2536 1442 83F8E826 	 strb r2,[r3,#1768]
 826:../Simulink/Subsystem_Transmission.c **** 
 827:../Simulink/Subsystem_Transmission.c ****     /* Gain: '<S217>/Gain' */
 828:../Simulink/Subsystem_Transmission.c ****     VCU_B.Gain = 2.0 * VCU_B.DataTypeConversion1;
 2537              	 .loc 1 828 0 discriminator 6
 2538 1446 464B     	 ldr r3,.L273+16
 2539 1448 03F58F63 	 add r3,r3,#1144
 2540 144c D3E90023 	 ldrd r2,[r3]
 2541 1450 1046     	 mov r0,r2
 2542 1452 1946     	 mov r1,r3
 2543 1454 FFF7FEFF 	 bl __aeabi_dadd
 2544 1458 0246     	 mov r2,r0
 2545 145a 0B46     	 mov r3,r1
 2546 145c 4049     	 ldr r1,.L273+16
 2547 145e C1E91823 	 strd r2,[r1,#96]
 829:../Simulink/Subsystem_Transmission.c **** 
 830:../Simulink/Subsystem_Transmission.c ****     /* RelationalOperator: '<S217>/Relational Operator' incorporates:
 831:../Simulink/Subsystem_Transmission.c ****      *  Constant: '<S217>/Constant'
 832:../Simulink/Subsystem_Transmission.c ****      */
 833:../Simulink/Subsystem_Transmission.c ****     VCU_B.RelationalOperator_m = (VCU_B.Gain > 169.0);
 2548              	 .loc 1 833 0 discriminator 6
 2549 1462 3F4B     	 ldr r3,.L273+16
 2550 1464 D3E91823 	 ldrd r2,[r3,#96]
 2551 1468 0121     	 movs r1,#1
 2552 146a 0C46     	 mov r4,r1
 2553 146c 1046     	 mov r0,r2
 2554 146e 1946     	 mov r1,r3
 2555 1470 37A3     	 adr r3,.L273
 2556 1472 D3E90023 	 ldrd r2,[r3]
 2557 1476 FFF7FEFF 	 bl __aeabi_dcmpgt
 2558 147a 0346     	 mov r3,r0
 2559 147c 002B     	 cmp r3,#0
 2560 147e 01D1     	 bne .L103
 2561 1480 0023     	 movs r3,#0
 2562 1482 1C46     	 mov r4,r3
 2563              	.L103:
 2564 1484 E3B2     	 uxtb r3,r4
 2565 1486 1A46     	 mov r2,r3
 2566 1488 354B     	 ldr r3,.L273+16
 2567 148a 83F8E926 	 strb r2,[r3,#1769]
 834:../Simulink/Subsystem_Transmission.c **** 
 835:../Simulink/Subsystem_Transmission.c ****     /* RelationalOperator: '<S217>/Relational Operator1' incorporates:
 836:../Simulink/Subsystem_Transmission.c ****      *  Constant: '<S217>/Constant1'
 837:../Simulink/Subsystem_Transmission.c ****      */
 838:../Simulink/Subsystem_Transmission.c ****     VCU_B.RelationalOperator1_o = (VCU_B.Gain > 228.0);
 2568              	 .loc 1 838 0 discriminator 6
 2569 148e 344B     	 ldr r3,.L273+16
 2570 1490 D3E91823 	 ldrd r2,[r3,#96]
 2571 1494 0121     	 movs r1,#1
 2572 1496 0C46     	 mov r4,r1
 2573 1498 1046     	 mov r0,r2
 2574 149a 1946     	 mov r1,r3
 2575 149c 4FF00002 	 mov r2,#0
 2576 14a0 324B     	 ldr r3,.L273+28
 2577 14a2 FFF7FEFF 	 bl __aeabi_dcmpgt
 2578 14a6 0346     	 mov r3,r0
 2579 14a8 002B     	 cmp r3,#0
 2580 14aa 01D1     	 bne .L104
 2581 14ac 0023     	 movs r3,#0
 2582 14ae 1C46     	 mov r4,r3
 2583              	.L104:
 2584 14b0 E3B2     	 uxtb r3,r4
 2585 14b2 1A46     	 mov r2,r3
 2586 14b4 2A4B     	 ldr r3,.L273+16
 2587 14b6 83F8EA26 	 strb r2,[r3,#1770]
 839:../Simulink/Subsystem_Transmission.c **** 
 840:../Simulink/Subsystem_Transmission.c ****     /* RelationalOperator: '<S217>/Relational Operator2' incorporates:
 841:../Simulink/Subsystem_Transmission.c ****      *  Constant: '<S217>/Constant2'
 842:../Simulink/Subsystem_Transmission.c ****      */
 843:../Simulink/Subsystem_Transmission.c ****     VCU_B.RelationalOperator2 = (VCU_B.Gain > 325.0);
 2588              	 .loc 1 843 0 discriminator 6
 2589 14ba 294B     	 ldr r3,.L273+16
 2590 14bc D3E91823 	 ldrd r2,[r3,#96]
 2591 14c0 0121     	 movs r1,#1
 2592 14c2 0C46     	 mov r4,r1
 2593 14c4 1046     	 mov r0,r2
 2594 14c6 1946     	 mov r1,r3
 2595 14c8 23A3     	 adr r3,.L273+8
 2596 14ca D3E90023 	 ldrd r2,[r3]
 2597 14ce FFF7FEFF 	 bl __aeabi_dcmpgt
 2598 14d2 0346     	 mov r3,r0
 2599 14d4 002B     	 cmp r3,#0
 2600 14d6 01D1     	 bne .L105
 2601 14d8 0023     	 movs r3,#0
 2602 14da 1C46     	 mov r4,r3
 2603              	.L105:
 2604 14dc E3B2     	 uxtb r3,r4
 2605 14de 1A46     	 mov r2,r3
 2606 14e0 1F4B     	 ldr r3,.L273+16
 2607 14e2 83F8EB26 	 strb r2,[r3,#1771]
 844:../Simulink/Subsystem_Transmission.c **** 
 845:../Simulink/Subsystem_Transmission.c ****     /* Sum: '<S217>/Add' */
 846:../Simulink/Subsystem_Transmission.c ****     VCU_B.Add_c = (uint8_T)(((uint32_T)VCU_B.RelationalOperator_m +
 2608              	 .loc 1 846 0 discriminator 6
 2609 14e6 1E4B     	 ldr r3,.L273+16
 2610 14e8 93F8E926 	 ldrb r2,[r3,#1769]
 847:../Simulink/Subsystem_Transmission.c ****       VCU_B.RelationalOperator1_o) + VCU_B.RelationalOperator2);
 2611              	 .loc 1 847 0 discriminator 6
 2612 14ec 1C4B     	 ldr r3,.L273+16
 2613 14ee 93F8EA36 	 ldrb r3,[r3,#1770]
 846:../Simulink/Subsystem_Transmission.c ****       VCU_B.RelationalOperator1_o) + VCU_B.RelationalOperator2);
 2614              	 .loc 1 846 0 discriminator 6
 2615 14f2 1344     	 add r3,r3,r2
 2616 14f4 DAB2     	 uxtb r2,r3
 2617              	 .loc 1 847 0 discriminator 6
 2618 14f6 1A4B     	 ldr r3,.L273+16
 2619 14f8 93F8EB36 	 ldrb r3,[r3,#1771]
 846:../Simulink/Subsystem_Transmission.c ****       VCU_B.RelationalOperator1_o) + VCU_B.RelationalOperator2);
 2620              	 .loc 1 846 0 discriminator 6
 2621 14fc 1344     	 add r3,r3,r2
 2622 14fe DAB2     	 uxtb r2,r3
 2623 1500 174B     	 ldr r3,.L273+16
 2624 1502 83F88426 	 strb r2,[r3,#1668]
 848:../Simulink/Subsystem_Transmission.c **** 
 849:../Simulink/Subsystem_Transmission.c ****     /* RelationalOperator: '<S207>/Compare' incorporates:
 850:../Simulink/Subsystem_Transmission.c ****      *  Constant: '<S207>/Constant'
 851:../Simulink/Subsystem_Transmission.c ****      */
 852:../Simulink/Subsystem_Transmission.c ****     VCU_B.Compare_b = (VCU_B.x_clutch_STW >= 15.0);
 2625              	 .loc 1 852 0 discriminator 6
 2626 1506 164B     	 ldr r3,.L273+16
 2627 1508 03F59A63 	 add r3,r3,#1232
 2628 150c D3E90023 	 ldrd r2,[r3]
 2629 1510 0121     	 movs r1,#1
 2630 1512 0C46     	 mov r4,r1
 2631 1514 1046     	 mov r0,r2
 2632 1516 1946     	 mov r1,r3
 2633 1518 4FF00002 	 mov r2,#0
 2634 151c 144B     	 ldr r3,.L273+32
 2635 151e FFF7FEFF 	 bl __aeabi_dcmpge
 2636 1522 0346     	 mov r3,r0
 2637 1524 002B     	 cmp r3,#0
 2638 1526 01D1     	 bne .L106
 2639 1528 0023     	 movs r3,#0
 2640 152a 1C46     	 mov r4,r3
 2641              	.L106:
 2642 152c E3B2     	 uxtb r3,r4
 2643 152e 1A46     	 mov r2,r3
 2644 1530 0B4B     	 ldr r3,.L273+16
 2645 1532 83F8EC26 	 strb r2,[r3,#1772]
 853:../Simulink/Subsystem_Transmission.c **** 
 854:../Simulink/Subsystem_Transmission.c ****     /* Switch: '<S199>/Switch' incorporates:
 855:../Simulink/Subsystem_Transmission.c ****      *  Constant: '<S199>/Constant'
 856:../Simulink/Subsystem_Transmission.c ****      *  Constant: '<S199>/Constant1'
 857:../Simulink/Subsystem_Transmission.c ****      */
 858:../Simulink/Subsystem_Transmission.c ****     if (VCU_B.Compare_b) {
 2646              	 .loc 1 858 0 discriminator 6
 2647 1536 0A4B     	 ldr r3,.L273+16
 2648 1538 93F8EC36 	 ldrb r3,[r3,#1772]
 2649 153c 002B     	 cmp r3,#0
 2650 153e 1BD0     	 beq .L107
 859:../Simulink/Subsystem_Transmission.c ****       VCU_B.Switch = 1.0;
 2651              	 .loc 1 859 0
 2652 1540 0749     	 ldr r1,.L273+16
 2653 1542 4FF00002 	 mov r2,#0
 2654 1546 0B4B     	 ldr r3,.L273+36
 2655 1548 C1E91A23 	 strd r2,[r1,#104]
 2656 154c 1BE0     	 b .L108
 2657              	.L274:
 2658 154e 00BF     	 .align 3
 2659              	.L273:
 2660 1550 00000000 	 .word 0
 2661 1554 00206540 	 .word 1080369152
 2662 1558 00000000 	 .word 0
 2663 155c 00507440 	 .word 1081364480
 2664 1560 00000000 	 .word VCU_B
 2665 1564 00000000 	 .word VCU_DW
 2666 1568 00000000 	 .word VCU_ConstP
 2667 156c 00806C40 	 .word 1080852480
 2668 1570 00002E40 	 .word 1076756480
 2669 1574 0000F03F 	 .word 1072693248
 2670              	.L107:
 860:../Simulink/Subsystem_Transmission.c ****     } else {
 861:../Simulink/Subsystem_Transmission.c ****       VCU_B.Switch = 2.0;
 2671              	 .loc 1 861 0
 2672 1578 5F49     	 ldr r1,.L275+16
 2673 157a 4FF00002 	 mov r2,#0
 2674 157e 4FF08043 	 mov r3,#1073741824
 2675 1582 C1E91A23 	 strd r2,[r1,#104]
 2676              	.L108:
 862:../Simulink/Subsystem_Transmission.c ****     }
 863:../Simulink/Subsystem_Transmission.c **** 
 864:../Simulink/Subsystem_Transmission.c ****     /* End of Switch: '<S199>/Switch' */
 865:../Simulink/Subsystem_Transmission.c **** 
 866:../Simulink/Subsystem_Transmission.c ****     /* RelationalOperator: '<S199>/Relational Operator' */
 867:../Simulink/Subsystem_Transmission.c ****     VCU_B.LessthanNeutral = (VCU_B.Add_c < VCU_B.Switch);
 2677              	 .loc 1 867 0
 2678 1586 5C4B     	 ldr r3,.L275+16
 2679 1588 93F88436 	 ldrb r3,[r3,#1668]
 2680 158c 1846     	 mov r0,r3
 2681 158e FFF7FEFF 	 bl __aeabi_i2d
 2682 1592 0446     	 mov r4,r0
 2683 1594 0D46     	 mov r5,r1
 2684 1596 584B     	 ldr r3,.L275+16
 2685 1598 D3E91A23 	 ldrd r2,[r3,#104]
 2686 159c 0121     	 movs r1,#1
 2687 159e 0E46     	 mov r6,r1
 2688 15a0 2046     	 mov r0,r4
 2689 15a2 2946     	 mov r1,r5
 2690 15a4 FFF7FEFF 	 bl __aeabi_dcmplt
 2691 15a8 0346     	 mov r3,r0
 2692 15aa 002B     	 cmp r3,#0
 2693 15ac 01D1     	 bne .L109
 2694 15ae 0023     	 movs r3,#0
 2695 15b0 1E46     	 mov r6,r3
 2696              	.L109:
 2697 15b2 F3B2     	 uxtb r3,r6
 2698 15b4 1A46     	 mov r2,r3
 2699 15b6 504B     	 ldr r3,.L275+16
 2700 15b8 83F8ED26 	 strb r2,[r3,#1773]
 868:../Simulink/Subsystem_Transmission.c **** 
 869:../Simulink/Subsystem_Transmission.c ****     /* UnitDelay: '<S200>/Unit Delay' */
 870:../Simulink/Subsystem_Transmission.c ****     VCU_B.UnitDelay = VCU_DW.UnitDelay_DSTATE;
 2701              	 .loc 1 870 0
 2702 15bc 4F4B     	 ldr r3,.L275+20
 2703 15be 93F8D920 	 ldrb r2,[r3,#217]
 2704 15c2 4D4B     	 ldr r3,.L275+16
 2705 15c4 83F8EE26 	 strb r2,[r3,#1774]
 871:../Simulink/Subsystem_Transmission.c **** 
 872:../Simulink/Subsystem_Transmission.c ****     /* UnitDelay: '<S199>/Unit Delay2' */
 873:../Simulink/Subsystem_Transmission.c ****     VCU_B.Timeout = VCU_DW.UnitDelay2_DSTATE;
 2706              	 .loc 1 873 0
 2707 15c8 4C4B     	 ldr r3,.L275+20
 2708 15ca 93F8DA20 	 ldrb r2,[r3,#218]
 2709 15ce 4A4B     	 ldr r3,.L275+16
 2710 15d0 83F8EF26 	 strb r2,[r3,#1775]
 874:../Simulink/Subsystem_Transmission.c **** 
 875:../Simulink/Subsystem_Transmission.c ****     /* RelationalOperator: '<S208>/Compare' incorporates:
 876:../Simulink/Subsystem_Transmission.c ****      *  Constant: '<S208>/Constant'
 877:../Simulink/Subsystem_Transmission.c ****      */
 878:../Simulink/Subsystem_Transmission.c ****     VCU_B.Compare_f = (VCU_B.DataTypeConversion2 > 5000.0);
 2711              	 .loc 1 878 0
 2712 15d4 484B     	 ldr r3,.L275+16
 2713 15d6 03F59063 	 add r3,r3,#1152
 2714 15da D3E90023 	 ldrd r2,[r3]
 2715 15de 0121     	 movs r1,#1
 2716 15e0 0C46     	 mov r4,r1
 2717 15e2 1046     	 mov r0,r2
 2718 15e4 1946     	 mov r1,r3
 2719 15e6 40A3     	 adr r3,.L275
 2720 15e8 D3E90023 	 ldrd r2,[r3]
 2721 15ec FFF7FEFF 	 bl __aeabi_dcmpgt
 2722 15f0 0346     	 mov r3,r0
 2723 15f2 002B     	 cmp r3,#0
 2724 15f4 01D1     	 bne .L110
 2725 15f6 0023     	 movs r3,#0
 2726 15f8 1C46     	 mov r4,r3
 2727              	.L110:
 2728 15fa E3B2     	 uxtb r3,r4
 2729 15fc 1A46     	 mov r2,r3
 2730 15fe 3E4B     	 ldr r3,.L275+16
 2731 1600 83F8F026 	 strb r2,[r3,#1776]
 879:../Simulink/Subsystem_Transmission.c **** 
 880:../Simulink/Subsystem_Transmission.c ****     /* RelationalOperator: '<S209>/Compare' incorporates:
 881:../Simulink/Subsystem_Transmission.c ****      *  Constant: '<S209>/Constant'
 882:../Simulink/Subsystem_Transmission.c ****      */
 883:../Simulink/Subsystem_Transmission.c ****     VCU_B.Compare_n = (VCU_B.Add_c == 2);
 2732              	 .loc 1 883 0
 2733 1604 3C4B     	 ldr r3,.L275+16
 2734 1606 93F88436 	 ldrb r3,[r3,#1668]
 2735 160a 022B     	 cmp r3,#2
 2736 160c 0CBF     	 ite eq
 2737 160e 0123     	 moveq r3,#1
 2738 1610 0023     	 movne r3,#0
 2739 1612 DBB2     	 uxtb r3,r3
 2740 1614 1A46     	 mov r2,r3
 2741 1616 384B     	 ldr r3,.L275+16
 2742 1618 83F8F126 	 strb r2,[r3,#1777]
 884:../Simulink/Subsystem_Transmission.c **** 
 885:../Simulink/Subsystem_Transmission.c ****     /* Logic: '<S199>/Logical Operator1' */
 886:../Simulink/Subsystem_Transmission.c ****     VCU_B.RPMcheckgear21 = (VCU_B.Compare_n && VCU_B.Compare_f);
 2743              	 .loc 1 886 0
 2744 161c 364B     	 ldr r3,.L275+16
 2745 161e 93F8F136 	 ldrb r3,[r3,#1777]
 2746 1622 002B     	 cmp r3,#0
 2747 1624 06D0     	 beq .L111
 2748              	 .loc 1 886 0 is_stmt 0 discriminator 1
 2749 1626 344B     	 ldr r3,.L275+16
 2750 1628 93F8F036 	 ldrb r3,[r3,#1776]
 2751 162c 002B     	 cmp r3,#0
 2752 162e 01D0     	 beq .L111
 2753              	 .loc 1 886 0 discriminator 3
 2754 1630 0123     	 movs r3,#1
 2755 1632 00E0     	 b .L112
 2756              	.L111:
 2757              	 .loc 1 886 0 discriminator 4
 2758 1634 0023     	 movs r3,#0
 2759              	.L112:
 2760              	 .loc 1 886 0 discriminator 6
 2761 1636 DAB2     	 uxtb r2,r3
 2762 1638 2F4B     	 ldr r3,.L275+16
 2763 163a 83F8F226 	 strb r2,[r3,#1778]
 887:../Simulink/Subsystem_Transmission.c **** 
 888:../Simulink/Subsystem_Transmission.c ****     /* RelationalOperator: '<S210>/Compare' incorporates:
 889:../Simulink/Subsystem_Transmission.c ****      *  Constant: '<S210>/Constant'
 890:../Simulink/Subsystem_Transmission.c ****      */
 891:../Simulink/Subsystem_Transmission.c ****     VCU_B.Compare_l = (VCU_B.DataTypeConversion2 > 5300.0);
 2764              	 .loc 1 891 0 is_stmt 1 discriminator 6
 2765 163e 2E4B     	 ldr r3,.L275+16
 2766 1640 03F59063 	 add r3,r3,#1152
 2767 1644 D3E90023 	 ldrd r2,[r3]
 2768 1648 0121     	 movs r1,#1
 2769 164a 0C46     	 mov r4,r1
 2770 164c 1046     	 mov r0,r2
 2771 164e 1946     	 mov r1,r3
 2772 1650 27A3     	 adr r3,.L275+8
 2773 1652 D3E90023 	 ldrd r2,[r3]
 2774 1656 FFF7FEFF 	 bl __aeabi_dcmpgt
 2775 165a 0346     	 mov r3,r0
 2776 165c 002B     	 cmp r3,#0
 2777 165e 01D1     	 bne .L113
 2778 1660 0023     	 movs r3,#0
 2779 1662 1C46     	 mov r4,r3
 2780              	.L113:
 2781 1664 E3B2     	 uxtb r3,r4
 2782 1666 1A46     	 mov r2,r3
 2783 1668 234B     	 ldr r3,.L275+16
 2784 166a 83F8F326 	 strb r2,[r3,#1779]
 892:../Simulink/Subsystem_Transmission.c **** 
 893:../Simulink/Subsystem_Transmission.c ****     /* RelationalOperator: '<S211>/Compare' incorporates:
 894:../Simulink/Subsystem_Transmission.c ****      *  Constant: '<S211>/Constant'
 895:../Simulink/Subsystem_Transmission.c ****      */
 896:../Simulink/Subsystem_Transmission.c ****     VCU_B.Compare_h = (VCU_B.Add_c == 3);
 2785              	 .loc 1 896 0 discriminator 6
 2786 166e 224B     	 ldr r3,.L275+16
 2787 1670 93F88436 	 ldrb r3,[r3,#1668]
 2788 1674 032B     	 cmp r3,#3
 2789 1676 0CBF     	 ite eq
 2790 1678 0123     	 moveq r3,#1
 2791 167a 0023     	 movne r3,#0
 2792 167c DBB2     	 uxtb r3,r3
 2793 167e 1A46     	 mov r2,r3
 2794 1680 1D4B     	 ldr r3,.L275+16
 2795 1682 83F8F426 	 strb r2,[r3,#1780]
 897:../Simulink/Subsystem_Transmission.c **** 
 898:../Simulink/Subsystem_Transmission.c ****     /* Logic: '<S199>/Logical Operator2' */
 899:../Simulink/Subsystem_Transmission.c ****     VCU_B.RPMcheckgear31 = (VCU_B.Compare_l && VCU_B.Compare_h);
 2796              	 .loc 1 899 0 discriminator 6
 2797 1686 1C4B     	 ldr r3,.L275+16
 2798 1688 93F8F336 	 ldrb r3,[r3,#1779]
 2799 168c 002B     	 cmp r3,#0
 2800 168e 06D0     	 beq .L114
 2801              	 .loc 1 899 0 is_stmt 0 discriminator 1
 2802 1690 194B     	 ldr r3,.L275+16
 2803 1692 93F8F436 	 ldrb r3,[r3,#1780]
 2804 1696 002B     	 cmp r3,#0
 2805 1698 01D0     	 beq .L114
 2806              	 .loc 1 899 0 discriminator 3
 2807 169a 0123     	 movs r3,#1
 2808 169c 00E0     	 b .L115
 2809              	.L114:
 2810              	 .loc 1 899 0 discriminator 4
 2811 169e 0023     	 movs r3,#0
 2812              	.L115:
 2813              	 .loc 1 899 0 discriminator 6
 2814 16a0 DAB2     	 uxtb r2,r3
 2815 16a2 154B     	 ldr r3,.L275+16
 2816 16a4 83F8F526 	 strb r2,[r3,#1781]
 900:../Simulink/Subsystem_Transmission.c **** 
 901:../Simulink/Subsystem_Transmission.c ****     /* CombinatorialLogic: '<S215>/Logic' incorporates:
 902:../Simulink/Subsystem_Transmission.c ****      *  Logic: '<S199>/Logical Operator'
 903:../Simulink/Subsystem_Transmission.c ****      *  Memory: '<S215>/Memory'
 904:../Simulink/Subsystem_Transmission.c ****      */
 905:../Simulink/Subsystem_Transmission.c ****     VCU_B.LogicalOperator_d = (VCU_B.UnitDelay4 || VCU_B.LessthanNeutral ||
 2817              	 .loc 1 905 0 is_stmt 1 discriminator 6
 2818 16a8 134B     	 ldr r3,.L275+16
 2819 16aa 93F8E836 	 ldrb r3,[r3,#1768]
 906:../Simulink/Subsystem_Transmission.c ****       VCU_B.UnitDelay || VCU_B.Timeout || VCU_B.RPMcheckgear21 ||
 2820              	 .loc 1 906 0 discriminator 6
 2821 16ae 002B     	 cmp r3,#0
 2822 16b0 18D1     	 bne .L116
 905:../Simulink/Subsystem_Transmission.c ****       VCU_B.UnitDelay || VCU_B.Timeout || VCU_B.RPMcheckgear21 ||
 2823              	 .loc 1 905 0
 2824 16b2 114B     	 ldr r3,.L275+16
 2825 16b4 93F8ED36 	 ldrb r3,[r3,#1773]
 2826 16b8 002B     	 cmp r3,#0
 2827 16ba 13D1     	 bne .L116
 2828              	 .loc 1 906 0 discriminator 1
 2829 16bc 0E4B     	 ldr r3,.L275+16
 2830 16be 93F8EE36 	 ldrb r3,[r3,#1774]
 905:../Simulink/Subsystem_Transmission.c ****       VCU_B.UnitDelay || VCU_B.Timeout || VCU_B.RPMcheckgear21 ||
 2831              	 .loc 1 905 0 discriminator 1
 2832 16c2 002B     	 cmp r3,#0
 2833 16c4 0ED1     	 bne .L116
 2834              	 .loc 1 906 0 discriminator 2
 2835 16c6 0C4B     	 ldr r3,.L275+16
 2836 16c8 93F8EF36 	 ldrb r3,[r3,#1775]
 2837 16cc 002B     	 cmp r3,#0
 2838 16ce 09D1     	 bne .L116
 2839              	 .loc 1 906 0 is_stmt 0 discriminator 3
 2840 16d0 094B     	 ldr r3,.L275+16
 2841 16d2 93F8F236 	 ldrb r3,[r3,#1778]
 2842 16d6 002B     	 cmp r3,#0
 2843 16d8 04D1     	 bne .L116
 907:../Simulink/Subsystem_Transmission.c ****       VCU_B.RPMcheckgear31);
 2844              	 .loc 1 907 0 is_stmt 1 discriminator 5
 2845 16da 074B     	 ldr r3,.L275+16
 2846 16dc 93F8F536 	 ldrb r3,[r3,#1781]
 906:../Simulink/Subsystem_Transmission.c ****       VCU_B.UnitDelay || VCU_B.Timeout || VCU_B.RPMcheckgear21 ||
 2847              	 .loc 1 906 0 discriminator 5
 2848 16e0 002B     	 cmp r3,#0
 2849 16e2 0DD0     	 beq .L117
 2850              	.L116:
 906:../Simulink/Subsystem_Transmission.c ****       VCU_B.UnitDelay || VCU_B.Timeout || VCU_B.RPMcheckgear21 ||
 2851              	 .loc 1 906 0 is_stmt 0 discriminator 6
 2852 16e4 0123     	 movs r3,#1
 2853 16e6 0CE0     	 b .L118
 2854              	.L276:
 2855              	 .align 3
 2856              	.L275:
 2857 16e8 00000000 	 .word 0
 2858 16ec 0088B340 	 .word 1085507584
 2859 16f0 00000000 	 .word 0
 2860 16f4 00B4B440 	 .word 1085584384
 2861 16f8 00000000 	 .word VCU_B
 2862 16fc 00000000 	 .word VCU_DW
 2863              	.L117:
 906:../Simulink/Subsystem_Transmission.c ****       VCU_B.UnitDelay || VCU_B.Timeout || VCU_B.RPMcheckgear21 ||
 2864              	 .loc 1 906 0 discriminator 7
 2865 1700 0023     	 movs r3,#0
 2866              	.L118:
 905:../Simulink/Subsystem_Transmission.c ****       VCU_B.UnitDelay || VCU_B.Timeout || VCU_B.RPMcheckgear21 ||
 2867              	 .loc 1 905 0 is_stmt 1
 2868 1702 DAB2     	 uxtb r2,r3
 2869 1704 964B     	 ldr r3,.L277+16
 2870 1706 83F8F626 	 strb r2,[r3,#1782]
 908:../Simulink/Subsystem_Transmission.c ****     VCU_B.Memory_l = VCU_DW.Memory_PreviousInput_a;
 2871              	 .loc 1 908 0
 2872 170a 964B     	 ldr r3,.L277+20
 2873 170c 93F83A21 	 ldrb r2,[r3,#314]
 2874 1710 934B     	 ldr r3,.L277+16
 2875 1712 83F8F726 	 strb r2,[r3,#1783]
 909:../Simulink/Subsystem_Transmission.c ****     tmp = VCU_B.Logic_i[0];
 2876              	 .loc 1 909 0
 2877 1716 924B     	 ldr r3,.L277+16
 2878 1718 93F8E636 	 ldrb r3,[r3,#1766]
 2879 171c FB71     	 strb r3,[r7,#7]
 910:../Simulink/Subsystem_Transmission.c ****     rowIdx = tmp;
 2880              	 .loc 1 910 0
 2881 171e FB79     	 ldrb r3,[r7,#7]
 2882 1720 7B61     	 str r3,[r7,#20]
 911:../Simulink/Subsystem_Transmission.c ****     rowIdx = (int32_T)(((uint32_T)rowIdx << 1) + VCU_B.LogicalOperator_d);
 2883              	 .loc 1 911 0
 2884 1722 7B69     	 ldr r3,[r7,#20]
 2885 1724 5B00     	 lsls r3,r3,#1
 2886 1726 8E4A     	 ldr r2,.L277+16
 2887 1728 92F8F626 	 ldrb r2,[r2,#1782]
 2888 172c 1344     	 add r3,r3,r2
 2889 172e 7B61     	 str r3,[r7,#20]
 912:../Simulink/Subsystem_Transmission.c ****     rowIdx = (int32_T)(((uint32_T)rowIdx << 1) + VCU_B.Memory_l);
 2890              	 .loc 1 912 0
 2891 1730 7B69     	 ldr r3,[r7,#20]
 2892 1732 5B00     	 lsls r3,r3,#1
 2893 1734 8A4A     	 ldr r2,.L277+16
 2894 1736 92F8F726 	 ldrb r2,[r2,#1783]
 2895 173a 1344     	 add r3,r3,r2
 2896 173c 7B61     	 str r3,[r7,#20]
 913:../Simulink/Subsystem_Transmission.c ****     VCU_B.Logic_iy[0U] = VCU_ConstP.pooled37[(uint32_T)rowIdx];
 2897              	 .loc 1 913 0
 2898 173e 7B69     	 ldr r3,[r7,#20]
 2899 1740 894A     	 ldr r2,.L277+24
 2900 1742 1344     	 add r3,r3,r2
 2901 1744 93F83023 	 ldrb r2,[r3,#816]
 2902 1748 854B     	 ldr r3,.L277+16
 2903 174a 83F8F826 	 strb r2,[r3,#1784]
 914:../Simulink/Subsystem_Transmission.c ****     VCU_B.Logic_iy[1U] = VCU_ConstP.pooled37[rowIdx + 8U];
 2904              	 .loc 1 914 0
 2905 174e 7B69     	 ldr r3,[r7,#20]
 2906 1750 0833     	 adds r3,r3,#8
 2907 1752 854A     	 ldr r2,.L277+24
 2908 1754 1344     	 add r3,r3,r2
 2909 1756 93F83023 	 ldrb r2,[r3,#816]
 2910 175a 814B     	 ldr r3,.L277+16
 2911 175c 83F8F926 	 strb r2,[r3,#1785]
 915:../Simulink/Subsystem_Transmission.c **** 
 916:../Simulink/Subsystem_Transmission.c ****     /* UnitDelay: '<S221>/Delay Input1'
 917:../Simulink/Subsystem_Transmission.c ****      *
 918:../Simulink/Subsystem_Transmission.c ****      * Block description for '<S221>/Delay Input1':
 919:../Simulink/Subsystem_Transmission.c ****      *
 920:../Simulink/Subsystem_Transmission.c ****      *  Store in Global RAM
 921:../Simulink/Subsystem_Transmission.c ****      */
 922:../Simulink/Subsystem_Transmission.c ****     VCU_B.Uk1_i = VCU_DW.DelayInput1_DSTATE_g;
 2912              	 .loc 1 922 0
 2913 1760 804B     	 ldr r3,.L277+20
 2914 1762 D3E90223 	 ldrd r2,[r3,#8]
 2915 1766 7E49     	 ldr r1,.L277+16
 2916 1768 C1E91C23 	 strd r2,[r1,#112]
 923:../Simulink/Subsystem_Transmission.c **** 
 924:../Simulink/Subsystem_Transmission.c ****     /* CombinatorialLogic: '<S224>/Logic' incorporates:
 925:../Simulink/Subsystem_Transmission.c ****      *  RelationalOperator: '<S221>/FixPt Relational Operator'
 926:../Simulink/Subsystem_Transmission.c ****      */
 927:../Simulink/Subsystem_Transmission.c ****     VCU_B.FixPtRelationalOperator_c = (VCU_B.STW_shift_up_request > VCU_B.Uk1_i);
 2917              	 .loc 1 927 0
 2918 176c 7C4B     	 ldr r3,.L277+16
 2919 176e 03F59C63 	 add r3,r3,#1248
 2920 1772 D3E90001 	 ldrd r0,[r3]
 2921 1776 7A4B     	 ldr r3,.L277+16
 2922 1778 D3E91C23 	 ldrd r2,[r3,#112]
 2923 177c 0124     	 movs r4,#1
 2924 177e FFF7FEFF 	 bl __aeabi_dcmpgt
 2925 1782 0346     	 mov r3,r0
 2926 1784 002B     	 cmp r3,#0
 2927 1786 01D1     	 bne .L119
 2928 1788 0023     	 movs r3,#0
 2929 178a 1C46     	 mov r4,r3
 2930              	.L119:
 2931 178c E3B2     	 uxtb r3,r4
 2932 178e 1A46     	 mov r2,r3
 2933 1790 734B     	 ldr r3,.L277+16
 2934 1792 83F8FA26 	 strb r2,[r3,#1786]
 928:../Simulink/Subsystem_Transmission.c **** 
 929:../Simulink/Subsystem_Transmission.c ****     /* Gain: '<S226>/Gain' */
 930:../Simulink/Subsystem_Transmission.c ****     VCU_B.Gain_m = 2.0 * VCU_B.DataTypeConversion1;
 2935              	 .loc 1 930 0
 2936 1796 724B     	 ldr r3,.L277+16
 2937 1798 03F58F63 	 add r3,r3,#1144
 2938 179c D3E90023 	 ldrd r2,[r3]
 2939 17a0 1046     	 mov r0,r2
 2940 17a2 1946     	 mov r1,r3
 2941 17a4 FFF7FEFF 	 bl __aeabi_dadd
 2942 17a8 0246     	 mov r2,r0
 2943 17aa 0B46     	 mov r3,r1
 2944 17ac 6C49     	 ldr r1,.L277+16
 2945 17ae C1E91E23 	 strd r2,[r1,#120]
 931:../Simulink/Subsystem_Transmission.c **** 
 932:../Simulink/Subsystem_Transmission.c ****     /* RelationalOperator: '<S226>/Relational Operator' incorporates:
 933:../Simulink/Subsystem_Transmission.c ****      *  Constant: '<S226>/Constant'
 934:../Simulink/Subsystem_Transmission.c ****      */
 935:../Simulink/Subsystem_Transmission.c ****     VCU_B.RelationalOperator_d = (VCU_B.Gain_m > 169.0);
 2946              	 .loc 1 935 0
 2947 17b2 6B4B     	 ldr r3,.L277+16
 2948 17b4 D3E91E23 	 ldrd r2,[r3,#120]
 2949 17b8 0121     	 movs r1,#1
 2950 17ba 0C46     	 mov r4,r1
 2951 17bc 1046     	 mov r0,r2
 2952 17be 1946     	 mov r1,r3
 2953 17c0 63A3     	 adr r3,.L277
 2954 17c2 D3E90023 	 ldrd r2,[r3]
 2955 17c6 FFF7FEFF 	 bl __aeabi_dcmpgt
 2956 17ca 0346     	 mov r3,r0
 2957 17cc 002B     	 cmp r3,#0
 2958 17ce 01D1     	 bne .L120
 2959 17d0 0023     	 movs r3,#0
 2960 17d2 1C46     	 mov r4,r3
 2961              	.L120:
 2962 17d4 E3B2     	 uxtb r3,r4
 2963 17d6 1A46     	 mov r2,r3
 2964 17d8 614B     	 ldr r3,.L277+16
 2965 17da 83F8FB26 	 strb r2,[r3,#1787]
 936:../Simulink/Subsystem_Transmission.c **** 
 937:../Simulink/Subsystem_Transmission.c ****     /* RelationalOperator: '<S226>/Relational Operator1' incorporates:
 938:../Simulink/Subsystem_Transmission.c ****      *  Constant: '<S226>/Constant1'
 939:../Simulink/Subsystem_Transmission.c ****      */
 940:../Simulink/Subsystem_Transmission.c ****     VCU_B.RelationalOperator1_a = (VCU_B.Gain_m > 269.0);
 2966              	 .loc 1 940 0
 2967 17de 604B     	 ldr r3,.L277+16
 2968 17e0 D3E91E23 	 ldrd r2,[r3,#120]
 2969 17e4 0121     	 movs r1,#1
 2970 17e6 0C46     	 mov r4,r1
 2971 17e8 1046     	 mov r0,r2
 2972 17ea 1946     	 mov r1,r3
 2973 17ec 5AA3     	 adr r3,.L277+8
 2974 17ee D3E90023 	 ldrd r2,[r3]
 2975 17f2 FFF7FEFF 	 bl __aeabi_dcmpgt
 2976 17f6 0346     	 mov r3,r0
 2977 17f8 002B     	 cmp r3,#0
 2978 17fa 01D1     	 bne .L121
 2979 17fc 0023     	 movs r3,#0
 2980 17fe 1C46     	 mov r4,r3
 2981              	.L121:
 2982 1800 E3B2     	 uxtb r3,r4
 2983 1802 1A46     	 mov r2,r3
 2984 1804 564B     	 ldr r3,.L277+16
 2985 1806 83F8FC26 	 strb r2,[r3,#1788]
 941:../Simulink/Subsystem_Transmission.c **** 
 942:../Simulink/Subsystem_Transmission.c ****     /* RelationalOperator: '<S226>/Relational Operator2' incorporates:
 943:../Simulink/Subsystem_Transmission.c ****      *  Constant: '<S226>/Constant2'
 944:../Simulink/Subsystem_Transmission.c ****      */
 945:../Simulink/Subsystem_Transmission.c ****     VCU_B.RelationalOperator2_d = (VCU_B.Gain_m > 360.0);
 2986              	 .loc 1 945 0
 2987 180a 554B     	 ldr r3,.L277+16
 2988 180c D3E91E23 	 ldrd r2,[r3,#120]
 2989 1810 0121     	 movs r1,#1
 2990 1812 0C46     	 mov r4,r1
 2991 1814 1046     	 mov r0,r2
 2992 1816 1946     	 mov r1,r3
 2993 1818 4FF00002 	 mov r2,#0
 2994 181c 534B     	 ldr r3,.L277+28
 2995 181e FFF7FEFF 	 bl __aeabi_dcmpgt
 2996 1822 0346     	 mov r3,r0
 2997 1824 002B     	 cmp r3,#0
 2998 1826 01D1     	 bne .L122
 2999 1828 0023     	 movs r3,#0
 3000 182a 1C46     	 mov r4,r3
 3001              	.L122:
 3002 182c E3B2     	 uxtb r3,r4
 3003 182e 1A46     	 mov r2,r3
 3004 1830 4B4B     	 ldr r3,.L277+16
 3005 1832 83F8FD26 	 strb r2,[r3,#1789]
 946:../Simulink/Subsystem_Transmission.c **** 
 947:../Simulink/Subsystem_Transmission.c ****     /* Sum: '<S226>/Add' */
 948:../Simulink/Subsystem_Transmission.c ****     VCU_B.Add_j = (uint8_T)(((uint32_T)VCU_B.RelationalOperator_d +
 3006              	 .loc 1 948 0
 3007 1836 4A4B     	 ldr r3,.L277+16
 3008 1838 93F8FB26 	 ldrb r2,[r3,#1787]
 949:../Simulink/Subsystem_Transmission.c ****       VCU_B.RelationalOperator1_a) + VCU_B.RelationalOperator2_d);
 3009              	 .loc 1 949 0
 3010 183c 484B     	 ldr r3,.L277+16
 3011 183e 93F8FC36 	 ldrb r3,[r3,#1788]
 948:../Simulink/Subsystem_Transmission.c ****       VCU_B.RelationalOperator1_a) + VCU_B.RelationalOperator2_d);
 3012              	 .loc 1 948 0
 3013 1842 1344     	 add r3,r3,r2
 3014 1844 DAB2     	 uxtb r2,r3
 3015              	 .loc 1 949 0
 3016 1846 464B     	 ldr r3,.L277+16
 3017 1848 93F8FD36 	 ldrb r3,[r3,#1789]
 948:../Simulink/Subsystem_Transmission.c ****       VCU_B.RelationalOperator1_a) + VCU_B.RelationalOperator2_d);
 3018              	 .loc 1 948 0
 3019 184c 1344     	 add r3,r3,r2
 3020 184e DAB2     	 uxtb r2,r3
 3021 1850 434B     	 ldr r3,.L277+16
 3022 1852 83F88526 	 strb r2,[r3,#1669]
 950:../Simulink/Subsystem_Transmission.c **** 
 951:../Simulink/Subsystem_Transmission.c ****     /* UnitDelay: '<S222>/Delay Input1'
 952:../Simulink/Subsystem_Transmission.c ****      *
 953:../Simulink/Subsystem_Transmission.c ****      * Block description for '<S222>/Delay Input1':
 954:../Simulink/Subsystem_Transmission.c ****      *
 955:../Simulink/Subsystem_Transmission.c ****      *  Store in Global RAM
 956:../Simulink/Subsystem_Transmission.c ****      */
 957:../Simulink/Subsystem_Transmission.c ****     VCU_B.Uk1_b = VCU_DW.DelayInput1_DSTATE_ga;
 3023              	 .loc 1 957 0
 3024 1856 434B     	 ldr r3,.L277+20
 3025 1858 93F8BC20 	 ldrb r2,[r3,#188]
 3026 185c 404B     	 ldr r3,.L277+16
 3027 185e 83F88626 	 strb r2,[r3,#1670]
 958:../Simulink/Subsystem_Transmission.c **** 
 959:../Simulink/Subsystem_Transmission.c ****     /* RelationalOperator: '<S222>/FixPt Relational Operator' */
 960:../Simulink/Subsystem_Transmission.c ****     VCU_B.FixPtRelationalOperator_m = (VCU_B.Add_j > VCU_B.Uk1_b);
 3028              	 .loc 1 960 0
 3029 1862 3F4B     	 ldr r3,.L277+16
 3030 1864 93F88526 	 ldrb r2,[r3,#1669]
 3031 1868 3D4B     	 ldr r3,.L277+16
 3032 186a 93F88636 	 ldrb r3,[r3,#1670]
 3033 186e 9A42     	 cmp r2,r3
 3034 1870 8CBF     	 ite hi
 3035 1872 0123     	 movhi r3,#1
 3036 1874 0023     	 movls r3,#0
 3037 1876 DBB2     	 uxtb r3,r3
 3038 1878 1A46     	 mov r2,r3
 3039 187a 394B     	 ldr r3,.L277+16
 3040 187c 83F8FE26 	 strb r2,[r3,#1790]
 961:../Simulink/Subsystem_Transmission.c **** 
 962:../Simulink/Subsystem_Transmission.c ****     /* RelationalOperator: '<S218>/Compare' incorporates:
 963:../Simulink/Subsystem_Transmission.c ****      *  Constant: '<S218>/Constant'
 964:../Simulink/Subsystem_Transmission.c ****      */
 965:../Simulink/Subsystem_Transmission.c ****     VCU_B.Compare_ha = (VCU_B.Add_j >= 3);
 3041              	 .loc 1 965 0
 3042 1880 374B     	 ldr r3,.L277+16
 3043 1882 93F88536 	 ldrb r3,[r3,#1669]
 3044 1886 022B     	 cmp r3,#2
 3045 1888 8CBF     	 ite hi
 3046 188a 0123     	 movhi r3,#1
 3047 188c 0023     	 movls r3,#0
 3048 188e DBB2     	 uxtb r3,r3
 3049 1890 1A46     	 mov r2,r3
 3050 1892 334B     	 ldr r3,.L277+16
 3051 1894 83F8FF26 	 strb r2,[r3,#1791]
 966:../Simulink/Subsystem_Transmission.c **** 
 967:../Simulink/Subsystem_Transmission.c ****     /* UnitDelay: '<S199>/Unit Delay' */
 968:../Simulink/Subsystem_Transmission.c ****     VCU_B.UnitDelay_p = VCU_DW.UnitDelay_DSTATE_b;
 3052              	 .loc 1 968 0
 3053 1898 324B     	 ldr r3,.L277+20
 3054 189a 93F8DB20 	 ldrb r2,[r3,#219]
 3055 189e 304B     	 ldr r3,.L277+16
 3056 18a0 83F80027 	 strb r2,[r3,#1792]
 969:../Simulink/Subsystem_Transmission.c **** 
 970:../Simulink/Subsystem_Transmission.c ****     /* UnitDelay: '<S200>/Unit Delay1' */
 971:../Simulink/Subsystem_Transmission.c ****     VCU_B.Timeout_i = VCU_DW.UnitDelay1_DSTATE_k;
 3057              	 .loc 1 971 0
 3058 18a4 2F4B     	 ldr r3,.L277+20
 3059 18a6 93F8DC20 	 ldrb r2,[r3,#220]
 3060 18aa 2D4B     	 ldr r3,.L277+16
 3061 18ac 83F80127 	 strb r2,[r3,#1793]
 972:../Simulink/Subsystem_Transmission.c **** 
 973:../Simulink/Subsystem_Transmission.c ****     /* RelationalOperator: '<S220>/Compare' incorporates:
 974:../Simulink/Subsystem_Transmission.c ****      *  Constant: '<S220>/Constant'
 975:../Simulink/Subsystem_Transmission.c ****      */
 976:../Simulink/Subsystem_Transmission.c ****     VCU_B.Compare_e = (VCU_B.Add_j == 0);
 3062              	 .loc 1 976 0
 3063 18b0 2B4B     	 ldr r3,.L277+16
 3064 18b2 93F88536 	 ldrb r3,[r3,#1669]
 3065 18b6 002B     	 cmp r3,#0
 3066 18b8 0CBF     	 ite eq
 3067 18ba 0123     	 moveq r3,#1
 3068 18bc 0023     	 movne r3,#0
 3069 18be DBB2     	 uxtb r3,r3
 3070 18c0 1A46     	 mov r2,r3
 3071 18c2 274B     	 ldr r3,.L277+16
 3072 18c4 83F80227 	 strb r2,[r3,#1794]
 977:../Simulink/Subsystem_Transmission.c **** 
 978:../Simulink/Subsystem_Transmission.c ****     /* RelationalOperator: '<S219>/Compare' incorporates:
 979:../Simulink/Subsystem_Transmission.c ****      *  Constant: '<S219>/Constant'
 980:../Simulink/Subsystem_Transmission.c ****      */
 981:../Simulink/Subsystem_Transmission.c ****     VCU_B.Compare_a = (VCU_B.x_clutch_STW < 15.0);
 3073              	 .loc 1 981 0
 3074 18c8 254B     	 ldr r3,.L277+16
 3075 18ca 03F59A63 	 add r3,r3,#1232
 3076 18ce D3E90023 	 ldrd r2,[r3]
 3077 18d2 0121     	 movs r1,#1
 3078 18d4 0C46     	 mov r4,r1
 3079 18d6 1046     	 mov r0,r2
 3080 18d8 1946     	 mov r1,r3
 3081 18da 4FF00002 	 mov r2,#0
 3082 18de 244B     	 ldr r3,.L277+32
 3083 18e0 FFF7FEFF 	 bl __aeabi_dcmplt
 3084 18e4 0346     	 mov r3,r0
 3085 18e6 002B     	 cmp r3,#0
 3086 18e8 01D1     	 bne .L123
 3087 18ea 0023     	 movs r3,#0
 3088 18ec 1C46     	 mov r4,r3
 3089              	.L123:
 3090 18ee E3B2     	 uxtb r3,r4
 3091 18f0 1A46     	 mov r2,r3
 3092 18f2 1B4B     	 ldr r3,.L277+16
 3093 18f4 83F80327 	 strb r2,[r3,#1795]
 982:../Simulink/Subsystem_Transmission.c **** 
 983:../Simulink/Subsystem_Transmission.c ****     /* Logic: '<S200>/Logical Operator1' */
 984:../Simulink/Subsystem_Transmission.c ****     VCU_B.FailSafefirstgear = (VCU_B.Compare_e && VCU_B.Compare_a);
 3094              	 .loc 1 984 0
 3095 18f8 194B     	 ldr r3,.L277+16
 3096 18fa 93F80237 	 ldrb r3,[r3,#1794]
 3097 18fe 002B     	 cmp r3,#0
 3098 1900 06D0     	 beq .L124
 3099              	 .loc 1 984 0 is_stmt 0 discriminator 1
 3100 1902 174B     	 ldr r3,.L277+16
 3101 1904 93F80337 	 ldrb r3,[r3,#1795]
 3102 1908 002B     	 cmp r3,#0
 3103 190a 01D0     	 beq .L124
 3104              	 .loc 1 984 0 discriminator 3
 3105 190c 0123     	 movs r3,#1
 3106 190e 00E0     	 b .L125
 3107              	.L124:
 3108              	 .loc 1 984 0 discriminator 4
 3109 1910 0023     	 movs r3,#0
 3110              	.L125:
 3111              	 .loc 1 984 0 discriminator 6
 3112 1912 DAB2     	 uxtb r2,r3
 3113 1914 124B     	 ldr r3,.L277+16
 3114 1916 83F80427 	 strb r2,[r3,#1796]
 985:../Simulink/Subsystem_Transmission.c **** 
 986:../Simulink/Subsystem_Transmission.c ****     /* CombinatorialLogic: '<S224>/Logic' incorporates:
 987:../Simulink/Subsystem_Transmission.c ****      *  Logic: '<S200>/Logical Operator'
 988:../Simulink/Subsystem_Transmission.c ****      *  Memory: '<S224>/Memory'
 989:../Simulink/Subsystem_Transmission.c ****      */
 990:../Simulink/Subsystem_Transmission.c ****     VCU_B.LogicalOperator_i = (VCU_B.FixPtRelationalOperator_m ||
 3115              	 .loc 1 990 0 is_stmt 1 discriminator 6
 3116 191a 114B     	 ldr r3,.L277+16
 3117 191c 93F8FE36 	 ldrb r3,[r3,#1790]
 991:../Simulink/Subsystem_Transmission.c ****       VCU_B.Compare_ha || VCU_B.UnitDelay_p || VCU_B.Timeout_i ||
 3118              	 .loc 1 991 0 discriminator 6
 3119 1920 002B     	 cmp r3,#0
 3120 1922 13D1     	 bne .L126
 3121              	 .loc 1 991 0 is_stmt 0 discriminator 2
 3122 1924 0E4B     	 ldr r3,.L277+16
 3123 1926 93F8FF36 	 ldrb r3,[r3,#1791]
 990:../Simulink/Subsystem_Transmission.c ****       VCU_B.Compare_ha || VCU_B.UnitDelay_p || VCU_B.Timeout_i ||
 3124              	 .loc 1 990 0 is_stmt 1 discriminator 2
 3125 192a 002B     	 cmp r3,#0
 3126 192c 0ED1     	 bne .L126
 3127              	 .loc 1 991 0 discriminator 3
 3128 192e 0C4B     	 ldr r3,.L277+16
 3129 1930 93F80037 	 ldrb r3,[r3,#1792]
 3130 1934 002B     	 cmp r3,#0
 3131 1936 09D1     	 bne .L126
 3132              	 .loc 1 991 0 is_stmt 0 discriminator 4
 3133 1938 094B     	 ldr r3,.L277+16
 3134 193a 93F80137 	 ldrb r3,[r3,#1793]
 3135 193e 002B     	 cmp r3,#0
 3136 1940 04D1     	 bne .L126
 992:../Simulink/Subsystem_Transmission.c ****       VCU_B.FailSafefirstgear);
 3137              	 .loc 1 992 0 is_stmt 1 discriminator 6
 3138 1942 074B     	 ldr r3,.L277+16
 3139 1944 93F80437 	 ldrb r3,[r3,#1796]
 991:../Simulink/Subsystem_Transmission.c ****       VCU_B.Compare_ha || VCU_B.UnitDelay_p || VCU_B.Timeout_i ||
 3140              	 .loc 1 991 0 discriminator 6
 3141 1948 002B     	 cmp r3,#0
 3142 194a 13D0     	 beq .L127
 3143              	.L126:
 991:../Simulink/Subsystem_Transmission.c ****       VCU_B.Compare_ha || VCU_B.UnitDelay_p || VCU_B.Timeout_i ||
 3144              	 .loc 1 991 0 is_stmt 0 discriminator 7
 3145 194c 0123     	 movs r3,#1
 3146 194e 12E0     	 b .L128
 3147              	.L278:
 3148              	 .align 3
 3149              	.L277:
 3150 1950 00000000 	 .word 0
 3151 1954 00206540 	 .word 1080369152
 3152 1958 00000000 	 .word 0
 3153 195c 00D07040 	 .word 1081135104
 3154 1960 00000000 	 .word VCU_B
 3155 1964 00000000 	 .word VCU_DW
 3156 1968 00000000 	 .word VCU_ConstP
 3157 196c 00807640 	 .word 1081507840
 3158 1970 00002E40 	 .word 1076756480
 3159              	.L127:
 991:../Simulink/Subsystem_Transmission.c ****       VCU_B.Compare_ha || VCU_B.UnitDelay_p || VCU_B.Timeout_i ||
 3160              	 .loc 1 991 0 discriminator 8
 3161 1974 0023     	 movs r3,#0
 3162              	.L128:
 990:../Simulink/Subsystem_Transmission.c ****       VCU_B.Compare_ha || VCU_B.UnitDelay_p || VCU_B.Timeout_i ||
 3163              	 .loc 1 990 0 is_stmt 1
 3164 1976 DAB2     	 uxtb r2,r3
 3165 1978 B04B     	 ldr r3,.L279
 3166 197a 83F80527 	 strb r2,[r3,#1797]
 993:../Simulink/Subsystem_Transmission.c ****     VCU_B.Memory_a = VCU_DW.Memory_PreviousInput_al;
 3167              	 .loc 1 993 0
 3168 197e B04B     	 ldr r3,.L279+4
 3169 1980 93F83B21 	 ldrb r2,[r3,#315]
 3170 1984 AD4B     	 ldr r3,.L279
 3171 1986 83F80627 	 strb r2,[r3,#1798]
 994:../Simulink/Subsystem_Transmission.c ****     rowIdx = VCU_B.FixPtRelationalOperator_c;
 3172              	 .loc 1 994 0
 3173 198a AC4B     	 ldr r3,.L279
 3174 198c 93F8FA36 	 ldrb r3,[r3,#1786]
 3175 1990 7B61     	 str r3,[r7,#20]
 995:../Simulink/Subsystem_Transmission.c ****     rowIdx = (int32_T)(((uint32_T)rowIdx << 1) + VCU_B.LogicalOperator_i);
 3176              	 .loc 1 995 0
 3177 1992 7B69     	 ldr r3,[r7,#20]
 3178 1994 5B00     	 lsls r3,r3,#1
 3179 1996 A94A     	 ldr r2,.L279
 3180 1998 92F80527 	 ldrb r2,[r2,#1797]
 3181 199c 1344     	 add r3,r3,r2
 3182 199e 7B61     	 str r3,[r7,#20]
 996:../Simulink/Subsystem_Transmission.c ****     rowIdx = (int32_T)(((uint32_T)rowIdx << 1) + VCU_B.Memory_a);
 3183              	 .loc 1 996 0
 3184 19a0 7B69     	 ldr r3,[r7,#20]
 3185 19a2 5B00     	 lsls r3,r3,#1
 3186 19a4 A54A     	 ldr r2,.L279
 3187 19a6 92F80627 	 ldrb r2,[r2,#1798]
 3188 19aa 1344     	 add r3,r3,r2
 3189 19ac 7B61     	 str r3,[r7,#20]
 997:../Simulink/Subsystem_Transmission.c ****     VCU_B.Logic_iz[0U] = VCU_ConstP.pooled37[(uint32_T)rowIdx];
 3190              	 .loc 1 997 0
 3191 19ae 7B69     	 ldr r3,[r7,#20]
 3192 19b0 A44A     	 ldr r2,.L279+8
 3193 19b2 1344     	 add r3,r3,r2
 3194 19b4 93F83023 	 ldrb r2,[r3,#816]
 3195 19b8 A04B     	 ldr r3,.L279
 3196 19ba 83F80727 	 strb r2,[r3,#1799]
 998:../Simulink/Subsystem_Transmission.c ****     VCU_B.Logic_iz[1U] = VCU_ConstP.pooled37[rowIdx + 8U];
 3197              	 .loc 1 998 0
 3198 19be 7B69     	 ldr r3,[r7,#20]
 3199 19c0 0833     	 adds r3,r3,#8
 3200 19c2 A04A     	 ldr r2,.L279+8
 3201 19c4 1344     	 add r3,r3,r2
 3202 19c6 93F83023 	 ldrb r2,[r3,#816]
 3203 19ca 9C4B     	 ldr r3,.L279
 3204 19cc 83F80827 	 strb r2,[r3,#1800]
 999:../Simulink/Subsystem_Transmission.c **** 
1000:../Simulink/Subsystem_Transmission.c ****     /* CombinatorialLogic: '<S225>/Logic' incorporates:
1001:../Simulink/Subsystem_Transmission.c ****      *  S-Function (sdspcount2): '<S200>/Counter1'
1002:../Simulink/Subsystem_Transmission.c ****      */
1003:../Simulink/Subsystem_Transmission.c ****     VCU_B.Counter1 = false;
 3205              	 .loc 1 1003 0
 3206 19d0 9A4B     	 ldr r3,.L279
 3207 19d2 0022     	 movs r2,#0
 3208 19d4 83F80927 	 strb r2,[r3,#1801]
1004:../Simulink/Subsystem_Transmission.c **** 
1005:../Simulink/Subsystem_Transmission.c ****     /* S-Function (sdspcount2): '<S200>/Counter1' */
1006:../Simulink/Subsystem_Transmission.c ****     if (VCU_B.LogicalOperator_i) {
 3209              	 .loc 1 1006 0
 3210 19d8 984B     	 ldr r3,.L279
 3211 19da 93F80537 	 ldrb r3,[r3,#1797]
 3212 19de 002B     	 cmp r3,#0
 3213 19e0 03D0     	 beq .L129
1007:../Simulink/Subsystem_Transmission.c ****       VCU_DW.Counter1_Count = 0U;
 3214              	 .loc 1 1007 0
 3215 19e2 974B     	 ldr r3,.L279+4
 3216 19e4 0022     	 movs r2,#0
 3217 19e6 83F8FA20 	 strb r2,[r3,#250]
 3218              	.L129:
1008:../Simulink/Subsystem_Transmission.c ****     }
1009:../Simulink/Subsystem_Transmission.c **** 
1010:../Simulink/Subsystem_Transmission.c ****     if (VCU_B.Logic_iz[0]) {
 3219              	 .loc 1 1010 0
 3220 19ea 944B     	 ldr r3,.L279
 3221 19ec 93F80737 	 ldrb r3,[r3,#1799]
 3222 19f0 002B     	 cmp r3,#0
 3223 19f2 11D0     	 beq .L130
1011:../Simulink/Subsystem_Transmission.c ****       if (VCU_DW.Counter1_Count < 60) {
 3224              	 .loc 1 1011 0
 3225 19f4 924B     	 ldr r3,.L279+4
 3226 19f6 93F8FA30 	 ldrb r3,[r3,#250]
 3227 19fa 3B2B     	 cmp r3,#59
 3228 19fc 08D8     	 bhi .L131
1012:../Simulink/Subsystem_Transmission.c ****         VCU_DW.Counter1_Count++;
 3229              	 .loc 1 1012 0
 3230 19fe 904B     	 ldr r3,.L279+4
 3231 1a00 93F8FA30 	 ldrb r3,[r3,#250]
 3232 1a04 0133     	 adds r3,r3,#1
 3233 1a06 DAB2     	 uxtb r2,r3
 3234 1a08 8D4B     	 ldr r3,.L279+4
 3235 1a0a 83F8FA20 	 strb r2,[r3,#250]
 3236 1a0e 03E0     	 b .L130
 3237              	.L131:
1013:../Simulink/Subsystem_Transmission.c ****       } else {
1014:../Simulink/Subsystem_Transmission.c ****         VCU_DW.Counter1_Count = 0U;
 3238              	 .loc 1 1014 0
 3239 1a10 8B4B     	 ldr r3,.L279+4
 3240 1a12 0022     	 movs r2,#0
 3241 1a14 83F8FA20 	 strb r2,[r3,#250]
 3242              	.L130:
1015:../Simulink/Subsystem_Transmission.c ****       }
1016:../Simulink/Subsystem_Transmission.c ****     }
1017:../Simulink/Subsystem_Transmission.c **** 
1018:../Simulink/Subsystem_Transmission.c ****     if (VCU_DW.Counter1_Count == 1) {
 3243              	 .loc 1 1018 0
 3244 1a18 894B     	 ldr r3,.L279+4
 3245 1a1a 93F8FA30 	 ldrb r3,[r3,#250]
 3246 1a1e 012B     	 cmp r3,#1
 3247 1a20 03D1     	 bne .L132
1019:../Simulink/Subsystem_Transmission.c ****       /* CombinatorialLogic: '<S225>/Logic' */
1020:../Simulink/Subsystem_Transmission.c ****       VCU_B.Counter1 = true;
 3248              	 .loc 1 1020 0
 3249 1a22 864B     	 ldr r3,.L279
 3250 1a24 0122     	 movs r2,#1
 3251 1a26 83F80927 	 strb r2,[r3,#1801]
 3252              	.L132:
1021:../Simulink/Subsystem_Transmission.c ****     }
1022:../Simulink/Subsystem_Transmission.c **** 
1023:../Simulink/Subsystem_Transmission.c ****     /* UnitDelay: '<S223>/Delay Input1'
1024:../Simulink/Subsystem_Transmission.c ****      *
1025:../Simulink/Subsystem_Transmission.c ****      * Block description for '<S223>/Delay Input1':
1026:../Simulink/Subsystem_Transmission.c ****      *
1027:../Simulink/Subsystem_Transmission.c ****      *  Store in Global RAM
1028:../Simulink/Subsystem_Transmission.c ****      */
1029:../Simulink/Subsystem_Transmission.c ****     VCU_B.Uk1_m = VCU_DW.DelayInput1_DSTATE_f;
 3253              	 .loc 1 1029 0
 3254 1a2a 854B     	 ldr r3,.L279+4
 3255 1a2c 93F8BD20 	 ldrb r2,[r3,#189]
 3256 1a30 824B     	 ldr r3,.L279
 3257 1a32 83F88726 	 strb r2,[r3,#1671]
1030:../Simulink/Subsystem_Transmission.c **** 
1031:../Simulink/Subsystem_Transmission.c ****     /* RelationalOperator: '<S223>/FixPt Relational Operator' */
1032:../Simulink/Subsystem_Transmission.c ****     VCU_B.FixPtRelationalOperator_b = (VCU_B.Add_j > VCU_B.Uk1_m);
 3258              	 .loc 1 1032 0
 3259 1a36 814B     	 ldr r3,.L279
 3260 1a38 93F88526 	 ldrb r2,[r3,#1669]
 3261 1a3c 7F4B     	 ldr r3,.L279
 3262 1a3e 93F88736 	 ldrb r3,[r3,#1671]
 3263 1a42 9A42     	 cmp r2,r3
 3264 1a44 8CBF     	 ite hi
 3265 1a46 0123     	 movhi r3,#1
 3266 1a48 0023     	 movls r3,#0
 3267 1a4a DBB2     	 uxtb r3,r3
 3268 1a4c 1A46     	 mov r2,r3
 3269 1a4e 7B4B     	 ldr r3,.L279
 3270 1a50 83F80A27 	 strb r2,[r3,#1802]
1033:../Simulink/Subsystem_Transmission.c **** 
1034:../Simulink/Subsystem_Transmission.c ****     /* CombinatorialLogic: '<S225>/Logic' incorporates:
1035:../Simulink/Subsystem_Transmission.c ****      *  Logic: '<S200>/Logical Operator2'
1036:../Simulink/Subsystem_Transmission.c ****      *  Memory: '<S225>/Memory'
1037:../Simulink/Subsystem_Transmission.c ****      */
1038:../Simulink/Subsystem_Transmission.c ****     VCU_B.LogicalOperator2_h = (VCU_B.LogicalOperator_i ||
 3271              	 .loc 1 1038 0
 3272 1a54 794B     	 ldr r3,.L279
 3273 1a56 93F80537 	 ldrb r3,[r3,#1797]
 3274 1a5a 002B     	 cmp r3,#0
 3275 1a5c 04D1     	 bne .L133
1039:../Simulink/Subsystem_Transmission.c ****       VCU_B.FixPtRelationalOperator_b);
 3276              	 .loc 1 1039 0 discriminator 2
 3277 1a5e 774B     	 ldr r3,.L279
 3278 1a60 93F80A37 	 ldrb r3,[r3,#1802]
1038:../Simulink/Subsystem_Transmission.c ****       VCU_B.FixPtRelationalOperator_b);
 3279              	 .loc 1 1038 0 discriminator 2
 3280 1a64 002B     	 cmp r3,#0
 3281 1a66 01D0     	 beq .L134
 3282              	.L133:
1038:../Simulink/Subsystem_Transmission.c ****       VCU_B.FixPtRelationalOperator_b);
 3283              	 .loc 1 1038 0 is_stmt 0 discriminator 3
 3284 1a68 0123     	 movs r3,#1
 3285 1a6a 00E0     	 b .L135
 3286              	.L134:
1038:../Simulink/Subsystem_Transmission.c ****       VCU_B.FixPtRelationalOperator_b);
 3287              	 .loc 1 1038 0 discriminator 4
 3288 1a6c 0023     	 movs r3,#0
 3289              	.L135:
1038:../Simulink/Subsystem_Transmission.c ****       VCU_B.FixPtRelationalOperator_b);
 3290              	 .loc 1 1038 0 discriminator 6
 3291 1a6e DAB2     	 uxtb r2,r3
 3292 1a70 724B     	 ldr r3,.L279
 3293 1a72 83F80B27 	 strb r2,[r3,#1803]
1040:../Simulink/Subsystem_Transmission.c ****     VCU_B.Memory_gt = VCU_DW.Memory_PreviousInput_k;
 3294              	 .loc 1 1040 0 is_stmt 1 discriminator 6
 3295 1a76 724B     	 ldr r3,.L279+4
 3296 1a78 93F83C21 	 ldrb r2,[r3,#316]
 3297 1a7c 6F4B     	 ldr r3,.L279
 3298 1a7e 83F80C27 	 strb r2,[r3,#1804]
1041:../Simulink/Subsystem_Transmission.c ****     rowIdx = VCU_B.Counter1;
 3299              	 .loc 1 1041 0 discriminator 6
 3300 1a82 6E4B     	 ldr r3,.L279
 3301 1a84 93F80937 	 ldrb r3,[r3,#1801]
 3302 1a88 7B61     	 str r3,[r7,#20]
1042:../Simulink/Subsystem_Transmission.c ****     rowIdx = (int32_T)(((uint32_T)rowIdx << 1) + VCU_B.LogicalOperator2_h);
 3303              	 .loc 1 1042 0 discriminator 6
 3304 1a8a 7B69     	 ldr r3,[r7,#20]
 3305 1a8c 5B00     	 lsls r3,r3,#1
 3306 1a8e 6B4A     	 ldr r2,.L279
 3307 1a90 92F80B27 	 ldrb r2,[r2,#1803]
 3308 1a94 1344     	 add r3,r3,r2
 3309 1a96 7B61     	 str r3,[r7,#20]
1043:../Simulink/Subsystem_Transmission.c ****     rowIdx = (int32_T)(((uint32_T)rowIdx << 1) + VCU_B.Memory_gt);
 3310              	 .loc 1 1043 0 discriminator 6
 3311 1a98 7B69     	 ldr r3,[r7,#20]
 3312 1a9a 5B00     	 lsls r3,r3,#1
 3313 1a9c 674A     	 ldr r2,.L279
 3314 1a9e 92F80C27 	 ldrb r2,[r2,#1804]
 3315 1aa2 1344     	 add r3,r3,r2
 3316 1aa4 7B61     	 str r3,[r7,#20]
1044:../Simulink/Subsystem_Transmission.c ****     VCU_B.Logic_e[0U] = VCU_ConstP.pooled37[(uint32_T)rowIdx];
 3317              	 .loc 1 1044 0 discriminator 6
 3318 1aa6 7B69     	 ldr r3,[r7,#20]
 3319 1aa8 664A     	 ldr r2,.L279+8
 3320 1aaa 1344     	 add r3,r3,r2
 3321 1aac 93F83023 	 ldrb r2,[r3,#816]
 3322 1ab0 624B     	 ldr r3,.L279
 3323 1ab2 83F80D27 	 strb r2,[r3,#1805]
1045:../Simulink/Subsystem_Transmission.c ****     VCU_B.Logic_e[1U] = VCU_ConstP.pooled37[rowIdx + 8U];
 3324              	 .loc 1 1045 0 discriminator 6
 3325 1ab6 7B69     	 ldr r3,[r7,#20]
 3326 1ab8 0833     	 adds r3,r3,#8
 3327 1aba 624A     	 ldr r2,.L279+8
 3328 1abc 1344     	 add r3,r3,r2
 3329 1abe 93F83023 	 ldrb r2,[r3,#816]
 3330 1ac2 5E4B     	 ldr r3,.L279
 3331 1ac4 83F80E27 	 strb r2,[r3,#1806]
1046:../Simulink/Subsystem_Transmission.c **** 
1047:../Simulink/Subsystem_Transmission.c ****     /* DataTypeConversion: '<S138>/Data Type Conversion11' */
1048:../Simulink/Subsystem_Transmission.c ****     VCU_B.Ignition_Cut_o = VCU_B.Logic_e[0];
 3332              	 .loc 1 1048 0 discriminator 6
 3333 1ac8 5C4B     	 ldr r3,.L279
 3334 1aca 93F80D37 	 ldrb r3,[r3,#1805]
 3335 1ace 1846     	 mov r0,r3
 3336 1ad0 FFF7FEFF 	 bl __aeabi_ui2d
 3337 1ad4 0246     	 mov r2,r0
 3338 1ad6 0B46     	 mov r3,r1
 3339 1ad8 5849     	 ldr r1,.L279
 3340 1ada C1E92023 	 strd r2,[r1,#128]
1049:../Simulink/Subsystem_Transmission.c **** 
1050:../Simulink/Subsystem_Transmission.c ****     /* S-Function (sdspcount2): '<S199>/Counter' */
1051:../Simulink/Subsystem_Transmission.c ****     VCU_B.Counter = false;
 3341              	 .loc 1 1051 0 discriminator 6
 3342 1ade 574B     	 ldr r3,.L279
 3343 1ae0 0022     	 movs r2,#0
 3344 1ae2 83F80F27 	 strb r2,[r3,#1807]
1052:../Simulink/Subsystem_Transmission.c ****     if (VCU_B.LogicalOperator_d) {
 3345              	 .loc 1 1052 0 discriminator 6
 3346 1ae6 554B     	 ldr r3,.L279
 3347 1ae8 93F8F636 	 ldrb r3,[r3,#1782]
 3348 1aec 002B     	 cmp r3,#0
 3349 1aee 03D0     	 beq .L136
1053:../Simulink/Subsystem_Transmission.c ****       VCU_DW.Counter_Count = 0U;
 3350              	 .loc 1 1053 0
 3351 1af0 534B     	 ldr r3,.L279+4
 3352 1af2 0022     	 movs r2,#0
 3353 1af4 A3F89C20 	 strh r2,[r3,#156]
 3354              	.L136:
1054:../Simulink/Subsystem_Transmission.c ****     }
1055:../Simulink/Subsystem_Transmission.c **** 
1056:../Simulink/Subsystem_Transmission.c ****     if (VCU_B.Logic_i[0]) {
 3355              	 .loc 1 1056 0
 3356 1af8 504B     	 ldr r3,.L279
 3357 1afa 93F8E636 	 ldrb r3,[r3,#1766]
 3358 1afe 002B     	 cmp r3,#0
 3359 1b00 12D0     	 beq .L137
1057:../Simulink/Subsystem_Transmission.c ****       if (VCU_DW.Counter_Count < 500) {
 3360              	 .loc 1 1057 0
 3361 1b02 4F4B     	 ldr r3,.L279+4
 3362 1b04 B3F89C30 	 ldrh r3,[r3,#156]
 3363 1b08 B3F5FA7F 	 cmp r3,#500
 3364 1b0c 08D2     	 bcs .L138
1058:../Simulink/Subsystem_Transmission.c ****         VCU_DW.Counter_Count++;
 3365              	 .loc 1 1058 0
 3366 1b0e 4C4B     	 ldr r3,.L279+4
 3367 1b10 B3F89C30 	 ldrh r3,[r3,#156]
 3368 1b14 0133     	 adds r3,r3,#1
 3369 1b16 9AB2     	 uxth r2,r3
 3370 1b18 494B     	 ldr r3,.L279+4
 3371 1b1a A3F89C20 	 strh r2,[r3,#156]
 3372 1b1e 03E0     	 b .L137
 3373              	.L138:
1059:../Simulink/Subsystem_Transmission.c ****       } else {
1060:../Simulink/Subsystem_Transmission.c ****         VCU_DW.Counter_Count = 0U;
 3374              	 .loc 1 1060 0
 3375 1b20 474B     	 ldr r3,.L279+4
 3376 1b22 0022     	 movs r2,#0
 3377 1b24 A3F89C20 	 strh r2,[r3,#156]
 3378              	.L137:
1061:../Simulink/Subsystem_Transmission.c ****       }
1062:../Simulink/Subsystem_Transmission.c ****     }
1063:../Simulink/Subsystem_Transmission.c **** 
1064:../Simulink/Subsystem_Transmission.c ****     if (VCU_DW.Counter_Count == 500) {
 3379              	 .loc 1 1064 0
 3380 1b28 454B     	 ldr r3,.L279+4
 3381 1b2a B3F89C30 	 ldrh r3,[r3,#156]
 3382 1b2e B3F5FA7F 	 cmp r3,#500
 3383 1b32 03D1     	 bne .L139
1065:../Simulink/Subsystem_Transmission.c ****       VCU_B.Counter = true;
 3384              	 .loc 1 1065 0
 3385 1b34 414B     	 ldr r3,.L279
 3386 1b36 0122     	 movs r2,#1
 3387 1b38 83F80F27 	 strb r2,[r3,#1807]
 3388              	.L139:
1066:../Simulink/Subsystem_Transmission.c ****     }
1067:../Simulink/Subsystem_Transmission.c **** 
1068:../Simulink/Subsystem_Transmission.c ****     /* End of S-Function (sdspcount2): '<S199>/Counter' */
1069:../Simulink/Subsystem_Transmission.c **** 
1070:../Simulink/Subsystem_Transmission.c ****     /* S-Function (sdspcount2): '<S200>/Counter' */
1071:../Simulink/Subsystem_Transmission.c ****     VCU_B.Counter_d = false;
 3389              	 .loc 1 1071 0
 3390 1b3c 3F4B     	 ldr r3,.L279
 3391 1b3e 0022     	 movs r2,#0
 3392 1b40 83F81027 	 strb r2,[r3,#1808]
1072:../Simulink/Subsystem_Transmission.c ****     if (VCU_B.LogicalOperator_i) {
 3393              	 .loc 1 1072 0
 3394 1b44 3D4B     	 ldr r3,.L279
 3395 1b46 93F80537 	 ldrb r3,[r3,#1797]
 3396 1b4a 002B     	 cmp r3,#0
 3397 1b4c 03D0     	 beq .L140
1073:../Simulink/Subsystem_Transmission.c ****       VCU_DW.Counter_Count_i = 0U;
 3398              	 .loc 1 1073 0
 3399 1b4e 3C4B     	 ldr r3,.L279+4
 3400 1b50 0022     	 movs r2,#0
 3401 1b52 83F8FB20 	 strb r2,[r3,#251]
 3402              	.L140:
1074:../Simulink/Subsystem_Transmission.c ****     }
1075:../Simulink/Subsystem_Transmission.c **** 
1076:../Simulink/Subsystem_Transmission.c ****     if (VCU_B.Logic_iz[0]) {
 3403              	 .loc 1 1076 0
 3404 1b56 394B     	 ldr r3,.L279
 3405 1b58 93F80737 	 ldrb r3,[r3,#1799]
 3406 1b5c 002B     	 cmp r3,#0
 3407 1b5e 11D0     	 beq .L141
1077:../Simulink/Subsystem_Transmission.c ****       if (VCU_DW.Counter_Count_i < 200) {
 3408              	 .loc 1 1077 0
 3409 1b60 374B     	 ldr r3,.L279+4
 3410 1b62 93F8FB30 	 ldrb r3,[r3,#251]
 3411 1b66 C72B     	 cmp r3,#199
 3412 1b68 08D8     	 bhi .L142
1078:../Simulink/Subsystem_Transmission.c ****         VCU_DW.Counter_Count_i++;
 3413              	 .loc 1 1078 0
 3414 1b6a 354B     	 ldr r3,.L279+4
 3415 1b6c 93F8FB30 	 ldrb r3,[r3,#251]
 3416 1b70 0133     	 adds r3,r3,#1
 3417 1b72 DAB2     	 uxtb r2,r3
 3418 1b74 324B     	 ldr r3,.L279+4
 3419 1b76 83F8FB20 	 strb r2,[r3,#251]
 3420 1b7a 03E0     	 b .L141
 3421              	.L142:
1079:../Simulink/Subsystem_Transmission.c ****       } else {
1080:../Simulink/Subsystem_Transmission.c ****         VCU_DW.Counter_Count_i = 0U;
 3422              	 .loc 1 1080 0
 3423 1b7c 304B     	 ldr r3,.L279+4
 3424 1b7e 0022     	 movs r2,#0
 3425 1b80 83F8FB20 	 strb r2,[r3,#251]
 3426              	.L141:
1081:../Simulink/Subsystem_Transmission.c ****       }
1082:../Simulink/Subsystem_Transmission.c ****     }
1083:../Simulink/Subsystem_Transmission.c **** 
1084:../Simulink/Subsystem_Transmission.c ****     if (VCU_DW.Counter_Count_i == 180) {
 3427              	 .loc 1 1084 0
 3428 1b84 2E4B     	 ldr r3,.L279+4
 3429 1b86 93F8FB30 	 ldrb r3,[r3,#251]
 3430 1b8a B42B     	 cmp r3,#180
 3431 1b8c 03D1     	 bne .L143
1085:../Simulink/Subsystem_Transmission.c ****       VCU_B.Counter_d = true;
 3432              	 .loc 1 1085 0
 3433 1b8e 2B4B     	 ldr r3,.L279
 3434 1b90 0122     	 movs r2,#1
 3435 1b92 83F81027 	 strb r2,[r3,#1808]
 3436              	.L143:
1086:../Simulink/Subsystem_Transmission.c ****     }
1087:../Simulink/Subsystem_Transmission.c **** 
1088:../Simulink/Subsystem_Transmission.c ****     /* End of S-Function (sdspcount2): '<S200>/Counter' */
1089:../Simulink/Subsystem_Transmission.c **** 
1090:../Simulink/Subsystem_Transmission.c ****     /* DataTypeConversion: '<S138>/Data Type Conversion8' */
1091:../Simulink/Subsystem_Transmission.c ****     VCU_B.VOVG_ShiftUp_k = VCU_B.Logic_iz[0];
 3437              	 .loc 1 1091 0
 3438 1b96 294B     	 ldr r3,.L279
 3439 1b98 93F80737 	 ldrb r3,[r3,#1799]
 3440 1b9c 1846     	 mov r0,r3
 3441 1b9e FFF7FEFF 	 bl __aeabi_ui2d
 3442 1ba2 0246     	 mov r2,r0
 3443 1ba4 0B46     	 mov r3,r1
 3444 1ba6 2549     	 ldr r1,.L279
 3445 1ba8 C1E92223 	 strd r2,[r1,#136]
1092:../Simulink/Subsystem_Transmission.c **** 
1093:../Simulink/Subsystem_Transmission.c ****     /* UnitDelay: '<S212>/Delay Input1'
1094:../Simulink/Subsystem_Transmission.c ****      *
1095:../Simulink/Subsystem_Transmission.c ****      * Block description for '<S212>/Delay Input1':
1096:../Simulink/Subsystem_Transmission.c ****      *
1097:../Simulink/Subsystem_Transmission.c ****      *  Store in Global RAM
1098:../Simulink/Subsystem_Transmission.c ****      */
1099:../Simulink/Subsystem_Transmission.c ****     VCU_B.Uk1_f = VCU_DW.DelayInput1_DSTATE_p;
 3446              	 .loc 1 1099 0
 3447 1bac 244B     	 ldr r3,.L279+4
 3448 1bae 93F8BE20 	 ldrb r2,[r3,#190]
 3449 1bb2 224B     	 ldr r3,.L279
 3450 1bb4 83F88826 	 strb r2,[r3,#1672]
1100:../Simulink/Subsystem_Transmission.c **** 
1101:../Simulink/Subsystem_Transmission.c ****     /* RelationalOperator: '<S212>/FixPt Relational Operator' */
1102:../Simulink/Subsystem_Transmission.c ****     VCU_B.FixPtRelationalOperator_d = (VCU_B.Add_c < VCU_B.Uk1_f);
 3451              	 .loc 1 1102 0
 3452 1bb8 204B     	 ldr r3,.L279
 3453 1bba 93F88426 	 ldrb r2,[r3,#1668]
 3454 1bbe 1F4B     	 ldr r3,.L279
 3455 1bc0 93F88836 	 ldrb r3,[r3,#1672]
 3456 1bc4 9A42     	 cmp r2,r3
 3457 1bc6 34BF     	 ite cc
 3458 1bc8 0123     	 movcc r3,#1
 3459 1bca 0023     	 movcs r3,#0
 3460 1bcc DBB2     	 uxtb r3,r3
 3461 1bce 1A46     	 mov r2,r3
 3462 1bd0 1A4B     	 ldr r3,.L279
 3463 1bd2 83F81127 	 strb r2,[r3,#1809]
1103:../Simulink/Subsystem_Transmission.c **** 
1104:../Simulink/Subsystem_Transmission.c ****     /* Switch: '<S198>/Switch' */
1105:../Simulink/Subsystem_Transmission.c ****     if (VCU_B.Logic_i[0]) {
 3464              	 .loc 1 1105 0
 3465 1bd6 194B     	 ldr r3,.L279
 3466 1bd8 93F8E636 	 ldrb r3,[r3,#1766]
 3467 1bdc 002B     	 cmp r3,#0
 3468 1bde 06D0     	 beq .L144
1106:../Simulink/Subsystem_Transmission.c ****       /* MinMax: '<S198>/MinMax' incorporates:
1107:../Simulink/Subsystem_Transmission.c ****        *  Constant: '<S198>/Constant'
1108:../Simulink/Subsystem_Transmission.c ****        */
1109:../Simulink/Subsystem_Transmission.c ****       VCU_B.Switch_g = 20.0;
 3469              	 .loc 1 1109 0
 3470 1be0 1649     	 ldr r1,.L279
 3471 1be2 4FF00002 	 mov r2,#0
 3472 1be6 184B     	 ldr r3,.L279+12
 3473 1be8 C1E92423 	 strd r2,[r1,#144]
 3474 1bec 06E0     	 b .L145
 3475              	.L144:
1110:../Simulink/Subsystem_Transmission.c ****     } else {
1111:../Simulink/Subsystem_Transmission.c ****       /* MinMax: '<S198>/MinMax' incorporates:
1112:../Simulink/Subsystem_Transmission.c ****        *  Constant: '<S198>/Constant1'
1113:../Simulink/Subsystem_Transmission.c ****        */
1114:../Simulink/Subsystem_Transmission.c ****       VCU_B.Switch_g = 0.0;
 3476              	 .loc 1 1114 0
 3477 1bee 1349     	 ldr r1,.L279
 3478 1bf0 4FF00002 	 mov r2,#0
 3479 1bf4 4FF00003 	 mov r3,#0
 3480 1bf8 C1E92423 	 strd r2,[r1,#144]
 3481              	.L145:
1115:../Simulink/Subsystem_Transmission.c ****     }
1116:../Simulink/Subsystem_Transmission.c **** 
1117:../Simulink/Subsystem_Transmission.c ****     /* End of Switch: '<S198>/Switch' */
1118:../Simulink/Subsystem_Transmission.c **** 
1119:../Simulink/Subsystem_Transmission.c ****     /* MinMax: '<S198>/MinMax' */
1120:../Simulink/Subsystem_Transmission.c ****     if ((VCU_B.x_clutch_STW > VCU_B.Switch_g) || rtIsNaN(VCU_B.Switch_g)) {
 3482              	 .loc 1 1120 0
 3483 1bfc 0F4B     	 ldr r3,.L279
 3484 1bfe 03F59A63 	 add r3,r3,#1232
 3485 1c02 D3E90001 	 ldrd r0,[r3]
 3486 1c06 0D4B     	 ldr r3,.L279
 3487 1c08 D3E92423 	 ldrd r2,[r3,#144]
 3488 1c0c FFF7FEFF 	 bl __aeabi_dcmpgt
 3489 1c10 0346     	 mov r3,r0
 3490 1c12 002B     	 cmp r3,#0
 3491 1c14 09D1     	 bne .L146
 3492              	 .loc 1 1120 0 is_stmt 0 discriminator 1
 3493 1c16 094B     	 ldr r3,.L279
 3494 1c18 D3E92423 	 ldrd r2,[r3,#144]
 3495 1c1c 1046     	 mov r0,r2
 3496 1c1e 1946     	 mov r1,r3
 3497 1c20 FFF7FEFF 	 bl rtIsNaN
 3498 1c24 0346     	 mov r3,r0
 3499 1c26 002B     	 cmp r3,#0
 3500 1c28 10D0     	 beq .L147
 3501              	.L146:
1121:../Simulink/Subsystem_Transmission.c ****       VCU_B.MinMax = VCU_B.x_clutch_STW;
 3502              	 .loc 1 1121 0 is_stmt 1
 3503 1c2a 044B     	 ldr r3,.L279
 3504 1c2c 03F59A63 	 add r3,r3,#1232
 3505 1c30 D3E90023 	 ldrd r2,[r3]
 3506 1c34 0149     	 ldr r1,.L279
 3507 1c36 C1E92623 	 strd r2,[r1,#152]
 3508 1c3a 0DE0     	 b .L148
 3509              	.L280:
 3510              	 .align 2
 3511              	.L279:
 3512 1c3c 00000000 	 .word VCU_B
 3513 1c40 00000000 	 .word VCU_DW
 3514 1c44 00000000 	 .word VCU_ConstP
 3515 1c48 00003440 	 .word 1077149696
 3516              	.L147:
1122:../Simulink/Subsystem_Transmission.c ****     } else {
1123:../Simulink/Subsystem_Transmission.c ****       VCU_B.MinMax = VCU_B.Switch_g;
 3517              	 .loc 1 1123 0
 3518 1c4c A94B     	 ldr r3,.L281
 3519 1c4e D3E92423 	 ldrd r2,[r3,#144]
 3520 1c52 A849     	 ldr r1,.L281
 3521 1c54 C1E92623 	 strd r2,[r1,#152]
 3522              	.L148:
1124:../Simulink/Subsystem_Transmission.c ****     }
1125:../Simulink/Subsystem_Transmission.c **** 
1126:../Simulink/Subsystem_Transmission.c ****     if (!(VCU_B.MinMax > 0.0)) {
 3523              	 .loc 1 1126 0
 3524 1c58 A64B     	 ldr r3,.L281
 3525 1c5a D3E92623 	 ldrd r2,[r3,#152]
 3526 1c5e 0121     	 movs r1,#1
 3527 1c60 0C46     	 mov r4,r1
 3528 1c62 1046     	 mov r0,r2
 3529 1c64 1946     	 mov r1,r3
 3530 1c66 4FF00002 	 mov r2,#0
 3531 1c6a 4FF00003 	 mov r3,#0
 3532 1c6e FFF7FEFF 	 bl __aeabi_dcmpgt
 3533 1c72 0346     	 mov r3,r0
 3534 1c74 002B     	 cmp r3,#0
 3535 1c76 01D1     	 bne .L149
 3536 1c78 0023     	 movs r3,#0
 3537 1c7a 1C46     	 mov r4,r3
 3538              	.L149:
 3539 1c7c E3B2     	 uxtb r3,r4
 3540 1c7e 83F00103 	 eor r3,r3,#1
 3541 1c82 DBB2     	 uxtb r3,r3
 3542 1c84 002B     	 cmp r3,#0
 3543 1c86 06D0     	 beq .L150
1127:../Simulink/Subsystem_Transmission.c ****       VCU_B.MinMax = 0.0;
 3544              	 .loc 1 1127 0
 3545 1c88 9A49     	 ldr r1,.L281
 3546 1c8a 4FF00002 	 mov r2,#0
 3547 1c8e 4FF00003 	 mov r3,#0
 3548 1c92 C1E92623 	 strd r2,[r1,#152]
 3549              	.L150:
1128:../Simulink/Subsystem_Transmission.c ****     }
1129:../Simulink/Subsystem_Transmission.c **** 
1130:../Simulink/Subsystem_Transmission.c ****     /* RelationalOperator: '<S202>/Compare' incorporates:
1131:../Simulink/Subsystem_Transmission.c ****      *  Constant: '<S202>/Constant'
1132:../Simulink/Subsystem_Transmission.c ****      */
1133:../Simulink/Subsystem_Transmission.c ****     VCU_B.Compare_ao = (VCU_B.MinMax > 1.0);
 3550              	 .loc 1 1133 0
 3551 1c96 974B     	 ldr r3,.L281
 3552 1c98 D3E92623 	 ldrd r2,[r3,#152]
 3553 1c9c 0121     	 movs r1,#1
 3554 1c9e 0C46     	 mov r4,r1
 3555 1ca0 1046     	 mov r0,r2
 3556 1ca2 1946     	 mov r1,r3
 3557 1ca4 4FF00002 	 mov r2,#0
 3558 1ca8 934B     	 ldr r3,.L281+4
 3559 1caa FFF7FEFF 	 bl __aeabi_dcmpgt
 3560 1cae 0346     	 mov r3,r0
 3561 1cb0 002B     	 cmp r3,#0
 3562 1cb2 01D1     	 bne .L151
 3563 1cb4 0023     	 movs r3,#0
 3564 1cb6 1C46     	 mov r4,r3
 3565              	.L151:
 3566 1cb8 E3B2     	 uxtb r3,r4
 3567 1cba 1A46     	 mov r2,r3
 3568 1cbc 8D4B     	 ldr r3,.L281
 3569 1cbe 83F81227 	 strb r2,[r3,#1810]
1134:../Simulink/Subsystem_Transmission.c **** 
1135:../Simulink/Subsystem_Transmission.c ****     /* DataTypeConversion: '<S138>/Data Type Conversion12' */
1136:../Simulink/Subsystem_Transmission.c ****     VCU_B.VOVG_IN_h = VCU_B.Compare_ao;
 3570              	 .loc 1 1136 0
 3571 1cc2 8C4B     	 ldr r3,.L281
 3572 1cc4 93F81237 	 ldrb r3,[r3,#1810]
 3573 1cc8 1846     	 mov r0,r3
 3574 1cca FFF7FEFF 	 bl __aeabi_ui2d
 3575 1cce 0246     	 mov r2,r0
 3576 1cd0 0B46     	 mov r3,r1
 3577 1cd2 8849     	 ldr r1,.L281
 3578 1cd4 C1E92823 	 strd r2,[r1,#160]
1137:../Simulink/Subsystem_Transmission.c **** 
1138:../Simulink/Subsystem_Transmission.c ****     /* Sum: '<S198>/Add' */
1139:../Simulink/Subsystem_Transmission.c ****     VCU_B.Add = VCU_B.MinMax - VCU_B.x_clutch_b;
 3579              	 .loc 1 1139 0
 3580 1cd8 864B     	 ldr r3,.L281
 3581 1cda D3E92601 	 ldrd r0,[r3,#152]
 3582 1cde 854B     	 ldr r3,.L281
 3583 1ce0 03F5AB63 	 add r3,r3,#1368
 3584 1ce4 D3E90023 	 ldrd r2,[r3]
 3585 1ce8 FFF7FEFF 	 bl __aeabi_dsub
 3586 1cec 0246     	 mov r2,r0
 3587 1cee 0B46     	 mov r3,r1
 3588 1cf0 8049     	 ldr r1,.L281
 3589 1cf2 C1E92A23 	 strd r2,[r1,#168]
1140:../Simulink/Subsystem_Transmission.c **** 
1141:../Simulink/Subsystem_Transmission.c ****     /* RelationalOperator: '<S204>/Compare' incorporates:
1142:../Simulink/Subsystem_Transmission.c ****      *  Constant: '<S204>/Constant'
1143:../Simulink/Subsystem_Transmission.c ****      */
1144:../Simulink/Subsystem_Transmission.c ****     VCU_B.Compare_gu = (VCU_B.Add < -0.5);
 3590              	 .loc 1 1144 0
 3591 1cf6 7F4B     	 ldr r3,.L281
 3592 1cf8 D3E92A23 	 ldrd r2,[r3,#168]
 3593 1cfc 0121     	 movs r1,#1
 3594 1cfe 0C46     	 mov r4,r1
 3595 1d00 1046     	 mov r0,r2
 3596 1d02 1946     	 mov r1,r3
 3597 1d04 4FF00002 	 mov r2,#0
 3598 1d08 7C4B     	 ldr r3,.L281+8
 3599 1d0a FFF7FEFF 	 bl __aeabi_dcmplt
 3600 1d0e 0346     	 mov r3,r0
 3601 1d10 002B     	 cmp r3,#0
 3602 1d12 01D1     	 bne .L152
 3603 1d14 0023     	 movs r3,#0
 3604 1d16 1C46     	 mov r4,r3
 3605              	.L152:
 3606 1d18 E3B2     	 uxtb r3,r4
 3607 1d1a 1A46     	 mov r2,r3
 3608 1d1c 754B     	 ldr r3,.L281
 3609 1d1e 83F81327 	 strb r2,[r3,#1811]
1145:../Simulink/Subsystem_Transmission.c **** 
1146:../Simulink/Subsystem_Transmission.c ****     /* Lookup_n-D: '<S198>/Duty Cycle MHJ1' */
1147:../Simulink/Subsystem_Transmission.c ****     VCU_B.DutyCycleMHJ1 = look1_binlxpw(VCU_B.Add, VCU_ConstP.pooled29,
 3610              	 .loc 1 1147 0
 3611 1d22 744B     	 ldr r3,.L281
 3612 1d24 D3E92A23 	 ldrd r2,[r3,#168]
 3613 1d28 0E21     	 movs r1,#14
 3614 1d2a 0091     	 str r1,[sp]
 3615 1d2c 1046     	 mov r0,r2
 3616 1d2e 1946     	 mov r1,r3
 3617 1d30 734A     	 ldr r2,.L281+12
 3618 1d32 744B     	 ldr r3,.L281+16
 3619 1d34 FFF7FEFF 	 bl look1_binlxpw
 3620 1d38 0246     	 mov r2,r0
 3621 1d3a 0B46     	 mov r3,r1
 3622 1d3c 6D49     	 ldr r1,.L281
 3623 1d3e C1E92C23 	 strd r2,[r1,#176]
1148:../Simulink/Subsystem_Transmission.c ****       VCU_ConstP.pooled28, 14U);
1149:../Simulink/Subsystem_Transmission.c **** 
1150:../Simulink/Subsystem_Transmission.c ****     /* Product: '<S198>/Product1' */
1151:../Simulink/Subsystem_Transmission.c ****     VCU_B.Product1 = VCU_B.DutyCycleMHJ1 * (real_T)VCU_B.Compare_gu;
 3624              	 .loc 1 1151 0
 3625 1d42 6C4B     	 ldr r3,.L281
 3626 1d44 D3E92C45 	 ldrd r4,[r3,#176]
 3627 1d48 6A4B     	 ldr r3,.L281
 3628 1d4a 93F81337 	 ldrb r3,[r3,#1811]
 3629 1d4e 1846     	 mov r0,r3
 3630 1d50 FFF7FEFF 	 bl __aeabi_ui2d
 3631 1d54 0246     	 mov r2,r0
 3632 1d56 0B46     	 mov r3,r1
 3633 1d58 2046     	 mov r0,r4
 3634 1d5a 2946     	 mov r1,r5
 3635 1d5c FFF7FEFF 	 bl __aeabi_dmul
 3636 1d60 0246     	 mov r2,r0
 3637 1d62 0B46     	 mov r3,r1
 3638 1d64 6349     	 ldr r1,.L281
 3639 1d66 C1E92E23 	 strd r2,[r1,#184]
1152:../Simulink/Subsystem_Transmission.c **** 
1153:../Simulink/Subsystem_Transmission.c ****     /* RelationalOperator: '<S203>/Compare' incorporates:
1154:../Simulink/Subsystem_Transmission.c ****      *  Constant: '<S203>/Constant'
1155:../Simulink/Subsystem_Transmission.c ****      */
1156:../Simulink/Subsystem_Transmission.c ****     VCU_B.Compare_eh = (VCU_B.x_clutch_b > 20.0);
 3640              	 .loc 1 1156 0
 3641 1d6a 624B     	 ldr r3,.L281
 3642 1d6c 03F5AB63 	 add r3,r3,#1368
 3643 1d70 D3E90023 	 ldrd r2,[r3]
 3644 1d74 0121     	 movs r1,#1
 3645 1d76 0C46     	 mov r4,r1
 3646 1d78 1046     	 mov r0,r2
 3647 1d7a 1946     	 mov r1,r3
 3648 1d7c 4FF00002 	 mov r2,#0
 3649 1d80 614B     	 ldr r3,.L281+20
 3650 1d82 FFF7FEFF 	 bl __aeabi_dcmpgt
 3651 1d86 0346     	 mov r3,r0
 3652 1d88 002B     	 cmp r3,#0
 3653 1d8a 01D1     	 bne .L153
 3654 1d8c 0023     	 movs r3,#0
 3655 1d8e 1C46     	 mov r4,r3
 3656              	.L153:
 3657 1d90 E3B2     	 uxtb r3,r4
 3658 1d92 1A46     	 mov r2,r3
 3659 1d94 574B     	 ldr r3,.L281
 3660 1d96 83F81427 	 strb r2,[r3,#1812]
1157:../Simulink/Subsystem_Transmission.c **** 
1158:../Simulink/Subsystem_Transmission.c ****     /* Switch: '<S198>/Switch1' incorporates:
1159:../Simulink/Subsystem_Transmission.c ****      *  Constant: '<S198>/Constant2'
1160:../Simulink/Subsystem_Transmission.c ****      *  Constant: '<S198>/Constant3'
1161:../Simulink/Subsystem_Transmission.c ****      */
1162:../Simulink/Subsystem_Transmission.c ****     if (VCU_B.Compare_eh) {
 3661              	 .loc 1 1162 0
 3662 1d9a 564B     	 ldr r3,.L281
 3663 1d9c 93F81437 	 ldrb r3,[r3,#1812]
 3664 1da0 002B     	 cmp r3,#0
 3665 1da2 07D0     	 beq .L154
1163:../Simulink/Subsystem_Transmission.c ****       VCU_B.Switch1 = 2.0;
 3666              	 .loc 1 1163 0
 3667 1da4 5349     	 ldr r1,.L281
 3668 1da6 4FF00002 	 mov r2,#0
 3669 1daa 4FF08043 	 mov r3,#1073741824
 3670 1dae C1E93023 	 strd r2,[r1,#192]
 3671 1db2 05E0     	 b .L155
 3672              	.L154:
1164:../Simulink/Subsystem_Transmission.c ****     } else {
1165:../Simulink/Subsystem_Transmission.c ****       VCU_B.Switch1 = 1.0;
 3673              	 .loc 1 1165 0
 3674 1db4 4F49     	 ldr r1,.L281
 3675 1db6 4FF00002 	 mov r2,#0
 3676 1dba 4F4B     	 ldr r3,.L281+4
 3677 1dbc C1E93023 	 strd r2,[r1,#192]
 3678              	.L155:
1166:../Simulink/Subsystem_Transmission.c ****     }
1167:../Simulink/Subsystem_Transmission.c **** 
1168:../Simulink/Subsystem_Transmission.c ****     /* End of Switch: '<S198>/Switch1' */
1169:../Simulink/Subsystem_Transmission.c **** 
1170:../Simulink/Subsystem_Transmission.c ****     /* Product: '<S198>/Product2' */
1171:../Simulink/Subsystem_Transmission.c ****     VCU_B.Product2 = VCU_B.Product1 * VCU_B.Switch1;
 3679              	 .loc 1 1171 0
 3680 1dc0 4C4B     	 ldr r3,.L281
 3681 1dc2 D3E92E01 	 ldrd r0,[r3,#184]
 3682 1dc6 4B4B     	 ldr r3,.L281
 3683 1dc8 D3E93023 	 ldrd r2,[r3,#192]
 3684 1dcc FFF7FEFF 	 bl __aeabi_dmul
 3685 1dd0 0246     	 mov r2,r0
 3686 1dd2 0B46     	 mov r3,r1
 3687 1dd4 4749     	 ldr r1,.L281
 3688 1dd6 C1E93223 	 strd r2,[r1,#200]
1172:../Simulink/Subsystem_Transmission.c **** 
1173:../Simulink/Subsystem_Transmission.c ****     /* DataTypeConversion: '<S138>/Data Type Conversion15' */
1174:../Simulink/Subsystem_Transmission.c ****     VCU_B.MHJ9_OUT_d = VCU_B.Product2;
 3689              	 .loc 1 1174 0
 3690 1dda 464B     	 ldr r3,.L281
 3691 1ddc D3E93223 	 ldrd r2,[r3,#200]
 3692 1de0 4449     	 ldr r1,.L281
 3693 1de2 C1E93423 	 strd r2,[r1,#208]
1175:../Simulink/Subsystem_Transmission.c **** 
1176:../Simulink/Subsystem_Transmission.c ****     /* RelationalOperator: '<S205>/Compare' incorporates:
1177:../Simulink/Subsystem_Transmission.c ****      *  Constant: '<S205>/Constant'
1178:../Simulink/Subsystem_Transmission.c ****      */
1179:../Simulink/Subsystem_Transmission.c ****     VCU_B.Compare_m = (VCU_B.Add > 0.0);
 3694              	 .loc 1 1179 0
 3695 1de6 434B     	 ldr r3,.L281
 3696 1de8 D3E92A23 	 ldrd r2,[r3,#168]
 3697 1dec 0121     	 movs r1,#1
 3698 1dee 0C46     	 mov r4,r1
 3699 1df0 1046     	 mov r0,r2
 3700 1df2 1946     	 mov r1,r3
 3701 1df4 4FF00002 	 mov r2,#0
 3702 1df8 4FF00003 	 mov r3,#0
 3703 1dfc FFF7FEFF 	 bl __aeabi_dcmpgt
 3704 1e00 0346     	 mov r3,r0
 3705 1e02 002B     	 cmp r3,#0
 3706 1e04 01D1     	 bne .L156
 3707 1e06 0023     	 movs r3,#0
 3708 1e08 1C46     	 mov r4,r3
 3709              	.L156:
 3710 1e0a E3B2     	 uxtb r3,r4
 3711 1e0c 1A46     	 mov r2,r3
 3712 1e0e 394B     	 ldr r3,.L281
 3713 1e10 83F81527 	 strb r2,[r3,#1813]
1180:../Simulink/Subsystem_Transmission.c **** 
1181:../Simulink/Subsystem_Transmission.c ****     /* Product: '<S198>/Product3' */
1182:../Simulink/Subsystem_Transmission.c ****     VCU_B.Product3 = VCU_B.DutyCycleMHJ1 * (real_T)VCU_B.Compare_m;
 3714              	 .loc 1 1182 0
 3715 1e14 374B     	 ldr r3,.L281
 3716 1e16 D3E92C45 	 ldrd r4,[r3,#176]
 3717 1e1a 364B     	 ldr r3,.L281
 3718 1e1c 93F81537 	 ldrb r3,[r3,#1813]
 3719 1e20 1846     	 mov r0,r3
 3720 1e22 FFF7FEFF 	 bl __aeabi_ui2d
 3721 1e26 0246     	 mov r2,r0
 3722 1e28 0B46     	 mov r3,r1
 3723 1e2a 2046     	 mov r0,r4
 3724 1e2c 2946     	 mov r1,r5
 3725 1e2e FFF7FEFF 	 bl __aeabi_dmul
 3726 1e32 0246     	 mov r2,r0
 3727 1e34 0B46     	 mov r3,r1
 3728 1e36 2F49     	 ldr r1,.L281
 3729 1e38 C1E93623 	 strd r2,[r1,#216]
1183:../Simulink/Subsystem_Transmission.c **** 
1184:../Simulink/Subsystem_Transmission.c ****     /* DataTypeConversion: '<S138>/Data Type Conversion14' */
1185:../Simulink/Subsystem_Transmission.c ****     VCU_B.MHJ9_IN_e = VCU_B.Product3;
 3730              	 .loc 1 1185 0
 3731 1e3c 2D4B     	 ldr r3,.L281
 3732 1e3e D3E93623 	 ldrd r2,[r3,#216]
 3733 1e42 2C49     	 ldr r1,.L281
 3734 1e44 C1E93823 	 strd r2,[r1,#224]
1186:../Simulink/Subsystem_Transmission.c **** 
1187:../Simulink/Subsystem_Transmission.c ****     /* RelationalOperator: '<S206>/Compare' incorporates:
1188:../Simulink/Subsystem_Transmission.c ****      *  Constant: '<S206>/Constant'
1189:../Simulink/Subsystem_Transmission.c ****      */
1190:../Simulink/Subsystem_Transmission.c ****     VCU_B.Compare_md = (VCU_B.Add < -20.0);
 3735              	 .loc 1 1190 0
 3736 1e48 2A4B     	 ldr r3,.L281
 3737 1e4a D3E92A23 	 ldrd r2,[r3,#168]
 3738 1e4e 0121     	 movs r1,#1
 3739 1e50 0C46     	 mov r4,r1
 3740 1e52 1046     	 mov r0,r2
 3741 1e54 1946     	 mov r1,r3
 3742 1e56 4FF00002 	 mov r2,#0
 3743 1e5a 2C4B     	 ldr r3,.L281+24
 3744 1e5c FFF7FEFF 	 bl __aeabi_dcmplt
 3745 1e60 0346     	 mov r3,r0
 3746 1e62 002B     	 cmp r3,#0
 3747 1e64 01D1     	 bne .L157
 3748 1e66 0023     	 movs r3,#0
 3749 1e68 1C46     	 mov r4,r3
 3750              	.L157:
 3751 1e6a E3B2     	 uxtb r3,r4
 3752 1e6c 1A46     	 mov r2,r3
 3753 1e6e 214B     	 ldr r3,.L281
 3754 1e70 83F81627 	 strb r2,[r3,#1814]
1191:../Simulink/Subsystem_Transmission.c **** 
1192:../Simulink/Subsystem_Transmission.c ****     /* DataTypeConversion: '<S138>/Data Type Conversion13' */
1193:../Simulink/Subsystem_Transmission.c ****     VCU_B.VOVG_OUT_j = VCU_B.Compare_md;
 3755              	 .loc 1 1193 0
 3756 1e74 1F4B     	 ldr r3,.L281
 3757 1e76 93F81637 	 ldrb r3,[r3,#1814]
 3758 1e7a 1846     	 mov r0,r3
 3759 1e7c FFF7FEFF 	 bl __aeabi_ui2d
 3760 1e80 0246     	 mov r2,r0
 3761 1e82 0B46     	 mov r3,r1
 3762 1e84 1B49     	 ldr r1,.L281
 3763 1e86 C1E93A23 	 strd r2,[r1,#232]
1194:../Simulink/Subsystem_Transmission.c **** 
1195:../Simulink/Subsystem_Transmission.c ****     /* DataTypeConversion: '<S138>/Data Type Conversion2' incorporates:
1196:../Simulink/Subsystem_Transmission.c ****      *  Constant: '<S138>/Constant'
1197:../Simulink/Subsystem_Transmission.c ****      */
1198:../Simulink/Subsystem_Transmission.c ****     VCU_B.LC_ready_bit_e = true;
 3764              	 .loc 1 1198 0
 3765 1e8a 1A4B     	 ldr r3,.L281
 3766 1e8c 0122     	 movs r2,#1
 3767 1e8e 83F81727 	 strb r2,[r3,#1815]
1199:../Simulink/Subsystem_Transmission.c **** 
1200:../Simulink/Subsystem_Transmission.c ****     /* DataTypeConversion: '<S138>/Data Type Conversion16' */
1201:../Simulink/Subsystem_Transmission.c ****     VCU_B.x_clutch_LC_b = 0.0;
 3768              	 .loc 1 1201 0
 3769 1e92 1849     	 ldr r1,.L281
 3770 1e94 4FF00002 	 mov r2,#0
 3771 1e98 4FF00003 	 mov r3,#0
 3772 1e9c C1E93C23 	 strd r2,[r1,#240]
1202:../Simulink/Subsystem_Transmission.c **** 
1203:../Simulink/Subsystem_Transmission.c ****     /* DataTypeConversion: '<S138>/Data Type Conversion17' */
1204:../Simulink/Subsystem_Transmission.c ****     VCU_B.LC_Mdes_b = 0.0;
 3773              	 .loc 1 1204 0
 3774 1ea0 1449     	 ldr r1,.L281
 3775 1ea2 4FF00002 	 mov r2,#0
 3776 1ea6 4FF00003 	 mov r3,#0
 3777 1eaa C1E93E23 	 strd r2,[r1,#248]
1205:../Simulink/Subsystem_Transmission.c **** 
1206:../Simulink/Subsystem_Transmission.c ****     /* DataTypeConversion: '<S138>/Data Type Conversion18' */
1207:../Simulink/Subsystem_Transmission.c ****     VCU_B.LC_Fnr_l = 0.0;
 3778              	 .loc 1 1207 0
 3779 1eae 1149     	 ldr r1,.L281
 3780 1eb0 4FF00002 	 mov r2,#0
 3781 1eb4 4FF00003 	 mov r3,#0
 3782 1eb8 C1E94023 	 strd r2,[r1,#256]
1208:../Simulink/Subsystem_Transmission.c **** 
1209:../Simulink/Subsystem_Transmission.c ****     /* Update for Memory: '<S201>/Memory' */
1210:../Simulink/Subsystem_Transmission.c ****     VCU_DW.Memory_PreviousInput = VCU_B.LC_dash_bit;
 3783              	 .loc 1 1210 0
 3784 1ebc 0D4B     	 ldr r3,.L281
 3785 1ebe 93F87F27 	 ldrb r2,[r3,#1919]
 3786 1ec2 134B     	 ldr r3,.L281+28
 3787 1ec4 83F83521 	 strb r2,[r3,#309]
1211:../Simulink/Subsystem_Transmission.c **** 
1212:../Simulink/Subsystem_Transmission.c ****     /* Update for Memory: '<S201>/Memory1' */
1213:../Simulink/Subsystem_Transmission.c ****     VCU_DW.Memory1_PreviousInput = VCU_B.Brakelight;
 3788              	 .loc 1 1213 0
 3789 1ec8 0A4B     	 ldr r3,.L281
 3790 1eca 93F8D626 	 ldrb r2,[r3,#1750]
 3791 1ece 104B     	 ldr r3,.L281+28
 3792 1ed0 83F83621 	 strb r2,[r3,#310]
1214:../Simulink/Subsystem_Transmission.c **** 
1215:../Simulink/Subsystem_Transmission.c ****     /* Update for Memory: '<S227>/Memory' */
1216:../Simulink/Subsystem_Transmission.c ****     VCU_DW.Memory_PreviousInput_j = VCU_B.Logic[0];
 3793              	 .loc 1 1216 0
 3794 1ed4 074B     	 ldr r3,.L281
 3795 1ed6 93F8DA26 	 ldrb r2,[r3,#1754]
 3796 1eda 0D4B     	 ldr r3,.L281+28
 3797 1edc 83F83721 	 strb r2,[r3,#311]
1217:../Simulink/Subsystem_Transmission.c **** 
1218:../Simulink/Subsystem_Transmission.c ****     /* Update for UnitDelay: '<S199>/Unit Delay1' */
1219:../Simulink/Subsystem_Transmission.c ****     VCU_DW.UnitDelay1_DSTATE = VCU_B.Logic_i[0];
 3798              	 .loc 1 1219 0
 3799 1ee0 044B     	 ldr r3,.L281
 3800 1ee2 93F8E626 	 ldrb r2,[r3,#1766]
 3801 1ee6 0A4B     	 ldr r3,.L281+28
 3802 1ee8 83F8C220 	 strb r2,[r3,#194]
1220:../Simulink/Subsystem_Transmission.c **** 
1221:../Simulink/Subsystem_Transmission.c ****     /* Update for Delay: '<S199>/Delay' */
1222:../Simulink/Subsystem_Transmission.c ****     for (rowIdx = 0; rowIdx < 19; rowIdx++) {
 3803              	 .loc 1 1222 0
 3804 1eec 0023     	 movs r3,#0
 3805 1eee 7B61     	 str r3,[r7,#20]
 3806 1ef0 1FE0     	 b .L158
 3807              	.L282:
 3808 1ef2 00BF     	 .align 2
 3809              	.L281:
 3810 1ef4 00000000 	 .word VCU_B
 3811 1ef8 0000F03F 	 .word 1072693248
 3812 1efc 0000E0BF 	 .word -1075838976
 3813 1f00 B0020000 	 .word VCU_ConstP+688
 3814 1f04 38020000 	 .word VCU_ConstP+568
 3815 1f08 00003440 	 .word 1077149696
 3816 1f0c 000034C0 	 .word -1070333952
 3817 1f10 00000000 	 .word VCU_DW
 3818              	.L159:
1223:../Simulink/Subsystem_Transmission.c ****       VCU_DW.Delay_DSTATE[rowIdx] = VCU_DW.Delay_DSTATE[rowIdx + 1];
 3819              	 .loc 1 1223 0 discriminator 3
 3820 1f14 7B69     	 ldr r3,[r7,#20]
 3821 1f16 0133     	 adds r3,r3,#1
 3822 1f18 9D4A     	 ldr r2,.L283
 3823 1f1a 1344     	 add r3,r3,r2
 3824 1f1c 93F8C310 	 ldrb r1,[r3,#195]
 3825 1f20 9B4A     	 ldr r2,.L283
 3826 1f22 7B69     	 ldr r3,[r7,#20]
 3827 1f24 1344     	 add r3,r3,r2
 3828 1f26 C033     	 adds r3,r3,#192
 3829 1f28 0A46     	 mov r2,r1
 3830 1f2a DA70     	 strb r2,[r3,#3]
1222:../Simulink/Subsystem_Transmission.c ****       VCU_DW.Delay_DSTATE[rowIdx] = VCU_DW.Delay_DSTATE[rowIdx + 1];
 3831              	 .loc 1 1222 0 discriminator 3
 3832 1f2c 7B69     	 ldr r3,[r7,#20]
 3833 1f2e 0133     	 adds r3,r3,#1
 3834 1f30 7B61     	 str r3,[r7,#20]
 3835              	.L158:
1222:../Simulink/Subsystem_Transmission.c ****       VCU_DW.Delay_DSTATE[rowIdx] = VCU_DW.Delay_DSTATE[rowIdx + 1];
 3836              	 .loc 1 1222 0 is_stmt 0 discriminator 1
 3837 1f32 7B69     	 ldr r3,[r7,#20]
 3838 1f34 122B     	 cmp r3,#18
 3839 1f36 EDDD     	 ble .L159
1224:../Simulink/Subsystem_Transmission.c ****     }
1225:../Simulink/Subsystem_Transmission.c **** 
1226:../Simulink/Subsystem_Transmission.c ****     VCU_DW.Delay_DSTATE[19] = VCU_B.LogicalOperator_d;
 3840              	 .loc 1 1226 0 is_stmt 1
 3841 1f38 964B     	 ldr r3,.L283+4
 3842 1f3a 93F8F626 	 ldrb r2,[r3,#1782]
 3843 1f3e 944B     	 ldr r3,.L283
 3844 1f40 83F8D620 	 strb r2,[r3,#214]
1227:../Simulink/Subsystem_Transmission.c **** 
1228:../Simulink/Subsystem_Transmission.c ****     /* End of Update for Delay: '<S199>/Delay' */
1229:../Simulink/Subsystem_Transmission.c **** 
1230:../Simulink/Subsystem_Transmission.c ****     /* Update for Memory: '<S216>/Memory' */
1231:../Simulink/Subsystem_Transmission.c ****     VCU_DW.Memory_PreviousInput_p = VCU_B.Logic_o[0];
 3845              	 .loc 1 1231 0
 3846 1f44 934B     	 ldr r3,.L283+4
 3847 1f46 93F8E126 	 ldrb r2,[r3,#1761]
 3848 1f4a 914B     	 ldr r3,.L283
 3849 1f4c 83F83821 	 strb r2,[r3,#312]
1232:../Simulink/Subsystem_Transmission.c **** 
1233:../Simulink/Subsystem_Transmission.c ****     /* Update for UnitDelay: '<S213>/Delay Input1'
1234:../Simulink/Subsystem_Transmission.c ****      *
1235:../Simulink/Subsystem_Transmission.c ****      * Block description for '<S213>/Delay Input1':
1236:../Simulink/Subsystem_Transmission.c ****      *
1237:../Simulink/Subsystem_Transmission.c ****      *  Store in Global RAM
1238:../Simulink/Subsystem_Transmission.c ****      */
1239:../Simulink/Subsystem_Transmission.c ****     VCU_DW.DelayInput1_DSTATE = VCU_B.STW_shift_down_request;
 3850              	 .loc 1 1239 0
 3851 1f50 904B     	 ldr r3,.L283+4
 3852 1f52 03F59D63 	 add r3,r3,#1256
 3853 1f56 D3E90023 	 ldrd r2,[r3]
 3854 1f5a 8D49     	 ldr r1,.L283
 3855 1f5c C1E90023 	 strd r2,[r1]
1240:../Simulink/Subsystem_Transmission.c **** 
1241:../Simulink/Subsystem_Transmission.c ****     /* Update for Delay: '<S199>/Delay1' */
1242:../Simulink/Subsystem_Transmission.c ****     VCU_DW.Delay1_DSTATE = VCU_B.LogicalOperator_d;
 3856              	 .loc 1 1242 0
 3857 1f60 8C4B     	 ldr r3,.L283+4
 3858 1f62 93F8F626 	 ldrb r2,[r3,#1782]
 3859 1f66 8A4B     	 ldr r3,.L283
 3860 1f68 83F8D720 	 strb r2,[r3,#215]
1243:../Simulink/Subsystem_Transmission.c **** 
1244:../Simulink/Subsystem_Transmission.c ****     /* Update for Memory: '<S214>/Memory' */
1245:../Simulink/Subsystem_Transmission.c ****     VCU_DW.Memory_PreviousInput_l = VCU_B.Logic_i[0];
 3861              	 .loc 1 1245 0
 3862 1f6c 894B     	 ldr r3,.L283+4
 3863 1f6e 93F8E626 	 ldrb r2,[r3,#1766]
 3864 1f72 874B     	 ldr r3,.L283
 3865 1f74 83F83921 	 strb r2,[r3,#313]
1246:../Simulink/Subsystem_Transmission.c **** 
1247:../Simulink/Subsystem_Transmission.c ****     /* Update for UnitDelay: '<S199>/Unit Delay4' */
1248:../Simulink/Subsystem_Transmission.c ****     VCU_DW.UnitDelay4_DSTATE = VCU_B.FixPtRelationalOperator_d;
 3866              	 .loc 1 1248 0
 3867 1f78 864B     	 ldr r3,.L283+4
 3868 1f7a 93F81127 	 ldrb r2,[r3,#1809]
 3869 1f7e 844B     	 ldr r3,.L283
 3870 1f80 83F8D820 	 strb r2,[r3,#216]
1249:../Simulink/Subsystem_Transmission.c **** 
1250:../Simulink/Subsystem_Transmission.c ****     /* Update for UnitDelay: '<S200>/Unit Delay' */
1251:../Simulink/Subsystem_Transmission.c ****     VCU_DW.UnitDelay_DSTATE = VCU_B.Logic_iz[0];
 3871              	 .loc 1 1251 0
 3872 1f84 834B     	 ldr r3,.L283+4
 3873 1f86 93F80727 	 ldrb r2,[r3,#1799]
 3874 1f8a 814B     	 ldr r3,.L283
 3875 1f8c 83F8D920 	 strb r2,[r3,#217]
1252:../Simulink/Subsystem_Transmission.c **** 
1253:../Simulink/Subsystem_Transmission.c ****     /* Update for UnitDelay: '<S199>/Unit Delay2' */
1254:../Simulink/Subsystem_Transmission.c ****     VCU_DW.UnitDelay2_DSTATE = VCU_B.Counter;
 3876              	 .loc 1 1254 0
 3877 1f90 804B     	 ldr r3,.L283+4
 3878 1f92 93F80F27 	 ldrb r2,[r3,#1807]
 3879 1f96 7E4B     	 ldr r3,.L283
 3880 1f98 83F8DA20 	 strb r2,[r3,#218]
1255:../Simulink/Subsystem_Transmission.c **** 
1256:../Simulink/Subsystem_Transmission.c ****     /* Update for Memory: '<S215>/Memory' */
1257:../Simulink/Subsystem_Transmission.c ****     VCU_DW.Memory_PreviousInput_a = VCU_B.Logic_iy[0];
 3881              	 .loc 1 1257 0
 3882 1f9c 7D4B     	 ldr r3,.L283+4
 3883 1f9e 93F8F826 	 ldrb r2,[r3,#1784]
 3884 1fa2 7B4B     	 ldr r3,.L283
 3885 1fa4 83F83A21 	 strb r2,[r3,#314]
1258:../Simulink/Subsystem_Transmission.c **** 
1259:../Simulink/Subsystem_Transmission.c ****     /* Update for UnitDelay: '<S221>/Delay Input1'
1260:../Simulink/Subsystem_Transmission.c ****      *
1261:../Simulink/Subsystem_Transmission.c ****      * Block description for '<S221>/Delay Input1':
1262:../Simulink/Subsystem_Transmission.c ****      *
1263:../Simulink/Subsystem_Transmission.c ****      *  Store in Global RAM
1264:../Simulink/Subsystem_Transmission.c ****      */
1265:../Simulink/Subsystem_Transmission.c ****     VCU_DW.DelayInput1_DSTATE_g = VCU_B.STW_shift_up_request;
 3886              	 .loc 1 1265 0
 3887 1fa8 7A4B     	 ldr r3,.L283+4
 3888 1faa 03F59C63 	 add r3,r3,#1248
 3889 1fae D3E90023 	 ldrd r2,[r3]
 3890 1fb2 7749     	 ldr r1,.L283
 3891 1fb4 C1E90223 	 strd r2,[r1,#8]
1266:../Simulink/Subsystem_Transmission.c **** 
1267:../Simulink/Subsystem_Transmission.c ****     /* Update for UnitDelay: '<S222>/Delay Input1'
1268:../Simulink/Subsystem_Transmission.c ****      *
1269:../Simulink/Subsystem_Transmission.c ****      * Block description for '<S222>/Delay Input1':
1270:../Simulink/Subsystem_Transmission.c ****      *
1271:../Simulink/Subsystem_Transmission.c ****      *  Store in Global RAM
1272:../Simulink/Subsystem_Transmission.c ****      */
1273:../Simulink/Subsystem_Transmission.c ****     VCU_DW.DelayInput1_DSTATE_ga = VCU_B.Add_j;
 3892              	 .loc 1 1273 0
 3893 1fb8 764B     	 ldr r3,.L283+4
 3894 1fba 93F88526 	 ldrb r2,[r3,#1669]
 3895 1fbe 744B     	 ldr r3,.L283
 3896 1fc0 83F8BC20 	 strb r2,[r3,#188]
1274:../Simulink/Subsystem_Transmission.c **** 
1275:../Simulink/Subsystem_Transmission.c ****     /* Update for UnitDelay: '<S199>/Unit Delay' */
1276:../Simulink/Subsystem_Transmission.c ****     VCU_DW.UnitDelay_DSTATE_b = VCU_B.Logic_iy[0];
 3897              	 .loc 1 1276 0
 3898 1fc4 734B     	 ldr r3,.L283+4
 3899 1fc6 93F8F826 	 ldrb r2,[r3,#1784]
 3900 1fca 714B     	 ldr r3,.L283
 3901 1fcc 83F8DB20 	 strb r2,[r3,#219]
1277:../Simulink/Subsystem_Transmission.c **** 
1278:../Simulink/Subsystem_Transmission.c ****     /* Update for UnitDelay: '<S200>/Unit Delay1' */
1279:../Simulink/Subsystem_Transmission.c ****     VCU_DW.UnitDelay1_DSTATE_k = VCU_B.Counter_d;
 3902              	 .loc 1 1279 0
 3903 1fd0 704B     	 ldr r3,.L283+4
 3904 1fd2 93F81027 	 ldrb r2,[r3,#1808]
 3905 1fd6 6E4B     	 ldr r3,.L283
 3906 1fd8 83F8DC20 	 strb r2,[r3,#220]
1280:../Simulink/Subsystem_Transmission.c **** 
1281:../Simulink/Subsystem_Transmission.c ****     /* Update for Memory: '<S224>/Memory' */
1282:../Simulink/Subsystem_Transmission.c ****     VCU_DW.Memory_PreviousInput_al = VCU_B.Logic_iz[0];
 3907              	 .loc 1 1282 0
 3908 1fdc 6D4B     	 ldr r3,.L283+4
 3909 1fde 93F80727 	 ldrb r2,[r3,#1799]
 3910 1fe2 6B4B     	 ldr r3,.L283
 3911 1fe4 83F83B21 	 strb r2,[r3,#315]
1283:../Simulink/Subsystem_Transmission.c **** 
1284:../Simulink/Subsystem_Transmission.c ****     /* Update for UnitDelay: '<S223>/Delay Input1'
1285:../Simulink/Subsystem_Transmission.c ****      *
1286:../Simulink/Subsystem_Transmission.c ****      * Block description for '<S223>/Delay Input1':
1287:../Simulink/Subsystem_Transmission.c ****      *
1288:../Simulink/Subsystem_Transmission.c ****      *  Store in Global RAM
1289:../Simulink/Subsystem_Transmission.c ****      */
