   1              	 .syntax unified
   2              	 .cpu cortex-m4
   3              	 .eabi_attribute 27,3
   4              	 .fpu fpv4-sp-d16
   5              	 .eabi_attribute 20,1
   6              	 .eabi_attribute 21,1
   7              	 .eabi_attribute 23,3
   8              	 .eabi_attribute 24,1
   9              	 .eabi_attribute 25,1
  10              	 .eabi_attribute 26,1
  11              	 .eabi_attribute 30,6
  12              	 .eabi_attribute 34,1
  13              	 .eabi_attribute 18,4
  14              	 .thumb
  15              	 .file "analog_io_conf.c"
  16              	 .text
  17              	.Ltext0:
  18              	 .cfi_sections .debug_frame
  19              	 .section .bss.ANALOG_IO_0_state,"aw",%nobits
  22              	ANALOG_IO_0_state:
  23 0000 00       	 .space 1
  24              	 .global ANALOG_IO_0
  25              	 .section .rodata.ANALOG_IO_0,"a",%progbits
  26              	 .align 2
  29              	ANALOG_IO_0:
  30 0000 00000000 	 .word ANALOG_IO_0_config
  31 0004 00000000 	 .word ANALOG_IO_0_state
  32 0008 008E0248 	 .word 1208126976
  33 000c 00       	 .byte 0
  34 000d 000000   	 .space 3
  35              	 .section .text.ANALOG_IO_0_config,"ax",%progbits
  36              	 .align 2
  37              	 .global ANALOG_IO_0_config
  38              	 .thumb
  39              	 .thumb_func
  41              	ANALOG_IO_0_config:
  42              	.LFB144:
  43              	 .file 1 "../Dave/Generated/ANALOG_IO/analog_io_conf.c"
   1:../Dave/Generated/ANALOG_IO/analog_io_conf.c **** /**************************************************************************************************
   2:../Dave/Generated/ANALOG_IO/analog_io_conf.c **** * DAVE APP Name : ANALOG_IO       APP Version: 4.0.12
   3:../Dave/Generated/ANALOG_IO/analog_io_conf.c **** *
   4:../Dave/Generated/ANALOG_IO/analog_io_conf.c **** * NOTE:
   5:../Dave/Generated/ANALOG_IO/analog_io_conf.c **** * This file is generated by DAVE. Any manual modification done to this file will be lost when the c
   6:../Dave/Generated/ANALOG_IO/analog_io_conf.c **** ***************************************************************************************************
   7:../Dave/Generated/ANALOG_IO/analog_io_conf.c **** 
   8:../Dave/Generated/ANALOG_IO/analog_io_conf.c **** /**
   9:../Dave/Generated/ANALOG_IO/analog_io_conf.c ****  * @cond
  10:../Dave/Generated/ANALOG_IO/analog_io_conf.c ****  **************************************************************************************************
  11:../Dave/Generated/ANALOG_IO/analog_io_conf.c ****  *
  12:../Dave/Generated/ANALOG_IO/analog_io_conf.c ****  * Copyright (c) 2015-2016, Infineon Technologies AG
  13:../Dave/Generated/ANALOG_IO/analog_io_conf.c ****  * All rights reserved.
  14:../Dave/Generated/ANALOG_IO/analog_io_conf.c ****  *
  15:../Dave/Generated/ANALOG_IO/analog_io_conf.c ****  * Redistribution and use in source and binary forms, with or without modification,are permitted pr
  16:../Dave/Generated/ANALOG_IO/analog_io_conf.c ****  * following conditions are met:
  17:../Dave/Generated/ANALOG_IO/analog_io_conf.c ****  *
  18:../Dave/Generated/ANALOG_IO/analog_io_conf.c ****  *   Redistributions of source code must retain the above copyright notice, this list of conditions
  19:../Dave/Generated/ANALOG_IO/analog_io_conf.c ****  *   disclaimer.
  20:../Dave/Generated/ANALOG_IO/analog_io_conf.c ****  *
  21:../Dave/Generated/ANALOG_IO/analog_io_conf.c ****  *   Redistributions in binary form must reproduce the above copyright notice, this list of conditi
  22:../Dave/Generated/ANALOG_IO/analog_io_conf.c ****  *   following disclaimer in the documentation and/or other materials provided with the distributio
  23:../Dave/Generated/ANALOG_IO/analog_io_conf.c ****  *
  24:../Dave/Generated/ANALOG_IO/analog_io_conf.c ****  *   Neither the name of the copyright holders nor the names of its contributors may be used to end
  25:../Dave/Generated/ANALOG_IO/analog_io_conf.c ****  *   products derived from this software without specific prior written permission.
  26:../Dave/Generated/ANALOG_IO/analog_io_conf.c ****  *
  27:../Dave/Generated/ANALOG_IO/analog_io_conf.c ****  * THIS SOFTWARE IS PROVIDED BY THE COPYRIGHT HOLDERS AND CONTRIBUTORS "AS IS" AND ANY EXPRESS OR I
  28:../Dave/Generated/ANALOG_IO/analog_io_conf.c ****  * INCLUDING, BUT NOT LIMITED TO, THE IMPLIED WARRANTIES OF MERCHANTABILITY AND FITNESS FOR A PARTI
  29:../Dave/Generated/ANALOG_IO/analog_io_conf.c ****  * DISCLAIMED. IN NO EVENT SHALL THE COPYRIGHT HOLDER OR CONTRIBUTORS BE LIABLE  FOR ANY DIRECT, IN
  30:../Dave/Generated/ANALOG_IO/analog_io_conf.c ****  * SPECIAL, EXEMPLARY, OR CONSEQUENTIAL DAMAGES (INCLUDING, BUT NOT LIMITED TO, PROCUREMENT OF SUBS
  31:../Dave/Generated/ANALOG_IO/analog_io_conf.c ****  * SERVICES; LOSS OF USE, DATA, OR PROFITS; OR BUSINESS INTERRUPTION) HOWEVER CAUSED AND ON ANY THE
  32:../Dave/Generated/ANALOG_IO/analog_io_conf.c ****  * WHETHER IN CONTRACT, STRICT LIABILITY,OR TORT (INCLUDING NEGLIGENCE OR OTHERWISE) ARISING IN ANY
  33:../Dave/Generated/ANALOG_IO/analog_io_conf.c ****  * USE OF THIS SOFTWARE, EVEN IF ADVISED OF THE POSSIBILITY OF SUCH DAMAGE.
  34:../Dave/Generated/ANALOG_IO/analog_io_conf.c ****  *
  35:../Dave/Generated/ANALOG_IO/analog_io_conf.c ****  * To improve the quality of the software, users are encouraged to share modifications, enhancement
  36:../Dave/Generated/ANALOG_IO/analog_io_conf.c ****  * with Infineon Technologies AG (dave@infineon.com).
  37:../Dave/Generated/ANALOG_IO/analog_io_conf.c ****  **************************************************************************************************
  38:../Dave/Generated/ANALOG_IO/analog_io_conf.c ****  *
  39:../Dave/Generated/ANALOG_IO/analog_io_conf.c ****  * Change History
  40:../Dave/Generated/ANALOG_IO/analog_io_conf.c ****  * --------------
  41:../Dave/Generated/ANALOG_IO/analog_io_conf.c ****  *
  42:../Dave/Generated/ANALOG_IO/analog_io_conf.c ****  * 2015-02-16:
  43:../Dave/Generated/ANALOG_IO/analog_io_conf.c ****  *     - Initial version<br>
  44:../Dave/Generated/ANALOG_IO/analog_io_conf.c ****  *
  45:../Dave/Generated/ANALOG_IO/analog_io_conf.c ****  * 2015-12-10:
  46:../Dave/Generated/ANALOG_IO/analog_io_conf.c ****  *     - Added Digital input support for analog port pin<br>
  47:../Dave/Generated/ANALOG_IO/analog_io_conf.c ****  *     - Added Hardware pull control support for analog port pin<br>
  48:../Dave/Generated/ANALOG_IO/analog_io_conf.c ****  *
  49:../Dave/Generated/ANALOG_IO/analog_io_conf.c ****  * 2016-07-08:
  50:../Dave/Generated/ANALOG_IO/analog_io_conf.c ****  *     - Fixed incorrect case for an included header.<br>
  51:../Dave/Generated/ANALOG_IO/analog_io_conf.c ****  *
  52:../Dave/Generated/ANALOG_IO/analog_io_conf.c ****  * @endcond
  53:../Dave/Generated/ANALOG_IO/analog_io_conf.c ****  *
  54:../Dave/Generated/ANALOG_IO/analog_io_conf.c ****  */
  55:../Dave/Generated/ANALOG_IO/analog_io_conf.c **** /**************************************************************************************************
  56:../Dave/Generated/ANALOG_IO/analog_io_conf.c ****  * HEADER FILES
  57:../Dave/Generated/ANALOG_IO/analog_io_conf.c ****  **************************************************************************************************
  58:../Dave/Generated/ANALOG_IO/analog_io_conf.c **** #include "analog_io.h"
  59:../Dave/Generated/ANALOG_IO/analog_io_conf.c **** 
  60:../Dave/Generated/ANALOG_IO/analog_io_conf.c **** /**************************************************************************************************
  61:../Dave/Generated/ANALOG_IO/analog_io_conf.c ****  * FUNCTION PROTOTYPE
  62:../Dave/Generated/ANALOG_IO/analog_io_conf.c ****  **************************************************************************************************
  63:../Dave/Generated/ANALOG_IO/analog_io_conf.c **** 
  64:../Dave/Generated/ANALOG_IO/analog_io_conf.c **** void ANALOG_IO_0_config(void);
  65:../Dave/Generated/ANALOG_IO/analog_io_conf.c **** 
  66:../Dave/Generated/ANALOG_IO/analog_io_conf.c **** /**************************************************************************************************
  67:../Dave/Generated/ANALOG_IO/analog_io_conf.c ****  * DATA STRUCTURES
  68:../Dave/Generated/ANALOG_IO/analog_io_conf.c ****  **************************************************************************************************
  69:../Dave/Generated/ANALOG_IO/analog_io_conf.c **** /**
  70:../Dave/Generated/ANALOG_IO/analog_io_conf.c ****  * Instance specific initialization state variable.
  71:../Dave/Generated/ANALOG_IO/analog_io_conf.c ****  */
  72:../Dave/Generated/ANALOG_IO/analog_io_conf.c **** static ANALOG_IO_STATE_t ANALOG_IO_0_state = ANALOG_IO_STATE_NOT_INITIALIZED;
  73:../Dave/Generated/ANALOG_IO/analog_io_conf.c **** 
  74:../Dave/Generated/ANALOG_IO/analog_io_conf.c **** /**
  75:../Dave/Generated/ANALOG_IO/analog_io_conf.c ****  * Instance specific data structure of ANALOG_IO APP.
  76:../Dave/Generated/ANALOG_IO/analog_io_conf.c ****  */
  77:../Dave/Generated/ANALOG_IO/analog_io_conf.c **** const ANALOG_IO_t ANALOG_IO_0 =
  78:../Dave/Generated/ANALOG_IO/analog_io_conf.c **** {
  79:../Dave/Generated/ANALOG_IO/analog_io_conf.c ****   .config_ptr = &ANALOG_IO_0_config,
  80:../Dave/Generated/ANALOG_IO/analog_io_conf.c ****   .state  = &ANALOG_IO_0_state,
  81:../Dave/Generated/ANALOG_IO/analog_io_conf.c ****   .port = XMC_GPIO_PORT14,
  82:../Dave/Generated/ANALOG_IO/analog_io_conf.c ****   .pin = 0U  
  83:../Dave/Generated/ANALOG_IO/analog_io_conf.c **** };
  84:../Dave/Generated/ANALOG_IO/analog_io_conf.c **** 
  85:../Dave/Generated/ANALOG_IO/analog_io_conf.c **** /**************************************************************************************************
  86:../Dave/Generated/ANALOG_IO/analog_io_conf.c ****  * FUNCTION DEFINITION
  87:../Dave/Generated/ANALOG_IO/analog_io_conf.c ****  **************************************************************************************************
  88:../Dave/Generated/ANALOG_IO/analog_io_conf.c **** /**
  89:../Dave/Generated/ANALOG_IO/analog_io_conf.c ****  * Instance specific initialization function to initialize the port pin as per UI settings.
  90:../Dave/Generated/ANALOG_IO/analog_io_conf.c ****  */
  91:../Dave/Generated/ANALOG_IO/analog_io_conf.c **** void ANALOG_IO_0_config()
  92:../Dave/Generated/ANALOG_IO/analog_io_conf.c **** {
  44              	 .loc 1 92 0
  45              	 .cfi_startproc
  46              	 
  47              	 
  48 0000 80B5     	 push {r7,lr}
  49              	.LCFI0:
  50              	 .cfi_def_cfa_offset 8
  51              	 .cfi_offset 7,-8
  52              	 .cfi_offset 14,-4
  53 0002 00AF     	 add r7,sp,#0
  54              	.LCFI1:
  55              	 .cfi_def_cfa_register 7
  93:../Dave/Generated/ANALOG_IO/analog_io_conf.c ****   /* Configure the weak pull up /down settings into IOCR register */
  94:../Dave/Generated/ANALOG_IO/analog_io_conf.c ****   XMC_GPIO_SetMode((XMC_GPIO_PORT_t *)XMC_GPIO_PORT14,  0U,  (XMC_GPIO_MODE_t)XMC_GPIO_MODE_INPUT_P
  56              	 .loc 1 94 0
  57 0004 0248     	 ldr r0,.L2
  58 0006 0021     	 movs r1,#0
  59 0008 1022     	 movs r2,#16
  60 000a FFF7FEFF 	 bl XMC_GPIO_SetMode
  95:../Dave/Generated/ANALOG_IO/analog_io_conf.c **** 
  96:../Dave/Generated/ANALOG_IO/analog_io_conf.c **** }
  61              	 .loc 1 96 0
  62 000e 80BD     	 pop {r7,pc}
  63              	.L3:
  64              	 .align 2
  65              	.L2:
  66 0010 008E0248 	 .word 1208126976
  67              	 .cfi_endproc
  68              	.LFE144:
  70              	 .section .bss.ANALOG_IO_1_state,"aw",%nobits
  73              	ANALOG_IO_1_state:
  74 0000 00       	 .space 1
  75              	 .global ANALOG_IO_1
  76              	 .section .rodata.ANALOG_IO_1,"a",%progbits
  77              	 .align 2
  80              	ANALOG_IO_1:
  81 0000 00000000 	 .word ANALOG_IO_1_config
  82 0004 00000000 	 .word ANALOG_IO_1_state
  83 0008 008E0248 	 .word 1208126976
  84 000c 01       	 .byte 1
  85 000d 000000   	 .space 3
  86              	 .section .text.ANALOG_IO_1_config,"ax",%progbits
  87              	 .align 2
  88              	 .global ANALOG_IO_1_config
  89              	 .thumb
  90              	 .thumb_func
  92              	ANALOG_IO_1_config:
  93              	.LFB145:
  97:../Dave/Generated/ANALOG_IO/analog_io_conf.c **** 
  98:../Dave/Generated/ANALOG_IO/analog_io_conf.c **** /**************************************************************************************************
  99:../Dave/Generated/ANALOG_IO/analog_io_conf.c ****  * FUNCTION PROTOTYPE
 100:../Dave/Generated/ANALOG_IO/analog_io_conf.c ****  **************************************************************************************************
 101:../Dave/Generated/ANALOG_IO/analog_io_conf.c **** 
 102:../Dave/Generated/ANALOG_IO/analog_io_conf.c **** void ANALOG_IO_1_config(void);
 103:../Dave/Generated/ANALOG_IO/analog_io_conf.c **** 
 104:../Dave/Generated/ANALOG_IO/analog_io_conf.c **** /**************************************************************************************************
 105:../Dave/Generated/ANALOG_IO/analog_io_conf.c ****  * DATA STRUCTURES
 106:../Dave/Generated/ANALOG_IO/analog_io_conf.c ****  **************************************************************************************************
 107:../Dave/Generated/ANALOG_IO/analog_io_conf.c **** /**
 108:../Dave/Generated/ANALOG_IO/analog_io_conf.c ****  * Instance specific initialization state variable.
 109:../Dave/Generated/ANALOG_IO/analog_io_conf.c ****  */
 110:../Dave/Generated/ANALOG_IO/analog_io_conf.c **** static ANALOG_IO_STATE_t ANALOG_IO_1_state = ANALOG_IO_STATE_NOT_INITIALIZED;
 111:../Dave/Generated/ANALOG_IO/analog_io_conf.c **** 
 112:../Dave/Generated/ANALOG_IO/analog_io_conf.c **** /**
 113:../Dave/Generated/ANALOG_IO/analog_io_conf.c ****  * Instance specific data structure of ANALOG_IO APP.
 114:../Dave/Generated/ANALOG_IO/analog_io_conf.c ****  */
 115:../Dave/Generated/ANALOG_IO/analog_io_conf.c **** const ANALOG_IO_t ANALOG_IO_1 =
 116:../Dave/Generated/ANALOG_IO/analog_io_conf.c **** {
 117:../Dave/Generated/ANALOG_IO/analog_io_conf.c ****   .config_ptr = &ANALOG_IO_1_config,
 118:../Dave/Generated/ANALOG_IO/analog_io_conf.c ****   .state  = &ANALOG_IO_1_state,
 119:../Dave/Generated/ANALOG_IO/analog_io_conf.c ****   .port = XMC_GPIO_PORT14,
 120:../Dave/Generated/ANALOG_IO/analog_io_conf.c ****   .pin = 1U  
 121:../Dave/Generated/ANALOG_IO/analog_io_conf.c **** };
 122:../Dave/Generated/ANALOG_IO/analog_io_conf.c **** 
 123:../Dave/Generated/ANALOG_IO/analog_io_conf.c **** /**************************************************************************************************
 124:../Dave/Generated/ANALOG_IO/analog_io_conf.c ****  * FUNCTION DEFINITION
 125:../Dave/Generated/ANALOG_IO/analog_io_conf.c ****  **************************************************************************************************
 126:../Dave/Generated/ANALOG_IO/analog_io_conf.c **** /**
 127:../Dave/Generated/ANALOG_IO/analog_io_conf.c ****  * Instance specific initialization function to initialize the port pin as per UI settings.
 128:../Dave/Generated/ANALOG_IO/analog_io_conf.c ****  */
 129:../Dave/Generated/ANALOG_IO/analog_io_conf.c **** void ANALOG_IO_1_config()
 130:../Dave/Generated/ANALOG_IO/analog_io_conf.c **** {
  94              	 .loc 1 130 0
  95              	 .cfi_startproc
  96              	 
  97              	 
  98 0000 80B5     	 push {r7,lr}
  99              	.LCFI2:
 100              	 .cfi_def_cfa_offset 8
 101              	 .cfi_offset 7,-8
 102              	 .cfi_offset 14,-4
 103 0002 00AF     	 add r7,sp,#0
 104              	.LCFI3:
 105              	 .cfi_def_cfa_register 7
 131:../Dave/Generated/ANALOG_IO/analog_io_conf.c ****   /* Configure the weak pull up /down settings into IOCR register */
 132:../Dave/Generated/ANALOG_IO/analog_io_conf.c ****   XMC_GPIO_SetMode((XMC_GPIO_PORT_t *)XMC_GPIO_PORT14,  1U,  (XMC_GPIO_MODE_t)XMC_GPIO_MODE_INPUT_P
 106              	 .loc 1 132 0
 107 0004 0248     	 ldr r0,.L5
 108 0006 0121     	 movs r1,#1
 109 0008 1022     	 movs r2,#16
 110 000a FFF7FEFF 	 bl XMC_GPIO_SetMode
 133:../Dave/Generated/ANALOG_IO/analog_io_conf.c **** 
 134:../Dave/Generated/ANALOG_IO/analog_io_conf.c **** }
 111              	 .loc 1 134 0
 112 000e 80BD     	 pop {r7,pc}
 113              	.L6:
 114              	 .align 2
 115              	.L5:
 116 0010 008E0248 	 .word 1208126976
 117              	 .cfi_endproc
 118              	.LFE145:
 120              	 .text
 121              	.Letext0:
 122              	 .file 2 "c:\\infineon\\tools\\dave ide\\4.5.0.202105191637\\eclipse\\arm-gcc-49\\arm-none-eabi\\include\\machine\\_default_types.h"
 123              	 .file 3 "c:\\infineon\\tools\\dave ide\\4.5.0.202105191637\\eclipse\\arm-gcc-49\\arm-none-eabi\\include\\stdint.h"
 124              	 .file 4 "C:/Users/Yoshi/Documents/GitHub/Software/01_jrg/06_XMC/ADC_Test/Libraries/XMCLib/inc/xmc4_gpio.h"
 125              	 .file 5 "../Dave/Generated/ANALOG_IO/analog_io.h"
 126              	 .file 6 "C:/Users/Yoshi/Documents/GitHub/Software/01_jrg/06_XMC/ADC_Test/Libraries/CMSIS/Include/cmsis_gcc.h"
 127              	 .file 7 "C:/Users/Yoshi/Documents/GitHub/Software/01_jrg/06_XMC/ADC_Test/Libraries/CMSIS/Include/core_cm4.h"