   1              	 .syntax unified
   2              	 .cpu cortex-m4
   3              	 .eabi_attribute 27,3
   4              	 .fpu fpv4-sp-d16
   5              	 .eabi_attribute 20,1
   6              	 .eabi_attribute 21,1
   7              	 .eabi_attribute 23,3
   8              	 .eabi_attribute 24,1
   9              	 .eabi_attribute 25,1
  10              	 .eabi_attribute 26,1
  11              	 .eabi_attribute 30,6
  12              	 .eabi_attribute 34,1
  13              	 .eabi_attribute 18,4
  14              	 .thumb
  15              	 .file "Subsystem_Transmission.c"
  16              	 .text
  17              	.Ltext0:
  18              	 .cfi_sections .debug_frame
  19              	 .section .text.FUNC_Transmission_Init,"ax",%progbits
  20              	 .align 2
  21              	 .global FUNC_Transmission_Init
  22              	 .thumb
  23              	 .thumb_func
  25              	FUNC_Transmission_Init:
  26              	.LFB175:
  27              	 .file 1 "../Simulink/Subsystem_Transmission.c"
   1:../Simulink/Subsystem_Transmission.c **** /* 
   2:../Simulink/Subsystem_Transmission.c ****  * Academic License - for use in teaching, academic research, and meeting
   3:../Simulink/Subsystem_Transmission.c ****  * course requirements at degree granting institutions only.  Not for
   4:../Simulink/Subsystem_Transmission.c ****  * government, commercial, or other organizational use.
   5:../Simulink/Subsystem_Transmission.c ****  * 
   6:../Simulink/Subsystem_Transmission.c ****  * File: Subsystem_Transmission.c
   7:../Simulink/Subsystem_Transmission.c ****  *  
   8:../Simulink/Subsystem_Transmission.c ****  * Code generated for Simulink model : VCU.
   9:../Simulink/Subsystem_Transmission.c ****  * Model version      : 1.313
  10:../Simulink/Subsystem_Transmission.c ****  * Simulink Coder version    : 8.14 (R2018a) 06-Feb-2018
  11:../Simulink/Subsystem_Transmission.c ****  * TLC version       : 8.14 (Feb 22 2018)
  12:../Simulink/Subsystem_Transmission.c ****  * C/C++ source code generated on  : Sun Jul 25 17:15:57 2021
  13:../Simulink/Subsystem_Transmission.c ****  * 
  14:../Simulink/Subsystem_Transmission.c ****  * Target selection: Infineon_XMC_Family.tlc
  15:../Simulink/Subsystem_Transmission.c ****  * Embedded hardware selection: ARM Compatible->ARM Cortex
  16:../Simulink/Subsystem_Transmission.c ****  * Code generation objectives: Unspecified
  17:../Simulink/Subsystem_Transmission.c ****  * Validation result: Not run
  18:../Simulink/Subsystem_Transmission.c ****  */
  19:../Simulink/Subsystem_Transmission.c **** 
  20:../Simulink/Subsystem_Transmission.c **** 
  21:../Simulink/Subsystem_Transmission.c ****     
  22:../Simulink/Subsystem_Transmission.c **** 
  23:../Simulink/Subsystem_Transmission.c ****         #include "Subsystem_Transmission.h"
  24:../Simulink/Subsystem_Transmission.c ****           /* Include model header file for global data */
  25:../Simulink/Subsystem_Transmission.c ****               #include "VCU.h"
  26:../Simulink/Subsystem_Transmission.c **** 
  27:../Simulink/Subsystem_Transmission.c ****             #include "VCU_private.h"
  28:../Simulink/Subsystem_Transmission.c **** 
  29:../Simulink/Subsystem_Transmission.c **** 
  30:../Simulink/Subsystem_Transmission.c **** 
  31:../Simulink/Subsystem_Transmission.c **** 
  32:../Simulink/Subsystem_Transmission.c **** 
  33:../Simulink/Subsystem_Transmission.c ****   
  34:../Simulink/Subsystem_Transmission.c **** 
  35:../Simulink/Subsystem_Transmission.c **** 
  36:../Simulink/Subsystem_Transmission.c ****   
  37:../Simulink/Subsystem_Transmission.c **** 
  38:../Simulink/Subsystem_Transmission.c **** 
  39:../Simulink/Subsystem_Transmission.c ****   
  40:../Simulink/Subsystem_Transmission.c **** 
  41:../Simulink/Subsystem_Transmission.c **** 
  42:../Simulink/Subsystem_Transmission.c ****   
  43:../Simulink/Subsystem_Transmission.c **** 
  44:../Simulink/Subsystem_Transmission.c **** 
  45:../Simulink/Subsystem_Transmission.c ****   
  46:../Simulink/Subsystem_Transmission.c **** 
  47:../Simulink/Subsystem_Transmission.c **** 
  48:../Simulink/Subsystem_Transmission.c ****   
  49:../Simulink/Subsystem_Transmission.c **** 
  50:../Simulink/Subsystem_Transmission.c **** 
  51:../Simulink/Subsystem_Transmission.c ****   
  52:../Simulink/Subsystem_Transmission.c **** 
  53:../Simulink/Subsystem_Transmission.c **** 
  54:../Simulink/Subsystem_Transmission.c ****   
  55:../Simulink/Subsystem_Transmission.c **** 
  56:../Simulink/Subsystem_Transmission.c **** 
  57:../Simulink/Subsystem_Transmission.c ****   
  58:../Simulink/Subsystem_Transmission.c **** 
  59:../Simulink/Subsystem_Transmission.c **** 
  60:../Simulink/Subsystem_Transmission.c ****   
  61:../Simulink/Subsystem_Transmission.c **** 
  62:../Simulink/Subsystem_Transmission.c **** 
  63:../Simulink/Subsystem_Transmission.c ****   
  64:../Simulink/Subsystem_Transmission.c **** 
  65:../Simulink/Subsystem_Transmission.c **** 
  66:../Simulink/Subsystem_Transmission.c ****   
  67:../Simulink/Subsystem_Transmission.c **** 
  68:../Simulink/Subsystem_Transmission.c **** 
  69:../Simulink/Subsystem_Transmission.c ****   
  70:../Simulink/Subsystem_Transmission.c **** 
  71:../Simulink/Subsystem_Transmission.c **** 
  72:../Simulink/Subsystem_Transmission.c ****   
  73:../Simulink/Subsystem_Transmission.c **** 
  74:../Simulink/Subsystem_Transmission.c **** 
  75:../Simulink/Subsystem_Transmission.c ****     
  76:../Simulink/Subsystem_Transmission.c **** 	      /* System initialize for atomic system: '<Root>/Transmission' */
  77:../Simulink/Subsystem_Transmission.c ****           
  78:../Simulink/Subsystem_Transmission.c ****   
  79:../Simulink/Subsystem_Transmission.c ****         void FUNC_Transmission_Init(void)
  80:../Simulink/Subsystem_Transmission.c ****   {
  28              	 .loc 1 80 0
  29              	 .cfi_startproc
  30              	 
  31              	 
  32              	 
  33 0000 80B4     	 push {r7}
  34              	.LCFI0:
  35              	 .cfi_def_cfa_offset 4
  36              	 .cfi_offset 7,-4
  37 0002 00AF     	 add r7,sp,#0
  38              	.LCFI1:
  39              	 .cfi_def_cfa_register 7
  81:../Simulink/Subsystem_Transmission.c ****   
  82:../Simulink/Subsystem_Transmission.c ****         
  83:../Simulink/Subsystem_Transmission.c ****   
  84:../Simulink/Subsystem_Transmission.c ****     
  85:../Simulink/Subsystem_Transmission.c ****   
  86:../Simulink/Subsystem_Transmission.c **** 
  87:../Simulink/Subsystem_Transmission.c **** 
  88:../Simulink/Subsystem_Transmission.c **** 
  89:../Simulink/Subsystem_Transmission.c ****                 
  90:../Simulink/Subsystem_Transmission.c ****   
  91:../Simulink/Subsystem_Transmission.c **** 
  92:../Simulink/Subsystem_Transmission.c **** 
  93:../Simulink/Subsystem_Transmission.c **** 
  94:../Simulink/Subsystem_Transmission.c ****                               /* SystemInitialize for Enabled SubSystem: '<S7>/LC_jr19' */
  95:../Simulink/Subsystem_Transmission.c **** /* InitializeConditions for S-Function (sdspcount2): '<S146>/Counter1' */
  96:../Simulink/Subsystem_Transmission.c **** /*@>26872*/VCU_DW./*@>28319*/Counter1_Count_k/*@>7433*/ = /*@>282ec*/0U;
  40              	 .loc 1 96 0
  41 0004 0D4B     	 ldr r3,.L2
  42 0006 0022     	 movs r2,#0
  43 0008 83F8FC20 	 strb r2,[r3,#252]
  97:../Simulink/Subsystem_Transmission.c **** /* InitializeConditions for S-Function (sdspcount2): '<S145>/Counter' */
  98:../Simulink/Subsystem_Transmission.c **** /*@>26878*/VCU_DW./*@>2831c*/Counter_Count_m/*@>743f*/ = /*@>282ef*/0U;
  44              	 .loc 1 98 0
  45 000c 0B4B     	 ldr r3,.L2
  46 000e 0022     	 movs r2,#0
  47 0010 A3F89E20 	 strh r2,[r3,#158]
  99:../Simulink/Subsystem_Transmission.c **** /* InitializeConditions for S-Function (sdspcount2): '<S146>/Counter' */
 100:../Simulink/Subsystem_Transmission.c **** /*@>2687e*/VCU_DW./*@>2831f*/Counter_Count_a/*@>744b*/ = /*@>282f2*/0U;
  48              	 .loc 1 100 0
  49 0014 094B     	 ldr r3,.L2
  50 0016 0022     	 movs r2,#0
  51 0018 83F8FD20 	 strb r2,[r3,#253]
 101:../Simulink/Subsystem_Transmission.c **** /* End of SystemInitialize for SubSystem: '<S7>/LC_jr19' */
 102:../Simulink/Subsystem_Transmission.c **** 
 103:../Simulink/Subsystem_Transmission.c **** /* SystemInitialize for Enabled SubSystem: '<S7>/semi_auto_jr18' */
 104:../Simulink/Subsystem_Transmission.c **** /* InitializeConditions for S-Function (sdspcount2): '<S201>/Counter1' */
 105:../Simulink/Subsystem_Transmission.c **** /*@>26884*/VCU_DW./*@>28322*/Counter1_Count/*@>7457*/ = /*@>282f5*/0U;
  52              	 .loc 1 105 0
  53 001c 074B     	 ldr r3,.L2
  54 001e 0022     	 movs r2,#0
  55 0020 83F8FA20 	 strb r2,[r3,#250]
 106:../Simulink/Subsystem_Transmission.c **** /* InitializeConditions for S-Function (sdspcount2): '<S200>/Counter' */
 107:../Simulink/Subsystem_Transmission.c **** /*@>2688a*/VCU_DW./*@>28325*/Counter_Count/*@>7463*/ = /*@>282f8*/0U;
  56              	 .loc 1 107 0
  57 0024 054B     	 ldr r3,.L2
  58 0026 0022     	 movs r2,#0
  59 0028 A3F89C20 	 strh r2,[r3,#156]
 108:../Simulink/Subsystem_Transmission.c **** /* InitializeConditions for S-Function (sdspcount2): '<S201>/Counter' */
 109:../Simulink/Subsystem_Transmission.c **** /*@>26890*/VCU_DW./*@>28328*/Counter_Count_i/*@>746f*/ = /*@>282fb*/0U;
  60              	 .loc 1 109 0
  61 002c 034B     	 ldr r3,.L2
  62 002e 0022     	 movs r2,#0
  63 0030 83F8FB20 	 strb r2,[r3,#251]
 110:../Simulink/Subsystem_Transmission.c **** /* End of SystemInitialize for SubSystem: '<S7>/semi_auto_jr18' */
 111:../Simulink/Subsystem_Transmission.c **** 
 112:../Simulink/Subsystem_Transmission.c **** 
 113:../Simulink/Subsystem_Transmission.c **** 
 114:../Simulink/Subsystem_Transmission.c **** 
 115:../Simulink/Subsystem_Transmission.c ****     
 116:../Simulink/Subsystem_Transmission.c ****   
 117:../Simulink/Subsystem_Transmission.c **** 
 118:../Simulink/Subsystem_Transmission.c **** 
 119:../Simulink/Subsystem_Transmission.c **** 
 120:../Simulink/Subsystem_Transmission.c ****           }
  64              	 .loc 1 120 0
  65 0034 BD46     	 mov sp,r7
  66              	.LCFI2:
  67              	 .cfi_def_cfa_register 13
  68              	 
  69 0036 5DF8047B 	 ldr r7,[sp],#4
  70              	.LCFI3:
  71              	 .cfi_restore 7
  72              	 .cfi_def_cfa_offset 0
  73 003a 7047     	 bx lr
  74              	.L3:
  75              	 .align 2
  76              	.L2:
  77 003c 00000000 	 .word VCU_DW
  78              	 .cfi_endproc
  79              	.LFE175:
  81              	 .global __aeabi_dcmplt
  82              	 .global __aeabi_d2uiz
  83              	 .global __aeabi_dcmpgt
  84              	 .global __aeabi_ui2d
  85              	 .global __aeabi_dadd
  86              	 .global __aeabi_dcmpge
  87              	 .global __aeabi_i2d
  88              	 .global __aeabi_dmul
  89              	 .global __aeabi_dcmpeq
  90              	 .global __aeabi_dsub
  91              	 .section .text.FUNC_Transmission,"ax",%progbits
  92              	 .align 2
  93              	 .global FUNC_Transmission
  94              	 .thumb
  95              	 .thumb_func
  97              	FUNC_Transmission:
  98              	.LFB176:
 121:../Simulink/Subsystem_Transmission.c ****     
 122:../Simulink/Subsystem_Transmission.c ****   
 123:../Simulink/Subsystem_Transmission.c **** 
 124:../Simulink/Subsystem_Transmission.c **** 
 125:../Simulink/Subsystem_Transmission.c **** 
 126:../Simulink/Subsystem_Transmission.c ****        
 127:../Simulink/Subsystem_Transmission.c ****     
 128:../Simulink/Subsystem_Transmission.c ****   
 129:../Simulink/Subsystem_Transmission.c **** 
 130:../Simulink/Subsystem_Transmission.c ****           /* Output and update for atomic system: '<Root>/Transmission' */
 131:../Simulink/Subsystem_Transmission.c ****       
 132:../Simulink/Subsystem_Transmission.c ****               
 133:../Simulink/Subsystem_Transmission.c ****   
 134:../Simulink/Subsystem_Transmission.c ****         void FUNC_Transmission(void)
 135:../Simulink/Subsystem_Transmission.c ****   {
  99              	 .loc 1 135 0
 100              	 .cfi_startproc
 101              	 
 102              	 
 103 0000 F0B5     	 push {r4,r5,r6,r7,lr}
 104              	.LCFI4:
 105              	 .cfi_def_cfa_offset 20
 106              	 .cfi_offset 4,-20
 107              	 .cfi_offset 5,-16
 108              	 .cfi_offset 6,-12
 109              	 .cfi_offset 7,-8
 110              	 .cfi_offset 14,-4
 111 0002 89B0     	 sub sp,sp,#36
 112              	.LCFI5:
 113              	 .cfi_def_cfa_offset 56
 114 0004 02AF     	 add r7,sp,#8
 115              	.LCFI6:
 116              	 .cfi_def_cfa 7,48
 136:../Simulink/Subsystem_Transmission.c ****   
 137:../Simulink/Subsystem_Transmission.c ****                       
 138:../Simulink/Subsystem_Transmission.c ****       
 139:../Simulink/Subsystem_Transmission.c **** int32_T rowIdx;
 140:../Simulink/Subsystem_Transmission.c **** boolean_T tmp;
 141:../Simulink/Subsystem_Transmission.c **** real_T tmp_0;
 142:../Simulink/Subsystem_Transmission.c **** 
 143:../Simulink/Subsystem_Transmission.c ****       
 144:../Simulink/Subsystem_Transmission.c ****       
 145:../Simulink/Subsystem_Transmission.c ****   
 146:../Simulink/Subsystem_Transmission.c **** 
 147:../Simulink/Subsystem_Transmission.c **** 
 148:../Simulink/Subsystem_Transmission.c **** 
 149:../Simulink/Subsystem_Transmission.c ****                           
 150:../Simulink/Subsystem_Transmission.c ****       
 151:../Simulink/Subsystem_Transmission.c ****   
 152:../Simulink/Subsystem_Transmission.c **** 
 153:../Simulink/Subsystem_Transmission.c **** 
 154:../Simulink/Subsystem_Transmission.c **** 
 155:../Simulink/Subsystem_Transmission.c ****                                 /* DataTypeConversion: '<S7>/Data Type Conversion' */
 156:../Simulink/Subsystem_Transmission.c **** /*@>21cf8*/tmp_0/*@>21cfa*/ = /*@>2422b*/floor(/*@>2560d*/VCU_B./*@>2939a*/STW_transmission_mode);
 117              	 .loc 1 156 0
 118 0006 8E4B     	 ldr r3,.L257
 119 0008 03F59E63 	 add r3,r3,#1264
 120 000c D3E90023 	 ldrd r2,[r3]
 121 0010 1046     	 mov r0,r2
 122 0012 1946     	 mov r1,r3
 123 0014 FFF7FEFF 	 bl floor
 124 0018 C7E90201 	 strd r0,[r7,#8]
 157:../Simulink/Subsystem_Transmission.c **** /*@>21d18*/if (/*@>2422d*/rtIsNaN(/*@>21cfc*/tmp_0)/*@>21d06*/ || /*@>2422f*/rtIsInf(/*@>21d01*/tmp
 125              	 .loc 1 157 0
 126 001c D7E90201 	 ldrd r0,[r7,#8]
 127 0020 FFF7FEFF 	 bl rtIsNaN
 128 0024 0346     	 mov r3,r0
 129 0026 002B     	 cmp r3,#0
 130 0028 06D1     	 bne .L5
 131              	 .loc 1 157 0 is_stmt 0 discriminator 1
 132 002a D7E90201 	 ldrd r0,[r7,#8]
 133 002e FFF7FEFF 	 bl rtIsInf
 134 0032 0346     	 mov r3,r0
 135 0034 002B     	 cmp r3,#0
 136 0036 06D0     	 beq .L6
 137              	.L5:
 158:../Simulink/Subsystem_Transmission.c ****     /*@>21d09*/tmp_0/*@>21d0b*/ = /*@>21d08*/0.0;
 138              	 .loc 1 158 0 is_stmt 1
 139 0038 4FF00002 	 mov r2,#0
 140 003c 4FF00003 	 mov r3,#0
 141 0040 C7E90223 	 strd r2,[r7,#8]
 142 0044 08E0     	 b .L7
 143              	.L6:
 159:../Simulink/Subsystem_Transmission.c **** } else {
 160:../Simulink/Subsystem_Transmission.c ****     /*@>21d14*/tmp_0/*@>21d16*/ = /*@>24231*/fmod(/*@>21d0d*/tmp_0, /*@>21d11*/256.0);
 144              	 .loc 1 160 0
 145 0046 D7E90201 	 ldrd r0,[r7,#8]
 146 004a 4FF00002 	 mov r2,#0
 147 004e 7D4B     	 ldr r3,.L257+4
 148 0050 FFF7FEFF 	 bl fmod
 149 0054 C7E90201 	 strd r0,[r7,#8]
 150              	.L7:
 161:../Simulink/Subsystem_Transmission.c **** }
 162:../Simulink/Subsystem_Transmission.c **** /*@>25613*/VCU_B./*@>2939d*/DataTypeConversion_cg/*@>747c*/ = /*@>21e96*/(int8_T)(/*@>21d1f*/tmp_0/
 151              	 .loc 1 162 0
 152 0058 D7E90201 	 ldrd r0,[r7,#8]
 153 005c 4FF00002 	 mov r2,#0
 154 0060 4FF00003 	 mov r3,#0
 155 0064 FFF7FEFF 	 bl __aeabi_dcmplt
 156 0068 0346     	 mov r3,r0
 157 006a 002B     	 cmp r3,#0
 158 006c 0DD0     	 beq .L243
 159              	 .loc 1 162 0 is_stmt 0 discriminator 1
 160 006e BC68     	 ldr r4,[r7,#8]
 161 0070 FB68     	 ldr r3,[r7,#12]
 162 0072 83F00045 	 eor r5,r3,#-2147483648
 163 0076 2046     	 mov r0,r4
 164 0078 2946     	 mov r1,r5
 165 007a FFF7FEFF 	 bl __aeabi_d2uiz
 166 007e 0346     	 mov r3,r0
 167 0080 DBB2     	 uxtb r3,r3
 168 0082 5B42     	 negs r3,r3
 169 0084 DBB2     	 uxtb r3,r3
 170 0086 DBB2     	 uxtb r3,r3
 171 0088 06E0     	 b .L10
 172              	.L243:
 173              	 .loc 1 162 0 discriminator 2
 174 008a D7E90201 	 ldrd r0,[r7,#8]
 175 008e FFF7FEFF 	 bl __aeabi_d2uiz
 176 0092 0346     	 mov r3,r0
 177 0094 DBB2     	 uxtb r3,r3
 178 0096 DBB2     	 uxtb r3,r3
 179              	.L10:
 180              	 .loc 1 162 0 discriminator 4
 181 0098 694A     	 ldr r2,.L257
 182 009a 82F8C836 	 strb r3,[r2,#1736]
 163:../Simulink/Subsystem_Transmission.c **** /* End of DataTypeConversion: '<S7>/Data Type Conversion' */
 164:../Simulink/Subsystem_Transmission.c **** 
 165:../Simulink/Subsystem_Transmission.c **** /* RelationalOperator: '<S136>/Compare' incorporates:
 166:../Simulink/Subsystem_Transmission.c ****  *  Constant: '<S136>/Constant'
 167:../Simulink/Subsystem_Transmission.c ****  */
 168:../Simulink/Subsystem_Transmission.c **** /*@>25619*/VCU_B./*@>293a0*/Compare/*@>7480*/ = (/*@>2561f*/VCU_B./*@>293a3*/DataTypeConversion_cg/
 183              	 .loc 1 168 0 is_stmt 1 discriminator 4
 184 009e 684B     	 ldr r3,.L257
 185 00a0 93F8C836 	 ldrb r3,[r3,#1736]
 186 00a4 5BB2     	 sxtb r3,r3
 187 00a6 032B     	 cmp r3,#3
 188 00a8 0CBF     	 ite eq
 189 00aa 0123     	 moveq r3,#1
 190 00ac 0023     	 movne r3,#0
 191 00ae DBB2     	 uxtb r3,r3
 192 00b0 1A46     	 mov r2,r3
 193 00b2 634B     	 ldr r3,.L257
 194 00b4 83F8C926 	 strb r2,[r3,#1737]
 169:../Simulink/Subsystem_Transmission.c **** /* Outputs for Enabled SubSystem: '<S7>/LC_jr19' incorporates:
 170:../Simulink/Subsystem_Transmission.c ****  *  EnablePort: '<S137>/Enable'
 171:../Simulink/Subsystem_Transmission.c ****  */
 172:../Simulink/Subsystem_Transmission.c **** /*@>7482*/if (/*@>25625*/VCU_B./*@>293a6*/Compare) {
 195              	 .loc 1 172 0 discriminator 4
 196 00b8 614B     	 ldr r3,.L257
 197 00ba 93F8C936 	 ldrb r3,[r3,#1737]
 198 00be 002B     	 cmp r3,#0
 199 00c0 01F02780 	 beq .L11
 173:../Simulink/Subsystem_Transmission.c ****     /* Memory: '<S148>/Memory' */
 174:../Simulink/Subsystem_Transmission.c ****     /*@>2562b*/VCU_B./*@>293a9*/Memory_dj/*@>761d*/ = /*@>26896*/VCU_DW./*@>29c58*/Memory_PreviousI
 200              	 .loc 1 174 0
 201 00c4 604B     	 ldr r3,.L257+8
 202 00c6 93F83D21 	 ldrb r2,[r3,#317]
 203 00ca 5D4B     	 ldr r3,.L257
 204 00cc 83F82127 	 strb r2,[r3,#1825]
 175:../Simulink/Subsystem_Transmission.c ****     /* CombinatorialLogic: '<S190>/Logic' incorporates:
 176:../Simulink/Subsystem_Transmission.c ****  *  RelationalOperator: '<S148>/GreaterThan'
 177:../Simulink/Subsystem_Transmission.c ****  */
 178:../Simulink/Subsystem_Transmission.c ****     /*@>2563d*/VCU_B./*@>293b2*/GreaterThan_l/*@>7621*/ = (/*@>21ea4*/(int32_T)/*@>25643*/VCU_B./*@
 205              	 .loc 1 178 0
 206 00d0 5B4B     	 ldr r3,.L257
 207 00d2 93F88327 	 ldrb r2,[r3,#1923]
 208 00d6 5A4B     	 ldr r3,.L257
 209 00d8 93F82137 	 ldrb r3,[r3,#1825]
 210 00dc 9A42     	 cmp r2,r3
 211 00de 8CBF     	 ite hi
 212 00e0 0123     	 movhi r3,#1
 213 00e2 0023     	 movls r3,#0
 214 00e4 DBB2     	 uxtb r3,r3
 215 00e6 1A46     	 mov r2,r3
 216 00e8 554B     	 ldr r3,.L257
 217 00ea 83F82227 	 strb r2,[r3,#1826]
 179:../Simulink/Subsystem_Transmission.c ****     /* Logic: '<S148>/Logical Operator2' */
 180:../Simulink/Subsystem_Transmission.c ****     /*@>2565b*/VCU_B./*@>293c1*/LogicalOperator2_m/*@>7625*/ = !/*@<7624*//*@>25661*/VCU_B./*@>293c
 218              	 .loc 1 180 0
 219 00ee 544B     	 ldr r3,.L257
 220 00f0 93F88337 	 ldrb r3,[r3,#1923]
 221 00f4 002B     	 cmp r3,#0
 222 00f6 0CBF     	 ite eq
 223 00f8 0123     	 moveq r3,#1
 224 00fa 0023     	 movne r3,#0
 225 00fc DBB2     	 uxtb r3,r3
 226 00fe 1A46     	 mov r2,r3
 227 0100 4F4B     	 ldr r3,.L257
 228 0102 83F82327 	 strb r2,[r3,#1827]
 181:../Simulink/Subsystem_Transmission.c ****     /* Memory: '<S148>/Memory1' */
 182:../Simulink/Subsystem_Transmission.c ****     /*@>25679*/VCU_B./*@>293d0*/Memory1_a/*@>7627*/ = /*@>2689c*/VCU_DW./*@>29c5b*/Memory1_Previous
 229              	 .loc 1 182 0
 230 0106 504B     	 ldr r3,.L257+8
 231 0108 93F83E21 	 ldrb r2,[r3,#318]
 232 010c 4C4B     	 ldr r3,.L257
 233 010e 83F82427 	 strb r2,[r3,#1828]
 183:../Simulink/Subsystem_Transmission.c ****     /* RelationalOperator: '<S148>/Relational Operator' incorporates:
 184:../Simulink/Subsystem_Transmission.c ****  *  Constant: '<S148>/Constant'
 185:../Simulink/Subsystem_Transmission.c ****  */
 186:../Simulink/Subsystem_Transmission.c ****     /*@>25685*/VCU_B./*@>293d6*/RelationalOperator_k/*@>762b*/ = (/*@>2568b*/VCU_B./*@>293d9*/Sensi
 234              	 .loc 1 186 0
 235 0112 4B4B     	 ldr r3,.L257
 236 0114 03F5B163 	 add r3,r3,#1416
 237 0118 D3E90023 	 ldrd r2,[r3]
 238 011c 0121     	 movs r1,#1
 239 011e 0C46     	 mov r4,r1
 240 0120 1046     	 mov r0,r2
 241 0122 1946     	 mov r1,r3
 242 0124 4FF00002 	 mov r2,#0
 243 0128 484B     	 ldr r3,.L257+12
 244 012a FFF7FEFF 	 bl __aeabi_dcmpgt
 245 012e 0346     	 mov r3,r0
 246 0130 002B     	 cmp r3,#0
 247 0132 01D1     	 bne .L12
 248 0134 0023     	 movs r3,#0
 249 0136 1C46     	 mov r4,r3
 250              	.L12:
 251 0138 E3B2     	 uxtb r3,r4
 252 013a 1A46     	 mov r2,r3
 253 013c 404B     	 ldr r3,.L257
 254 013e 83F82527 	 strb r2,[r3,#1829]
 187:../Simulink/Subsystem_Transmission.c ****     /* RelationalOperator: '<S148>/Relational Operator1' incorporates:
 188:../Simulink/Subsystem_Transmission.c ****  *  Constant: '<S148>/Constant'
 189:../Simulink/Subsystem_Transmission.c ****  */
 190:../Simulink/Subsystem_Transmission.c ****     /*@>25697*/VCU_B./*@>293df*/RelationalOperator1_d/*@>762f*/ = (/*@>21764*/3.0/*@>762e*/ < /*@>2
 255              	 .loc 1 190 0
 256 0142 3F4B     	 ldr r3,.L257
 257 0144 03F58363 	 add r3,r3,#1048
 258 0148 D3E90023 	 ldrd r2,[r3]
 259 014c 0121     	 movs r1,#1
 260 014e 0C46     	 mov r4,r1
 261 0150 1046     	 mov r0,r2
 262 0152 1946     	 mov r1,r3
 263 0154 4FF00002 	 mov r2,#0
 264 0158 3C4B     	 ldr r3,.L257+12
 265 015a FFF7FEFF 	 bl __aeabi_dcmpgt
 266 015e 0346     	 mov r3,r0
 267 0160 002B     	 cmp r3,#0
 268 0162 01D1     	 bne .L13
 269 0164 0023     	 movs r3,#0
 270 0166 1C46     	 mov r4,r3
 271              	.L13:
 272 0168 E3B2     	 uxtb r3,r4
 273 016a 1A46     	 mov r2,r3
 274 016c 344B     	 ldr r3,.L257
 275 016e 83F82627 	 strb r2,[r3,#1830]
 191:../Simulink/Subsystem_Transmission.c ****     /* Logic: '<S148>/Logical Operator' */
 192:../Simulink/Subsystem_Transmission.c ****     /*@>256c1*/VCU_B./*@>293f4*/Brakelight_n/*@>7635*/ = (/*@>256c7*/VCU_B./*@>293f7*/RelationalOpe
 276              	 .loc 1 192 0
 277 0172 334B     	 ldr r3,.L257
 278 0174 93F82537 	 ldrb r3,[r3,#1829]
 279 0178 002B     	 cmp r3,#0
 280 017a 04D1     	 bne .L14
 281              	 .loc 1 192 0 is_stmt 0 discriminator 2
 282 017c 304B     	 ldr r3,.L257
 283 017e 93F82637 	 ldrb r3,[r3,#1830]
 284 0182 002B     	 cmp r3,#0
 285 0184 01D0     	 beq .L15
 286              	.L14:
 287              	 .loc 1 192 0 discriminator 3
 288 0186 0123     	 movs r3,#1
 289 0188 00E0     	 b .L16
 290              	.L15:
 291              	 .loc 1 192 0 discriminator 4
 292 018a 0023     	 movs r3,#0
 293              	.L16:
 294              	 .loc 1 192 0 discriminator 6
 295 018c DAB2     	 uxtb r2,r3
 296 018e 2C4B     	 ldr r3,.L257
 297 0190 83F82727 	 strb r2,[r3,#1831]
 193:../Simulink/Subsystem_Transmission.c ****     /* RelationalOperator: '<S148>/GreaterThan1' */
 194:../Simulink/Subsystem_Transmission.c ****     /*@>256e5*/VCU_B./*@>29406*/GreaterThan1_d/*@>7639*/ = (/*@>21eca*/(int32_T)/*@>256eb*/VCU_B./*
 298              	 .loc 1 194 0 is_stmt 1 discriminator 6
 299 0194 2A4B     	 ldr r3,.L257
 300 0196 93F82427 	 ldrb r2,[r3,#1828]
 301 019a 294B     	 ldr r3,.L257
 302 019c 93F82737 	 ldrb r3,[r3,#1831]
 303 01a0 9A42     	 cmp r2,r3
 304 01a2 8CBF     	 ite hi
 305 01a4 0123     	 movhi r3,#1
 306 01a6 0023     	 movls r3,#0
 307 01a8 DBB2     	 uxtb r3,r3
 308 01aa 1A46     	 mov r2,r3
 309 01ac 244B     	 ldr r3,.L257
 310 01ae 83F82827 	 strb r2,[r3,#1832]
 195:../Simulink/Subsystem_Transmission.c ****     /* CombinatorialLogic: '<S190>/Logic' incorporates:
 196:../Simulink/Subsystem_Transmission.c ****  *  Logic: '<S148>/Logical Operator1'
 197:../Simulink/Subsystem_Transmission.c ****  *  Memory: '<S190>/Memory'
 198:../Simulink/Subsystem_Transmission.c ****  */
 199:../Simulink/Subsystem_Transmission.c ****     /*@>25703*/VCU_B./*@>29415*/LogicalOperator1_o/*@>763f*/ = (/*@>25709*/VCU_B./*@>29418*/Logical
 311              	 .loc 1 199 0 discriminator 6
 312 01b2 234B     	 ldr r3,.L257
 313 01b4 93F82337 	 ldrb r3,[r3,#1827]
 314 01b8 002B     	 cmp r3,#0
 315 01ba 04D1     	 bne .L17
 316              	 .loc 1 199 0 is_stmt 0 discriminator 2
 317 01bc 204B     	 ldr r3,.L257
 318 01be 93F82837 	 ldrb r3,[r3,#1832]
 319 01c2 002B     	 cmp r3,#0
 320 01c4 01D0     	 beq .L18
 321              	.L17:
 322              	 .loc 1 199 0 discriminator 3
 323 01c6 0123     	 movs r3,#1
 324 01c8 00E0     	 b .L19
 325              	.L18:
 326              	 .loc 1 199 0 discriminator 4
 327 01ca 0023     	 movs r3,#0
 328              	.L19:
 329              	 .loc 1 199 0 discriminator 6
 330 01cc DAB2     	 uxtb r2,r3
 331 01ce 1C4B     	 ldr r3,.L257
 332 01d0 83F82927 	 strb r2,[r3,#1833]
 200:../Simulink/Subsystem_Transmission.c ****     /*@>25739*/VCU_B./*@>29430*/Memory_aw/*@>7641*/ = /*@>268ae*/VCU_DW./*@>29c64*/Memory_PreviousI
 333              	 .loc 1 200 0 is_stmt 1 discriminator 6
 334 01d4 1C4B     	 ldr r3,.L257+8
 335 01d6 93F83F21 	 ldrb r2,[r3,#319]
 336 01da 194B     	 ldr r3,.L257
 337 01dc 83F82A27 	 strb r2,[r3,#1834]
 201:../Simulink/Subsystem_Transmission.c ****     /*@>217f2*/rowIdx/*@>1ed0c*/ = /*@>2577b*/VCU_B./*@>29451*/GreaterThan_l;
 338              	 .loc 1 201 0 discriminator 6
 339 01e0 174B     	 ldr r3,.L257
 340 01e2 93F82237 	 ldrb r3,[r3,#1826]
 341 01e6 7B61     	 str r3,[r7,#20]
 202:../Simulink/Subsystem_Transmission.c ****     /*@>217f6*/rowIdx/*@>1ed33*/ = /*@>21f10*/(int32_T)((/*@>21f0d*/(uint32_T)/*@>217f8*/rowIdx/*@>
 342              	 .loc 1 202 0 discriminator 6
 343 01e8 7B69     	 ldr r3,[r7,#20]
 344 01ea 5B00     	 lsls r3,r3,#1
 345 01ec 144A     	 ldr r2,.L257
 346 01ee 92F82927 	 ldrb r2,[r2,#1833]
 347 01f2 1344     	 add r3,r3,r2
 348 01f4 7B61     	 str r3,[r7,#20]
 203:../Simulink/Subsystem_Transmission.c ****     /*@>217fd*/rowIdx/*@>1ed5a*/ = /*@>21f23*/(int32_T)((/*@>21f20*/(uint32_T)/*@>217ff*/rowIdx/*@>
 349              	 .loc 1 203 0 discriminator 6
 350 01f6 7B69     	 ldr r3,[r7,#20]
 351 01f8 5B00     	 lsls r3,r3,#1
 352 01fa 114A     	 ldr r2,.L257
 353 01fc 92F82A27 	 ldrb r2,[r2,#1834]
 354 0200 1344     	 add r3,r3,r2
 355 0202 7B61     	 str r3,[r7,#20]
 204:../Simulink/Subsystem_Transmission.c ****     /*@>25823*/VCU_B./*@>294a5*/Logic_b/*@>1ed70*/[/*@>21806*/0U]/*@>1ed6f*/ = /*@>26720*/VCU_Const
 356              	 .loc 1 204 0 discriminator 6
 357 0204 7B69     	 ldr r3,[r7,#20]
 358 0206 124A     	 ldr r2,.L257+16
 359 0208 1344     	 add r3,r3,r2
 360 020a 93F83023 	 ldrb r2,[r3,#816]
 361 020e 0C4B     	 ldr r3,.L257
 362 0210 83F82B27 	 strb r2,[r3,#1835]
 205:../Simulink/Subsystem_Transmission.c ****     /*@>2583b*/VCU_B./*@>294b1*/Logic_b/*@>1ed83*/[/*@>2180b*/1U]/*@>1ed82*/ = /*@>26726*/VCU_Const
 363              	 .loc 1 205 0 discriminator 6
 364 0214 7B69     	 ldr r3,[r7,#20]
 365 0216 0833     	 adds r3,r3,#8
 366 0218 0D4A     	 ldr r2,.L257+16
 367 021a 1344     	 add r3,r3,r2
 368 021c 93F83023 	 ldrb r2,[r3,#816]
 369 0220 074B     	 ldr r3,.L257
 370 0222 83F82C27 	 strb r2,[r3,#1836]
 206:../Simulink/Subsystem_Transmission.c ****     /* Logic: '<S148>/Logical Operator3' */
 207:../Simulink/Subsystem_Transmission.c ****     /*@>25859*/VCU_B./*@>294c0*/LogicalOperator3_f/*@>7648*/ = (/*@>2585f*/VCU_B./*@>294c3*/Logic_b
 371              	 .loc 1 207 0 discriminator 6
 372 0226 064B     	 ldr r3,.L257
 373 0228 93F82B37 	 ldrb r3,[r3,#1835]
 374 022c 002B     	 cmp r3,#0
 375 022e 11D0     	 beq .L20
 376              	 .loc 1 207 0 is_stmt 0 discriminator 1
 377 0230 034B     	 ldr r3,.L257
 378 0232 93F82737 	 ldrb r3,[r3,#1831]
 379 0236 002B     	 cmp r3,#0
 380 0238 0CD0     	 beq .L20
 381              	 .loc 1 207 0 discriminator 3
 382 023a 0123     	 movs r3,#1
 383 023c 0BE0     	 b .L21
 384              	.L258:
 385 023e 00BF     	 .align 2
 386              	.L257:
 387 0240 00000000 	 .word VCU_B
 388 0244 00007040 	 .word 1081081856
 389 0248 00000000 	 .word VCU_DW
 390 024c 00000840 	 .word 1074266112
 391 0250 00000000 	 .word VCU_ConstP
 392              	.L20:
 393              	 .loc 1 207 0 discriminator 4
 394 0254 0023     	 movs r3,#0
 395              	.L21:
 396              	 .loc 1 207 0 discriminator 6
 397 0256 DAB2     	 uxtb r2,r3
 398 0258 934B     	 ldr r3,.L259+16
 399 025a 83F82D27 	 strb r2,[r3,#1837]
 208:../Simulink/Subsystem_Transmission.c ****     /* DataTypeConversion: '<S137>/Data Type Conversion10' */
 209:../Simulink/Subsystem_Transmission.c ****     /*@>258b3*/VCU_B./*@>294ed*/LC_active_bit_a/*@>764b*/ = /*@>258b9*/VCU_B./*@>294f0*/LogicalOper
 400              	 .loc 1 209 0 is_stmt 1 discriminator 6
 401 025e 924B     	 ldr r3,.L259+16
 402 0260 93F82D27 	 ldrb r2,[r3,#1837]
 403 0264 904B     	 ldr r3,.L259+16
 404 0266 83F82E27 	 strb r2,[r3,#1838]
 210:../Simulink/Subsystem_Transmission.c ****     /* CombinatorialLogic: '<S175>/Logic' incorporates:
 211:../Simulink/Subsystem_Transmission.c ****  *  Delay: '<S145>/Delay'
 212:../Simulink/Subsystem_Transmission.c ****  *  Memory: '<S175>/Memory'
 213:../Simulink/Subsystem_Transmission.c ****  *  UnitDelay: '<S145>/Unit Delay1'
 214:../Simulink/Subsystem_Transmission.c ****  */
 215:../Simulink/Subsystem_Transmission.c ****     /*@>258d1*/VCU_B./*@>294fc*/UnitDelay1_o/*@>7d6b*/ = /*@>268ba*/VCU_DW./*@>29c6a*/UnitDelay1_DS
 405              	 .loc 1 215 0 discriminator 6
 406 026a 904B     	 ldr r3,.L259+20
 407 026c 93F8DD20 	 ldrb r2,[r3,#221]
 408 0270 8D4B     	 ldr r3,.L259+16
 409 0272 83F82F27 	 strb r2,[r3,#1839]
 216:../Simulink/Subsystem_Transmission.c ****     /*@>258e9*/VCU_B./*@>29508*/Delay_e/*@>7d79*/ = /*@>268c0*/VCU_DW./*@>29c6d*/Delay_DSTATE_j/*@>
 410              	 .loc 1 216 0 discriminator 6
 411 0276 8D4B     	 ldr r3,.L259+20
 412 0278 93F8DE20 	 ldrb r2,[r3,#222]
 413 027c 8A4B     	 ldr r3,.L259+16
 414 027e 83F83027 	 strb r2,[r3,#1840]
 217:../Simulink/Subsystem_Transmission.c ****     /*@>25931*/VCU_B./*@>2952c*/Memory_lj/*@>764f*/ = /*@>268c6*/VCU_DW./*@>29c70*/Memory_PreviousI
 415              	 .loc 1 217 0 discriminator 6
 416 0282 8A4B     	 ldr r3,.L259+20
 417 0284 93F84021 	 ldrb r2,[r3,#320]
 418 0288 874B     	 ldr r3,.L259+16
 419 028a 83F83127 	 strb r2,[r3,#1841]
 218:../Simulink/Subsystem_Transmission.c ****     /*@>2182a*/rowIdx/*@>1ee5a*/ = /*@>25949*/VCU_B./*@>29538*/UnitDelay1_o;
 420              	 .loc 1 218 0 discriminator 6
 421 028e 864B     	 ldr r3,.L259+16
 422 0290 93F82F37 	 ldrb r3,[r3,#1839]
 423 0294 7B61     	 str r3,[r7,#20]
 219:../Simulink/Subsystem_Transmission.c ****     /*@>2182e*/rowIdx/*@>1ee81*/ = /*@>21fab*/(int32_T)((/*@>21fa8*/(uint32_T)/*@>21830*/rowIdx/*@>
 424              	 .loc 1 219 0 discriminator 6
 425 0296 7B69     	 ldr r3,[r7,#20]
 426 0298 5B00     	 lsls r3,r3,#1
 427 029a 834A     	 ldr r2,.L259+16
 428 029c 92F83027 	 ldrb r2,[r2,#1840]
 429 02a0 1344     	 add r3,r3,r2
 430 02a2 7B61     	 str r3,[r7,#20]
 220:../Simulink/Subsystem_Transmission.c ****     /*@>21835*/rowIdx/*@>1eea8*/ = /*@>21fc6*/(int32_T)((/*@>21fc3*/(uint32_T)/*@>21837*/rowIdx/*@>
 431              	 .loc 1 220 0 discriminator 6
 432 02a4 7B69     	 ldr r3,[r7,#20]
 433 02a6 5B00     	 lsls r3,r3,#1
 434 02a8 7F4A     	 ldr r2,.L259+16
 435 02aa 92F83127 	 ldrb r2,[r2,#1841]
 436 02ae 1344     	 add r3,r3,r2
 437 02b0 7B61     	 str r3,[r7,#20]
 221:../Simulink/Subsystem_Transmission.c ****     /*@>259d3*/VCU_B./*@>2957d*/Logic_g/*@>1eebe*/[/*@>2183e*/0U]/*@>1eebd*/ = /*@>26744*/VCU_Const
 438              	 .loc 1 221 0 discriminator 6
 439 02b2 7B69     	 ldr r3,[r7,#20]
 440 02b4 7E4A     	 ldr r2,.L259+24
 441 02b6 1344     	 add r3,r3,r2
 442 02b8 93F83023 	 ldrb r2,[r3,#816]
 443 02bc 7A4B     	 ldr r3,.L259+16
 444 02be 83F83227 	 strb r2,[r3,#1842]
 222:../Simulink/Subsystem_Transmission.c ****     /*@>259f7*/VCU_B./*@>2958f*/Logic_g/*@>1eed1*/[/*@>21843*/1U]/*@>1eed0*/ = /*@>2674a*/VCU_Const
 445              	 .loc 1 222 0 discriminator 6
 446 02c2 7B69     	 ldr r3,[r7,#20]
 447 02c4 0833     	 adds r3,r3,#8
 448 02c6 7A4A     	 ldr r2,.L259+24
 449 02c8 1344     	 add r3,r3,r2
 450 02ca 93F83023 	 ldrb r2,[r3,#816]
 451 02ce 764B     	 ldr r3,.L259+16
 452 02d0 83F83327 	 strb r2,[r3,#1843]
 223:../Simulink/Subsystem_Transmission.c ****     /* DataTypeConversion: '<S137>/Data Type Conversion11' */
 224:../Simulink/Subsystem_Transmission.c ****     /*@>25a3f*/VCU_B./*@>295b3*/VOVG_ShiftDown_a/*@>7653*/ = /*@>25a45*/VCU_B./*@>295b6*/Logic_g/*@
 453              	 .loc 1 224 0 discriminator 6
 454 02d4 744B     	 ldr r3,.L259+16
 455 02d6 93F83237 	 ldrb r3,[r3,#1842]
 456 02da 1846     	 mov r0,r3
 457 02dc FFF7FEFF 	 bl __aeabi_ui2d
 458 02e0 0246     	 mov r2,r0
 459 02e2 0B46     	 mov r3,r1
 460 02e4 7049     	 ldr r1,.L259+16
 461 02e6 C1E96423 	 strd r2,[r1,#400]
 225:../Simulink/Subsystem_Transmission.c ****     /* UnitDelay: '<S172>/Delay Input1'
 226:../Simulink/Subsystem_Transmission.c ****  *
 227:../Simulink/Subsystem_Transmission.c ****  * Block description for '<S172>/Delay Input1':
 228:../Simulink/Subsystem_Transmission.c ****  *  
 229:../Simulink/Subsystem_Transmission.c ****  *  Store in Global RAM
 230:../Simulink/Subsystem_Transmission.c ****  */
 231:../Simulink/Subsystem_Transmission.c ****     /*@>25a5d*/VCU_B./*@>295c2*/Uk1_o/*@>7dd5*/ = /*@>268de*/VCU_DW./*@>29c7c*/DelayInput1_DSTATE_j
 462              	 .loc 1 231 0 discriminator 6
 463 02ea 704B     	 ldr r3,.L259+20
 464 02ec D3E90423 	 ldrd r2,[r3,#16]
 465 02f0 6D49     	 ldr r1,.L259+16
 466 02f2 C1E96623 	 strd r2,[r1,#408]
 232:../Simulink/Subsystem_Transmission.c ****     /* CombinatorialLogic: '<S173>/Logic' incorporates:
 233:../Simulink/Subsystem_Transmission.c ****  *  Delay: '<S145>/Delay1'
 234:../Simulink/Subsystem_Transmission.c ****  *  Memory: '<S173>/Memory'
 235:../Simulink/Subsystem_Transmission.c ****  *  RelationalOperator: '<S172>/FixPt Relational Operator'
 236:../Simulink/Subsystem_Transmission.c ****  */
 237:../Simulink/Subsystem_Transmission.c ****     /*@>25a7b*/VCU_B./*@>295d1*/FixPtRelationalOperator_p/*@>7658*/ = (/*@>25a81*/VCU_B./*@>295d4*/
 467              	 .loc 1 237 0 discriminator 6
 468 02f6 6C4B     	 ldr r3,.L259+16
 469 02f8 03F59D63 	 add r3,r3,#1256
 470 02fc D3E90001 	 ldrd r0,[r3]
 471 0300 694B     	 ldr r3,.L259+16
 472 0302 D3E96623 	 ldrd r2,[r3,#408]
 473 0306 0124     	 movs r4,#1
 474 0308 FFF7FEFF 	 bl __aeabi_dcmpgt
 475 030c 0346     	 mov r3,r0
 476 030e 002B     	 cmp r3,#0
 477 0310 01D1     	 bne .L22
 478 0312 0023     	 movs r3,#0
 479 0314 1C46     	 mov r4,r3
 480              	.L22:
 481 0316 E3B2     	 uxtb r3,r4
 482 0318 1A46     	 mov r2,r3
 483 031a 634B     	 ldr r3,.L259+16
 484 031c 83F83427 	 strb r2,[r3,#1844]
 238:../Simulink/Subsystem_Transmission.c ****     /*@>25acf*/VCU_B./*@>295fb*/Delay1_p/*@>7de1*/ = /*@>268e4*/VCU_DW./*@>29c7f*/Delay1_DSTATE_p;
 485              	 .loc 1 238 0 discriminator 6
 486 0320 624B     	 ldr r3,.L259+20
 487 0322 93F8F220 	 ldrb r2,[r3,#242]
 488 0326 604B     	 ldr r3,.L259+16
 489 0328 83F83527 	 strb r2,[r3,#1845]
 239:../Simulink/Subsystem_Transmission.c ****     /*@>25aed*/VCU_B./*@>2960a*/Memory_i/*@>765b*/ = /*@>268ea*/VCU_DW./*@>29c82*/Memory_PreviousIn
 490              	 .loc 1 239 0 discriminator 6
 491 032c 5F4B     	 ldr r3,.L259+20
 492 032e 93F84121 	 ldrb r2,[r3,#321]
 493 0332 5D4B     	 ldr r3,.L259+16
 494 0334 83F83627 	 strb r2,[r3,#1846]
 240:../Simulink/Subsystem_Transmission.c ****     /*@>21862*/rowIdx/*@>1efa8*/ = /*@>25b11*/VCU_B./*@>2961c*/FixPtRelationalOperator_p;
 495              	 .loc 1 240 0 discriminator 6
 496 0338 5B4B     	 ldr r3,.L259+16
 497 033a 93F83437 	 ldrb r3,[r3,#1844]
 498 033e 7B61     	 str r3,[r7,#20]
 241:../Simulink/Subsystem_Transmission.c ****     /*@>21866*/rowIdx/*@>1efcf*/ = /*@>22048*/(int32_T)((/*@>22045*/(uint32_T)/*@>21868*/rowIdx/*@>
 499              	 .loc 1 241 0 discriminator 6
 500 0340 7B69     	 ldr r3,[r7,#20]
 501 0342 5B00     	 lsls r3,r3,#1
 502 0344 584A     	 ldr r2,.L259+16
 503 0346 92F83527 	 ldrb r2,[r2,#1845]
 504 034a 1344     	 add r3,r3,r2
 505 034c 7B61     	 str r3,[r7,#20]
 242:../Simulink/Subsystem_Transmission.c ****     /*@>2186d*/rowIdx/*@>1eff6*/ = /*@>2205c*/(int32_T)((/*@>22059*/(uint32_T)/*@>2186f*/rowIdx/*@>
 506              	 .loc 1 242 0 discriminator 6
 507 034e 7B69     	 ldr r3,[r7,#20]
 508 0350 5B00     	 lsls r3,r3,#1
 509 0352 554A     	 ldr r2,.L259+16
 510 0354 92F83627 	 ldrb r2,[r2,#1846]
 511 0358 1344     	 add r3,r3,r2
 512 035a 7B61     	 str r3,[r7,#20]
 243:../Simulink/Subsystem_Transmission.c ****     /*@>25ba1*/VCU_B./*@>29664*/Logic_c/*@>1f00c*/[/*@>21876*/0U]/*@>1f00b*/ = /*@>2675c*/VCU_Const
 513              	 .loc 1 243 0 discriminator 6
 514 035c 7B69     	 ldr r3,[r7,#20]
 515 035e 544A     	 ldr r2,.L259+24
 516 0360 1344     	 add r3,r3,r2
 517 0362 93F83023 	 ldrb r2,[r3,#816]
 518 0366 504B     	 ldr r3,.L259+16
 519 0368 83F83727 	 strb r2,[r3,#1847]
 244:../Simulink/Subsystem_Transmission.c ****     /*@>25be3*/VCU_B./*@>29685*/Logic_c/*@>1f01f*/[/*@>2187b*/1U]/*@>1f01e*/ = /*@>26762*/VCU_Const
 520              	 .loc 1 244 0 discriminator 6
 521 036c 7B69     	 ldr r3,[r7,#20]
 522 036e 0833     	 adds r3,r3,#8
 523 0370 4F4A     	 ldr r2,.L259+24
 524 0372 1344     	 add r3,r3,r2
 525 0374 93F83023 	 ldrb r2,[r3,#816]
 526 0378 4B4B     	 ldr r3,.L259+16
 527 037a 83F83827 	 strb r2,[r3,#1848]
 245:../Simulink/Subsystem_Transmission.c ****     /* UnitDelay: '<S145>/Unit Delay4' */
 246:../Simulink/Subsystem_Transmission.c ****     /*@>25bf5*/VCU_B./*@>2968e*/UnitDelay4_h/*@>7e3d*/ = /*@>26902*/VCU_DW./*@>29c8e*/UnitDelay4_DS
 528              	 .loc 1 246 0 discriminator 6
 529 037e 4B4B     	 ldr r3,.L259+20
 530 0380 93F8F320 	 ldrb r2,[r3,#243]
 531 0384 484B     	 ldr r3,.L259+16
 532 0386 83F83927 	 strb r2,[r3,#1849]
 247:../Simulink/Subsystem_Transmission.c ****     /* Gain: '<S176>/Gain' */
 248:../Simulink/Subsystem_Transmission.c ****     /*@>25c0d*/VCU_B./*@>2969a*/Gain_i/*@>7665*/ = /*@>21777*/2.0/*@>21cb2*/ * /*@>25c13*/VCU_B./*@
 533              	 .loc 1 248 0 discriminator 6
 534 038a 474B     	 ldr r3,.L259+16
 535 038c 03F58F63 	 add r3,r3,#1144
 536 0390 D3E90023 	 ldrd r2,[r3]
 537 0394 1046     	 mov r0,r2
 538 0396 1946     	 mov r1,r3
 539 0398 FFF7FEFF 	 bl __aeabi_dadd
 540 039c 0246     	 mov r2,r0
 541 039e 0B46     	 mov r3,r1
 542 03a0 4149     	 ldr r1,.L259+16
 543 03a2 C1E96823 	 strd r2,[r1,#416]
 249:../Simulink/Subsystem_Transmission.c ****     /* RelationalOperator: '<S176>/Relational Operator' incorporates:
 250:../Simulink/Subsystem_Transmission.c ****  *  Constant: '<S176>/Constant'
 251:../Simulink/Subsystem_Transmission.c ****  */
 252:../Simulink/Subsystem_Transmission.c ****     /*@>25c55*/VCU_B./*@>296be*/RelationalOperator_a/*@>7669*/ = (/*@>25c5b*/VCU_B./*@>296c1*/Gain_
 544              	 .loc 1 252 0 discriminator 6
 545 03a6 404B     	 ldr r3,.L259+16
 546 03a8 D3E96823 	 ldrd r2,[r3,#416]
 547 03ac 0121     	 movs r1,#1
 548 03ae 0C46     	 mov r4,r1
 549 03b0 1046     	 mov r0,r2
 550 03b2 1946     	 mov r1,r3
 551 03b4 38A3     	 adr r3,.L259
 552 03b6 D3E90023 	 ldrd r2,[r3]
 553 03ba FFF7FEFF 	 bl __aeabi_dcmpgt
 554 03be 0346     	 mov r3,r0
 555 03c0 002B     	 cmp r3,#0
 556 03c2 01D1     	 bne .L23
 557 03c4 0023     	 movs r3,#0
 558 03c6 1C46     	 mov r4,r3
 559              	.L23:
 560 03c8 E3B2     	 uxtb r3,r4
 561 03ca 1A46     	 mov r2,r3
 562 03cc 364B     	 ldr r3,.L259+16
 563 03ce 83F83A27 	 strb r2,[r3,#1850]
 253:../Simulink/Subsystem_Transmission.c ****     /* RelationalOperator: '<S176>/Relational Operator1' incorporates:
 254:../Simulink/Subsystem_Transmission.c ****  *  Constant: '<S176>/Constant1'
 255:../Simulink/Subsystem_Transmission.c ****  */
 256:../Simulink/Subsystem_Transmission.c ****     /*@>25c67*/VCU_B./*@>296c7*/RelationalOperator1_g/*@>766d*/ = (/*@>25c6d*/VCU_B./*@>296ca*/Gain
 564              	 .loc 1 256 0 discriminator 6
 565 03d2 354B     	 ldr r3,.L259+16
 566 03d4 D3E96823 	 ldrd r2,[r3,#416]
 567 03d8 0121     	 movs r1,#1
 568 03da 0C46     	 mov r4,r1
 569 03dc 1046     	 mov r0,r2
 570 03de 1946     	 mov r1,r3
 571 03e0 4FF00002 	 mov r2,#0
 572 03e4 334B     	 ldr r3,.L259+28
 573 03e6 FFF7FEFF 	 bl __aeabi_dcmpgt
 574 03ea 0346     	 mov r3,r0
 575 03ec 002B     	 cmp r3,#0
 576 03ee 01D1     	 bne .L24
 577 03f0 0023     	 movs r3,#0
 578 03f2 1C46     	 mov r4,r3
 579              	.L24:
 580 03f4 E3B2     	 uxtb r3,r4
 581 03f6 1A46     	 mov r2,r3
 582 03f8 2B4B     	 ldr r3,.L259+16
 583 03fa 83F83B27 	 strb r2,[r3,#1851]
 257:../Simulink/Subsystem_Transmission.c ****     /* RelationalOperator: '<S176>/Relational Operator2' incorporates:
 258:../Simulink/Subsystem_Transmission.c ****  *  Constant: '<S176>/Constant2'
 259:../Simulink/Subsystem_Transmission.c ****  */
 260:../Simulink/Subsystem_Transmission.c ****     /*@>25c7f*/VCU_B./*@>296d3*/RelationalOperator2_e/*@>7671*/ = (/*@>25c85*/VCU_B./*@>296d6*/Gain
 584              	 .loc 1 260 0 discriminator 6
 585 03fe 2A4B     	 ldr r3,.L259+16
 586 0400 D3E96823 	 ldrd r2,[r3,#416]
 587 0404 0121     	 movs r1,#1
 588 0406 0C46     	 mov r4,r1
 589 0408 1046     	 mov r0,r2
 590 040a 1946     	 mov r1,r3
 591 040c 24A3     	 adr r3,.L259+8
 592 040e D3E90023 	 ldrd r2,[r3]
 593 0412 FFF7FEFF 	 bl __aeabi_dcmpgt
 594 0416 0346     	 mov r3,r0
 595 0418 002B     	 cmp r3,#0
 596 041a 01D1     	 bne .L25
 597 041c 0023     	 movs r3,#0
 598 041e 1C46     	 mov r4,r3
 599              	.L25:
 600 0420 E3B2     	 uxtb r3,r4
 601 0422 1A46     	 mov r2,r3
 602 0424 204B     	 ldr r3,.L259+16
 603 0426 83F83C27 	 strb r2,[r3,#1852]
 261:../Simulink/Subsystem_Transmission.c ****     /* Sum: '<S176>/Add' */
 262:../Simulink/Subsystem_Transmission.c ****     /*@>25cbb*/VCU_B./*@>296f1*/Add_fn/*@>a801*/ = /*@>220a2*/(uint8_T)((/*@>2209c*/(uint32_T)/*@>2
 604              	 .loc 1 262 0 discriminator 6
 605 042a 1F4B     	 ldr r3,.L259+16
 606 042c 93F83A27 	 ldrb r2,[r3,#1850]
 607 0430 1D4B     	 ldr r3,.L259+16
 608 0432 93F83B37 	 ldrb r3,[r3,#1851]
 609 0436 1344     	 add r3,r3,r2
 610 0438 DAB2     	 uxtb r2,r3
 611 043a 1B4B     	 ldr r3,.L259+16
 612 043c 93F83C37 	 ldrb r3,[r3,#1852]
 613 0440 1344     	 add r3,r3,r2
 614 0442 DAB2     	 uxtb r2,r3
 615 0444 184B     	 ldr r3,.L259+16
 616 0446 83F88926 	 strb r2,[r3,#1673]
 263:../Simulink/Subsystem_Transmission.c ****     /* RelationalOperator: '<S166>/Compare' incorporates:
 264:../Simulink/Subsystem_Transmission.c ****  *  Constant: '<S166>/Constant'
 265:../Simulink/Subsystem_Transmission.c ****  */
 266:../Simulink/Subsystem_Transmission.c ****     /*@>25cdf*/VCU_B./*@>29703*/Compare_j1/*@>767b*/ = (/*@>25ce5*/VCU_B./*@>29706*/x_clutch_STW/*@
 617              	 .loc 1 266 0 discriminator 6
 618 044a 174B     	 ldr r3,.L259+16
 619 044c 03F59A63 	 add r3,r3,#1232
 620 0450 D3E90023 	 ldrd r2,[r3]
 621 0454 0121     	 movs r1,#1
 622 0456 0C46     	 mov r4,r1
 623 0458 1046     	 mov r0,r2
 624 045a 1946     	 mov r1,r3
 625 045c 4FF00002 	 mov r2,#0
 626 0460 154B     	 ldr r3,.L259+32
 627 0462 FFF7FEFF 	 bl __aeabi_dcmpge
 628 0466 0346     	 mov r3,r0
 629 0468 002B     	 cmp r3,#0
 630 046a 01D1     	 bne .L26
 631 046c 0023     	 movs r3,#0
 632 046e 1C46     	 mov r4,r3
 633              	.L26:
 634 0470 E3B2     	 uxtb r3,r4
 635 0472 1A46     	 mov r2,r3
 636 0474 0C4B     	 ldr r3,.L259+16
 637 0476 83F83D27 	 strb r2,[r3,#1853]
 267:../Simulink/Subsystem_Transmission.c ****     /* Switch: '<S145>/Switch' incorporates:
 268:../Simulink/Subsystem_Transmission.c ****  *  Constant: '<S145>/Constant'
 269:../Simulink/Subsystem_Transmission.c ****  *  Constant: '<S145>/Constant1'
 270:../Simulink/Subsystem_Transmission.c ****  */
 271:../Simulink/Subsystem_Transmission.c ****     /*@>1ec77*/if (/*@>25cfd*/VCU_B./*@>29712*/Compare_j1) {
 638              	 .loc 1 271 0 discriminator 6
 639 047a 0B4B     	 ldr r3,.L259+16
 640 047c 93F83D37 	 ldrb r3,[r3,#1853]
 641 0480 002B     	 cmp r3,#0
 642 0482 1DD0     	 beq .L27
 272:../Simulink/Subsystem_Transmission.c ****         /*@>25d3f*/VCU_B./*@>29733*/Switch_m/*@>1ec7a*/ = /*@>2177e*/1.0;
 643              	 .loc 1 272 0
 644 0484 0849     	 ldr r1,.L259+16
 645 0486 4FF00002 	 mov r2,#0
 646 048a 0C4B     	 ldr r3,.L259+36
 647 048c C1E96A23 	 strd r2,[r1,#424]
 648 0490 1DE0     	 b .L28
 649              	.L260:
 650 0492 00BFAFF3 	 .align 3
 650      0080
 651              	.L259:
 652 0498 00000000 	 .word 0
 653 049c 00206540 	 .word 1080369152
 654 04a0 00000000 	 .word 0
 655 04a4 00507440 	 .word 1081364480
 656 04a8 00000000 	 .word VCU_B
 657 04ac 00000000 	 .word VCU_DW
 658 04b0 00000000 	 .word VCU_ConstP
 659 04b4 00806C40 	 .word 1080852480
 660 04b8 00002E40 	 .word 1076756480
 661 04bc 0000F03F 	 .word 1072693248
 662              	.L27:
 273:../Simulink/Subsystem_Transmission.c ****     } else {
 274:../Simulink/Subsystem_Transmission.c ****         /*@>25d39*/VCU_B./*@>29730*/Switch_m/*@>7e4d*/ = /*@>2177f*/2.0;
 663              	 .loc 1 274 0
 664 04c0 5F49     	 ldr r1,.L261+16
 665 04c2 4FF00002 	 mov r2,#0
 666 04c6 4FF08043 	 mov r3,#1073741824
 667 04ca C1E96A23 	 strd r2,[r1,#424]
 668              	.L28:
 275:../Simulink/Subsystem_Transmission.c ****     }
 276:../Simulink/Subsystem_Transmission.c ****     /* End of Switch: '<S145>/Switch' */
 277:../Simulink/Subsystem_Transmission.c **** 
 278:../Simulink/Subsystem_Transmission.c ****     /* RelationalOperator: '<S145>/Relational Operator' */
 279:../Simulink/Subsystem_Transmission.c ****     /*@>25d69*/VCU_B./*@>29748*/LessthanNeutral_j/*@>7680*/ = (/*@>25d6f*/VCU_B./*@>2974b*/Add_fn/*
 669              	 .loc 1 279 0
 670 04ce 5C4B     	 ldr r3,.L261+16
 671 04d0 93F88936 	 ldrb r3,[r3,#1673]
 672 04d4 1846     	 mov r0,r3
 673 04d6 FFF7FEFF 	 bl __aeabi_i2d
 674 04da 0446     	 mov r4,r0
 675 04dc 0D46     	 mov r5,r1
 676 04de 584B     	 ldr r3,.L261+16
 677 04e0 D3E96A23 	 ldrd r2,[r3,#424]
 678 04e4 0121     	 movs r1,#1
 679 04e6 0E46     	 mov r6,r1
 680 04e8 2046     	 mov r0,r4
 681 04ea 2946     	 mov r1,r5
 682 04ec FFF7FEFF 	 bl __aeabi_dcmplt
 683 04f0 0346     	 mov r3,r0
 684 04f2 002B     	 cmp r3,#0
 685 04f4 01D1     	 bne .L29
 686 04f6 0023     	 movs r3,#0
 687 04f8 1E46     	 mov r6,r3
 688              	.L29:
 689 04fa F3B2     	 uxtb r3,r6
 690 04fc 1A46     	 mov r2,r3
 691 04fe 504B     	 ldr r3,.L261+16
 692 0500 83F83E27 	 strb r2,[r3,#1854]
 280:../Simulink/Subsystem_Transmission.c ****     /* UnitDelay: '<S146>/Unit Delay' */
 281:../Simulink/Subsystem_Transmission.c ****     /*@>25d87*/VCU_B./*@>29757*/UnitDelay_b/*@>7e5e*/ = /*@>2690e*/VCU_DW./*@>29c94*/UnitDelay_DSTA
 693              	 .loc 1 281 0
 694 0504 4F4B     	 ldr r3,.L261+20
 695 0506 93F8F420 	 ldrb r2,[r3,#244]
 696 050a 4D4B     	 ldr r3,.L261+16
 697 050c 83F83F27 	 strb r2,[r3,#1855]
 282:../Simulink/Subsystem_Transmission.c ****     /* UnitDelay: '<S145>/Unit Delay2' */
 283:../Simulink/Subsystem_Transmission.c ****     /*@>25d93*/VCU_B./*@>2975d*/Timeout_p/*@>7e6a*/ = /*@>26914*/VCU_DW./*@>29c97*/UnitDelay2_DSTAT
 698              	 .loc 1 283 0
 699 0510 4C4B     	 ldr r3,.L261+20
 700 0512 93F8F520 	 ldrb r2,[r3,#245]
 701 0516 4A4B     	 ldr r3,.L261+16
 702 0518 83F84027 	 strb r2,[r3,#1856]
 284:../Simulink/Subsystem_Transmission.c ****     /* RelationalOperator: '<S167>/Compare' incorporates:
 285:../Simulink/Subsystem_Transmission.c ****  *  Constant: '<S167>/Constant'
 286:../Simulink/Subsystem_Transmission.c ****  */
 287:../Simulink/Subsystem_Transmission.c ****     /*@>25da5*/VCU_B./*@>29766*/Compare_jn/*@>7686*/ = (/*@>25dab*/VCU_B./*@>29769*/DataTypeConvers
 703              	 .loc 1 287 0
 704 051c 484B     	 ldr r3,.L261+16
 705 051e 03F59063 	 add r3,r3,#1152
 706 0522 D3E90023 	 ldrd r2,[r3]
 707 0526 0121     	 movs r1,#1
 708 0528 0C46     	 mov r4,r1
 709 052a 1046     	 mov r0,r2
 710 052c 1946     	 mov r1,r3
 711 052e 40A3     	 adr r3,.L261
 712 0530 D3E90023 	 ldrd r2,[r3]
 713 0534 FFF7FEFF 	 bl __aeabi_dcmpgt
 714 0538 0346     	 mov r3,r0
 715 053a 002B     	 cmp r3,#0
 716 053c 01D1     	 bne .L30
 717 053e 0023     	 movs r3,#0
 718 0540 1C46     	 mov r4,r3
 719              	.L30:
 720 0542 E3B2     	 uxtb r3,r4
 721 0544 1A46     	 mov r2,r3
 722 0546 3E4B     	 ldr r3,.L261+16
 723 0548 83F84127 	 strb r2,[r3,#1857]
 288:../Simulink/Subsystem_Transmission.c ****     /* RelationalOperator: '<S168>/Compare' incorporates:
 289:../Simulink/Subsystem_Transmission.c ****  *  Constant: '<S168>/Constant'
 290:../Simulink/Subsystem_Transmission.c ****  */
 291:../Simulink/Subsystem_Transmission.c ****     /*@>25db1*/VCU_B./*@>2976c*/Compare_lh/*@>768a*/ = (/*@>25db7*/VCU_B./*@>2976f*/Add_fn/*@>7689*
 724              	 .loc 1 291 0
 725 054c 3C4B     	 ldr r3,.L261+16
 726 054e 93F88936 	 ldrb r3,[r3,#1673]
 727 0552 022B     	 cmp r3,#2
 728 0554 0CBF     	 ite eq
 729 0556 0123     	 moveq r3,#1
 730 0558 0023     	 movne r3,#0
 731 055a DBB2     	 uxtb r3,r3
 732 055c 1A46     	 mov r2,r3
 733 055e 384B     	 ldr r3,.L261+16
 734 0560 83F84227 	 strb r2,[r3,#1858]
 292:../Simulink/Subsystem_Transmission.c ****     /* Logic: '<S145>/Logical Operator1' */
 293:../Simulink/Subsystem_Transmission.c ****     /*@>25dcf*/VCU_B./*@>2977b*/RPMcheckgear21_f/*@>7690*/ = (/*@>25dd5*/VCU_B./*@>2977e*/Compare_l
 735              	 .loc 1 293 0
 736 0564 364B     	 ldr r3,.L261+16
 737 0566 93F84237 	 ldrb r3,[r3,#1858]
 738 056a 002B     	 cmp r3,#0
 739 056c 06D0     	 beq .L31
 740              	 .loc 1 293 0 is_stmt 0 discriminator 1
 741 056e 344B     	 ldr r3,.L261+16
 742 0570 93F84137 	 ldrb r3,[r3,#1857]
 743 0574 002B     	 cmp r3,#0
 744 0576 01D0     	 beq .L31
 745              	 .loc 1 293 0 discriminator 3
 746 0578 0123     	 movs r3,#1
 747 057a 00E0     	 b .L32
 748              	.L31:
 749              	 .loc 1 293 0 discriminator 4
 750 057c 0023     	 movs r3,#0
 751              	.L32:
 752              	 .loc 1 293 0 discriminator 6
 753 057e DAB2     	 uxtb r2,r3
 754 0580 2F4B     	 ldr r3,.L261+16
 755 0582 83F84327 	 strb r2,[r3,#1859]
 294:../Simulink/Subsystem_Transmission.c ****     /* RelationalOperator: '<S169>/Compare' incorporates:
 295:../Simulink/Subsystem_Transmission.c ****  *  Constant: '<S169>/Constant'
 296:../Simulink/Subsystem_Transmission.c ****  */
 297:../Simulink/Subsystem_Transmission.c ****     /*@>25de7*/VCU_B./*@>29787*/Compare_gw/*@>7694*/ = (/*@>25ded*/VCU_B./*@>2978a*/DataTypeConvers
 756              	 .loc 1 297 0 is_stmt 1 discriminator 6
 757 0586 2E4B     	 ldr r3,.L261+16
 758 0588 03F59063 	 add r3,r3,#1152
 759 058c D3E90023 	 ldrd r2,[r3]
 760 0590 0121     	 movs r1,#1
 761 0592 0C46     	 mov r4,r1
 762 0594 1046     	 mov r0,r2
 763 0596 1946     	 mov r1,r3
 764 0598 27A3     	 adr r3,.L261+8
 765 059a D3E90023 	 ldrd r2,[r3]
 766 059e FFF7FEFF 	 bl __aeabi_dcmpgt
 767 05a2 0346     	 mov r3,r0
 768 05a4 002B     	 cmp r3,#0
 769 05a6 01D1     	 bne .L33
 770 05a8 0023     	 movs r3,#0
 771 05aa 1C46     	 mov r4,r3
 772              	.L33:
 773 05ac E3B2     	 uxtb r3,r4
 774 05ae 1A46     	 mov r2,r3
 775 05b0 234B     	 ldr r3,.L261+16
 776 05b2 83F84427 	 strb r2,[r3,#1860]
 298:../Simulink/Subsystem_Transmission.c ****     /* RelationalOperator: '<S170>/Compare' incorporates:
 299:../Simulink/Subsystem_Transmission.c ****  *  Constant: '<S170>/Constant'
 300:../Simulink/Subsystem_Transmission.c ****  */
 301:../Simulink/Subsystem_Transmission.c ****     /*@>25df9*/VCU_B./*@>29790*/Compare_aq/*@>7698*/ = (/*@>25dff*/VCU_B./*@>29793*/Add_fn/*@>7697*
 777              	 .loc 1 301 0 discriminator 6
 778 05b6 224B     	 ldr r3,.L261+16
 779 05b8 93F88936 	 ldrb r3,[r3,#1673]
 780 05bc 032B     	 cmp r3,#3
 781 05be 0CBF     	 ite eq
 782 05c0 0123     	 moveq r3,#1
 783 05c2 0023     	 movne r3,#0
 784 05c4 DBB2     	 uxtb r3,r3
 785 05c6 1A46     	 mov r2,r3
 786 05c8 1D4B     	 ldr r3,.L261+16
 787 05ca 83F84527 	 strb r2,[r3,#1861]
 302:../Simulink/Subsystem_Transmission.c ****     /* Logic: '<S145>/Logical Operator2' */
 303:../Simulink/Subsystem_Transmission.c ****     /*@>25e11*/VCU_B./*@>2979c*/RPMcheckgear31_d/*@>769e*/ = (/*@>25e17*/VCU_B./*@>2979f*/Compare_g
 788              	 .loc 1 303 0 discriminator 6
 789 05ce 1C4B     	 ldr r3,.L261+16
 790 05d0 93F84437 	 ldrb r3,[r3,#1860]
 791 05d4 002B     	 cmp r3,#0
 792 05d6 06D0     	 beq .L34
 793              	 .loc 1 303 0 is_stmt 0 discriminator 1
 794 05d8 194B     	 ldr r3,.L261+16
 795 05da 93F84537 	 ldrb r3,[r3,#1861]
 796 05de 002B     	 cmp r3,#0
 797 05e0 01D0     	 beq .L34
 798              	 .loc 1 303 0 discriminator 3
 799 05e2 0123     	 movs r3,#1
 800 05e4 00E0     	 b .L35
 801              	.L34:
 802              	 .loc 1 303 0 discriminator 4
 803 05e6 0023     	 movs r3,#0
 804              	.L35:
 805              	 .loc 1 303 0 discriminator 6
 806 05e8 DAB2     	 uxtb r2,r3
 807 05ea 154B     	 ldr r3,.L261+16
 808 05ec 83F84627 	 strb r2,[r3,#1862]
 304:../Simulink/Subsystem_Transmission.c ****     /* CombinatorialLogic: '<S174>/Logic' incorporates:
 305:../Simulink/Subsystem_Transmission.c ****  *  Logic: '<S145>/Logical Operator'
 306:../Simulink/Subsystem_Transmission.c ****  *  Memory: '<S174>/Memory'
 307:../Simulink/Subsystem_Transmission.c ****  */
 308:../Simulink/Subsystem_Transmission.c ****     /*@>25e2f*/VCU_B./*@>297ab*/LogicalOperator_n/*@>76b0*/ = (/*@>25e35*/VCU_B./*@>297ae*/UnitDela
 809              	 .loc 1 308 0 is_stmt 1 discriminator 6
 810 05f0 134B     	 ldr r3,.L261+16
 811 05f2 93F83937 	 ldrb r3,[r3,#1849]
 812 05f6 002B     	 cmp r3,#0
 813 05f8 18D1     	 bne .L36
 814              	 .loc 1 308 0 is_stmt 0 discriminator 2
 815 05fa 114B     	 ldr r3,.L261+16
 816 05fc 93F83E37 	 ldrb r3,[r3,#1854]
 817 0600 002B     	 cmp r3,#0
 818 0602 13D1     	 bne .L36
 819              	 .loc 1 308 0 discriminator 4
 820 0604 0E4B     	 ldr r3,.L261+16
 821 0606 93F83F37 	 ldrb r3,[r3,#1855]
 822 060a 002B     	 cmp r3,#0
 823 060c 0ED1     	 bne .L36
 824              	 .loc 1 308 0 discriminator 6
 825 060e 0C4B     	 ldr r3,.L261+16
 826 0610 93F84037 	 ldrb r3,[r3,#1856]
 827 0614 002B     	 cmp r3,#0
 828 0616 09D1     	 bne .L36
 829              	 .loc 1 308 0 discriminator 8
 830 0618 094B     	 ldr r3,.L261+16
 831 061a 93F84337 	 ldrb r3,[r3,#1859]
 832 061e 002B     	 cmp r3,#0
 833 0620 04D1     	 bne .L36
 834              	 .loc 1 308 0 discriminator 10
 835 0622 074B     	 ldr r3,.L261+16
 836 0624 93F84637 	 ldrb r3,[r3,#1862]
 837 0628 002B     	 cmp r3,#0
 838 062a 0DD0     	 beq .L37
 839              	.L36:
 840              	 .loc 1 308 0 discriminator 11
 841 062c 0123     	 movs r3,#1
 842 062e 0CE0     	 b .L38
 843              	.L262:
 844              	 .align 3
 845              	.L261:
 846 0630 00000000 	 .word 0
 847 0634 0088B340 	 .word 1085507584
 848 0638 00000000 	 .word 0
 849 063c 00B4B440 	 .word 1085584384
 850 0640 00000000 	 .word VCU_B
 851 0644 00000000 	 .word VCU_DW
 852              	.L37:
 853              	 .loc 1 308 0 discriminator 12
 854 0648 0023     	 movs r3,#0
 855              	.L38:
 856              	 .loc 1 308 0 discriminator 14
 857 064a DAB2     	 uxtb r2,r3
 858 064c B44B     	 ldr r3,.L263+16
 859 064e 83F84727 	 strb r2,[r3,#1863]
 309:../Simulink/Subsystem_Transmission.c ****     /*@>25e6b*/VCU_B./*@>297c9*/Memory_c5/*@>76b2*/ = /*@>26926*/VCU_DW./*@>29ca0*/Memory_PreviousI
 860              	 .loc 1 309 0 is_stmt 1 discriminator 14
 861 0652 B44B     	 ldr r3,.L263+20
 862 0654 93F84221 	 ldrb r2,[r3,#322]
 863 0658 B14B     	 ldr r3,.L263+16
 864 065a 83F84827 	 strb r2,[r3,#1864]
 310:../Simulink/Subsystem_Transmission.c ****     /*@>219b9*/tmp/*@>1f0e1*/ = /*@>25e7d*/VCU_B./*@>297d2*/Logic_c/*@>24eec*/[/*@>24ee9*/0];
 865              	 .loc 1 310 0 discriminator 14
 866 065e B04B     	 ldr r3,.L263+16
 867 0660 93F83737 	 ldrb r3,[r3,#1847]
 868 0664 FB71     	 strb r3,[r7,#7]
 311:../Simulink/Subsystem_Transmission.c ****     /*@>2189b*/rowIdx/*@>1f0f8*/ = /*@>219bb*/tmp;
 869              	 .loc 1 311 0 discriminator 14
 870 0666 FB79     	 ldrb r3,[r7,#7]
 871 0668 7B61     	 str r3,[r7,#20]
 312:../Simulink/Subsystem_Transmission.c ****     /*@>2189f*/rowIdx/*@>1f121*/ = /*@>2210e*/(int32_T)((/*@>2210b*/(uint32_T)/*@>218a1*/rowIdx/*@>
 872              	 .loc 1 312 0 discriminator 14
 873 066a 7B69     	 ldr r3,[r7,#20]
 874 066c 5B00     	 lsls r3,r3,#1
 875 066e AC4A     	 ldr r2,.L263+16
 876 0670 92F84727 	 ldrb r2,[r2,#1863]
 877 0674 1344     	 add r3,r3,r2
 878 0676 7B61     	 str r3,[r7,#20]
 313:../Simulink/Subsystem_Transmission.c ****     /*@>218a6*/rowIdx/*@>1f14a*/ = /*@>2211a*/(int32_T)((/*@>22117*/(uint32_T)/*@>218a8*/rowIdx/*@>
 879              	 .loc 1 313 0 discriminator 14
 880 0678 7B69     	 ldr r3,[r7,#20]
 881 067a 5B00     	 lsls r3,r3,#1
 882 067c A84A     	 ldr r2,.L263+16
 883 067e 92F84827 	 ldrb r2,[r2,#1864]
 884 0682 1344     	 add r3,r3,r2
 885 0684 7B61     	 str r3,[r7,#20]
 314:../Simulink/Subsystem_Transmission.c ****     /*@>25edd*/VCU_B./*@>29802*/Logic_j/*@>1f160*/[/*@>218af*/0U]/*@>1f15f*/ = /*@>26774*/VCU_Const
 886              	 .loc 1 314 0 discriminator 14
 887 0686 7B69     	 ldr r3,[r7,#20]
 888 0688 A74A     	 ldr r2,.L263+24
 889 068a 1344     	 add r3,r3,r2
 890 068c 93F83023 	 ldrb r2,[r3,#816]
 891 0690 A34B     	 ldr r3,.L263+16
 892 0692 83F84927 	 strb r2,[r3,#1865]
 315:../Simulink/Subsystem_Transmission.c ****     /*@>25ee9*/VCU_B./*@>29808*/Logic_j/*@>1f173*/[/*@>218b4*/1U]/*@>1f172*/ = /*@>2677a*/VCU_Const
 893              	 .loc 1 315 0 discriminator 14
 894 0696 7B69     	 ldr r3,[r7,#20]
 895 0698 0833     	 adds r3,r3,#8
 896 069a A34A     	 ldr r2,.L263+24
 897 069c 1344     	 add r3,r3,r2
 898 069e 93F83023 	 ldrb r2,[r3,#816]
 899 06a2 9F4B     	 ldr r3,.L263+16
 900 06a4 83F84A27 	 strb r2,[r3,#1866]
 316:../Simulink/Subsystem_Transmission.c ****     /* Sum: '<S186>/Add' */
 317:../Simulink/Subsystem_Transmission.c ****     /*@>25eef*/VCU_B./*@>2980b*/Add_b/*@>a806*/ = /*@>25ef5*/VCU_B./*@>2980e*/Add1_k/*@>a803*/ + /*
 901              	 .loc 1 317 0 discriminator 14
 902 06a8 9D4B     	 ldr r3,.L263+16
 903 06aa 03F58963 	 add r3,r3,#1096
 904 06ae D3E90001 	 ldrd r0,[r3]
 905 06b2 9B4B     	 ldr r3,.L263+16
 906 06b4 03F58A63 	 add r3,r3,#1104
 907 06b8 D3E90023 	 ldrd r2,[r3]
 908 06bc FFF7FEFF 	 bl __aeabi_dadd
 909 06c0 0246     	 mov r2,r0
 910 06c2 0B46     	 mov r3,r1
 911 06c4 9649     	 ldr r1,.L263+16
 912 06c6 C1E96C23 	 strd r2,[r1,#432]
 318:../Simulink/Subsystem_Transmission.c ****     /* Gain: '<S186>/Gain' */
 319:../Simulink/Subsystem_Transmission.c ****     /*@>25f07*/VCU_B./*@>29817*/v_Veh/*@>76c0*/ = /*@>2178d*/0.5/*@>21c71*/ * /*@>25f0d*/VCU_B./*@>
 913              	 .loc 1 319 0 discriminator 14
 914 06ca 954B     	 ldr r3,.L263+16
 915 06cc D3E96C23 	 ldrd r2,[r3,#432]
 916 06d0 1046     	 mov r0,r2
 917 06d2 1946     	 mov r1,r3
 918 06d4 4FF00002 	 mov r2,#0
 919 06d8 944B     	 ldr r3,.L263+28
 920 06da FFF7FEFF 	 bl __aeabi_dmul
 921 06de 0246     	 mov r2,r0
 922 06e0 0B46     	 mov r3,r1
 923 06e2 8F49     	 ldr r1,.L263+16
 924 06e4 C1E96E23 	 strd r2,[r1,#440]
 320:../Simulink/Subsystem_Transmission.c ****     /* RelationalOperator: '<S186>/Relational Operator' incorporates:
 321:../Simulink/Subsystem_Transmission.c ****  *  Constant: '<S186>/Const_vVeh_Threshold'
 322:../Simulink/Subsystem_Transmission.c ****  */
 323:../Simulink/Subsystem_Transmission.c ****     /*@>25f19*/VCU_B./*@>29820*/RelationalOperator_h/*@>76c4*/ = (/*@>25f1f*/VCU_B./*@>29823*/v_Veh
 925              	 .loc 1 323 0 discriminator 14
 926 06e8 8D4B     	 ldr r3,.L263+16
 927 06ea D3E96E23 	 ldrd r2,[r3,#440]
 928 06ee 0121     	 movs r1,#1
 929 06f0 0C46     	 mov r4,r1
 930 06f2 1046     	 mov r0,r2
 931 06f4 1946     	 mov r1,r3
 932 06f6 4FF00002 	 mov r2,#0
 933 06fa 8D4B     	 ldr r3,.L263+32
 934 06fc FFF7FEFF 	 bl __aeabi_dcmpgt
 935 0700 0346     	 mov r3,r0
 936 0702 002B     	 cmp r3,#0
 937 0704 01D1     	 bne .L39
 938 0706 0023     	 movs r3,#0
 939 0708 1C46     	 mov r4,r3
 940              	.L39:
 941 070a E3B2     	 uxtb r3,r4
 942 070c 1A46     	 mov r2,r3
 943 070e 844B     	 ldr r3,.L263+16
 944 0710 83F84B27 	 strb r2,[r3,#1867]
 324:../Simulink/Subsystem_Transmission.c ****     /* Gain: '<S185>/Gain' */
 325:../Simulink/Subsystem_Transmission.c ****     /*@>25f2b*/VCU_B./*@>29829*/Gain_a/*@>76cc*/ = /*@>2178f*/2.0/*@>21c6d*/ * /*@>25f31*/VCU_B./*@
 945              	 .loc 1 325 0 discriminator 14
 946 0714 824B     	 ldr r3,.L263+16
 947 0716 03F58F63 	 add r3,r3,#1144
 948 071a D3E90023 	 ldrd r2,[r3]
 949 071e 1046     	 mov r0,r2
 950 0720 1946     	 mov r1,r3
 951 0722 FFF7FEFF 	 bl __aeabi_dadd
 952 0726 0246     	 mov r2,r0
 953 0728 0B46     	 mov r3,r1
 954 072a 7D49     	 ldr r1,.L263+16
 955 072c C1E97023 	 strd r2,[r1,#448]
 326:../Simulink/Subsystem_Transmission.c ****     /* RelationalOperator: '<S185>/Relational Operator' incorporates:
 327:../Simulink/Subsystem_Transmission.c ****  *  Constant: '<S185>/Constant'
 328:../Simulink/Subsystem_Transmission.c ****  */
 329:../Simulink/Subsystem_Transmission.c ****     /*@>25f3d*/VCU_B./*@>29832*/RelationalOperator_p/*@>76d0*/ = (/*@>25f43*/VCU_B./*@>29835*/Gain_
 956              	 .loc 1 329 0 discriminator 14
 957 0730 7B4B     	 ldr r3,.L263+16
 958 0732 D3E97023 	 ldrd r2,[r3,#448]
 959 0736 0121     	 movs r1,#1
 960 0738 0C46     	 mov r4,r1
 961 073a 1046     	 mov r0,r2
 962 073c 1946     	 mov r1,r3
 963 073e 74A3     	 adr r3,.L263
 964 0740 D3E90023 	 ldrd r2,[r3]
 965 0744 FFF7FEFF 	 bl __aeabi_dcmpgt
 966 0748 0346     	 mov r3,r0
 967 074a 002B     	 cmp r3,#0
 968 074c 01D1     	 bne .L40
 969 074e 0023     	 movs r3,#0
 970 0750 1C46     	 mov r4,r3
 971              	.L40:
 972 0752 E3B2     	 uxtb r3,r4
 973 0754 1A46     	 mov r2,r3
 974 0756 724B     	 ldr r3,.L263+16
 975 0758 83F84C27 	 strb r2,[r3,#1868]
 330:../Simulink/Subsystem_Transmission.c ****     /* RelationalOperator: '<S185>/Relational Operator1' incorporates:
 331:../Simulink/Subsystem_Transmission.c ****  *  Constant: '<S185>/Constant1'
 332:../Simulink/Subsystem_Transmission.c ****  */
 333:../Simulink/Subsystem_Transmission.c ****     /*@>25f4f*/VCU_B./*@>2983b*/RelationalOperator1_l/*@>76d4*/ = (/*@>25f55*/VCU_B./*@>2983e*/Gain
 976              	 .loc 1 333 0 discriminator 14
 977 075c 704B     	 ldr r3,.L263+16
 978 075e D3E97023 	 ldrd r2,[r3,#448]
 979 0762 0121     	 movs r1,#1
 980 0764 0C46     	 mov r4,r1
 981 0766 1046     	 mov r0,r2
 982 0768 1946     	 mov r1,r3
 983 076a 6BA3     	 adr r3,.L263+8
 984 076c D3E90023 	 ldrd r2,[r3]
 985 0770 FFF7FEFF 	 bl __aeabi_dcmpgt
 986 0774 0346     	 mov r3,r0
 987 0776 002B     	 cmp r3,#0
 988 0778 01D1     	 bne .L41
 989 077a 0023     	 movs r3,#0
 990 077c 1C46     	 mov r4,r3
 991              	.L41:
 992 077e E3B2     	 uxtb r3,r4
 993 0780 1A46     	 mov r2,r3
 994 0782 674B     	 ldr r3,.L263+16
 995 0784 83F84D27 	 strb r2,[r3,#1869]
 334:../Simulink/Subsystem_Transmission.c ****     /* RelationalOperator: '<S185>/Relational Operator2' incorporates:
 335:../Simulink/Subsystem_Transmission.c ****  *  Constant: '<S185>/Constant2'
 336:../Simulink/Subsystem_Transmission.c ****  */
 337:../Simulink/Subsystem_Transmission.c ****     /*@>25f6d*/VCU_B./*@>2984a*/RelationalOperator2_l/*@>76d8*/ = (/*@>25f73*/VCU_B./*@>2984d*/Gain
 996              	 .loc 1 337 0 discriminator 14
 997 0788 654B     	 ldr r3,.L263+16
 998 078a D3E97023 	 ldrd r2,[r3,#448]
 999 078e 0121     	 movs r1,#1
 1000 0790 0C46     	 mov r4,r1
 1001 0792 1046     	 mov r0,r2
 1002 0794 1946     	 mov r1,r3
 1003 0796 4FF00002 	 mov r2,#0
 1004 079a 664B     	 ldr r3,.L263+36
 1005 079c FFF7FEFF 	 bl __aeabi_dcmpgt
 1006 07a0 0346     	 mov r3,r0
 1007 07a2 002B     	 cmp r3,#0
 1008 07a4 01D1     	 bne .L42
 1009 07a6 0023     	 movs r3,#0
 1010 07a8 1C46     	 mov r4,r3
 1011              	.L42:
 1012 07aa E3B2     	 uxtb r3,r4
 1013 07ac 1A46     	 mov r2,r3
 1014 07ae 5C4B     	 ldr r3,.L263+16
 1015 07b0 83F84E27 	 strb r2,[r3,#1870]
 338:../Simulink/Subsystem_Transmission.c ****     /* Sum: '<S185>/Add' */
 339:../Simulink/Subsystem_Transmission.c ****     /*@>25f85*/VCU_B./*@>29856*/Add_ax/*@>a80f*/ = /*@>22160*/(uint8_T)((/*@>2215a*/(uint32_T)/*@>2
 1016              	 .loc 1 339 0 discriminator 14
 1017 07b4 5A4B     	 ldr r3,.L263+16
 1018 07b6 93F84C27 	 ldrb r2,[r3,#1868]
 1019 07ba 594B     	 ldr r3,.L263+16
 1020 07bc 93F84D37 	 ldrb r3,[r3,#1869]
 1021 07c0 1344     	 add r3,r3,r2
 1022 07c2 DAB2     	 uxtb r2,r3
 1023 07c4 564B     	 ldr r3,.L263+16
 1024 07c6 93F84E37 	 ldrb r3,[r3,#1870]
 1025 07ca 1344     	 add r3,r3,r2
 1026 07cc DAB2     	 uxtb r2,r3
 1027 07ce 544B     	 ldr r3,.L263+16
 1028 07d0 83F88A26 	 strb r2,[r3,#1674]
 340:../Simulink/Subsystem_Transmission.c ****     /* RelationalOperator: '<S187>/Compare' incorporates:
 341:../Simulink/Subsystem_Transmission.c ****  *  Constant: '<S187>/Constant'
 342:../Simulink/Subsystem_Transmission.c ****  */
 343:../Simulink/Subsystem_Transmission.c ****     /*@>25fa9*/VCU_B./*@>29868*/Compare_k/*@>76e2*/ = (/*@>25faf*/VCU_B./*@>2986b*/Add_ax/*@>76e1*/
 1029              	 .loc 1 343 0 discriminator 14
 1030 07d4 524B     	 ldr r3,.L263+16
 1031 07d6 93F88A36 	 ldrb r3,[r3,#1674]
 1032 07da 022B     	 cmp r3,#2
 1033 07dc 0CBF     	 ite eq
 1034 07de 0123     	 moveq r3,#1
 1035 07e0 0023     	 movne r3,#0
 1036 07e2 DBB2     	 uxtb r3,r3
 1037 07e4 1A46     	 mov r2,r3
 1038 07e6 4E4B     	 ldr r3,.L263+16
 1039 07e8 83F84F27 	 strb r2,[r3,#1871]
 344:../Simulink/Subsystem_Transmission.c ****     /* Logic: '<S186>/Logical Operator3' */
 345:../Simulink/Subsystem_Transmission.c ****     /*@>25fc1*/VCU_B./*@>29874*/LogicalOperator3_n/*@>76e8*/ = (/*@>25fc7*/VCU_B./*@>29877*/Relatio
 1040              	 .loc 1 345 0 discriminator 14
 1041 07ec 4C4B     	 ldr r3,.L263+16
 1042 07ee 93F84B37 	 ldrb r3,[r3,#1867]
 1043 07f2 002B     	 cmp r3,#0
 1044 07f4 06D0     	 beq .L43
 1045              	 .loc 1 345 0 is_stmt 0 discriminator 1
 1046 07f6 4A4B     	 ldr r3,.L263+16
 1047 07f8 93F84F37 	 ldrb r3,[r3,#1871]
 1048 07fc 002B     	 cmp r3,#0
 1049 07fe 01D0     	 beq .L43
 1050              	 .loc 1 345 0 discriminator 3
 1051 0800 0123     	 movs r3,#1
 1052 0802 00E0     	 b .L44
 1053              	.L43:
 1054              	 .loc 1 345 0 discriminator 4
 1055 0804 0023     	 movs r3,#0
 1056              	.L44:
 1057              	 .loc 1 345 0 discriminator 6
 1058 0806 DAB2     	 uxtb r2,r3
 1059 0808 454B     	 ldr r3,.L263+16
 1060 080a 83F85027 	 strb r2,[r3,#1872]
 346:../Simulink/Subsystem_Transmission.c ****     /* UnitDelay: '<S188>/Delay Input1'
 347:../Simulink/Subsystem_Transmission.c ****  *
 348:../Simulink/Subsystem_Transmission.c ****  * Block description for '<S188>/Delay Input1':
 349:../Simulink/Subsystem_Transmission.c ****  *  
 350:../Simulink/Subsystem_Transmission.c ****  *  Store in Global RAM
 351:../Simulink/Subsystem_Transmission.c ****  */
 352:../Simulink/Subsystem_Transmission.c ****     /*@>25fdf*/VCU_B./*@>29883*/Uk1_ii/*@>7ec6*/ = /*@>26938*/VCU_DW./*@>29ca9*/DelayInput1_DSTATE_
 1061              	 .loc 1 352 0 is_stmt 1 discriminator 6
 1062 080e 454B     	 ldr r3,.L263+20
 1063 0810 93F8F620 	 ldrb r2,[r3,#246]
 1064 0814 424B     	 ldr r3,.L263+16
 1065 0816 83F85127 	 strb r2,[r3,#1873]
 353:../Simulink/Subsystem_Transmission.c ****     /* CombinatorialLogic: '<S189>/Logic' incorporates:
 354:../Simulink/Subsystem_Transmission.c ****  *  RelationalOperator: '<S188>/FixPt Relational Operator'
 355:../Simulink/Subsystem_Transmission.c ****  */
 356:../Simulink/Subsystem_Transmission.c ****     /*@>25ffd*/VCU_B./*@>29892*/FixPtRelationalOperator_dz/*@>76ed*/ = (/*@>2217b*/(int32_T)/*@>260
 1066              	 .loc 1 356 0 discriminator 6
 1067 081a 414B     	 ldr r3,.L263+16
 1068 081c 93F85027 	 ldrb r2,[r3,#1872]
 1069 0820 3F4B     	 ldr r3,.L263+16
 1070 0822 93F85137 	 ldrb r3,[r3,#1873]
 1071 0826 9A42     	 cmp r2,r3
 1072 0828 8CBF     	 ite hi
 1073 082a 0123     	 movhi r3,#1
 1074 082c 0023     	 movls r3,#0
 1075 082e DBB2     	 uxtb r3,r3
 1076 0830 1A46     	 mov r2,r3
 1077 0832 3B4B     	 ldr r3,.L263+16
 1078 0834 83F85227 	 strb r2,[r3,#1874]
 357:../Simulink/Subsystem_Transmission.c ****     /* Logic: '<S186>/Logical Operator' */
 358:../Simulink/Subsystem_Transmission.c ****     /*@>26015*/VCU_B./*@>2989e*/LogicalOperator_g/*@>76f1*/ = !/*@<76f0*//*@>2601b*/VCU_B./*@>298a1
 1079              	 .loc 1 358 0 discriminator 6
 1080 0838 394B     	 ldr r3,.L263+16
 1081 083a 93F84F37 	 ldrb r3,[r3,#1871]
 1082 083e 002B     	 cmp r3,#0
 1083 0840 0CBF     	 ite eq
 1084 0842 0123     	 moveq r3,#1
 1085 0844 0023     	 movne r3,#0
 1086 0846 DBB2     	 uxtb r3,r3
 1087 0848 1A46     	 mov r2,r3
 1088 084a 354B     	 ldr r3,.L263+16
 1089 084c 83F85327 	 strb r2,[r3,#1875]
 359:../Simulink/Subsystem_Transmission.c ****     /* UnitDelay: '<S181>/Delay Input1'
 360:../Simulink/Subsystem_Transmission.c ****  *
 361:../Simulink/Subsystem_Transmission.c ****  * Block description for '<S181>/Delay Input1':
 362:../Simulink/Subsystem_Transmission.c ****  *  
 363:../Simulink/Subsystem_Transmission.c ****  *  Store in Global RAM
 364:../Simulink/Subsystem_Transmission.c ****  */
 365:../Simulink/Subsystem_Transmission.c ****     /*@>26033*/VCU_B./*@>298ad*/Uk1_p/*@>7ed2*/ = /*@>26944*/VCU_DW./*@>29caf*/DelayInput1_DSTATE_m
 1090              	 .loc 1 365 0 discriminator 6
 1091 0850 344B     	 ldr r3,.L263+20
 1092 0852 93F8BF20 	 ldrb r2,[r3,#191]
 1093 0856 324B     	 ldr r3,.L263+16
 1094 0858 83F88B26 	 strb r2,[r3,#1675]
 366:../Simulink/Subsystem_Transmission.c ****     /* RelationalOperator: '<S181>/FixPt Relational Operator' */
 367:../Simulink/Subsystem_Transmission.c ****     /*@>26045*/VCU_B./*@>298b6*/FixPtRelationalOperator_j/*@>76f6*/ = (/*@>2604b*/VCU_B./*@>298b9*/
 1095              	 .loc 1 367 0 discriminator 6
 1096 085c 304B     	 ldr r3,.L263+16
 1097 085e 93F88A26 	 ldrb r2,[r3,#1674]
 1098 0862 2F4B     	 ldr r3,.L263+16
 1099 0864 93F88B36 	 ldrb r3,[r3,#1675]
 1100 0868 9A42     	 cmp r2,r3
 1101 086a 8CBF     	 ite hi
 1102 086c 0123     	 movhi r3,#1
 1103 086e 0023     	 movls r3,#0
 1104 0870 DBB2     	 uxtb r3,r3
 1105 0872 1A46     	 mov r2,r3
 1106 0874 2A4B     	 ldr r3,.L263+16
 1107 0876 83F85427 	 strb r2,[r3,#1876]
 368:../Simulink/Subsystem_Transmission.c ****     /* RelationalOperator: '<S177>/Compare' incorporates:
 369:../Simulink/Subsystem_Transmission.c ****  *  Constant: '<S177>/Constant'
 370:../Simulink/Subsystem_Transmission.c ****  */
 371:../Simulink/Subsystem_Transmission.c ****     /*@>2605d*/VCU_B./*@>298c2*/Compare_j0/*@>76fa*/ = (/*@>26063*/VCU_B./*@>298c5*/Add_ax/*@>76f9*
 1108              	 .loc 1 371 0 discriminator 6
 1109 087a 294B     	 ldr r3,.L263+16
 1110 087c 93F88A36 	 ldrb r3,[r3,#1674]
 1111 0880 022B     	 cmp r3,#2
 1112 0882 8CBF     	 ite hi
 1113 0884 0123     	 movhi r3,#1
 1114 0886 0023     	 movls r3,#0
 1115 0888 DBB2     	 uxtb r3,r3
 1116 088a 1A46     	 mov r2,r3
 1117 088c 244B     	 ldr r3,.L263+16
 1118 088e 83F85527 	 strb r2,[r3,#1877]
 372:../Simulink/Subsystem_Transmission.c ****     /* UnitDelay: '<S145>/Unit Delay' */
 373:../Simulink/Subsystem_Transmission.c ****     /*@>2606f*/VCU_B./*@>298cb*/UnitDelay_g/*@>7ede*/ = /*@>26956*/VCU_DW./*@>29cb8*/UnitDelay_DSTA
 1119              	 .loc 1 373 0 discriminator 6
 1120 0892 244B     	 ldr r3,.L263+20
 1121 0894 93F8F720 	 ldrb r2,[r3,#247]
 1122 0898 214B     	 ldr r3,.L263+16
 1123 089a 83F85627 	 strb r2,[r3,#1878]
 374:../Simulink/Subsystem_Transmission.c ****     /* UnitDelay: '<S146>/Unit Delay1' */
 375:../Simulink/Subsystem_Transmission.c ****     /*@>26081*/VCU_B./*@>298d4*/Timeout_px/*@>7eea*/ = /*@>2695c*/VCU_DW./*@>29cbb*/UnitDelay1_DSTA
 1124              	 .loc 1 375 0 discriminator 6
 1125 089e 214B     	 ldr r3,.L263+20
 1126 08a0 93F8F820 	 ldrb r2,[r3,#248]
 1127 08a4 1E4B     	 ldr r3,.L263+16
 1128 08a6 83F85727 	 strb r2,[r3,#1879]
 376:../Simulink/Subsystem_Transmission.c ****     /* RelationalOperator: '<S179>/Compare' incorporates:
 377:../Simulink/Subsystem_Transmission.c ****  *  Constant: '<S179>/Constant'
 378:../Simulink/Subsystem_Transmission.c ****  */
 379:../Simulink/Subsystem_Transmission.c ****     /*@>26093*/VCU_B./*@>298dd*/Compare_d/*@>7700*/ = (/*@>26099*/VCU_B./*@>298e0*/Add_ax/*@>76ff*/
 1129              	 .loc 1 379 0 discriminator 6
 1130 08aa 1D4B     	 ldr r3,.L263+16
 1131 08ac 93F88A36 	 ldrb r3,[r3,#1674]
 1132 08b0 002B     	 cmp r3,#0
 1133 08b2 0CBF     	 ite eq
 1134 08b4 0123     	 moveq r3,#1
 1135 08b6 0023     	 movne r3,#0
 1136 08b8 DBB2     	 uxtb r3,r3
 1137 08ba 1A46     	 mov r2,r3
 1138 08bc 184B     	 ldr r3,.L263+16
 1139 08be 83F85827 	 strb r2,[r3,#1880]
 380:../Simulink/Subsystem_Transmission.c ****     /* RelationalOperator: '<S178>/Compare' incorporates:
 381:../Simulink/Subsystem_Transmission.c ****  *  Constant: '<S178>/Constant'
 382:../Simulink/Subsystem_Transmission.c ****  */
 383:../Simulink/Subsystem_Transmission.c ****     /*@>260b1*/VCU_B./*@>298ec*/Compare_i/*@>7704*/ = (/*@>260b7*/VCU_B./*@>298ef*/x_clutch_STW/*@>
 1140              	 .loc 1 383 0 discriminator 6
 1141 08c2 174B     	 ldr r3,.L263+16
 1142 08c4 03F59A63 	 add r3,r3,#1232
 1143 08c8 D3E90023 	 ldrd r2,[r3]
 1144 08cc 0121     	 movs r1,#1
 1145 08ce 0C46     	 mov r4,r1
 1146 08d0 1046     	 mov r0,r2
 1147 08d2 1946     	 mov r1,r3
 1148 08d4 4FF00002 	 mov r2,#0
 1149 08d8 154B     	 ldr r3,.L263+32
 1150 08da FFF7FEFF 	 bl __aeabi_dcmplt
 1151 08de 0346     	 mov r3,r0
 1152 08e0 002B     	 cmp r3,#0
 1153 08e2 01D1     	 bne .L45
 1154 08e4 0023     	 movs r3,#0
 1155 08e6 1C46     	 mov r4,r3
 1156              	.L45:
 1157 08e8 E3B2     	 uxtb r3,r4
 1158 08ea 1A46     	 mov r2,r3
 1159 08ec 0C4B     	 ldr r3,.L263+16
 1160 08ee 83F85927 	 strb r2,[r3,#1881]
 384:../Simulink/Subsystem_Transmission.c ****     /* Logic: '<S146>/Logical Operator1' */
 385:../Simulink/Subsystem_Transmission.c ****     /*@>260e1*/VCU_B./*@>29904*/FailSafefirstgear_n/*@>770a*/ = (/*@>260e7*/VCU_B./*@>29907*/Compar
 1161              	 .loc 1 385 0 discriminator 6
 1162 08f2 0B4B     	 ldr r3,.L263+16
 1163 08f4 93F85837 	 ldrb r3,[r3,#1880]
 1164 08f8 002B     	 cmp r3,#0
 1165 08fa 1DD0     	 beq .L46
 1166              	 .loc 1 385 0 is_stmt 0 discriminator 1
 1167 08fc 084B     	 ldr r3,.L263+16
 1168 08fe 93F85937 	 ldrb r3,[r3,#1881]
 1169 0902 002B     	 cmp r3,#0
 1170 0904 18D0     	 beq .L46
 1171              	 .loc 1 385 0 discriminator 3
 1172 0906 0123     	 movs r3,#1
 1173 0908 17E0     	 b .L47
 1174              	.L264:
 1175 090a 00BFAFF3 	 .align 3
 1175      0080
 1176              	.L263:
 1177 0910 00000000 	 .word 0
 1178 0914 00206540 	 .word 1080369152
 1179 0918 00000000 	 .word 0
 1180 091c 00D07040 	 .word 1081135104
 1181 0920 00000000 	 .word VCU_B
 1182 0924 00000000 	 .word VCU_DW
 1183 0928 00000000 	 .word VCU_ConstP
 1184 092c 0000E03F 	 .word 1071644672
 1185 0930 00002E40 	 .word 1076756480
 1186 0934 00807640 	 .word 1081507840
 1187              	.L46:
 1188              	 .loc 1 385 0 discriminator 4
 1189 0938 0023     	 movs r3,#0
 1190              	.L47:
 1191              	 .loc 1 385 0 discriminator 6
 1192 093a DAB2     	 uxtb r2,r3
 1193 093c B74B     	 ldr r3,.L265
 1194 093e 83F85A27 	 strb r2,[r3,#1882]
 386:../Simulink/Subsystem_Transmission.c ****     /* CombinatorialLogic: '<S183>/Logic' incorporates:
 387:../Simulink/Subsystem_Transmission.c ****  *  Logic: '<S146>/Logical Operator'
 388:../Simulink/Subsystem_Transmission.c ****  */
 389:../Simulink/Subsystem_Transmission.c ****     /*@>260f9*/VCU_B./*@>29910*/LogicalOperator_ny/*@>7719*/ = (/*@>260ff*/VCU_B./*@>29913*/FixPtRe
 1195              	 .loc 1 389 0 is_stmt 1 discriminator 6
 1196 0942 B64B     	 ldr r3,.L265
 1197 0944 93F85437 	 ldrb r3,[r3,#1876]
 1198 0948 002B     	 cmp r3,#0
 1199 094a 13D1     	 bne .L48
 1200              	 .loc 1 389 0 is_stmt 0 discriminator 2
 1201 094c B34B     	 ldr r3,.L265
 1202 094e 93F85537 	 ldrb r3,[r3,#1877]
 1203 0952 002B     	 cmp r3,#0
 1204 0954 0ED1     	 bne .L48
 1205              	 .loc 1 389 0 discriminator 4
 1206 0956 B14B     	 ldr r3,.L265
 1207 0958 93F85637 	 ldrb r3,[r3,#1878]
 1208 095c 002B     	 cmp r3,#0
 1209 095e 09D1     	 bne .L48
 1210              	 .loc 1 389 0 discriminator 6
 1211 0960 AE4B     	 ldr r3,.L265
 1212 0962 93F85737 	 ldrb r3,[r3,#1879]
 1213 0966 002B     	 cmp r3,#0
 1214 0968 04D1     	 bne .L48
 1215              	 .loc 1 389 0 discriminator 8
 1216 096a AC4B     	 ldr r3,.L265
 1217 096c 93F85A37 	 ldrb r3,[r3,#1882]
 1218 0970 002B     	 cmp r3,#0
 1219 0972 01D0     	 beq .L49
 1220              	.L48:
 1221              	 .loc 1 389 0 discriminator 9
 1222 0974 0123     	 movs r3,#1
 1223 0976 00E0     	 b .L50
 1224              	.L49:
 1225              	 .loc 1 389 0 discriminator 10
 1226 0978 0023     	 movs r3,#0
 1227              	.L50:
 1228              	 .loc 1 389 0 discriminator 12
 1229 097a DAB2     	 uxtb r2,r3
 1230 097c A74B     	 ldr r3,.L265
 1231 097e 83F85B27 	 strb r2,[r3,#1883]
 390:../Simulink/Subsystem_Transmission.c ****     /* CombinatorialLogic: '<S189>/Logic' incorporates:
 391:../Simulink/Subsystem_Transmission.c ****  *  Logic: '<S186>/Logical Operator1'
 392:../Simulink/Subsystem_Transmission.c ****  *  Memory: '<S189>/Memory'
 393:../Simulink/Subsystem_Transmission.c ****  */
 394:../Simulink/Subsystem_Transmission.c ****     /*@>26123*/VCU_B./*@>29925*/LogicalOperator1_b/*@>7722*/ = (/*@>26129*/VCU_B./*@>29928*/Logical
 1232              	 .loc 1 394 0 is_stmt 1 discriminator 12
 1233 0982 A64B     	 ldr r3,.L265
 1234 0984 93F85337 	 ldrb r3,[r3,#1875]
 1235 0988 002B     	 cmp r3,#0
 1236 098a 14D1     	 bne .L51
 1237              	 .loc 1 394 0 is_stmt 0 discriminator 2
 1238 098c A34B     	 ldr r3,.L265
 1239 098e 03F59C63 	 add r3,r3,#1248
 1240 0992 D3E90023 	 ldrd r2,[r3]
 1241 0996 1046     	 mov r0,r2
 1242 0998 1946     	 mov r1,r3
 1243 099a 4FF00002 	 mov r2,#0
 1244 099e 4FF00003 	 mov r3,#0
 1245 09a2 FFF7FEFF 	 bl __aeabi_dcmpeq
 1246 09a6 0346     	 mov r3,r0
 1247 09a8 002B     	 cmp r3,#0
 1248 09aa 04D0     	 beq .L51
 1249              	 .loc 1 394 0 discriminator 4
 1250 09ac 9B4B     	 ldr r3,.L265
 1251 09ae 93F85B37 	 ldrb r3,[r3,#1883]
 1252 09b2 002B     	 cmp r3,#0
 1253 09b4 01D0     	 beq .L52
 1254              	.L51:
 1255              	 .loc 1 394 0 discriminator 5
 1256 09b6 0123     	 movs r3,#1
 1257 09b8 00E0     	 b .L53
 1258              	.L52:
 1259              	 .loc 1 394 0 discriminator 6
 1260 09ba 0023     	 movs r3,#0
 1261              	.L53:
 1262              	 .loc 1 394 0 discriminator 8
 1263 09bc DAB2     	 uxtb r2,r3
 1264 09be 974B     	 ldr r3,.L265
 1265 09c0 83F85C27 	 strb r2,[r3,#1884]
 395:../Simulink/Subsystem_Transmission.c ****     /*@>26141*/VCU_B./*@>29934*/Memory_p/*@>7724*/ = /*@>26968*/VCU_DW./*@>29cc1*/Memory_PreviousIn
 1266              	 .loc 1 395 0 is_stmt 1 discriminator 8
 1267 09c4 964B     	 ldr r3,.L265+4
 1268 09c6 93F84321 	 ldrb r2,[r3,#323]
 1269 09ca 944B     	 ldr r3,.L265
 1270 09cc 83F85D27 	 strb r2,[r3,#1885]
 396:../Simulink/Subsystem_Transmission.c ****     /*@>218f0*/rowIdx/*@>1f2f7*/ = /*@>2614d*/VCU_B./*@>2993a*/FixPtRelationalOperator_dz;
 1271              	 .loc 1 396 0 discriminator 8
 1272 09d0 924B     	 ldr r3,.L265
 1273 09d2 93F85237 	 ldrb r3,[r3,#1874]
 1274 09d6 7B61     	 str r3,[r7,#20]
 397:../Simulink/Subsystem_Transmission.c ****     /*@>218f4*/rowIdx/*@>1f31e*/ = /*@>221e5*/(int32_T)((/*@>221e2*/(uint32_T)/*@>218f6*/rowIdx/*@>
 1275              	 .loc 1 397 0 discriminator 8
 1276 09d8 7B69     	 ldr r3,[r7,#20]
 1277 09da 5B00     	 lsls r3,r3,#1
 1278 09dc 8F4A     	 ldr r2,.L265
 1279 09de 92F85C27 	 ldrb r2,[r2,#1884]
 1280 09e2 1344     	 add r3,r3,r2
 1281 09e4 7B61     	 str r3,[r7,#20]
 398:../Simulink/Subsystem_Transmission.c ****     /*@>218fb*/rowIdx/*@>1f345*/ = /*@>221f7*/(int32_T)((/*@>221f4*/(uint32_T)/*@>218fd*/rowIdx/*@>
 1282              	 .loc 1 398 0 discriminator 8
 1283 09e6 7B69     	 ldr r3,[r7,#20]
 1284 09e8 5B00     	 lsls r3,r3,#1
 1285 09ea 8C4A     	 ldr r2,.L265
 1286 09ec 92F85D27 	 ldrb r2,[r2,#1885]
 1287 09f0 1344     	 add r3,r3,r2
 1288 09f2 7B61     	 str r3,[r7,#20]
 399:../Simulink/Subsystem_Transmission.c ****     /*@>26171*/VCU_B./*@>2994c*/Logic_gy/*@>1f35b*/[/*@>21904*/0U]/*@>1f35a*/ = /*@>26798*/VCU_Cons
 1289              	 .loc 1 399 0 discriminator 8
 1290 09f4 7B69     	 ldr r3,[r7,#20]
 1291 09f6 8B4A     	 ldr r2,.L265+8
 1292 09f8 1344     	 add r3,r3,r2
 1293 09fa 93F83023 	 ldrb r2,[r3,#816]
 1294 09fe 874B     	 ldr r3,.L265
 1295 0a00 83F85E27 	 strb r2,[r3,#1886]
 400:../Simulink/Subsystem_Transmission.c ****     /*@>2617d*/VCU_B./*@>29952*/Logic_gy/*@>1f36e*/[/*@>21909*/1U]/*@>1f36d*/ = /*@>2679e*/VCU_Cons
 1296              	 .loc 1 400 0 discriminator 8
 1297 0a04 7B69     	 ldr r3,[r7,#20]
 1298 0a06 0833     	 adds r3,r3,#8
 1299 0a08 864A     	 ldr r2,.L265+8
 1300 0a0a 1344     	 add r3,r3,r2
 1301 0a0c 93F83023 	 ldrb r2,[r3,#816]
 1302 0a10 824B     	 ldr r3,.L265
 1303 0a12 83F85F27 	 strb r2,[r3,#1887]
 401:../Simulink/Subsystem_Transmission.c ****     /* Logic: '<S146>/Logical Operator3' */
 402:../Simulink/Subsystem_Transmission.c ****     /*@>26183*/VCU_B./*@>29955*/LogicalOperator3_e/*@>772b*/ = ((/*@>26189*/VCU_B./*@>29958*/STW_sh
 1304              	 .loc 1 402 0 discriminator 8
 1305 0a16 814B     	 ldr r3,.L265
 1306 0a18 03F59C63 	 add r3,r3,#1248
 1307 0a1c D3E90023 	 ldrd r2,[r3]
 1308 0a20 1046     	 mov r0,r2
 1309 0a22 1946     	 mov r1,r3
 1310 0a24 4FF00002 	 mov r2,#0
 1311 0a28 4FF00003 	 mov r3,#0
 1312 0a2c FFF7FEFF 	 bl __aeabi_dcmpeq
 1313 0a30 0346     	 mov r3,r0
 1314 0a32 002B     	 cmp r3,#0
 1315 0a34 04D0     	 beq .L54
 1316              	 .loc 1 402 0 is_stmt 0 discriminator 2
 1317 0a36 794B     	 ldr r3,.L265
 1318 0a38 93F85E37 	 ldrb r3,[r3,#1886]
 1319 0a3c 002B     	 cmp r3,#0
 1320 0a3e 01D0     	 beq .L55
 1321              	.L54:
 1322              	 .loc 1 402 0 discriminator 3
 1323 0a40 0123     	 movs r3,#1
 1324 0a42 00E0     	 b .L56
 1325              	.L55:
 1326              	 .loc 1 402 0 discriminator 4
 1327 0a44 0023     	 movs r3,#0
 1328              	.L56:
 1329              	 .loc 1 402 0 discriminator 6
 1330 0a46 DAB2     	 uxtb r2,r3
 1331 0a48 744B     	 ldr r3,.L265
 1332 0a4a 83F86027 	 strb r2,[r3,#1888]
 403:../Simulink/Subsystem_Transmission.c ****     /* UnitDelay: '<S180>/Delay Input1'
 404:../Simulink/Subsystem_Transmission.c ****  *
 405:../Simulink/Subsystem_Transmission.c ****  * Block description for '<S180>/Delay Input1':
 406:../Simulink/Subsystem_Transmission.c ****  *  
 407:../Simulink/Subsystem_Transmission.c ****  *  Store in Global RAM
 408:../Simulink/Subsystem_Transmission.c ****  */
 409:../Simulink/Subsystem_Transmission.c ****     /*@>2619b*/VCU_B./*@>29961*/Uk1_d/*@>7f46*/ = /*@>26974*/VCU_DW./*@>29cc7*/DelayInput1_DSTATE_e
 1333              	 .loc 1 409 0 is_stmt 1 discriminator 6
 1334 0a4e 744B     	 ldr r3,.L265+4
 1335 0a50 93F8F920 	 ldrb r2,[r3,#249]
 1336 0a54 714B     	 ldr r3,.L265
 1337 0a56 83F86127 	 strb r2,[r3,#1889]
 410:../Simulink/Subsystem_Transmission.c ****     /* CombinatorialLogic: '<S183>/Logic' incorporates:
 411:../Simulink/Subsystem_Transmission.c ****  *  Memory: '<S183>/Memory'
 412:../Simulink/Subsystem_Transmission.c ****  *  RelationalOperator: '<S180>/FixPt Relational Operator'
 413:../Simulink/Subsystem_Transmission.c ****  */
 414:../Simulink/Subsystem_Transmission.c ****     /*@>261a1*/VCU_B./*@>29964*/FixPtRelationalOperator_i/*@>7730*/ = (/*@>22214*/(int32_T)/*@>261a
 1338              	 .loc 1 414 0 discriminator 6
 1339 0a5a 704B     	 ldr r3,.L265
 1340 0a5c 93F86027 	 ldrb r2,[r3,#1888]
 1341 0a60 6E4B     	 ldr r3,.L265
 1342 0a62 93F86137 	 ldrb r3,[r3,#1889]
 1343 0a66 9A42     	 cmp r2,r3
 1344 0a68 8CBF     	 ite hi
 1345 0a6a 0123     	 movhi r3,#1
 1346 0a6c 0023     	 movls r3,#0
 1347 0a6e DBB2     	 uxtb r3,r3
 1348 0a70 1A46     	 mov r2,r3
 1349 0a72 6A4B     	 ldr r3,.L265
 1350 0a74 83F86227 	 strb r2,[r3,#1890]
 415:../Simulink/Subsystem_Transmission.c ****     /*@>261b3*/VCU_B./*@>2996d*/Memory_ig/*@>7732*/ = /*@>26998*/VCU_DW./*@>29cd6*/Memory_PreviousI
 1351              	 .loc 1 415 0 discriminator 6
 1352 0a78 694B     	 ldr r3,.L265+4
 1353 0a7a 93F84421 	 ldrb r2,[r3,#324]
 1354 0a7e 674B     	 ldr r3,.L265
 1355 0a80 83F86327 	 strb r2,[r3,#1891]
 416:../Simulink/Subsystem_Transmission.c ****     /*@>2190c*/rowIdx/*@>1f39e*/ = /*@>261bf*/VCU_B./*@>29973*/FixPtRelationalOperator_i;
 1356              	 .loc 1 416 0 discriminator 6
 1357 0a84 654B     	 ldr r3,.L265
 1358 0a86 93F86237 	 ldrb r3,[r3,#1890]
 1359 0a8a 7B61     	 str r3,[r7,#20]
 417:../Simulink/Subsystem_Transmission.c ****     /*@>21910*/rowIdx/*@>1f3c5*/ = /*@>22241*/(int32_T)((/*@>2223e*/(uint32_T)/*@>21912*/rowIdx/*@>
 1360              	 .loc 1 417 0 discriminator 6
 1361 0a8c 7B69     	 ldr r3,[r7,#20]
 1362 0a8e 5B00     	 lsls r3,r3,#1
 1363 0a90 624A     	 ldr r2,.L265
 1364 0a92 92F85B27 	 ldrb r2,[r2,#1883]
 1365 0a96 1344     	 add r3,r3,r2
 1366 0a98 7B61     	 str r3,[r7,#20]
 418:../Simulink/Subsystem_Transmission.c ****     /*@>21917*/rowIdx/*@>1f3ec*/ = /*@>22251*/(int32_T)((/*@>2224e*/(uint32_T)/*@>21919*/rowIdx/*@>
 1367              	 .loc 1 418 0 discriminator 6
 1368 0a9a 7B69     	 ldr r3,[r7,#20]
 1369 0a9c 5B00     	 lsls r3,r3,#1
 1370 0a9e 5F4A     	 ldr r2,.L265
 1371 0aa0 92F86327 	 ldrb r2,[r2,#1891]
 1372 0aa4 1344     	 add r3,r3,r2
 1373 0aa6 7B61     	 str r3,[r7,#20]
 419:../Simulink/Subsystem_Transmission.c ****     /*@>261fb*/VCU_B./*@>29991*/Logic_jv/*@>1f402*/[/*@>21920*/0U]/*@>1f401*/ = /*@>267a4*/VCU_Cons
 1374              	 .loc 1 419 0 discriminator 6
 1375 0aa8 7B69     	 ldr r3,[r7,#20]
 1376 0aaa 5E4A     	 ldr r2,.L265+8
 1377 0aac 1344     	 add r3,r3,r2
 1378 0aae 93F83023 	 ldrb r2,[r3,#816]
 1379 0ab2 5A4B     	 ldr r3,.L265
 1380 0ab4 83F86427 	 strb r2,[r3,#1892]
 420:../Simulink/Subsystem_Transmission.c ****     /*@>26207*/VCU_B./*@>29997*/Logic_jv/*@>1f415*/[/*@>21925*/1U]/*@>1f414*/ = /*@>267aa*/VCU_Cons
 1381              	 .loc 1 420 0 discriminator 6
 1382 0ab8 7B69     	 ldr r3,[r7,#20]
 1383 0aba 0833     	 adds r3,r3,#8
 1384 0abc 594A     	 ldr r2,.L265+8
 1385 0abe 1344     	 add r3,r3,r2
 1386 0ac0 93F83023 	 ldrb r2,[r3,#816]
 1387 0ac4 554B     	 ldr r3,.L265
 1388 0ac6 83F86527 	 strb r2,[r3,#1893]
 421:../Simulink/Subsystem_Transmission.c ****     /* CombinatorialLogic: '<S184>/Logic' incorporates:
 422:../Simulink/Subsystem_Transmission.c ****  *  S-Function (sdspcount2): '<S146>/Counter1'
 423:../Simulink/Subsystem_Transmission.c ****  */
 424:../Simulink/Subsystem_Transmission.c ****     /*@>26213*/VCU_B./*@>2999d*/Counter1_p/*@>7fa4*/ = /*@>21552*/false;
 1389              	 .loc 1 424 0 discriminator 6
 1390 0aca 544B     	 ldr r3,.L265
 1391 0acc 0022     	 movs r2,#0
 1392 0ace 83F86627 	 strb r2,[r3,#1894]
 425:../Simulink/Subsystem_Transmission.c ****     /* S-Function (sdspcount2): '<S146>/Counter1' */
 426:../Simulink/Subsystem_Transmission.c ****     /*@>7fa8*/if (/*@>2621f*/VCU_B./*@>299a3*/LogicalOperator_ny) {
 1393              	 .loc 1 426 0 discriminator 6
 1394 0ad2 524B     	 ldr r3,.L265
 1395 0ad4 93F85B37 	 ldrb r3,[r3,#1883]
 1396 0ad8 002B     	 cmp r3,#0
 1397 0ada 03D0     	 beq .L57
 427:../Simulink/Subsystem_Transmission.c ****         /*@>269aa*/VCU_DW./*@>29cdf*/Counter1_Count_k/*@>7fac*/ = /*@>28407*/0U;
 1398              	 .loc 1 427 0
 1399 0adc 504B     	 ldr r3,.L265+4
 1400 0ade 0022     	 movs r2,#0
 1401 0ae0 83F8FC20 	 strb r2,[r3,#252]
 1402              	.L57:
 428:../Simulink/Subsystem_Transmission.c ****     }
 429:../Simulink/Subsystem_Transmission.c ****     /*@>7fc2*/if (/*@>26231*/VCU_B./*@>299ac*/Logic_jv/*@>24f57*/[/*@>24f54*/0]) {
 1403              	 .loc 1 429 0
 1404 0ae4 4D4B     	 ldr r3,.L265
 1405 0ae6 93F86437 	 ldrb r3,[r3,#1892]
 1406 0aea 002B     	 cmp r3,#0
 1407 0aec 11D0     	 beq .L58
 430:../Simulink/Subsystem_Transmission.c ****         /*@>1ec86*/if (/*@>269b0*/VCU_DW./*@>29ce2*/Counter1_Count_k/*@>7fc7*/ < /*@>217a3*/60) {
 1408              	 .loc 1 430 0
 1409 0aee 4C4B     	 ldr r3,.L265+4
 1410 0af0 93F8FC30 	 ldrb r3,[r3,#252]
 1411 0af4 3B2B     	 cmp r3,#59
 1412 0af6 08D8     	 bhi .L59
 431:../Simulink/Subsystem_Transmission.c ****             /*@>269c2*/VCU_DW./*@>29ceb*/Counter1_Count_k/*@>28454*/++;
 1413              	 .loc 1 431 0
 1414 0af8 494B     	 ldr r3,.L265+4
 1415 0afa 93F8FC30 	 ldrb r3,[r3,#252]
 1416 0afe 0133     	 adds r3,r3,#1
 1417 0b00 DAB2     	 uxtb r2,r3
 1418 0b02 474B     	 ldr r3,.L265+4
 1419 0b04 83F8FC20 	 strb r2,[r3,#252]
 1420 0b08 03E0     	 b .L58
 1421              	.L59:
 432:../Simulink/Subsystem_Transmission.c ****         } else {
 433:../Simulink/Subsystem_Transmission.c ****             /*@>269bc*/VCU_DW./*@>29ce8*/Counter1_Count_k/*@>7fce*/ = /*@>2840a*/0U;
 1422              	 .loc 1 433 0
 1423 0b0a 454B     	 ldr r3,.L265+4
 1424 0b0c 0022     	 movs r2,#0
 1425 0b0e 83F8FC20 	 strb r2,[r3,#252]
 1426              	.L58:
 434:../Simulink/Subsystem_Transmission.c ****         }
 435:../Simulink/Subsystem_Transmission.c ****     }
 436:../Simulink/Subsystem_Transmission.c ****     /*@>7fe0*/if (/*@>269b6*/VCU_DW./*@>29ce5*/Counter1_Count_k/*@>7fdf*/ == /*@>217a5*/1) {
 1427              	 .loc 1 436 0
 1428 0b12 434B     	 ldr r3,.L265+4
 1429 0b14 93F8FC30 	 ldrb r3,[r3,#252]
 1430 0b18 012B     	 cmp r3,#1
 1431 0b1a 03D1     	 bne .L60
 437:../Simulink/Subsystem_Transmission.c ****         /* CombinatorialLogic: '<S184>/Logic' */
 438:../Simulink/Subsystem_Transmission.c ****         /*@>2624f*/VCU_B./*@>299bb*/Counter1_p/*@>7fe4*/ = /*@>21561*/true;
 1432              	 .loc 1 438 0
 1433 0b1c 3F4B     	 ldr r3,.L265
 1434 0b1e 0122     	 movs r2,#1
 1435 0b20 83F86627 	 strb r2,[r3,#1894]
 1436              	.L60:
 439:../Simulink/Subsystem_Transmission.c ****     }
 440:../Simulink/Subsystem_Transmission.c ****     /* UnitDelay: '<S182>/Delay Input1'
 441:../Simulink/Subsystem_Transmission.c ****  *
 442:../Simulink/Subsystem_Transmission.c ****  * Block description for '<S182>/Delay Input1':
 443:../Simulink/Subsystem_Transmission.c ****  *  
 444:../Simulink/Subsystem_Transmission.c ****  *  Store in Global RAM
 445:../Simulink/Subsystem_Transmission.c ****  */
 446:../Simulink/Subsystem_Transmission.c ****     /*@>2625b*/VCU_B./*@>299c1*/Uk1_e/*@>8027*/ = /*@>269ce*/VCU_DW./*@>29cee*/DelayInput1_DSTATE_b
 1437              	 .loc 1 446 0
 1438 0b24 3E4B     	 ldr r3,.L265+4
 1439 0b26 93F8C020 	 ldrb r2,[r3,#192]
 1440 0b2a 3C4B     	 ldr r3,.L265
 1441 0b2c 83F88C26 	 strb r2,[r3,#1676]
 447:../Simulink/Subsystem_Transmission.c ****     /* RelationalOperator: '<S182>/FixPt Relational Operator' */
 448:../Simulink/Subsystem_Transmission.c ****     /*@>26261*/VCU_B./*@>299c4*/FixPtRelationalOperator_ia/*@>7739*/ = (/*@>26267*/VCU_B./*@>299c7*
 1442              	 .loc 1 448 0
 1443 0b30 3A4B     	 ldr r3,.L265
 1444 0b32 93F88A26 	 ldrb r2,[r3,#1674]
 1445 0b36 394B     	 ldr r3,.L265
 1446 0b38 93F88C36 	 ldrb r3,[r3,#1676]
 1447 0b3c 9A42     	 cmp r2,r3
 1448 0b3e 8CBF     	 ite hi
 1449 0b40 0123     	 movhi r3,#1
 1450 0b42 0023     	 movls r3,#0
 1451 0b44 DBB2     	 uxtb r3,r3
 1452 0b46 1A46     	 mov r2,r3
 1453 0b48 344B     	 ldr r3,.L265
 1454 0b4a 83F86727 	 strb r2,[r3,#1895]
 449:../Simulink/Subsystem_Transmission.c ****     /* CombinatorialLogic: '<S184>/Logic' incorporates:
 450:../Simulink/Subsystem_Transmission.c ****  *  Logic: '<S146>/Logical Operator2'
 451:../Simulink/Subsystem_Transmission.c ****  *  Memory: '<S184>/Memory'
 452:../Simulink/Subsystem_Transmission.c ****  */
 453:../Simulink/Subsystem_Transmission.c ****     /*@>26279*/VCU_B./*@>299d0*/LogicalOperator2_c/*@>773f*/ = (/*@>2627f*/VCU_B./*@>299d3*/Logical
 1455              	 .loc 1 453 0
 1456 0b4e 334B     	 ldr r3,.L265
 1457 0b50 93F85B37 	 ldrb r3,[r3,#1883]
 1458 0b54 002B     	 cmp r3,#0
 1459 0b56 04D1     	 bne .L61
 1460              	 .loc 1 453 0 is_stmt 0 discriminator 2
 1461 0b58 304B     	 ldr r3,.L265
 1462 0b5a 93F86737 	 ldrb r3,[r3,#1895]
 1463 0b5e 002B     	 cmp r3,#0
 1464 0b60 01D0     	 beq .L62
 1465              	.L61:
 1466              	 .loc 1 453 0 discriminator 3
 1467 0b62 0123     	 movs r3,#1
 1468 0b64 00E0     	 b .L63
 1469              	.L62:
 1470              	 .loc 1 453 0 discriminator 4
 1471 0b66 0023     	 movs r3,#0
 1472              	.L63:
 1473              	 .loc 1 453 0 discriminator 6
 1474 0b68 DAB2     	 uxtb r2,r3
 1475 0b6a 2C4B     	 ldr r3,.L265
 1476 0b6c 83F86827 	 strb r2,[r3,#1896]
 454:../Simulink/Subsystem_Transmission.c ****     /*@>2628b*/VCU_B./*@>299d9*/Memory_py/*@>7741*/ = /*@>269e0*/VCU_DW./*@>29cf7*/Memory_PreviousI
 1477              	 .loc 1 454 0 is_stmt 1 discriminator 6
 1478 0b70 2B4B     	 ldr r3,.L265+4
 1479 0b72 93F84521 	 ldrb r2,[r3,#325]
 1480 0b76 294B     	 ldr r3,.L265
 1481 0b78 83F86927 	 strb r2,[r3,#1897]
 455:../Simulink/Subsystem_Transmission.c ****     /*@>21944*/rowIdx/*@>1f4ec*/ = /*@>26291*/VCU_B./*@>299dc*/Counter1_p;
 1482              	 .loc 1 455 0 discriminator 6
 1483 0b7c 274B     	 ldr r3,.L265
 1484 0b7e 93F86637 	 ldrb r3,[r3,#1894]
 1485 0b82 7B61     	 str r3,[r7,#20]
 456:../Simulink/Subsystem_Transmission.c ****     /*@>21948*/rowIdx/*@>1f513*/ = /*@>222e4*/(int32_T)((/*@>222e1*/(uint32_T)/*@>2194a*/rowIdx/*@>
 1486              	 .loc 1 456 0 discriminator 6
 1487 0b84 7B69     	 ldr r3,[r7,#20]
 1488 0b86 5B00     	 lsls r3,r3,#1
 1489 0b88 244A     	 ldr r2,.L265
 1490 0b8a 92F86827 	 ldrb r2,[r2,#1896]
 1491 0b8e 1344     	 add r3,r3,r2
 1492 0b90 7B61     	 str r3,[r7,#20]
 457:../Simulink/Subsystem_Transmission.c ****     /*@>2194f*/rowIdx/*@>1f53a*/ = /*@>222ee*/(int32_T)((/*@>222eb*/(uint32_T)/*@>21951*/rowIdx/*@>
 1493              	 .loc 1 457 0 discriminator 6
 1494 0b92 7B69     	 ldr r3,[r7,#20]
 1495 0b94 5B00     	 lsls r3,r3,#1
 1496 0b96 214A     	 ldr r2,.L265
 1497 0b98 92F86927 	 ldrb r2,[r2,#1897]
 1498 0b9c 1344     	 add r3,r3,r2
 1499 0b9e 7B61     	 str r3,[r7,#20]
 458:../Simulink/Subsystem_Transmission.c ****     /*@>262b5*/VCU_B./*@>299ee*/Logic_p/*@>1f550*/[/*@>21958*/0U]/*@>1f54f*/ = /*@>267bc*/VCU_Const
 1500              	 .loc 1 458 0 discriminator 6
 1501 0ba0 7B69     	 ldr r3,[r7,#20]
 1502 0ba2 204A     	 ldr r2,.L265+8
 1503 0ba4 1344     	 add r3,r3,r2
 1504 0ba6 93F83023 	 ldrb r2,[r3,#816]
 1505 0baa 1C4B     	 ldr r3,.L265
 1506 0bac 83F86A27 	 strb r2,[r3,#1898]
 459:../Simulink/Subsystem_Transmission.c ****     /*@>262bb*/VCU_B./*@>299f1*/Logic_p/*@>1f563*/[/*@>2195d*/1U]/*@>1f562*/ = /*@>267c2*/VCU_Const
 1507              	 .loc 1 459 0 discriminator 6
 1508 0bb0 7B69     	 ldr r3,[r7,#20]
 1509 0bb2 0833     	 adds r3,r3,#8
 1510 0bb4 1B4A     	 ldr r2,.L265+8
 1511 0bb6 1344     	 add r3,r3,r2
 1512 0bb8 93F83023 	 ldrb r2,[r3,#816]
 1513 0bbc 174B     	 ldr r3,.L265
 1514 0bbe 83F86B27 	 strb r2,[r3,#1899]
 460:../Simulink/Subsystem_Transmission.c ****     /* DataTypeConversion: '<S137>/Data Type Conversion12' */
 461:../Simulink/Subsystem_Transmission.c ****     /*@>262c7*/VCU_B./*@>299f7*/Ignition_Cut_d/*@>7745*/ = /*@>262cd*/VCU_B./*@>299fa*/Logic_p/*@>2
 1515              	 .loc 1 461 0 discriminator 6
 1516 0bc2 164B     	 ldr r3,.L265
 1517 0bc4 93F86A37 	 ldrb r3,[r3,#1898]
 1518 0bc8 1846     	 mov r0,r3
 1519 0bca FFF7FEFF 	 bl __aeabi_ui2d
 1520 0bce 0246     	 mov r2,r0
 1521 0bd0 0B46     	 mov r3,r1
 1522 0bd2 1249     	 ldr r1,.L265
 1523 0bd4 C1E97223 	 strd r2,[r1,#456]
 462:../Simulink/Subsystem_Transmission.c ****     /* S-Function (sdspcount2): '<S145>/Counter' */
 463:../Simulink/Subsystem_Transmission.c ****     /*@>262d3*/VCU_B./*@>299fd*/Counter_f/*@>8085*/ = /*@>2156a*/false;
 1524              	 .loc 1 463 0 discriminator 6
 1525 0bd8 104B     	 ldr r3,.L265
 1526 0bda 0022     	 movs r2,#0
 1527 0bdc 83F86C27 	 strb r2,[r3,#1900]
 464:../Simulink/Subsystem_Transmission.c ****     /*@>8089*/if (/*@>262d9*/VCU_B./*@>29a00*/LogicalOperator_n) {
 1528              	 .loc 1 464 0 discriminator 6
 1529 0be0 0E4B     	 ldr r3,.L265
 1530 0be2 93F84737 	 ldrb r3,[r3,#1863]
 1531 0be6 002B     	 cmp r3,#0
 1532 0be8 03D0     	 beq .L64
 465:../Simulink/Subsystem_Transmission.c ****         /*@>26a22*/VCU_DW./*@>29d12*/Counter_Count_m/*@>808d*/ = /*@>28419*/0U;
 1533              	 .loc 1 465 0
 1534 0bea 0D4B     	 ldr r3,.L265+4
 1535 0bec 0022     	 movs r2,#0
 1536 0bee A3F89E20 	 strh r2,[r3,#158]
 1537              	.L64:
 466:../Simulink/Subsystem_Transmission.c ****     }
 467:../Simulink/Subsystem_Transmission.c ****     /*@>80a3*/if (/*@>262f1*/VCU_B./*@>29a0c*/Logic_c/*@>24f8e*/[/*@>24f8b*/0]) {
 1538              	 .loc 1 467 0
 1539 0bf2 0A4B     	 ldr r3,.L265
 1540 0bf4 93F83737 	 ldrb r3,[r3,#1847]
 1541 0bf8 002B     	 cmp r3,#0
 1542 0bfa 19D0     	 beq .L65
 468:../Simulink/Subsystem_Transmission.c ****         /*@>1ec90*/if (/*@>26a2e*/VCU_DW./*@>29d18*/Counter_Count_m/*@>80a8*/ < /*@>217b1*/500) {
 1543              	 .loc 1 468 0
 1544 0bfc 084B     	 ldr r3,.L265+4
 1545 0bfe B3F89E30 	 ldrh r3,[r3,#158]
 1546 0c02 B3F5FA7F 	 cmp r3,#500
 1547 0c06 0FD2     	 bcs .L66
 469:../Simulink/Subsystem_Transmission.c ****             /*@>26a40*/VCU_DW./*@>29d21*/Counter_Count_m/*@>28457*/++;
 1548              	 .loc 1 469 0
 1549 0c08 054B     	 ldr r3,.L265+4
 1550 0c0a B3F89E30 	 ldrh r3,[r3,#158]
 1551 0c0e 0133     	 adds r3,r3,#1
 1552 0c10 9AB2     	 uxth r2,r3
 1553 0c12 034B     	 ldr r3,.L265+4
 1554 0c14 A3F89E20 	 strh r2,[r3,#158]
 1555 0c18 0AE0     	 b .L65
 1556              	.L266:
 1557 0c1a 00BF     	 .align 2
 1558              	.L265:
 1559 0c1c 00000000 	 .word VCU_B
 1560 0c20 00000000 	 .word VCU_DW
 1561 0c24 00000000 	 .word VCU_ConstP
 1562              	.L66:
 470:../Simulink/Subsystem_Transmission.c ****         } else {
 471:../Simulink/Subsystem_Transmission.c ****             /*@>26a3a*/VCU_DW./*@>29d1e*/Counter_Count_m/*@>80af*/ = /*@>2841c*/0U;
 1563              	 .loc 1 471 0
 1564 0c28 A04B     	 ldr r3,.L267
 1565 0c2a 0022     	 movs r2,#0
 1566 0c2c A3F89E20 	 strh r2,[r3,#158]
 1567              	.L65:
 472:../Simulink/Subsystem_Transmission.c ****         }
 473:../Simulink/Subsystem_Transmission.c ****     }
 474:../Simulink/Subsystem_Transmission.c ****     /*@>80c1*/if (/*@>26a34*/VCU_DW./*@>29d1b*/Counter_Count_m/*@>80c0*/ == /*@>217b5*/500) {
 1568              	 .loc 1 474 0
 1569 0c30 9E4B     	 ldr r3,.L267
 1570 0c32 B3F89E30 	 ldrh r3,[r3,#158]
 1571 0c36 B3F5FA7F 	 cmp r3,#500
 1572 0c3a 03D1     	 bne .L67
 475:../Simulink/Subsystem_Transmission.c ****         /*@>26315*/VCU_B./*@>29a1e*/Counter_f/*@>80c5*/ = /*@>21579*/true;
 1573              	 .loc 1 475 0
 1574 0c3c 9C4B     	 ldr r3,.L267+4
 1575 0c3e 0122     	 movs r2,#1
 1576 0c40 83F86C27 	 strb r2,[r3,#1900]
 1577              	.L67:
 476:../Simulink/Subsystem_Transmission.c ****     }
 477:../Simulink/Subsystem_Transmission.c ****     /* End of S-Function (sdspcount2): '<S145>/Counter' */
 478:../Simulink/Subsystem_Transmission.c **** 
 479:../Simulink/Subsystem_Transmission.c ****     /* S-Function (sdspcount2): '<S146>/Counter' */
 480:../Simulink/Subsystem_Transmission.c ****     /*@>26327*/VCU_B./*@>29a27*/Counter_g/*@>810a*/ = /*@>2157e*/false;
 1578              	 .loc 1 480 0
 1579 0c44 9A4B     	 ldr r3,.L267+4
 1580 0c46 0022     	 movs r2,#0
 1581 0c48 83F86D27 	 strb r2,[r3,#1901]
 481:../Simulink/Subsystem_Transmission.c ****     /*@>810e*/if (/*@>2632d*/VCU_B./*@>29a2a*/LogicalOperator_ny) {
 1582              	 .loc 1 481 0
 1583 0c4c 984B     	 ldr r3,.L267+4
 1584 0c4e 93F85B37 	 ldrb r3,[r3,#1883]
 1585 0c52 002B     	 cmp r3,#0
 1586 0c54 03D0     	 beq .L68
 482:../Simulink/Subsystem_Transmission.c ****         /*@>26a4c*/VCU_DW./*@>29d24*/Counter_Count_a/*@>8112*/ = /*@>2841f*/0U;
 1587              	 .loc 1 482 0
 1588 0c56 954B     	 ldr r3,.L267
 1589 0c58 0022     	 movs r2,#0
 1590 0c5a 83F8FD20 	 strb r2,[r3,#253]
 1591              	.L68:
 483:../Simulink/Subsystem_Transmission.c ****     }
 484:../Simulink/Subsystem_Transmission.c ****     /*@>8128*/if (/*@>2635d*/VCU_B./*@>29a42*/Logic_jv/*@>24f98*/[/*@>24f95*/0]) {
 1592              	 .loc 1 484 0
 1593 0c5e 944B     	 ldr r3,.L267+4
 1594 0c60 93F86437 	 ldrb r3,[r3,#1892]
 1595 0c64 002B     	 cmp r3,#0
 1596 0c66 11D0     	 beq .L69
 485:../Simulink/Subsystem_Transmission.c ****         /*@>1ec9f*/if (/*@>26a52*/VCU_DW./*@>29d27*/Counter_Count_a/*@>812d*/ < /*@>217b8*/200) {
 1597              	 .loc 1 485 0
 1598 0c68 904B     	 ldr r3,.L267
 1599 0c6a 93F8FD30 	 ldrb r3,[r3,#253]
 1600 0c6e C72B     	 cmp r3,#199
 1601 0c70 08D8     	 bhi .L70
 486:../Simulink/Subsystem_Transmission.c ****             /*@>26a64*/VCU_DW./*@>29d30*/Counter_Count_a/*@>28458*/++;
 1602              	 .loc 1 486 0
 1603 0c72 8E4B     	 ldr r3,.L267
 1604 0c74 93F8FD30 	 ldrb r3,[r3,#253]
 1605 0c78 0133     	 adds r3,r3,#1
 1606 0c7a DAB2     	 uxtb r2,r3
 1607 0c7c 8B4B     	 ldr r3,.L267
 1608 0c7e 83F8FD20 	 strb r2,[r3,#253]
 1609 0c82 03E0     	 b .L69
 1610              	.L70:
 487:../Simulink/Subsystem_Transmission.c ****         } else {
 488:../Simulink/Subsystem_Transmission.c ****             /*@>26a5e*/VCU_DW./*@>29d2d*/Counter_Count_a/*@>8134*/ = /*@>28422*/0U;
 1611              	 .loc 1 488 0
 1612 0c84 894B     	 ldr r3,.L267
 1613 0c86 0022     	 movs r2,#0
 1614 0c88 83F8FD20 	 strb r2,[r3,#253]
 1615              	.L69:
 489:../Simulink/Subsystem_Transmission.c ****         }
 490:../Simulink/Subsystem_Transmission.c ****     }
 491:../Simulink/Subsystem_Transmission.c ****     /*@>8146*/if (/*@>26a58*/VCU_DW./*@>29d2a*/Counter_Count_a/*@>8145*/ == /*@>217bd*/180) {
 1616              	 .loc 1 491 0
 1617 0c8c 874B     	 ldr r3,.L267
 1618 0c8e 93F8FD30 	 ldrb r3,[r3,#253]
 1619 0c92 B42B     	 cmp r3,#180
 1620 0c94 03D1     	 bne .L71
 492:../Simulink/Subsystem_Transmission.c ****         /*@>2636f*/VCU_B./*@>29a4b*/Counter_g/*@>814a*/ = /*@>2158d*/true;
 1621              	 .loc 1 492 0
 1622 0c96 864B     	 ldr r3,.L267+4
 1623 0c98 0122     	 movs r2,#1
 1624 0c9a 83F86D27 	 strb r2,[r3,#1901]
 1625              	.L71:
 493:../Simulink/Subsystem_Transmission.c ****     }
 494:../Simulink/Subsystem_Transmission.c ****     /* End of S-Function (sdspcount2): '<S146>/Counter' */
 495:../Simulink/Subsystem_Transmission.c **** 
 496:../Simulink/Subsystem_Transmission.c ****     /* DataTypeConversion: '<S137>/Data Type Conversion21' */
 497:../Simulink/Subsystem_Transmission.c ****     /*@>26381*/VCU_B./*@>29a54*/VOVG_ShiftUp_oi/*@>774a*/ = /*@>26387*/VCU_B./*@>29a57*/Logic_jv/*@
 1626              	 .loc 1 497 0
 1627 0c9e 844B     	 ldr r3,.L267+4
 1628 0ca0 93F86437 	 ldrb r3,[r3,#1892]
 1629 0ca4 1846     	 mov r0,r3
 1630 0ca6 FFF7FEFF 	 bl __aeabi_ui2d
 1631 0caa 0246     	 mov r2,r0
 1632 0cac 0B46     	 mov r3,r1
 1633 0cae 8049     	 ldr r1,.L267+4
 1634 0cb0 C1E97423 	 strd r2,[r1,#464]
 498:../Simulink/Subsystem_Transmission.c ****     /* UnitDelay: '<S171>/Delay Input1'
 499:../Simulink/Subsystem_Transmission.c ****  *
 500:../Simulink/Subsystem_Transmission.c ****  * Block description for '<S171>/Delay Input1':
 501:../Simulink/Subsystem_Transmission.c ****  *  
 502:../Simulink/Subsystem_Transmission.c ****  *  Store in Global RAM
 503:../Simulink/Subsystem_Transmission.c ****  */
 504:../Simulink/Subsystem_Transmission.c ****     /*@>26399*/VCU_B./*@>29a60*/Uk1_m1/*@>818d*/ = /*@>26a70*/VCU_DW./*@>29d33*/DelayInput1_DSTATE_
 1635              	 .loc 1 504 0
 1636 0cb4 7D4B     	 ldr r3,.L267
 1637 0cb6 93F8C120 	 ldrb r2,[r3,#193]
 1638 0cba 7D4B     	 ldr r3,.L267+4
 1639 0cbc 83F88D26 	 strb r2,[r3,#1677]
 505:../Simulink/Subsystem_Transmission.c ****     /* RelationalOperator: '<S171>/FixPt Relational Operator' */
 506:../Simulink/Subsystem_Transmission.c ****     /*@>263b1*/VCU_B./*@>29a6c*/FixPtRelationalOperator_o/*@>774f*/ = (/*@>263b7*/VCU_B./*@>29a6f*/
 1640              	 .loc 1 506 0
 1641 0cc0 7B4B     	 ldr r3,.L267+4
 1642 0cc2 93F88926 	 ldrb r2,[r3,#1673]
 1643 0cc6 7A4B     	 ldr r3,.L267+4
 1644 0cc8 93F88D36 	 ldrb r3,[r3,#1677]
 1645 0ccc 9A42     	 cmp r2,r3
 1646 0cce 34BF     	 ite cc
 1647 0cd0 0123     	 movcc r3,#1
 1648 0cd2 0023     	 movcs r3,#0
 1649 0cd4 DBB2     	 uxtb r3,r3
 1650 0cd6 1A46     	 mov r2,r3
 1651 0cd8 754B     	 ldr r3,.L267+4
 1652 0cda 83F86E27 	 strb r2,[r3,#1902]
 507:../Simulink/Subsystem_Transmission.c ****     /* Switch: '<S140>/Switch' */
 508:../Simulink/Subsystem_Transmission.c ****     /*@>1eca4*/if (/*@>263cf*/VCU_B./*@>29a7b*/Logic_c/*@>24fa2*/[/*@>24f9f*/0]) {
 1653              	 .loc 1 508 0
 1654 0cde 744B     	 ldr r3,.L267+4
 1655 0ce0 93F83737 	 ldrb r3,[r3,#1847]
 1656 0ce4 002B     	 cmp r3,#0
 1657 0ce6 06D0     	 beq .L72
 509:../Simulink/Subsystem_Transmission.c ****         /* MinMax: '<S140>/MinMax' incorporates:
 510:../Simulink/Subsystem_Transmission.c ****  *  Constant: '<S140>/Constant'
 511:../Simulink/Subsystem_Transmission.c ****  */
 512:../Simulink/Subsystem_Transmission.c ****         /*@>263e7*/VCU_B./*@>29a87*/Switch_h/*@>1eca7*/ = /*@>217b6*/20.0;
 1658              	 .loc 1 512 0
 1659 0ce8 7149     	 ldr r1,.L267+4
 1660 0cea 4FF00002 	 mov r2,#0
 1661 0cee 714B     	 ldr r3,.L267+8
 1662 0cf0 C1E97623 	 strd r2,[r1,#472]
 1663 0cf4 06E0     	 b .L73
 1664              	.L72:
 513:../Simulink/Subsystem_Transmission.c ****     } else {
 514:../Simulink/Subsystem_Transmission.c ****         /* MinMax: '<S140>/MinMax' incorporates:
 515:../Simulink/Subsystem_Transmission.c ****  *  Constant: '<S140>/Constant1'
 516:../Simulink/Subsystem_Transmission.c ****  */
 517:../Simulink/Subsystem_Transmission.c ****         /*@>263e1*/VCU_B./*@>29a84*/Switch_h/*@>819d*/ = /*@>217b7*/0.0;
 1665              	 .loc 1 517 0
 1666 0cf6 6E49     	 ldr r1,.L267+4
 1667 0cf8 4FF00002 	 mov r2,#0
 1668 0cfc 4FF00003 	 mov r3,#0
 1669 0d00 C1E97623 	 strd r2,[r1,#472]
 1670              	.L73:
 518:../Simulink/Subsystem_Transmission.c ****     }
 519:../Simulink/Subsystem_Transmission.c ****     /* End of Switch: '<S140>/Switch' */
 520:../Simulink/Subsystem_Transmission.c **** 
 521:../Simulink/Subsystem_Transmission.c ****     /* MinMax: '<S140>/MinMax' */
 522:../Simulink/Subsystem_Transmission.c ****     /*@>224df*/if ((/*@>2640b*/VCU_B./*@>29a99*/x_clutch_STW/*@>224d8*/ > /*@>26411*/VCU_B./*@>29a9
 1671              	 .loc 1 522 0
 1672 0d04 6A4B     	 ldr r3,.L267+4
 1673 0d06 03F59A63 	 add r3,r3,#1232
 1674 0d0a D3E90001 	 ldrd r0,[r3]
 1675 0d0e 684B     	 ldr r3,.L267+4
 1676 0d10 D3E97623 	 ldrd r2,[r3,#472]
 1677 0d14 FFF7FEFF 	 bl __aeabi_dcmpgt
 1678 0d18 0346     	 mov r3,r0
 1679 0d1a 002B     	 cmp r3,#0
 1680 0d1c 09D1     	 bne .L74
 1681              	 .loc 1 522 0 is_stmt 0 discriminator 1
 1682 0d1e 644B     	 ldr r3,.L267+4
 1683 0d20 D3E97623 	 ldrd r2,[r3,#472]
 1684 0d24 1046     	 mov r0,r2
 1685 0d26 1946     	 mov r1,r3
 1686 0d28 FFF7FEFF 	 bl rtIsNaN
 1687 0d2c 0346     	 mov r3,r0
 1688 0d2e 002B     	 cmp r3,#0
 1689 0d30 08D0     	 beq .L75
 1690              	.L74:
 523:../Simulink/Subsystem_Transmission.c ****         /*@>2642f*/VCU_B./*@>29aab*/MinMax_n/*@>224e1*/ = /*@>26435*/VCU_B./*@>29aae*/x_clutch_STW;
 1691              	 .loc 1 523 0 is_stmt 1
 1692 0d32 5F4B     	 ldr r3,.L267+4
 1693 0d34 03F59A63 	 add r3,r3,#1232
 1694 0d38 D3E90023 	 ldrd r2,[r3]
 1695 0d3c 5C49     	 ldr r1,.L267+4
 1696 0d3e C1E97823 	 strd r2,[r1,#480]
 1697 0d42 05E0     	 b .L76
 1698              	.L75:
 524:../Simulink/Subsystem_Transmission.c ****     } else {
 525:../Simulink/Subsystem_Transmission.c ****         /*@>26423*/VCU_B./*@>29aa5*/MinMax_n/*@>224de*/ = /*@>26429*/VCU_B./*@>29aa8*/Switch_h;
 1699              	 .loc 1 525 0
 1700 0d44 5A4B     	 ldr r3,.L267+4
 1701 0d46 D3E97623 	 ldrd r2,[r3,#472]
 1702 0d4a 5949     	 ldr r1,.L267+4
 1703 0d4c C1E97823 	 strd r2,[r1,#480]
 1704              	.L76:
 526:../Simulink/Subsystem_Transmission.c ****     }
 527:../Simulink/Subsystem_Transmission.c ****     /*@>22517*/if (!/*@<2421b*/(/*@>26447*/VCU_B./*@>29ab7*/MinMax_n/*@>22510*/ > /*@>22756*/0.0)) 
 1705              	 .loc 1 527 0
 1706 0d50 574B     	 ldr r3,.L267+4
 1707 0d52 D3E97823 	 ldrd r2,[r3,#480]
 1708 0d56 0121     	 movs r1,#1
 1709 0d58 0C46     	 mov r4,r1
 1710 0d5a 1046     	 mov r0,r2
 1711 0d5c 1946     	 mov r1,r3
 1712 0d5e 4FF00002 	 mov r2,#0
 1713 0d62 4FF00003 	 mov r3,#0
 1714 0d66 FFF7FEFF 	 bl __aeabi_dcmpgt
 1715 0d6a 0346     	 mov r3,r0
 1716 0d6c 002B     	 cmp r3,#0
 1717 0d6e 01D1     	 bne .L77
 1718 0d70 0023     	 movs r3,#0
 1719 0d72 1C46     	 mov r4,r3
 1720              	.L77:
 1721 0d74 E3B2     	 uxtb r3,r4
 1722 0d76 83F00103 	 eor r3,r3,#1
 1723 0d7a DBB2     	 uxtb r3,r3
 1724 0d7c 002B     	 cmp r3,#0
 1725 0d7e 06D0     	 beq .L78
 528:../Simulink/Subsystem_Transmission.c ****         /*@>2645f*/VCU_B./*@>29ac3*/MinMax_n/*@>22516*/ = /*@>2275a*/0.0;
 1726              	 .loc 1 528 0
 1727 0d80 4B49     	 ldr r1,.L267+4
 1728 0d82 4FF00002 	 mov r2,#0
 1729 0d86 4FF00003 	 mov r3,#0
 1730 0d8a C1E97823 	 strd r2,[r1,#480]
 1731              	.L78:
 529:../Simulink/Subsystem_Transmission.c ****     }
 530:../Simulink/Subsystem_Transmission.c ****     /* RelationalOperator: '<S149>/Compare' incorporates:
 531:../Simulink/Subsystem_Transmission.c ****  *  Constant: '<S149>/Constant'
 532:../Simulink/Subsystem_Transmission.c ****  */
 533:../Simulink/Subsystem_Transmission.c ****     /*@>26471*/VCU_B./*@>29acc*/Compare_gr/*@>7755*/ = (/*@>26477*/VCU_B./*@>29acf*/MinMax_n/*@>775
 1732              	 .loc 1 533 0
 1733 0d8e 484B     	 ldr r3,.L267+4
 1734 0d90 D3E97823 	 ldrd r2,[r3,#480]
 1735 0d94 0121     	 movs r1,#1
 1736 0d96 0C46     	 mov r4,r1
 1737 0d98 1046     	 mov r0,r2
 1738 0d9a 1946     	 mov r1,r3
 1739 0d9c 4FF00002 	 mov r2,#0
 1740 0da0 454B     	 ldr r3,.L267+12
 1741 0da2 FFF7FEFF 	 bl __aeabi_dcmpgt
 1742 0da6 0346     	 mov r3,r0
 1743 0da8 002B     	 cmp r3,#0
 1744 0daa 01D1     	 bne .L79
 1745 0dac 0023     	 movs r3,#0
 1746 0dae 1C46     	 mov r4,r3
 1747              	.L79:
 1748 0db0 E3B2     	 uxtb r3,r4
 1749 0db2 1A46     	 mov r2,r3
 1750 0db4 3E4B     	 ldr r3,.L267+4
 1751 0db6 83F86F27 	 strb r2,[r3,#1903]
 534:../Simulink/Subsystem_Transmission.c ****     /* DataTypeConversion: '<S137>/Data Type Conversion13' */
 535:../Simulink/Subsystem_Transmission.c ****     /*@>26489*/VCU_B./*@>29ad8*/VOVG_IN_g/*@>7758*/ = /*@>2648f*/VCU_B./*@>29adb*/Compare_gr;
 1752              	 .loc 1 535 0
 1753 0dba 3D4B     	 ldr r3,.L267+4
 1754 0dbc 93F86F37 	 ldrb r3,[r3,#1903]
 1755 0dc0 1846     	 mov r0,r3
 1756 0dc2 FFF7FEFF 	 bl __aeabi_ui2d
 1757 0dc6 0246     	 mov r2,r0
 1758 0dc8 0B46     	 mov r3,r1
 1759 0dca 3949     	 ldr r1,.L267+4
 1760 0dcc C1E97A23 	 strd r2,[r1,#488]
 536:../Simulink/Subsystem_Transmission.c ****     /* Sum: '<S140>/Add' */
 537:../Simulink/Subsystem_Transmission.c ****     /*@>264a7*/VCU_B./*@>29ae7*/Add_g/*@>a814*/ = /*@>264ad*/VCU_B./*@>29aea*/MinMax_n/*@>a811*/ - 
 1761              	 .loc 1 537 0
 1762 0dd0 374B     	 ldr r3,.L267+4
 1763 0dd2 D3E97801 	 ldrd r0,[r3,#480]
 1764 0dd6 364B     	 ldr r3,.L267+4
 1765 0dd8 03F5AB63 	 add r3,r3,#1368
 1766 0ddc D3E90023 	 ldrd r2,[r3]
 1767 0de0 FFF7FEFF 	 bl __aeabi_dsub
 1768 0de4 0246     	 mov r2,r0
 1769 0de6 0B46     	 mov r3,r1
 1770 0de8 3149     	 ldr r1,.L267+4
 1771 0dea C1E97C23 	 strd r2,[r1,#496]
 538:../Simulink/Subsystem_Transmission.c ****     /* RelationalOperator: '<S151>/Compare' incorporates:
 539:../Simulink/Subsystem_Transmission.c ****  *  Constant: '<S151>/Constant'
 540:../Simulink/Subsystem_Transmission.c ****  */
 541:../Simulink/Subsystem_Transmission.c ****     /*@>264c5*/VCU_B./*@>29af6*/Compare_gp/*@>7761*/ = (/*@>264cb*/VCU_B./*@>29af9*/Add_g/*@>7760*/
 1772              	 .loc 1 541 0
 1773 0dee 304B     	 ldr r3,.L267+4
 1774 0df0 D3E97C23 	 ldrd r2,[r3,#496]
 1775 0df4 0121     	 movs r1,#1
 1776 0df6 0C46     	 mov r4,r1
 1777 0df8 1046     	 mov r0,r2
 1778 0dfa 1946     	 mov r1,r3
 1779 0dfc 4FF00002 	 mov r2,#0
 1780 0e00 2E4B     	 ldr r3,.L267+16
 1781 0e02 FFF7FEFF 	 bl __aeabi_dcmplt
 1782 0e06 0346     	 mov r3,r0
 1783 0e08 002B     	 cmp r3,#0
 1784 0e0a 01D1     	 bne .L80
 1785 0e0c 0023     	 movs r3,#0
 1786 0e0e 1C46     	 mov r4,r3
 1787              	.L80:
 1788 0e10 E3B2     	 uxtb r3,r4
 1789 0e12 1A46     	 mov r2,r3
 1790 0e14 264B     	 ldr r3,.L267+4
 1791 0e16 83F87027 	 strb r2,[r3,#1904]
 542:../Simulink/Subsystem_Transmission.c ****     /* Lookup_n-D: '<S140>/Duty Cycle MHJ1' */
 543:../Simulink/Subsystem_Transmission.c ****     /*@>264dd*/VCU_B./*@>29b02*/DutyCycleMHJ1_n/*@>a8de*/ = /*@>24237*/look1_binlxpw(/*@>264e3*/VCU
 1792              	 .loc 1 543 0
 1793 0e1a 254B     	 ldr r3,.L267+4
 1794 0e1c D3E97C23 	 ldrd r2,[r3,#496]
 1795 0e20 0E21     	 movs r1,#14
 1796 0e22 0091     	 str r1,[sp]
 1797 0e24 1046     	 mov r0,r2
 1798 0e26 1946     	 mov r1,r3
 1799 0e28 254A     	 ldr r2,.L267+20
 1800 0e2a 264B     	 ldr r3,.L267+24
 1801 0e2c FFF7FEFF 	 bl look1_binlxpw
 1802 0e30 0246     	 mov r2,r0
 1803 0e32 0B46     	 mov r3,r1
 1804 0e34 1E49     	 ldr r1,.L267+4
 1805 0e36 C1E97E23 	 strd r2,[r1,#504]
 544:../Simulink/Subsystem_Transmission.c ****     /* Product: '<S140>/Product1' */
 545:../Simulink/Subsystem_Transmission.c ****     /*@>264f5*/VCU_B./*@>29b0e*/Product1_f/*@>776f*/ = /*@>264fb*/VCU_B./*@>29b11*/DutyCycleMHJ1_n/
 1806              	 .loc 1 545 0
 1807 0e3a 1D4B     	 ldr r3,.L267+4
 1808 0e3c D3E97E45 	 ldrd r4,[r3,#504]
 1809 0e40 1B4B     	 ldr r3,.L267+4
 1810 0e42 93F87037 	 ldrb r3,[r3,#1904]
 1811 0e46 1846     	 mov r0,r3
 1812 0e48 FFF7FEFF 	 bl __aeabi_ui2d
 1813 0e4c 0246     	 mov r2,r0
 1814 0e4e 0B46     	 mov r3,r1
 1815 0e50 2046     	 mov r0,r4
 1816 0e52 2946     	 mov r1,r5
 1817 0e54 FFF7FEFF 	 bl __aeabi_dmul
 1818 0e58 0246     	 mov r2,r0
 1819 0e5a 0B46     	 mov r3,r1
 1820 0e5c 1449     	 ldr r1,.L267+4
 1821 0e5e C1E98023 	 strd r2,[r1,#512]
 546:../Simulink/Subsystem_Transmission.c ****     /* RelationalOperator: '<S150>/Compare' incorporates:
 547:../Simulink/Subsystem_Transmission.c ****  *  Constant: '<S150>/Constant'
 548:../Simulink/Subsystem_Transmission.c ****  */
 549:../Simulink/Subsystem_Transmission.c ****     /*@>2650d*/VCU_B./*@>29b1a*/Compare_kk/*@>7773*/ = (/*@>26513*/VCU_B./*@>29b1d*/x_clutch_b/*@>7
 1822              	 .loc 1 549 0
 1823 0e62 134B     	 ldr r3,.L267+4
 1824 0e64 03F5AB63 	 add r3,r3,#1368
 1825 0e68 D3E90023 	 ldrd r2,[r3]
 1826 0e6c 0121     	 movs r1,#1
 1827 0e6e 0C46     	 mov r4,r1
 1828 0e70 1046     	 mov r0,r2
 1829 0e72 1946     	 mov r1,r3
 1830 0e74 4FF00002 	 mov r2,#0
 1831 0e78 0E4B     	 ldr r3,.L267+8
 1832 0e7a FFF7FEFF 	 bl __aeabi_dcmpgt
 1833 0e7e 0346     	 mov r3,r0
 1834 0e80 002B     	 cmp r3,#0
 1835 0e82 01D1     	 bne .L81
 1836 0e84 0023     	 movs r3,#0
 1837 0e86 1C46     	 mov r4,r3
 1838              	.L81:
 1839 0e88 E3B2     	 uxtb r3,r4
 1840 0e8a 1A46     	 mov r2,r3
 1841 0e8c 084B     	 ldr r3,.L267+4
 1842 0e8e 83F87127 	 strb r2,[r3,#1905]
 550:../Simulink/Subsystem_Transmission.c ****     /* Switch: '<S140>/Switch1' incorporates:
 551:../Simulink/Subsystem_Transmission.c ****  *  Constant: '<S140>/Constant2'
 552:../Simulink/Subsystem_Transmission.c ****  *  Constant: '<S140>/Constant3'
 553:../Simulink/Subsystem_Transmission.c ****  */
 554:../Simulink/Subsystem_Transmission.c ****     /*@>1ecae*/if (/*@>2651f*/VCU_B./*@>29b23*/Compare_kk) {
 1843              	 .loc 1 554 0
 1844 0e92 074B     	 ldr r3,.L267+4
 1845 0e94 93F87137 	 ldrb r3,[r3,#1905]
 1846 0e98 002B     	 cmp r3,#0
 1847 0e9a 15D0     	 beq .L82
 555:../Simulink/Subsystem_Transmission.c ****         /*@>26531*/VCU_B./*@>29b2c*/Switch1_n/*@>1ecb1*/ = /*@>217c3*/2.0;
 1848              	 .loc 1 555 0
 1849 0e9c 0449     	 ldr r1,.L267+4
 1850 0e9e 4FF00002 	 mov r2,#0
 1851 0ea2 4FF08043 	 mov r3,#1073741824
 1852 0ea6 C1E98223 	 strd r2,[r1,#520]
 1853 0eaa 13E0     	 b .L83
 1854              	.L268:
 1855              	 .align 2
 1856              	.L267:
 1857 0eac 00000000 	 .word VCU_DW
 1858 0eb0 00000000 	 .word VCU_B
 1859 0eb4 00003440 	 .word 1077149696
 1860 0eb8 0000F03F 	 .word 1072693248
 1861 0ebc 0000E0BF 	 .word -1075838976
 1862 0ec0 B0020000 	 .word VCU_ConstP+688
 1863 0ec4 38020000 	 .word VCU_ConstP+568
 1864              	.L82:
 556:../Simulink/Subsystem_Transmission.c ****     } else {
 557:../Simulink/Subsystem_Transmission.c ****         /*@>2652b*/VCU_B./*@>29b29*/Switch1_n/*@>81d8*/ = /*@>217c4*/1.0;
 1865              	 .loc 1 557 0
 1866 0ec8 A549     	 ldr r1,.L269
 1867 0eca 4FF00002 	 mov r2,#0
 1868 0ece A54B     	 ldr r3,.L269+4
 1869 0ed0 C1E98223 	 strd r2,[r1,#520]
 1870              	.L83:
 558:../Simulink/Subsystem_Transmission.c ****     }
 559:../Simulink/Subsystem_Transmission.c ****     /* End of Switch: '<S140>/Switch1' */
 560:../Simulink/Subsystem_Transmission.c **** 
 561:../Simulink/Subsystem_Transmission.c ****     /* Product: '<S140>/Product2' */
 562:../Simulink/Subsystem_Transmission.c ****     /*@>26543*/VCU_B./*@>29b35*/Product2_f/*@>777b*/ = /*@>26549*/VCU_B./*@>29b38*/Product1_f/*@>21
 1871              	 .loc 1 562 0
 1872 0ed4 A24B     	 ldr r3,.L269
 1873 0ed6 D3E98001 	 ldrd r0,[r3,#512]
 1874 0eda A14B     	 ldr r3,.L269
 1875 0edc D3E98223 	 ldrd r2,[r3,#520]
 1876 0ee0 FFF7FEFF 	 bl __aeabi_dmul
 1877 0ee4 0246     	 mov r2,r0
 1878 0ee6 0B46     	 mov r3,r1
 1879 0ee8 9D49     	 ldr r1,.L269
 1880 0eea C1E98423 	 strd r2,[r1,#528]
 563:../Simulink/Subsystem_Transmission.c ****     /* DataTypeConversion: '<S137>/Data Type Conversion16' */
 564:../Simulink/Subsystem_Transmission.c ****     /*@>2655b*/VCU_B./*@>29b41*/MHJ9_OUT_d5/*@>777e*/ = /*@>26561*/VCU_B./*@>29b44*/Product2_f;
 1881              	 .loc 1 564 0
 1882 0eee 9C4B     	 ldr r3,.L269
 1883 0ef0 D3E98423 	 ldrd r2,[r3,#528]
 1884 0ef4 9A49     	 ldr r1,.L269
 1885 0ef6 C1E98623 	 strd r2,[r1,#536]
 565:../Simulink/Subsystem_Transmission.c ****     /* RelationalOperator: '<S152>/Compare' incorporates:
 566:../Simulink/Subsystem_Transmission.c ****  *  Constant: '<S152>/Constant'
 567:../Simulink/Subsystem_Transmission.c ****  */
 568:../Simulink/Subsystem_Transmission.c ****     /*@>2656d*/VCU_B./*@>29b4a*/Compare_js/*@>7782*/ = (/*@>26573*/VCU_B./*@>29b4d*/Add_g/*@>7781*/
 1886              	 .loc 1 568 0
 1887 0efa 994B     	 ldr r3,.L269
 1888 0efc D3E97C23 	 ldrd r2,[r3,#496]
 1889 0f00 0121     	 movs r1,#1
 1890 0f02 0C46     	 mov r4,r1
 1891 0f04 1046     	 mov r0,r2
 1892 0f06 1946     	 mov r1,r3
 1893 0f08 4FF00002 	 mov r2,#0
 1894 0f0c 4FF00003 	 mov r3,#0
 1895 0f10 FFF7FEFF 	 bl __aeabi_dcmpgt
 1896 0f14 0346     	 mov r3,r0
 1897 0f16 002B     	 cmp r3,#0
 1898 0f18 01D1     	 bne .L84
 1899 0f1a 0023     	 movs r3,#0
 1900 0f1c 1C46     	 mov r4,r3
 1901              	.L84:
 1902 0f1e E3B2     	 uxtb r3,r4
 1903 0f20 1A46     	 mov r2,r3
 1904 0f22 8F4B     	 ldr r3,.L269
 1905 0f24 83F87227 	 strb r2,[r3,#1906]
 569:../Simulink/Subsystem_Transmission.c ****     /* Product: '<S140>/Product3' */
 570:../Simulink/Subsystem_Transmission.c ****     /*@>2657f*/VCU_B./*@>29b53*/Product3_n/*@>7789*/ = /*@>26585*/VCU_B./*@>29b56*/DutyCycleMHJ1_n/
 1906              	 .loc 1 570 0
 1907 0f28 8D4B     	 ldr r3,.L269
 1908 0f2a D3E97E45 	 ldrd r4,[r3,#504]
 1909 0f2e 8C4B     	 ldr r3,.L269
 1910 0f30 93F87237 	 ldrb r3,[r3,#1906]
 1911 0f34 1846     	 mov r0,r3
 1912 0f36 FFF7FEFF 	 bl __aeabi_ui2d
 1913 0f3a 0246     	 mov r2,r0
 1914 0f3c 0B46     	 mov r3,r1
 1915 0f3e 2046     	 mov r0,r4
 1916 0f40 2946     	 mov r1,r5
 1917 0f42 FFF7FEFF 	 bl __aeabi_dmul
 1918 0f46 0246     	 mov r2,r0
 1919 0f48 0B46     	 mov r3,r1
 1920 0f4a 8549     	 ldr r1,.L269
 1921 0f4c C1E98823 	 strd r2,[r1,#544]
 571:../Simulink/Subsystem_Transmission.c ****     /* DataTypeConversion: '<S137>/Data Type Conversion15' */
 572:../Simulink/Subsystem_Transmission.c ****     /*@>26591*/VCU_B./*@>29b5c*/MHJ9_IN_h/*@>778c*/ = /*@>26597*/VCU_B./*@>29b5f*/Product3_n;
 1922              	 .loc 1 572 0
 1923 0f50 834B     	 ldr r3,.L269
 1924 0f52 D3E98823 	 ldrd r2,[r3,#544]
 1925 0f56 8249     	 ldr r1,.L269
 1926 0f58 C1E98A23 	 strd r2,[r1,#552]
 573:../Simulink/Subsystem_Transmission.c ****     /* RelationalOperator: '<S153>/Compare' incorporates:
 574:../Simulink/Subsystem_Transmission.c ****  *  Constant: '<S153>/Constant'
 575:../Simulink/Subsystem_Transmission.c ****  */
 576:../Simulink/Subsystem_Transmission.c ****     /*@>2659d*/VCU_B./*@>29b62*/Compare_hu/*@>7790*/ = (/*@>265a3*/VCU_B./*@>29b65*/Add_g/*@>778f*/
 1927              	 .loc 1 576 0
 1928 0f5c 804B     	 ldr r3,.L269
 1929 0f5e D3E97C23 	 ldrd r2,[r3,#496]
 1930 0f62 0121     	 movs r1,#1
 1931 0f64 0C46     	 mov r4,r1
 1932 0f66 1046     	 mov r0,r2
 1933 0f68 1946     	 mov r1,r3
 1934 0f6a 4FF00002 	 mov r2,#0
 1935 0f6e 7E4B     	 ldr r3,.L269+8
 1936 0f70 FFF7FEFF 	 bl __aeabi_dcmplt
 1937 0f74 0346     	 mov r3,r0
 1938 0f76 002B     	 cmp r3,#0
 1939 0f78 01D1     	 bne .L85
 1940 0f7a 0023     	 movs r3,#0
 1941 0f7c 1C46     	 mov r4,r3
 1942              	.L85:
 1943 0f7e E3B2     	 uxtb r3,r4
 1944 0f80 1A46     	 mov r2,r3
 1945 0f82 774B     	 ldr r3,.L269
 1946 0f84 83F87327 	 strb r2,[r3,#1907]
 577:../Simulink/Subsystem_Transmission.c ****     /* DataTypeConversion: '<S137>/Data Type Conversion14' */
 578:../Simulink/Subsystem_Transmission.c ****     /*@>265af*/VCU_B./*@>29b6b*/VOVG_OUT_b/*@>7793*/ = /*@>265b5*/VCU_B./*@>29b6e*/Compare_hu;
 1947              	 .loc 1 578 0
 1948 0f88 754B     	 ldr r3,.L269
 1949 0f8a 93F87337 	 ldrb r3,[r3,#1907]
 1950 0f8e 1846     	 mov r0,r3
 1951 0f90 FFF7FEFF 	 bl __aeabi_ui2d
 1952 0f94 0246     	 mov r2,r0
 1953 0f96 0B46     	 mov r3,r1
 1954 0f98 7149     	 ldr r1,.L269
 1955 0f9a C1E98C23 	 strd r2,[r1,#560]
 579:../Simulink/Subsystem_Transmission.c ****     /* DataTypeConversion: '<S137>/Data Type Conversion20' incorporates:
 580:../Simulink/Subsystem_Transmission.c ****  *  Constant: '<S137>/Constant'
 581:../Simulink/Subsystem_Transmission.c ****  */
 582:../Simulink/Subsystem_Transmission.c ****     /*@>265c1*/VCU_B./*@>29b74*/LC_ready_bit_p/*@>7796*/ = /*@>2196e*/true;
 1956              	 .loc 1 582 0
 1957 0f9e 704B     	 ldr r3,.L269
 1958 0fa0 0122     	 movs r2,#1
 1959 0fa2 83F87427 	 strb r2,[r3,#1908]
 583:../Simulink/Subsystem_Transmission.c ****     /* DataTypeConversion: '<S137>/Data Type Conversion17' */
 584:../Simulink/Subsystem_Transmission.c ****     /*@>265cd*/VCU_B./*@>29b7a*/x_clutch_LC_bg/*@>7799*/ = /*@>217c7*/0.0;
 1960              	 .loc 1 584 0
 1961 0fa6 6E49     	 ldr r1,.L269
 1962 0fa8 4FF00002 	 mov r2,#0
 1963 0fac 4FF00003 	 mov r3,#0
 1964 0fb0 C1E98E23 	 strd r2,[r1,#568]
 585:../Simulink/Subsystem_Transmission.c ****     /* DataTypeConversion: '<S137>/Data Type Conversion18' */
 586:../Simulink/Subsystem_Transmission.c ****     /*@>265d9*/VCU_B./*@>29b80*/LC_Mdes_o/*@>779c*/ = /*@>217c8*/0.0;
 1965              	 .loc 1 586 0
 1966 0fb4 6A49     	 ldr r1,.L269
 1967 0fb6 4FF00002 	 mov r2,#0
 1968 0fba 4FF00003 	 mov r3,#0
 1969 0fbe C1E99023 	 strd r2,[r1,#576]
 587:../Simulink/Subsystem_Transmission.c ****     /* DataTypeConversion: '<S137>/Data Type Conversion19' */
 588:../Simulink/Subsystem_Transmission.c ****     /*@>265e5*/VCU_B./*@>29b86*/LC_Fnr_lv/*@>779f*/ = /*@>217c9*/0.0;
 1970              	 .loc 1 588 0
 1971 0fc2 6749     	 ldr r1,.L269
 1972 0fc4 4FF00002 	 mov r2,#0
 1973 0fc8 4FF00003 	 mov r3,#0
 1974 0fcc C1E99223 	 strd r2,[r1,#584]
 589:../Simulink/Subsystem_Transmission.c ****     /* Update for Memory: '<S148>/Memory' */
 590:../Simulink/Subsystem_Transmission.c ****     /*@>26abe*/VCU_DW./*@>29d5a*/Memory_PreviousInput_g/*@>790c*/ = /*@>265f1*/VCU_B./*@>29b8c*/LC_
 1975              	 .loc 1 590 0
 1976 0fd0 634B     	 ldr r3,.L269
 1977 0fd2 93F88327 	 ldrb r2,[r3,#1923]
 1978 0fd6 654B     	 ldr r3,.L269+12
 1979 0fd8 83F83D21 	 strb r2,[r3,#317]
 591:../Simulink/Subsystem_Transmission.c ****     /* Update for Memory: '<S148>/Memory1' */
 592:../Simulink/Subsystem_Transmission.c ****     /*@>26aca*/VCU_DW./*@>29d60*/Memory1_PreviousInput_p/*@>790e*/ = /*@>265fd*/VCU_B./*@>29b92*/Br
 1980              	 .loc 1 592 0
 1981 0fdc 604B     	 ldr r3,.L269
 1982 0fde 93F82727 	 ldrb r2,[r3,#1831]
 1983 0fe2 624B     	 ldr r3,.L269+12
 1984 0fe4 83F83E21 	 strb r2,[r3,#318]
 593:../Simulink/Subsystem_Transmission.c ****     /* Update for Memory: '<S190>/Memory' */
 594:../Simulink/Subsystem_Transmission.c ****     /*@>26ad6*/VCU_DW./*@>29d66*/Memory_PreviousInput_gi/*@>7910*/ = /*@>26609*/VCU_B./*@>29b98*/Lo
 1985              	 .loc 1 594 0
 1986 0fe8 5D4B     	 ldr r3,.L269
 1987 0fea 93F82B27 	 ldrb r2,[r3,#1835]
 1988 0fee 5F4B     	 ldr r3,.L269+12
 1989 0ff0 83F83F21 	 strb r2,[r3,#319]
 595:../Simulink/Subsystem_Transmission.c ****     /* Update for UnitDelay: '<S145>/Unit Delay1' */
 596:../Simulink/Subsystem_Transmission.c ****     /*@>26ae2*/VCU_DW./*@>29d6c*/UnitDelay1_DSTATE_p/*@>81e9*/ = /*@>26615*/VCU_B./*@>29b9e*/Logic_
 1990              	 .loc 1 596 0
 1991 0ff4 5A4B     	 ldr r3,.L269
 1992 0ff6 93F83727 	 ldrb r2,[r3,#1847]
 1993 0ffa 5C4B     	 ldr r3,.L269+12
 1994 0ffc 83F8DD20 	 strb r2,[r3,#221]
 597:../Simulink/Subsystem_Transmission.c ****     /* Update for Delay: '<S145>/Delay' */
 598:../Simulink/Subsystem_Transmission.c **** /*@>1e4c4*/    for (/*@>28447*/rowIdx = /*@>217cf*/0; /*@>2844f*/rowIdx < /*@>217d0*/19; /*@>2844c*
 1995              	 .loc 1 598 0
 1996 1000 0023     	 movs r3,#0
 1997 1002 7B61     	 str r3,[r7,#20]
 1998 1004 0EE0     	 b .L86
 1999              	.L87:
 599:../Simulink/Subsystem_Transmission.c ****         /*@>26b00*/VCU_DW./*@>29d7b*/Delay_DSTATE_j/*@>1ca78*/[/*@>21755*/rowIdx]/*@>8217*/ = /*@>2
 2000              	 .loc 1 599 0 discriminator 3
 2001 1006 7B69     	 ldr r3,[r7,#20]
 2002 1008 0133     	 adds r3,r3,#1
 2003 100a 584A     	 ldr r2,.L269+12
 2004 100c 1344     	 add r3,r3,r2
 2005 100e 93F8DE10 	 ldrb r1,[r3,#222]
 2006 1012 564A     	 ldr r2,.L269+12
 2007 1014 7B69     	 ldr r3,[r7,#20]
 2008 1016 1344     	 add r3,r3,r2
 2009 1018 D833     	 adds r3,r3,#216
 2010 101a 0A46     	 mov r2,r1
 2011 101c 9A71     	 strb r2,[r3,#6]
 598:../Simulink/Subsystem_Transmission.c ****         /*@>26b00*/VCU_DW./*@>29d7b*/Delay_DSTATE_j/*@>1ca78*/[/*@>21755*/rowIdx]/*@>8217*/ = /*@>2
 2012              	 .loc 1 598 0 discriminator 3
 2013 101e 7B69     	 ldr r3,[r7,#20]
 2014 1020 0133     	 adds r3,r3,#1
 2015 1022 7B61     	 str r3,[r7,#20]
 2016              	.L86:
 598:../Simulink/Subsystem_Transmission.c ****         /*@>26b00*/VCU_DW./*@>29d7b*/Delay_DSTATE_j/*@>1ca78*/[/*@>21755*/rowIdx]/*@>8217*/ = /*@>2
 2017              	 .loc 1 598 0 is_stmt 0 discriminator 1
 2018 1024 7B69     	 ldr r3,[r7,#20]
 2019 1026 122B     	 cmp r3,#18
 2020 1028 EDDD     	 ble .L87
 600:../Simulink/Subsystem_Transmission.c ****     }
 601:../Simulink/Subsystem_Transmission.c ****     /*@>26afa*/VCU_DW./*@>29d78*/Delay_DSTATE_j/*@>822f*/[/*@>215ae*/19]/*@>8239*/ = /*@>2662d*/VCU
 2021              	 .loc 1 601 0 is_stmt 1
 2022 102a 4D4B     	 ldr r3,.L269
 2023 102c 93F84727 	 ldrb r2,[r3,#1863]
 2024 1030 4E4B     	 ldr r3,.L269+12
 2025 1032 83F8F120 	 strb r2,[r3,#241]
 602:../Simulink/Subsystem_Transmission.c ****     /* End of Update for Delay: '<S145>/Delay' */
 603:../Simulink/Subsystem_Transmission.c **** 
 604:../Simulink/Subsystem_Transmission.c ****     /* Update for Memory: '<S175>/Memory' */
 605:../Simulink/Subsystem_Transmission.c ****     /*@>26b12*/VCU_DW./*@>29d84*/Memory_PreviousInput_pa/*@>7914*/ = /*@>26639*/VCU_B./*@>29bb0*/Lo
 2026              	 .loc 1 605 0
 2027 1036 4A4B     	 ldr r3,.L269
 2028 1038 93F83227 	 ldrb r2,[r3,#1842]
 2029 103c 4B4B     	 ldr r3,.L269+12
 2030 103e 83F84021 	 strb r2,[r3,#320]
 606:../Simulink/Subsystem_Transmission.c ****     /* Update for UnitDelay: '<S172>/Delay Input1'
 607:../Simulink/Subsystem_Transmission.c ****  *
 608:../Simulink/Subsystem_Transmission.c ****  * Block description for '<S172>/Delay Input1':
 609:../Simulink/Subsystem_Transmission.c ****  *  
 610:../Simulink/Subsystem_Transmission.c ****  *  Store in Global RAM
 611:../Simulink/Subsystem_Transmission.c ****  */
 612:../Simulink/Subsystem_Transmission.c ****     /*@>26b1e*/VCU_DW./*@>29d8a*/DelayInput1_DSTATE_j/*@>8245*/ = /*@>26645*/VCU_B./*@>29bb6*/STW_s
 2031              	 .loc 1 612 0
 2032 1042 474B     	 ldr r3,.L269
 2033 1044 03F59D63 	 add r3,r3,#1256
 2034 1048 D3E90023 	 ldrd r2,[r3]
 2035 104c 4749     	 ldr r1,.L269+12
 2036 104e C1E90423 	 strd r2,[r1,#16]
 613:../Simulink/Subsystem_Transmission.c ****     /* Update for Delay: '<S145>/Delay1' */
 614:../Simulink/Subsystem_Transmission.c ****     /*@>26b2a*/VCU_DW./*@>29d90*/Delay1_DSTATE_p/*@>8251*/ = /*@>26651*/VCU_B./*@>29bbc*/LogicalOpe
 2037              	 .loc 1 614 0
 2038 1052 434B     	 ldr r3,.L269
 2039 1054 93F84727 	 ldrb r2,[r3,#1863]
 2040 1058 444B     	 ldr r3,.L269+12
 2041 105a 83F8F220 	 strb r2,[r3,#242]
 615:../Simulink/Subsystem_Transmission.c ****     /* Update for Memory: '<S173>/Memory' */
 616:../Simulink/Subsystem_Transmission.c ****     /*@>26b36*/VCU_DW./*@>29d96*/Memory_PreviousInput_c/*@>7918*/ = /*@>2665d*/VCU_B./*@>29bc2*/Log
 2042              	 .loc 1 616 0
 2043 105e 404B     	 ldr r3,.L269
 2044 1060 93F83727 	 ldrb r2,[r3,#1847]
 2045 1064 414B     	 ldr r3,.L269+12
 2046 1066 83F84121 	 strb r2,[r3,#321]
 617:../Simulink/Subsystem_Transmission.c ****     /* Update for UnitDelay: '<S145>/Unit Delay4' */
 618:../Simulink/Subsystem_Transmission.c ****     /*@>26b42*/VCU_DW./*@>29d9c*/UnitDelay4_DSTATE_e/*@>825d*/ = /*@>26669*/VCU_B./*@>29bc8*/FixPtR
 2047              	 .loc 1 618 0
 2048 106a 3D4B     	 ldr r3,.L269
 2049 106c 93F86E27 	 ldrb r2,[r3,#1902]
 2050 1070 3E4B     	 ldr r3,.L269+12
 2051 1072 83F8F320 	 strb r2,[r3,#243]
 619:../Simulink/Subsystem_Transmission.c ****     /* Update for UnitDelay: '<S146>/Unit Delay' */
 620:../Simulink/Subsystem_Transmission.c ****     /*@>26b48*/VCU_DW./*@>29d9f*/UnitDelay_DSTATE_g/*@>8269*/ = /*@>2666f*/VCU_B./*@>29bcb*/Logic_j
 2052              	 .loc 1 620 0
 2053 1076 3A4B     	 ldr r3,.L269
 2054 1078 93F86427 	 ldrb r2,[r3,#1892]
 2055 107c 3B4B     	 ldr r3,.L269+12
 2056 107e 83F8F420 	 strb r2,[r3,#244]
 621:../Simulink/Subsystem_Transmission.c ****     /* Update for UnitDelay: '<S145>/Unit Delay2' */
 622:../Simulink/Subsystem_Transmission.c ****     /*@>26b4e*/VCU_DW./*@>29da2*/UnitDelay2_DSTATE_k/*@>8275*/ = /*@>26675*/VCU_B./*@>29bce*/Counte
 2057              	 .loc 1 622 0
 2058 1082 374B     	 ldr r3,.L269
 2059 1084 93F86C27 	 ldrb r2,[r3,#1900]
 2060 1088 384B     	 ldr r3,.L269+12
 2061 108a 83F8F520 	 strb r2,[r3,#245]
 623:../Simulink/Subsystem_Transmission.c ****     /* Update for Memory: '<S174>/Memory' */
 624:../Simulink/Subsystem_Transmission.c ****     /*@>26b54*/VCU_DW./*@>29da5*/Memory_PreviousInput_jz/*@>791d*/ = /*@>2667b*/VCU_B./*@>29bd1*/Lo
 2062              	 .loc 1 624 0
 2063 108e 344B     	 ldr r3,.L269
 2064 1090 93F84927 	 ldrb r2,[r3,#1865]
 2065 1094 354B     	 ldr r3,.L269+12
 2066 1096 83F84221 	 strb r2,[r3,#322]
 625:../Simulink/Subsystem_Transmission.c ****     /* Update for UnitDelay: '<S188>/Delay Input1'
 626:../Simulink/Subsystem_Transmission.c ****  *
 627:../Simulink/Subsystem_Transmission.c ****  * Block description for '<S188>/Delay Input1':
 628:../Simulink/Subsystem_Transmission.c ****  *  
 629:../Simulink/Subsystem_Transmission.c ****  *  Store in Global RAM
 630:../Simulink/Subsystem_Transmission.c ****  */
 631:../Simulink/Subsystem_Transmission.c ****     /*@>26b5a*/VCU_DW./*@>29da8*/DelayInput1_DSTATE_m5/*@>8281*/ = /*@>26681*/VCU_B./*@>29bd4*/Logi
 2067              	 .loc 1 631 0
 2068 109a 314B     	 ldr r3,.L269
 2069 109c 93F85027 	 ldrb r2,[r3,#1872]
 2070 10a0 324B     	 ldr r3,.L269+12
 2071 10a2 83F8F620 	 strb r2,[r3,#246]
 632:../Simulink/Subsystem_Transmission.c ****     /* Update for UnitDelay: '<S181>/Delay Input1'
 633:../Simulink/Subsystem_Transmission.c ****  *
 634:../Simulink/Subsystem_Transmission.c ****  * Block description for '<S181>/Delay Input1':
 635:../Simulink/Subsystem_Transmission.c ****  *  
 636:../Simulink/Subsystem_Transmission.c ****  *  Store in Global RAM
 637:../Simulink/Subsystem_Transmission.c ****  */
 638:../Simulink/Subsystem_Transmission.c ****     /*@>26b60*/VCU_DW./*@>29dab*/DelayInput1_DSTATE_m/*@>828d*/ = /*@>26687*/VCU_B./*@>29bd7*/Add_a
 2072              	 .loc 1 638 0
 2073 10a6 2E4B     	 ldr r3,.L269
 2074 10a8 93F88A26 	 ldrb r2,[r3,#1674]
 2075 10ac 2F4B     	 ldr r3,.L269+12
 2076 10ae 83F8BF20 	 strb r2,[r3,#191]
 639:../Simulink/Subsystem_Transmission.c ****     /* Update for UnitDelay: '<S145>/Unit Delay' */
 640:../Simulink/Subsystem_Transmission.c ****     /*@>26b66*/VCU_DW./*@>29dae*/UnitDelay_DSTATE_n/*@>8299*/ = /*@>2668d*/VCU_B./*@>29bda*/Logic_j
 2077              	 .loc 1 640 0
 2078 10b2 2B4B     	 ldr r3,.L269
 2079 10b4 93F84927 	 ldrb r2,[r3,#1865]
 2080 10b8 2C4B     	 ldr r3,.L269+12
 2081 10ba 83F8F720 	 strb r2,[r3,#247]
 641:../Simulink/Subsystem_Transmission.c ****     /* Update for UnitDelay: '<S146>/Unit Delay1' */
 642:../Simulink/Subsystem_Transmission.c ****     /*@>26b6c*/VCU_DW./*@>29db1*/UnitDelay1_DSTATE_l/*@>82a5*/ = /*@>26693*/VCU_B./*@>29bdd*/Counte
 2082              	 .loc 1 642 0
 2083 10be 284B     	 ldr r3,.L269
 2084 10c0 93F86D27 	 ldrb r2,[r3,#1901]
 2085 10c4 294B     	 ldr r3,.L269+12
 2086 10c6 83F8F820 	 strb r2,[r3,#248]
 643:../Simulink/Subsystem_Transmission.c ****     /* Update for Memory: '<S189>/Memory' */
 644:../Simulink/Subsystem_Transmission.c ****     /*@>26b72*/VCU_DW./*@>29db4*/Memory_PreviousInput_n/*@>7923*/ = /*@>26699*/VCU_B./*@>29be0*/Log
 2087              	 .loc 1 644 0
 2088 10ca 254B     	 ldr r3,.L269
 2089 10cc 93F85E27 	 ldrb r2,[r3,#1886]
 2090 10d0 264B     	 ldr r3,.L269+12
 2091 10d2 83F84321 	 strb r2,[r3,#323]
 645:../Simulink/Subsystem_Transmission.c ****     /* Update for UnitDelay: '<S180>/Delay Input1'
 646:../Simulink/Subsystem_Transmission.c ****  *
 647:../Simulink/Subsystem_Transmission.c ****  * Block description for '<S180>/Delay Input1':
 648:../Simulink/Subsystem_Transmission.c ****  *  
 649:../Simulink/Subsystem_Transmission.c ****  *  Store in Global RAM
 650:../Simulink/Subsystem_Transmission.c ****  */
 651:../Simulink/Subsystem_Transmission.c ****     /*@>26b78*/VCU_DW./*@>29db7*/DelayInput1_DSTATE_e/*@>82b1*/ = /*@>2669f*/VCU_B./*@>29be3*/Logic
 2092              	 .loc 1 651 0
 2093 10d6 224B     	 ldr r3,.L269
 2094 10d8 93F86027 	 ldrb r2,[r3,#1888]
 2095 10dc 234B     	 ldr r3,.L269+12
 2096 10de 83F8F920 	 strb r2,[r3,#249]
 652:../Simulink/Subsystem_Transmission.c ****     /* Update for Memory: '<S183>/Memory' */
 653:../Simulink/Subsystem_Transmission.c ****     /*@>26b7e*/VCU_DW./*@>29dba*/Memory_PreviousInput_e/*@>7926*/ = /*@>266a5*/VCU_B./*@>29be6*/Log
 2097              	 .loc 1 653 0
 2098 10e2 1F4B     	 ldr r3,.L269
 2099 10e4 93F86427 	 ldrb r2,[r3,#1892]
 2100 10e8 204B     	 ldr r3,.L269+12
 2101 10ea 83F84421 	 strb r2,[r3,#324]
 654:../Simulink/Subsystem_Transmission.c ****     /* Update for UnitDelay: '<S182>/Delay Input1'
 655:../Simulink/Subsystem_Transmission.c ****  *
 656:../Simulink/Subsystem_Transmission.c ****  * Block description for '<S182>/Delay Input1':
 657:../Simulink/Subsystem_Transmission.c ****  *  
 658:../Simulink/Subsystem_Transmission.c ****  *  Store in Global RAM
 659:../Simulink/Subsystem_Transmission.c ****  */
 660:../Simulink/Subsystem_Transmission.c ****     /*@>26b84*/VCU_DW./*@>29dbd*/DelayInput1_DSTATE_b/*@>82bd*/ = /*@>266ab*/VCU_B./*@>29be9*/Add_a
 2102              	 .loc 1 660 0
 2103 10ee 1C4B     	 ldr r3,.L269
 2104 10f0 93F88A26 	 ldrb r2,[r3,#1674]
 2105 10f4 1D4B     	 ldr r3,.L269+12
 2106 10f6 83F8C020 	 strb r2,[r3,#192]
 661:../Simulink/Subsystem_Transmission.c ****     /* Update for Memory: '<S184>/Memory' */
 662:../Simulink/Subsystem_Transmission.c ****     /*@>26b8a*/VCU_DW./*@>29dc0*/Memory_PreviousInput_ez/*@>7929*/ = /*@>266b1*/VCU_B./*@>29bec*/Lo
 2107              	 .loc 1 662 0
 2108 10fa 194B     	 ldr r3,.L269
 2109 10fc 93F86A27 	 ldrb r2,[r3,#1898]
 2110 1100 1A4B     	 ldr r3,.L269+12
 2111 1102 83F84521 	 strb r2,[r3,#325]
 663:../Simulink/Subsystem_Transmission.c ****     /* Update for UnitDelay: '<S171>/Delay Input1'
 664:../Simulink/Subsystem_Transmission.c ****  *
 665:../Simulink/Subsystem_Transmission.c ****  * Block description for '<S171>/Delay Input1':
 666:../Simulink/Subsystem_Transmission.c ****  *  
 667:../Simulink/Subsystem_Transmission.c ****  *  Store in Global RAM
 668:../Simulink/Subsystem_Transmission.c ****  */
 669:../Simulink/Subsystem_Transmission.c ****     /*@>26b90*/VCU_DW./*@>29dc3*/DelayInput1_DSTATE_n/*@>82c9*/ = /*@>266b7*/VCU_B./*@>29bef*/Add_f
 2112              	 .loc 1 669 0
 2113 1106 164B     	 ldr r3,.L269
 2114 1108 93F88926 	 ldrb r2,[r3,#1673]
 2115 110c 174B     	 ldr r3,.L269+12
 2116 110e 83F8C120 	 strb r2,[r3,#193]
 2117              	.L11:
 670:../Simulink/Subsystem_Transmission.c **** }
 671:../Simulink/Subsystem_Transmission.c **** /* End of Outputs for SubSystem: '<S7>/LC_jr19' */
 672:../Simulink/Subsystem_Transmission.c **** 
 673:../Simulink/Subsystem_Transmission.c **** /* RelationalOperator: '<S133>/Compare' incorporates:
 674:../Simulink/Subsystem_Transmission.c ****  *  Constant: '<S133>/Constant'
 675:../Simulink/Subsystem_Transmission.c ****  */
 676:../Simulink/Subsystem_Transmission.c **** /*@>25631*/VCU_B./*@>293ac*/Compare_c/*@>7489*/ = (/*@>25637*/VCU_B./*@>293af*/DataTypeConversion_c
 2118              	 .loc 1 676 0
 2119 1112 134B     	 ldr r3,.L269
 2120 1114 93F8C836 	 ldrb r3,[r3,#1736]
 2121 1118 5BB2     	 sxtb r3,r3
 2122 111a 012B     	 cmp r3,#1
 2123 111c 0CBF     	 ite eq
 2124 111e 0123     	 moveq r3,#1
 2125 1120 0023     	 movne r3,#0
 2126 1122 DBB2     	 uxtb r3,r3
 2127 1124 1A46     	 mov r2,r3
 2128 1126 0E4B     	 ldr r3,.L269
 2129 1128 83F8CA26 	 strb r2,[r3,#1738]
 677:../Simulink/Subsystem_Transmission.c **** /* RelationalOperator: '<S134>/Compare' incorporates:
 678:../Simulink/Subsystem_Transmission.c ****  *  Constant: '<S134>/Constant'
 679:../Simulink/Subsystem_Transmission.c ****  */
 680:../Simulink/Subsystem_Transmission.c **** /*@>2564f*/VCU_B./*@>293bb*/Compare_g/*@>748d*/ = (/*@>25655*/VCU_B./*@>293be*/DataTypeConversion_c
 2130              	 .loc 1 680 0
 2131 112c 0C4B     	 ldr r3,.L269
 2132 112e 93F8C836 	 ldrb r3,[r3,#1736]
 2133 1132 5BB2     	 sxtb r3,r3
 2134 1134 032B     	 cmp r3,#3
 2135 1136 CCBF     	 ite gt
 2136 1138 0123     	 movgt r3,#1
 2137 113a 0023     	 movle r3,#0
 2138 113c DBB2     	 uxtb r3,r3
 2139 113e 1A46     	 mov r2,r3
 2140 1140 074B     	 ldr r3,.L269
 2141 1142 83F8CB26 	 strb r2,[r3,#1739]
 681:../Simulink/Subsystem_Transmission.c **** /* Logic: '<S7>/Logical Operator' */
 682:../Simulink/Subsystem_Transmission.c **** /*@>25667*/VCU_B./*@>293c7*/LogicalOperator/*@>7493*/ = (/*@>2566d*/VCU_B./*@>293ca*/Compare_c/*@>7
 2142              	 .loc 1 682 0
 2143 1146 064B     	 ldr r3,.L269
 2144 1148 93F8CA36 	 ldrb r3,[r3,#1738]
 2145 114c 002B     	 cmp r3,#0
 2146 114e 04D1     	 bne .L88
 2147              	 .loc 1 682 0 is_stmt 0 discriminator 2
 2148 1150 034B     	 ldr r3,.L269
 2149 1152 93F8CB36 	 ldrb r3,[r3,#1739]
 2150 1156 002B     	 cmp r3,#0
 2151 1158 0AD0     	 beq .L89
 2152              	.L88:
 2153              	 .loc 1 682 0 discriminator 3
 2154 115a 0123     	 movs r3,#1
 2155 115c 09E0     	 b .L90
 2156              	.L270:
 2157 115e 00BF     	 .align 2
 2158              	.L269:
 2159 1160 00000000 	 .word VCU_B
 2160 1164 0000F03F 	 .word 1072693248
 2161 1168 000034C0 	 .word -1070333952
 2162 116c 00000000 	 .word VCU_DW
 2163              	.L89:
 2164              	 .loc 1 682 0 discriminator 4
 2165 1170 0023     	 movs r3,#0
 2166              	.L90:
 2167              	 .loc 1 682 0 discriminator 6
 2168 1172 DAB2     	 uxtb r2,r3
 2169 1174 624B     	 ldr r3,.L271
 2170 1176 83F8CC26 	 strb r2,[r3,#1740]
 683:../Simulink/Subsystem_Transmission.c **** /* Outputs for Enabled SubSystem: '<S7>/semi_auto_jr18' incorporates:
 684:../Simulink/Subsystem_Transmission.c ****  *  EnablePort: '<S139>/Enable'
 685:../Simulink/Subsystem_Transmission.c ****  */
 686:../Simulink/Subsystem_Transmission.c **** /*@>7495*/if (/*@>2567f*/VCU_B./*@>293d3*/LogicalOperator) {
 2171              	 .loc 1 686 0 is_stmt 1 discriminator 6
 2172 117a 614B     	 ldr r3,.L271
 2173 117c 93F8CC36 	 ldrb r3,[r3,#1740]
 2174 1180 002B     	 cmp r3,#0
 2175 1182 00F04387 	 beq .L91
 687:../Simulink/Subsystem_Transmission.c ****     /* Memory: '<S202>/Memory' */
 688:../Simulink/Subsystem_Transmission.c ****     /*@>25691*/VCU_B./*@>293dc*/Memory/*@>796a*/ = /*@>268a2*/VCU_DW./*@>29c5e*/Memory_PreviousInpu
 2176              	 .loc 1 688 0
 2177 1186 5F4B     	 ldr r3,.L271+4
 2178 1188 93F83521 	 ldrb r2,[r3,#309]
 2179 118c 5C4B     	 ldr r3,.L271
 2180 118e 83F8D026 	 strb r2,[r3,#1744]
 689:../Simulink/Subsystem_Transmission.c ****     /* CombinatorialLogic: '<S228>/Logic' incorporates:
 690:../Simulink/Subsystem_Transmission.c ****  *  RelationalOperator: '<S202>/GreaterThan'
 691:../Simulink/Subsystem_Transmission.c ****  */
 692:../Simulink/Subsystem_Transmission.c ****     /*@>256af*/VCU_B./*@>293eb*/GreaterThan/*@>796e*/ = (/*@>21ebf*/(int32_T)/*@>256b5*/VCU_B./*@>2
 2181              	 .loc 1 692 0
 2182 1192 5B4B     	 ldr r3,.L271
 2183 1194 93F88327 	 ldrb r2,[r3,#1923]
 2184 1198 594B     	 ldr r3,.L271
 2185 119a 93F8D036 	 ldrb r3,[r3,#1744]
 2186 119e 9A42     	 cmp r2,r3
 2187 11a0 8CBF     	 ite hi
 2188 11a2 0123     	 movhi r3,#1
 2189 11a4 0023     	 movls r3,#0
 2190 11a6 DBB2     	 uxtb r3,r3
 2191 11a8 1A46     	 mov r2,r3
 2192 11aa 554B     	 ldr r3,.L271
 2193 11ac 83F8D126 	 strb r2,[r3,#1745]
 693:../Simulink/Subsystem_Transmission.c ****     /* Logic: '<S202>/Logical Operator2' */
 694:../Simulink/Subsystem_Transmission.c ****     /*@>256d9*/VCU_B./*@>29400*/LogicalOperator2/*@>7972*/ = !/*@<7971*//*@>256df*/VCU_B./*@>29403*
 2194              	 .loc 1 694 0
 2195 11b0 534B     	 ldr r3,.L271
 2196 11b2 93F88337 	 ldrb r3,[r3,#1923]
 2197 11b6 002B     	 cmp r3,#0
 2198 11b8 0CBF     	 ite eq
 2199 11ba 0123     	 moveq r3,#1
 2200 11bc 0023     	 movne r3,#0
 2201 11be DBB2     	 uxtb r3,r3
 2202 11c0 1A46     	 mov r2,r3
 2203 11c2 4F4B     	 ldr r3,.L271
 2204 11c4 83F8D226 	 strb r2,[r3,#1746]
 695:../Simulink/Subsystem_Transmission.c ****     /* Memory: '<S202>/Memory1' */
 696:../Simulink/Subsystem_Transmission.c ****     /*@>256fd*/VCU_B./*@>29412*/Memory1/*@>7974*/ = /*@>268a8*/VCU_DW./*@>29c61*/Memory1_PreviousIn
 2205              	 .loc 1 696 0
 2206 11c8 4E4B     	 ldr r3,.L271+4
 2207 11ca 93F83621 	 ldrb r2,[r3,#310]
 2208 11ce 4C4B     	 ldr r3,.L271
 2209 11d0 83F8D326 	 strb r2,[r3,#1747]
 697:../Simulink/Subsystem_Transmission.c ****     /* RelationalOperator: '<S202>/Relational Operator' incorporates:
 698:../Simulink/Subsystem_Transmission.c ****  *  Constant: '<S202>/Constant'
 699:../Simulink/Subsystem_Transmission.c ****  */
 700:../Simulink/Subsystem_Transmission.c ****     /*@>2572d*/VCU_B./*@>2942a*/RelationalOperator/*@>7978*/ = (/*@>25733*/VCU_B./*@>2942d*/Sensiti
 2210              	 .loc 1 700 0
 2211 11d4 4A4B     	 ldr r3,.L271
 2212 11d6 03F5B163 	 add r3,r3,#1416
 2213 11da D3E90023 	 ldrd r2,[r3]
 2214 11de 0121     	 movs r1,#1
 2215 11e0 0C46     	 mov r4,r1
 2216 11e2 1046     	 mov r0,r2
 2217 11e4 1946     	 mov r1,r3
 2218 11e6 4FF00002 	 mov r2,#0
 2219 11ea 474B     	 ldr r3,.L271+8
 2220 11ec FFF7FEFF 	 bl __aeabi_dcmpgt
 2221 11f0 0346     	 mov r3,r0
 2222 11f2 002B     	 cmp r3,#0
 2223 11f4 01D1     	 bne .L92
 2224 11f6 0023     	 movs r3,#0
 2225 11f8 1C46     	 mov r4,r3
 2226              	.L92:
 2227 11fa E3B2     	 uxtb r3,r4
 2228 11fc 1A46     	 mov r2,r3
 2229 11fe 404B     	 ldr r3,.L271
 2230 1200 83F8D426 	 strb r2,[r3,#1748]
 701:../Simulink/Subsystem_Transmission.c ****     /* RelationalOperator: '<S202>/Relational Operator1' incorporates:
 702:../Simulink/Subsystem_Transmission.c ****  *  Constant: '<S202>/Constant'
 703:../Simulink/Subsystem_Transmission.c ****  */
 704:../Simulink/Subsystem_Transmission.c ****     /*@>2576f*/VCU_B./*@>2944b*/RelationalOperator1/*@>797c*/ = (/*@>21769*/3.0/*@>797b*/ < /*@>257
 2231              	 .loc 1 704 0
 2232 1204 3E4B     	 ldr r3,.L271
 2233 1206 03F58363 	 add r3,r3,#1048
 2234 120a D3E90023 	 ldrd r2,[r3]
 2235 120e 0121     	 movs r1,#1
 2236 1210 0C46     	 mov r4,r1
 2237 1212 1046     	 mov r0,r2
 2238 1214 1946     	 mov r1,r3
 2239 1216 4FF00002 	 mov r2,#0
 2240 121a 3B4B     	 ldr r3,.L271+8
 2241 121c FFF7FEFF 	 bl __aeabi_dcmpgt
 2242 1220 0346     	 mov r3,r0
 2243 1222 002B     	 cmp r3,#0
 2244 1224 01D1     	 bne .L93
 2245 1226 0023     	 movs r3,#0
 2246 1228 1C46     	 mov r4,r3
 2247              	.L93:
 2248 122a E3B2     	 uxtb r3,r4
 2249 122c 1A46     	 mov r2,r3
 2250 122e 344B     	 ldr r3,.L271
 2251 1230 83F8D526 	 strb r2,[r3,#1749]
 705:../Simulink/Subsystem_Transmission.c ****     /* Logic: '<S202>/Logical Operator' */
 706:../Simulink/Subsystem_Transmission.c ****     /*@>2578d*/VCU_B./*@>2945a*/Brakelight/*@>7982*/ = (/*@>25793*/VCU_B./*@>2945d*/RelationalOpera
 2252              	 .loc 1 706 0
 2253 1234 324B     	 ldr r3,.L271
 2254 1236 93F8D436 	 ldrb r3,[r3,#1748]
 2255 123a 002B     	 cmp r3,#0
 2256 123c 04D1     	 bne .L94
 2257              	 .loc 1 706 0 is_stmt 0 discriminator 2
 2258 123e 304B     	 ldr r3,.L271
 2259 1240 93F8D536 	 ldrb r3,[r3,#1749]
 2260 1244 002B     	 cmp r3,#0
 2261 1246 01D0     	 beq .L95
 2262              	.L94:
 2263              	 .loc 1 706 0 discriminator 3
 2264 1248 0123     	 movs r3,#1
 2265 124a 00E0     	 b .L96
 2266              	.L95:
 2267              	 .loc 1 706 0 discriminator 4
 2268 124c 0023     	 movs r3,#0
 2269              	.L96:
 2270              	 .loc 1 706 0 discriminator 6
 2271 124e DAB2     	 uxtb r2,r3
 2272 1250 2B4B     	 ldr r3,.L271
 2273 1252 83F8D626 	 strb r2,[r3,#1750]
 707:../Simulink/Subsystem_Transmission.c ****     /* RelationalOperator: '<S202>/GreaterThan1' */
 708:../Simulink/Subsystem_Transmission.c ****     /*@>257b7*/VCU_B./*@>2946f*/GreaterThan1/*@>7986*/ = (/*@>21ef8*/(int32_T)/*@>257bd*/VCU_B./*@>
 2274              	 .loc 1 708 0 is_stmt 1 discriminator 6
 2275 1256 2A4B     	 ldr r3,.L271
 2276 1258 93F8D326 	 ldrb r2,[r3,#1747]
 2277 125c 284B     	 ldr r3,.L271
 2278 125e 93F8D636 	 ldrb r3,[r3,#1750]
 2279 1262 9A42     	 cmp r2,r3
 2280 1264 8CBF     	 ite hi
 2281 1266 0123     	 movhi r3,#1
 2282 1268 0023     	 movls r3,#0
 2283 126a DBB2     	 uxtb r3,r3
 2284 126c 1A46     	 mov r2,r3
 2285 126e 244B     	 ldr r3,.L271
 2286 1270 83F8D726 	 strb r2,[r3,#1751]
 709:../Simulink/Subsystem_Transmission.c ****     /* CombinatorialLogic: '<S228>/Logic' incorporates:
 710:../Simulink/Subsystem_Transmission.c ****  *  Logic: '<S202>/Logical Operator1'
 711:../Simulink/Subsystem_Transmission.c ****  *  Memory: '<S228>/Memory'
 712:../Simulink/Subsystem_Transmission.c ****  */
 713:../Simulink/Subsystem_Transmission.c ****     /*@>25811*/VCU_B./*@>2949c*/LogicalOperator1/*@>798c*/ = (/*@>25817*/VCU_B./*@>2949f*/LogicalOp
 2287              	 .loc 1 713 0 discriminator 6
 2288 1274 224B     	 ldr r3,.L271
 2289 1276 93F8D236 	 ldrb r3,[r3,#1746]
 2290 127a 002B     	 cmp r3,#0
 2291 127c 04D1     	 bne .L97
 2292              	 .loc 1 713 0 is_stmt 0 discriminator 2
 2293 127e 204B     	 ldr r3,.L271
 2294 1280 93F8D736 	 ldrb r3,[r3,#1751]
 2295 1284 002B     	 cmp r3,#0
 2296 1286 01D0     	 beq .L98
 2297              	.L97:
 2298              	 .loc 1 713 0 discriminator 3
 2299 1288 0123     	 movs r3,#1
 2300 128a 00E0     	 b .L99
 2301              	.L98:
 2302              	 .loc 1 713 0 discriminator 4
 2303 128c 0023     	 movs r3,#0
 2304              	.L99:
 2305              	 .loc 1 713 0 discriminator 6
 2306 128e DAB2     	 uxtb r2,r3
 2307 1290 1B4B     	 ldr r3,.L271
 2308 1292 83F8D826 	 strb r2,[r3,#1752]
 714:../Simulink/Subsystem_Transmission.c ****     /*@>25835*/VCU_B./*@>294ae*/Memory_c/*@>798e*/ = /*@>268b4*/VCU_DW./*@>29c67*/Memory_PreviousIn
 2309              	 .loc 1 714 0 is_stmt 1 discriminator 6
 2310 1296 1B4B     	 ldr r3,.L271+4
 2311 1298 93F83721 	 ldrb r2,[r3,#311]
 2312 129c 184B     	 ldr r3,.L271
 2313 129e 83F8D926 	 strb r2,[r3,#1753]
 715:../Simulink/Subsystem_Transmission.c ****     /*@>2180e*/rowIdx/*@>1edb3*/ = /*@>25853*/VCU_B./*@>294bd*/GreaterThan;
 2314              	 .loc 1 715 0 discriminator 6
 2315 12a2 174B     	 ldr r3,.L271
 2316 12a4 93F8D136 	 ldrb r3,[r3,#1745]
 2317 12a8 7B61     	 str r3,[r7,#20]
 716:../Simulink/Subsystem_Transmission.c ****     /*@>21812*/rowIdx/*@>1edda*/ = /*@>21f4c*/(int32_T)((/*@>21f49*/(uint32_T)/*@>21814*/rowIdx/*@>
 2318              	 .loc 1 716 0 discriminator 6
 2319 12aa 7B69     	 ldr r3,[r7,#20]
 2320 12ac 5B00     	 lsls r3,r3,#1
 2321 12ae 144A     	 ldr r2,.L271
 2322 12b0 92F8D826 	 ldrb r2,[r2,#1752]
 2323 12b4 1344     	 add r3,r3,r2
 2324 12b6 7B61     	 str r3,[r7,#20]
 717:../Simulink/Subsystem_Transmission.c ****     /*@>21819*/rowIdx/*@>1ee01*/ = /*@>21f64*/(int32_T)((/*@>21f61*/(uint32_T)/*@>2181b*/rowIdx/*@>
 2325              	 .loc 1 717 0 discriminator 6
 2326 12b8 7B69     	 ldr r3,[r7,#20]
 2327 12ba 5B00     	 lsls r3,r3,#1
 2328 12bc 104A     	 ldr r2,.L271
 2329 12be 92F8D926 	 ldrb r2,[r2,#1753]
 2330 12c2 1344     	 add r3,r3,r2
 2331 12c4 7B61     	 str r3,[r7,#20]
 718:../Simulink/Subsystem_Transmission.c ****     /*@>258e3*/VCU_B./*@>29505*/Logic/*@>1ee17*/[/*@>21822*/0U]/*@>1ee16*/ = /*@>26738*/VCU_ConstP.
 2332              	 .loc 1 718 0 discriminator 6
 2333 12c6 7B69     	 ldr r3,[r7,#20]
 2334 12c8 104A     	 ldr r2,.L271+12
 2335 12ca 1344     	 add r3,r3,r2
 2336 12cc 93F83023 	 ldrb r2,[r3,#816]
 2337 12d0 0B4B     	 ldr r3,.L271
 2338 12d2 83F8DA26 	 strb r2,[r3,#1754]
 719:../Simulink/Subsystem_Transmission.c ****     /*@>2592b*/VCU_B./*@>29529*/Logic/*@>1ee2a*/[/*@>21827*/1U]/*@>1ee29*/ = /*@>2673e*/VCU_ConstP.
 2339              	 .loc 1 719 0 discriminator 6
 2340 12d6 7B69     	 ldr r3,[r7,#20]
 2341 12d8 0833     	 adds r3,r3,#8
 2342 12da 0C4A     	 ldr r2,.L271+12
 2343 12dc 1344     	 add r3,r3,r2
 2344 12de 93F83023 	 ldrb r2,[r3,#816]
 2345 12e2 074B     	 ldr r3,.L271
 2346 12e4 83F8DB26 	 strb r2,[r3,#1755]
 720:../Simulink/Subsystem_Transmission.c ****     /* Logic: '<S202>/Logical Operator3' */
 721:../Simulink/Subsystem_Transmission.c ****     /*@>25937*/VCU_B./*@>2952f*/LogicalOperator3/*@>7995*/ = (/*@>2593d*/VCU_B./*@>29532*/Logic/*@>
 2347              	 .loc 1 721 0 discriminator 6
 2348 12e8 054B     	 ldr r3,.L271
 2349 12ea 93F8DA36 	 ldrb r3,[r3,#1754]
 2350 12ee 002B     	 cmp r3,#0
 2351 12f0 0ED0     	 beq .L100
 2352              	 .loc 1 721 0 is_stmt 0 discriminator 1
 2353 12f2 034B     	 ldr r3,.L271
 2354 12f4 93F8D636 	 ldrb r3,[r3,#1750]
 2355 12f8 002B     	 cmp r3,#0
 2356 12fa 09D0     	 beq .L100
 2357              	 .loc 1 721 0 discriminator 3
 2358 12fc 0123     	 movs r3,#1
 2359 12fe 08E0     	 b .L101
 2360              	.L272:
 2361              	 .align 2
 2362              	.L271:
 2363 1300 00000000 	 .word VCU_B
 2364 1304 00000000 	 .word VCU_DW
 2365 1308 00000840 	 .word 1074266112
 2366 130c 00000000 	 .word VCU_ConstP
 2367              	.L100:
 2368              	 .loc 1 721 0 discriminator 4
 2369 1310 0023     	 movs r3,#0
 2370              	.L101:
 2371              	 .loc 1 721 0 discriminator 6
 2372 1312 DAB2     	 uxtb r2,r3
 2373 1314 924B     	 ldr r3,.L273+16
 2374 1316 83F8DC26 	 strb r2,[r3,#1756]
 722:../Simulink/Subsystem_Transmission.c ****     /* DataTypeConversion: '<S139>/Data Type Conversion1' */
 723:../Simulink/Subsystem_Transmission.c ****     /*@>25967*/VCU_B./*@>29547*/LC_active_bit_f/*@>7998*/ = /*@>2596d*/VCU_B./*@>2954a*/LogicalOper
 2375              	 .loc 1 723 0 is_stmt 1 discriminator 6
 2376 131a 914B     	 ldr r3,.L273+16
 2377 131c 93F8DC26 	 ldrb r2,[r3,#1756]
 2378 1320 8F4B     	 ldr r3,.L273+16
 2379 1322 83F8DD26 	 strb r2,[r3,#1757]
 724:../Simulink/Subsystem_Transmission.c ****     /* CombinatorialLogic: '<S217>/Logic' incorporates:
 725:../Simulink/Subsystem_Transmission.c ****  *  Delay: '<S200>/Delay'
 726:../Simulink/Subsystem_Transmission.c ****  *  Memory: '<S217>/Memory'
 727:../Simulink/Subsystem_Transmission.c ****  *  UnitDelay: '<S200>/Unit Delay1'
 728:../Simulink/Subsystem_Transmission.c ****  */
 729:../Simulink/Subsystem_Transmission.c ****     /*@>259b5*/VCU_B./*@>2956e*/UnitDelay1/*@>8325*/ = /*@>268cc*/VCU_DW./*@>29c73*/UnitDelay1_DSTA
 2380              	 .loc 1 729 0 discriminator 6
 2381 1326 8F4B     	 ldr r3,.L273+20
 2382 1328 93F8C220 	 ldrb r2,[r3,#194]
 2383 132c 8C4B     	 ldr r3,.L273+16
 2384 132e 83F8DE26 	 strb r2,[r3,#1758]
 730:../Simulink/Subsystem_Transmission.c ****     /*@>259cd*/VCU_B./*@>2957a*/Delay/*@>8333*/ = /*@>268d2*/VCU_DW./*@>29c76*/Delay_DSTATE/*@>24e9
 2385              	 .loc 1 730 0 discriminator 6
 2386 1332 8C4B     	 ldr r3,.L273+20
 2387 1334 93F8C320 	 ldrb r2,[r3,#195]
 2388 1338 894B     	 ldr r3,.L273+16
 2389 133a 83F8DF26 	 strb r2,[r3,#1759]
 731:../Simulink/Subsystem_Transmission.c ****     /*@>259f1*/VCU_B./*@>2958c*/Memory_g/*@>799c*/ = /*@>268d8*/VCU_DW./*@>29c79*/Memory_PreviousIn
 2390              	 .loc 1 731 0 discriminator 6
 2391 133e 894B     	 ldr r3,.L273+20
 2392 1340 93F83821 	 ldrb r2,[r3,#312]
 2393 1344 864B     	 ldr r3,.L273+16
 2394 1346 83F8E026 	 strb r2,[r3,#1760]
 732:../Simulink/Subsystem_Transmission.c ****     /*@>21846*/rowIdx/*@>1ef01*/ = /*@>25a39*/VCU_B./*@>295b0*/UnitDelay1;
 2395              	 .loc 1 732 0 discriminator 6
 2396 134a 854B     	 ldr r3,.L273+16
 2397 134c 93F8DE36 	 ldrb r3,[r3,#1758]
 2398 1350 7B61     	 str r3,[r7,#20]
 733:../Simulink/Subsystem_Transmission.c ****     /*@>2184a*/rowIdx/*@>1ef28*/ = /*@>21fed*/(int32_T)((/*@>21fea*/(uint32_T)/*@>2184c*/rowIdx/*@>
 2399              	 .loc 1 733 0 discriminator 6
 2400 1352 7B69     	 ldr r3,[r7,#20]
 2401 1354 5B00     	 lsls r3,r3,#1
 2402 1356 824A     	 ldr r2,.L273+16
 2403 1358 92F8DF26 	 ldrb r2,[r2,#1759]
 2404 135c 1344     	 add r3,r3,r2
 2405 135e 7B61     	 str r3,[r7,#20]
 734:../Simulink/Subsystem_Transmission.c ****     /*@>21851*/rowIdx/*@>1ef4f*/ = /*@>22003*/(int32_T)((/*@>22000*/(uint32_T)/*@>21853*/rowIdx/*@>
 2406              	 .loc 1 734 0 discriminator 6
 2407 1360 7B69     	 ldr r3,[r7,#20]
 2408 1362 5B00     	 lsls r3,r3,#1
 2409 1364 7E4A     	 ldr r2,.L273+16
 2410 1366 92F8E026 	 ldrb r2,[r2,#1760]
 2411 136a 1344     	 add r3,r3,r2
 2412 136c 7B61     	 str r3,[r7,#20]
 735:../Simulink/Subsystem_Transmission.c ****     /*@>25ac9*/VCU_B./*@>295f8*/Logic_o/*@>1ef65*/[/*@>2185a*/0U]/*@>1ef64*/ = /*@>26750*/VCU_Const
 2413              	 .loc 1 735 0 discriminator 6
 2414 136e 7B69     	 ldr r3,[r7,#20]
 2415 1370 7D4A     	 ldr r2,.L273+24
 2416 1372 1344     	 add r3,r3,r2
 2417 1374 93F83023 	 ldrb r2,[r3,#816]
 2418 1378 794B     	 ldr r3,.L273+16
 2419 137a 83F8E126 	 strb r2,[r3,#1761]
 736:../Simulink/Subsystem_Transmission.c ****     /*@>25ae7*/VCU_B./*@>29607*/Logic_o/*@>1ef78*/[/*@>2185f*/1U]/*@>1ef77*/ = /*@>26756*/VCU_Const
 2420              	 .loc 1 736 0 discriminator 6
 2421 137e 7B69     	 ldr r3,[r7,#20]
 2422 1380 0833     	 adds r3,r3,#8
 2423 1382 794A     	 ldr r2,.L273+24
 2424 1384 1344     	 add r3,r3,r2
 2425 1386 93F83023 	 ldrb r2,[r3,#816]
 2426 138a 754B     	 ldr r3,.L273+16
 2427 138c 83F8E226 	 strb r2,[r3,#1762]
 737:../Simulink/Subsystem_Transmission.c ****     /* DataTypeConversion: '<S139>/Data Type Conversion10' */
 738:../Simulink/Subsystem_Transmission.c ****     /*@>25b05*/VCU_B./*@>29616*/VOVG_ShiftDown_m/*@>79a0*/ = /*@>25b0b*/VCU_B./*@>29619*/Logic_o/*@
 2428              	 .loc 1 738 0 discriminator 6
 2429 1390 734B     	 ldr r3,.L273+16
 2430 1392 93F8E136 	 ldrb r3,[r3,#1761]
 2431 1396 1846     	 mov r0,r3
 2432 1398 FFF7FEFF 	 bl __aeabi_ui2d
 2433 139c 0246     	 mov r2,r0
 2434 139e 0B46     	 mov r3,r1
 2435 13a0 6F49     	 ldr r1,.L273+16
 2436 13a2 C1E91423 	 strd r2,[r1,#80]
 739:../Simulink/Subsystem_Transmission.c ****     /* UnitDelay: '<S214>/Delay Input1'
 740:../Simulink/Subsystem_Transmission.c ****  *
 741:../Simulink/Subsystem_Transmission.c ****  * Block description for '<S214>/Delay Input1':
 742:../Simulink/Subsystem_Transmission.c ****  *  
 743:../Simulink/Subsystem_Transmission.c ****  *  Store in Global RAM
 744:../Simulink/Subsystem_Transmission.c ****  */
 745:../Simulink/Subsystem_Transmission.c ****     /*@>25b53*/VCU_B./*@>2963d*/Uk1/*@>838f*/ = /*@>268f0*/VCU_DW./*@>29c85*/DelayInput1_DSTATE;
 2437              	 .loc 1 745 0 discriminator 6
 2438 13a6 6F4B     	 ldr r3,.L273+20
 2439 13a8 D3E90023 	 ldrd r2,[r3]
 2440 13ac 6C49     	 ldr r1,.L273+16
 2441 13ae C1E91623 	 strd r2,[r1,#88]
 746:../Simulink/Subsystem_Transmission.c ****     /* CombinatorialLogic: '<S215>/Logic' incorporates:
 747:../Simulink/Subsystem_Transmission.c ****  *  Delay: '<S200>/Delay1'
 748:../Simulink/Subsystem_Transmission.c ****  *  Memory: '<S215>/Memory'
 749:../Simulink/Subsystem_Transmission.c ****  *  RelationalOperator: '<S214>/FixPt Relational Operator'
 750:../Simulink/Subsystem_Transmission.c ****  */
 751:../Simulink/Subsystem_Transmission.c ****     /*@>25b71*/VCU_B./*@>2964c*/FixPtRelationalOperator/*@>79a5*/ = (/*@>25b77*/VCU_B./*@>2964f*/ST
 2442              	 .loc 1 751 0 discriminator 6
 2443 13b2 6B4B     	 ldr r3,.L273+16
 2444 13b4 03F59D63 	 add r3,r3,#1256
 2445 13b8 D3E90001 	 ldrd r0,[r3]
 2446 13bc 684B     	 ldr r3,.L273+16
 2447 13be D3E91623 	 ldrd r2,[r3,#88]
 2448 13c2 0124     	 movs r4,#1
 2449 13c4 FFF7FEFF 	 bl __aeabi_dcmpgt
 2450 13c8 0346     	 mov r3,r0
 2451 13ca 002B     	 cmp r3,#0
 2452 13cc 01D1     	 bne .L102
 2453 13ce 0023     	 movs r3,#0
 2454 13d0 1C46     	 mov r4,r3
 2455              	.L102:
 2456 13d2 E3B2     	 uxtb r3,r4
 2457 13d4 1A46     	 mov r2,r3
 2458 13d6 624B     	 ldr r3,.L273+16
 2459 13d8 83F8E326 	 strb r2,[r3,#1763]
 752:../Simulink/Subsystem_Transmission.c ****     /*@>25b9b*/VCU_B./*@>29661*/Delay1/*@>839b*/ = /*@>268f6*/VCU_DW./*@>29c88*/Delay1_DSTATE;
 2460              	 .loc 1 752 0 discriminator 6
 2461 13dc 614B     	 ldr r3,.L273+20
 2462 13de 93F8D720 	 ldrb r2,[r3,#215]
 2463 13e2 5F4B     	 ldr r3,.L273+16
 2464 13e4 83F8E426 	 strb r2,[r3,#1764]
 753:../Simulink/Subsystem_Transmission.c ****     /*@>25bdd*/VCU_B./*@>29682*/Memory_d/*@>79a8*/ = /*@>268fc*/VCU_DW./*@>29c8b*/Memory_PreviousIn
 2465              	 .loc 1 753 0 discriminator 6
 2466 13e8 5E4B     	 ldr r3,.L273+20
 2467 13ea 93F83921 	 ldrb r2,[r3,#313]
 2468 13ee 5C4B     	 ldr r3,.L273+16
 2469 13f0 83F8E526 	 strb r2,[r3,#1765]
 754:../Simulink/Subsystem_Transmission.c ****     /*@>2187e*/rowIdx/*@>1f04f*/ = /*@>25bef*/VCU_B./*@>2968b*/FixPtRelationalOperator;
 2470              	 .loc 1 754 0 discriminator 6
 2471 13f4 5A4B     	 ldr r3,.L273+16
 2472 13f6 93F8E336 	 ldrb r3,[r3,#1763]
 2473 13fa 7B61     	 str r3,[r7,#20]
 755:../Simulink/Subsystem_Transmission.c ****     /*@>21882*/rowIdx/*@>1f076*/ = /*@>2207b*/(int32_T)((/*@>22078*/(uint32_T)/*@>21884*/rowIdx/*@>
 2474              	 .loc 1 755 0 discriminator 6
 2475 13fc 7B69     	 ldr r3,[r7,#20]
 2476 13fe 5B00     	 lsls r3,r3,#1
 2477 1400 574A     	 ldr r2,.L273+16
 2478 1402 92F8E426 	 ldrb r2,[r2,#1764]
 2479 1406 1344     	 add r3,r3,r2
 2480 1408 7B61     	 str r3,[r7,#20]
 756:../Simulink/Subsystem_Transmission.c ****     /*@>21889*/rowIdx/*@>1f09d*/ = /*@>22087*/(int32_T)((/*@>22084*/(uint32_T)/*@>2188b*/rowIdx/*@>
 2481              	 .loc 1 756 0 discriminator 6
 2482 140a 7B69     	 ldr r3,[r7,#20]
 2483 140c 5B00     	 lsls r3,r3,#1
 2484 140e 544A     	 ldr r2,.L273+16
 2485 1410 92F8E526 	 ldrb r2,[r2,#1765]
 2486 1414 1344     	 add r3,r3,r2
 2487 1416 7B61     	 str r3,[r7,#20]
 757:../Simulink/Subsystem_Transmission.c ****     /*@>25c61*/VCU_B./*@>296c4*/Logic_i/*@>1f0b3*/[/*@>21892*/0U]/*@>1f0b2*/ = /*@>26768*/VCU_Const
 2488              	 .loc 1 757 0 discriminator 6
 2489 1418 7B69     	 ldr r3,[r7,#20]
 2490 141a 534A     	 ldr r2,.L273+24
 2491 141c 1344     	 add r3,r3,r2
 2492 141e 93F83023 	 ldrb r2,[r3,#816]
 2493 1422 4F4B     	 ldr r3,.L273+16
 2494 1424 83F8E626 	 strb r2,[r3,#1766]
 758:../Simulink/Subsystem_Transmission.c ****     /*@>25c79*/VCU_B./*@>296d0*/Logic_i/*@>1f0c6*/[/*@>21897*/1U]/*@>1f0c5*/ = /*@>2676e*/VCU_Const
 2495              	 .loc 1 758 0 discriminator 6
 2496 1428 7B69     	 ldr r3,[r7,#20]
 2497 142a 0833     	 adds r3,r3,#8
 2498 142c 4E4A     	 ldr r2,.L273+24
 2499 142e 1344     	 add r3,r3,r2
 2500 1430 93F83023 	 ldrb r2,[r3,#816]
 2501 1434 4A4B     	 ldr r3,.L273+16
 2502 1436 83F8E726 	 strb r2,[r3,#1767]
 759:../Simulink/Subsystem_Transmission.c ****     /* UnitDelay: '<S200>/Unit Delay4' */
 760:../Simulink/Subsystem_Transmission.c ****     /*@>25cb5*/VCU_B./*@>296ee*/UnitDelay4/*@>83f7*/ = /*@>26908*/VCU_DW./*@>29c91*/UnitDelay4_DSTA
 2503              	 .loc 1 760 0 discriminator 6
 2504 143a 4A4B     	 ldr r3,.L273+20
 2505 143c 93F8D820 	 ldrb r2,[r3,#216]
 2506 1440 474B     	 ldr r3,.L273+16
 2507 1442 83F8E826 	 strb r2,[r3,#1768]
 761:../Simulink/Subsystem_Transmission.c ****     /* Gain: '<S218>/Gain' */
 762:../Simulink/Subsystem_Transmission.c ****     /*@>25cd3*/VCU_B./*@>296fd*/Gain/*@>79b2*/ = /*@>2177b*/2.0/*@>21b89*/ * /*@>25cd9*/VCU_B./*@>2
 2508              	 .loc 1 762 0 discriminator 6
 2509 1446 464B     	 ldr r3,.L273+16
 2510 1448 03F58F63 	 add r3,r3,#1144
 2511 144c D3E90023 	 ldrd r2,[r3]
 2512 1450 1046     	 mov r0,r2
 2513 1452 1946     	 mov r1,r3
 2514 1454 FFF7FEFF 	 bl __aeabi_dadd
 2515 1458 0246     	 mov r2,r0
 2516 145a 0B46     	 mov r3,r1
 2517 145c 4049     	 ldr r1,.L273+16
 2518 145e C1E91823 	 strd r2,[r1,#96]
 763:../Simulink/Subsystem_Transmission.c ****     /* RelationalOperator: '<S218>/Relational Operator' incorporates:
 764:../Simulink/Subsystem_Transmission.c ****  *  Constant: '<S218>/Constant'
 765:../Simulink/Subsystem_Transmission.c ****  */
 766:../Simulink/Subsystem_Transmission.c ****     /*@>25cf1*/VCU_B./*@>2970c*/RelationalOperator_m/*@>79b6*/ = (/*@>25cf7*/VCU_B./*@>2970f*/Gain/
 2519              	 .loc 1 766 0 discriminator 6
 2520 1462 3F4B     	 ldr r3,.L273+16
 2521 1464 D3E91823 	 ldrd r2,[r3,#96]
 2522 1468 0121     	 movs r1,#1
 2523 146a 0C46     	 mov r4,r1
 2524 146c 1046     	 mov r0,r2
 2525 146e 1946     	 mov r1,r3
 2526 1470 37A3     	 adr r3,.L273
 2527 1472 D3E90023 	 ldrd r2,[r3]
 2528 1476 FFF7FEFF 	 bl __aeabi_dcmpgt
 2529 147a 0346     	 mov r3,r0
 2530 147c 002B     	 cmp r3,#0
 2531 147e 01D1     	 bne .L103
 2532 1480 0023     	 movs r3,#0
 2533 1482 1C46     	 mov r4,r3
 2534              	.L103:
 2535 1484 E3B2     	 uxtb r3,r4
 2536 1486 1A46     	 mov r2,r3
 2537 1488 354B     	 ldr r3,.L273+16
 2538 148a 83F8E926 	 strb r2,[r3,#1769]
 767:../Simulink/Subsystem_Transmission.c ****     /* RelationalOperator: '<S218>/Relational Operator1' incorporates:
 768:../Simulink/Subsystem_Transmission.c ****  *  Constant: '<S218>/Constant1'
 769:../Simulink/Subsystem_Transmission.c ****  */
 770:../Simulink/Subsystem_Transmission.c ****     /*@>25d2d*/VCU_B./*@>2972a*/RelationalOperator1_o/*@>79ba*/ = (/*@>25d33*/VCU_B./*@>2972d*/Gain
 2539              	 .loc 1 770 0 discriminator 6
 2540 148e 344B     	 ldr r3,.L273+16
 2541 1490 D3E91823 	 ldrd r2,[r3,#96]
 2542 1494 0121     	 movs r1,#1
 2543 1496 0C46     	 mov r4,r1
 2544 1498 1046     	 mov r0,r2
 2545 149a 1946     	 mov r1,r3
 2546 149c 4FF00002 	 mov r2,#0
 2547 14a0 324B     	 ldr r3,.L273+28
 2548 14a2 FFF7FEFF 	 bl __aeabi_dcmpgt
 2549 14a6 0346     	 mov r3,r0
 2550 14a8 002B     	 cmp r3,#0
 2551 14aa 01D1     	 bne .L104
 2552 14ac 0023     	 movs r3,#0
 2553 14ae 1C46     	 mov r4,r3
 2554              	.L104:
 2555 14b0 E3B2     	 uxtb r3,r4
 2556 14b2 1A46     	 mov r2,r3
 2557 14b4 2A4B     	 ldr r3,.L273+16
 2558 14b6 83F8EA26 	 strb r2,[r3,#1770]
 771:../Simulink/Subsystem_Transmission.c ****     /* RelationalOperator: '<S218>/Relational Operator2' incorporates:
 772:../Simulink/Subsystem_Transmission.c ****  *  Constant: '<S218>/Constant2'
 773:../Simulink/Subsystem_Transmission.c ****  */
 774:../Simulink/Subsystem_Transmission.c ****     /*@>25d45*/VCU_B./*@>29736*/RelationalOperator2/*@>79be*/ = (/*@>25d4b*/VCU_B./*@>29739*/Gain/*
 2559              	 .loc 1 774 0 discriminator 6
 2560 14ba 294B     	 ldr r3,.L273+16
 2561 14bc D3E91823 	 ldrd r2,[r3,#96]
 2562 14c0 0121     	 movs r1,#1
 2563 14c2 0C46     	 mov r4,r1
 2564 14c4 1046     	 mov r0,r2
 2565 14c6 1946     	 mov r1,r3
 2566 14c8 23A3     	 adr r3,.L273+8
 2567 14ca D3E90023 	 ldrd r2,[r3]
 2568 14ce FFF7FEFF 	 bl __aeabi_dcmpgt
 2569 14d2 0346     	 mov r3,r0
 2570 14d4 002B     	 cmp r3,#0
 2571 14d6 01D1     	 bne .L105
 2572 14d8 0023     	 movs r3,#0
 2573 14da 1C46     	 mov r4,r3
 2574              	.L105:
 2575 14dc E3B2     	 uxtb r3,r4
 2576 14de 1A46     	 mov r2,r3
 2577 14e0 1F4B     	 ldr r3,.L273+16
 2578 14e2 83F8EB26 	 strb r2,[r3,#1771]
 775:../Simulink/Subsystem_Transmission.c ****     /* Sum: '<S218>/Add' */
 776:../Simulink/Subsystem_Transmission.c ****     /*@>25d51*/VCU_B./*@>2973c*/Add_c/*@>a831*/ = /*@>220b8*/(uint8_T)((/*@>220b2*/(uint32_T)/*@>25
 2579              	 .loc 1 776 0 discriminator 6
 2580 14e6 1E4B     	 ldr r3,.L273+16
 2581 14e8 93F8E926 	 ldrb r2,[r3,#1769]
 2582 14ec 1C4B     	 ldr r3,.L273+16
 2583 14ee 93F8EA36 	 ldrb r3,[r3,#1770]
 2584 14f2 1344     	 add r3,r3,r2
 2585 14f4 DAB2     	 uxtb r2,r3
 2586 14f6 1A4B     	 ldr r3,.L273+16
 2587 14f8 93F8EB36 	 ldrb r3,[r3,#1771]
 2588 14fc 1344     	 add r3,r3,r2
 2589 14fe DAB2     	 uxtb r2,r3
 2590 1500 174B     	 ldr r3,.L273+16
 2591 1502 83F88426 	 strb r2,[r3,#1668]
 777:../Simulink/Subsystem_Transmission.c ****     /* RelationalOperator: '<S208>/Compare' incorporates:
 778:../Simulink/Subsystem_Transmission.c ****  *  Constant: '<S208>/Constant'
 779:../Simulink/Subsystem_Transmission.c ****  */
 780:../Simulink/Subsystem_Transmission.c ****     /*@>25d7b*/VCU_B./*@>29751*/Compare_b/*@>79c8*/ = (/*@>25d81*/VCU_B./*@>29754*/x_clutch_STW/*@>
 2592              	 .loc 1 780 0 discriminator 6
 2593 1506 164B     	 ldr r3,.L273+16
 2594 1508 03F59A63 	 add r3,r3,#1232
 2595 150c D3E90023 	 ldrd r2,[r3]
 2596 1510 0121     	 movs r1,#1
 2597 1512 0C46     	 mov r4,r1
 2598 1514 1046     	 mov r0,r2
 2599 1516 1946     	 mov r1,r3
 2600 1518 4FF00002 	 mov r2,#0
 2601 151c 144B     	 ldr r3,.L273+32
 2602 151e FFF7FEFF 	 bl __aeabi_dcmpge
 2603 1522 0346     	 mov r3,r0
 2604 1524 002B     	 cmp r3,#0
 2605 1526 01D1     	 bne .L106
 2606 1528 0023     	 movs r3,#0
 2607 152a 1C46     	 mov r4,r3
 2608              	.L106:
 2609 152c E3B2     	 uxtb r3,r4
 2610 152e 1A46     	 mov r2,r3
 2611 1530 0B4B     	 ldr r3,.L273+16
 2612 1532 83F8EC26 	 strb r2,[r3,#1772]
 781:../Simulink/Subsystem_Transmission.c ****     /* Switch: '<S200>/Switch' incorporates:
 782:../Simulink/Subsystem_Transmission.c ****  *  Constant: '<S200>/Constant'
 783:../Simulink/Subsystem_Transmission.c ****  *  Constant: '<S200>/Constant1'
 784:../Simulink/Subsystem_Transmission.c ****  */
 785:../Simulink/Subsystem_Transmission.c ****     /*@>1ec7c*/if (/*@>25d8d*/VCU_B./*@>2975a*/Compare_b) {
 2613              	 .loc 1 785 0 discriminator 6
 2614 1536 0A4B     	 ldr r3,.L273+16
 2615 1538 93F8EC36 	 ldrb r3,[r3,#1772]
 2616 153c 002B     	 cmp r3,#0
 2617 153e 1BD0     	 beq .L107
 786:../Simulink/Subsystem_Transmission.c ****         /*@>25d9f*/VCU_B./*@>29763*/Switch/*@>1ec7f*/ = /*@>21784*/1.0;
 2618              	 .loc 1 786 0
 2619 1540 0749     	 ldr r1,.L273+16
 2620 1542 4FF00002 	 mov r2,#0
 2621 1546 0B4B     	 ldr r3,.L273+36
 2622 1548 C1E91A23 	 strd r2,[r1,#104]
 2623 154c 1BE0     	 b .L108
 2624              	.L274:
 2625 154e 00BF     	 .align 3
 2626              	.L273:
 2627 1550 00000000 	 .word 0
 2628 1554 00206540 	 .word 1080369152
 2629 1558 00000000 	 .word 0
 2630 155c 00507440 	 .word 1081364480
 2631 1560 00000000 	 .word VCU_B
 2632 1564 00000000 	 .word VCU_DW
 2633 1568 00000000 	 .word VCU_ConstP
 2634 156c 00806C40 	 .word 1080852480
 2635 1570 00002E40 	 .word 1076756480
 2636 1574 0000F03F 	 .word 1072693248
 2637              	.L107:
 787:../Simulink/Subsystem_Transmission.c ****     } else {
 788:../Simulink/Subsystem_Transmission.c ****         /*@>25d99*/VCU_B./*@>29760*/Switch/*@>8407*/ = /*@>21785*/2.0;
 2638              	 .loc 1 788 0
 2639 1578 5F49     	 ldr r1,.L275+16
 2640 157a 4FF00002 	 mov r2,#0
 2641 157e 4FF08043 	 mov r3,#1073741824
 2642 1582 C1E91A23 	 strd r2,[r1,#104]
 2643              	.L108:
 789:../Simulink/Subsystem_Transmission.c ****     }
 790:../Simulink/Subsystem_Transmission.c ****     /* End of Switch: '<S200>/Switch' */
 791:../Simulink/Subsystem_Transmission.c **** 
 792:../Simulink/Subsystem_Transmission.c ****     /* RelationalOperator: '<S200>/Relational Operator' */
 793:../Simulink/Subsystem_Transmission.c ****     /*@>25dbd*/VCU_B./*@>29772*/LessthanNeutral/*@>79cd*/ = (/*@>25dc3*/VCU_B./*@>29775*/Add_c/*@>2
 2644              	 .loc 1 793 0
 2645 1586 5C4B     	 ldr r3,.L275+16
 2646 1588 93F88436 	 ldrb r3,[r3,#1668]
 2647 158c 1846     	 mov r0,r3
 2648 158e FFF7FEFF 	 bl __aeabi_i2d
 2649 1592 0446     	 mov r4,r0
 2650 1594 0D46     	 mov r5,r1
 2651 1596 584B     	 ldr r3,.L275+16
 2652 1598 D3E91A23 	 ldrd r2,[r3,#104]
 2653 159c 0121     	 movs r1,#1
 2654 159e 0E46     	 mov r6,r1
 2655 15a0 2046     	 mov r0,r4
 2656 15a2 2946     	 mov r1,r5
 2657 15a4 FFF7FEFF 	 bl __aeabi_dcmplt
 2658 15a8 0346     	 mov r3,r0
 2659 15aa 002B     	 cmp r3,#0
 2660 15ac 01D1     	 bne .L109
 2661 15ae 0023     	 movs r3,#0
 2662 15b0 1E46     	 mov r6,r3
 2663              	.L109:
 2664 15b2 F3B2     	 uxtb r3,r6
 2665 15b4 1A46     	 mov r2,r3
 2666 15b6 504B     	 ldr r3,.L275+16
 2667 15b8 83F8ED26 	 strb r2,[r3,#1773]
 794:../Simulink/Subsystem_Transmission.c ****     /* UnitDelay: '<S201>/Unit Delay' */
 795:../Simulink/Subsystem_Transmission.c ****     /*@>25de1*/VCU_B./*@>29784*/UnitDelay/*@>8418*/ = /*@>2691a*/VCU_DW./*@>29c9a*/UnitDelay_DSTATE
 2668              	 .loc 1 795 0
 2669 15bc 4F4B     	 ldr r3,.L275+20
 2670 15be 93F8D920 	 ldrb r2,[r3,#217]
 2671 15c2 4D4B     	 ldr r3,.L275+16
 2672 15c4 83F8EE26 	 strb r2,[r3,#1774]
 796:../Simulink/Subsystem_Transmission.c ****     /* UnitDelay: '<S200>/Unit Delay2' */
 797:../Simulink/Subsystem_Transmission.c ****     /*@>25df3*/VCU_B./*@>2978d*/Timeout/*@>8424*/ = /*@>26920*/VCU_DW./*@>29c9d*/UnitDelay2_DSTATE;
 2673              	 .loc 1 797 0
 2674 15c8 4C4B     	 ldr r3,.L275+20
 2675 15ca 93F8DA20 	 ldrb r2,[r3,#218]
 2676 15ce 4A4B     	 ldr r3,.L275+16
 2677 15d0 83F8EF26 	 strb r2,[r3,#1775]
 798:../Simulink/Subsystem_Transmission.c ****     /* RelationalOperator: '<S209>/Compare' incorporates:
 799:../Simulink/Subsystem_Transmission.c ****  *  Constant: '<S209>/Constant'
 800:../Simulink/Subsystem_Transmission.c ****  */
 801:../Simulink/Subsystem_Transmission.c ****     /*@>25e05*/VCU_B./*@>29796*/Compare_f/*@>79d3*/ = (/*@>25e0b*/VCU_B./*@>29799*/DataTypeConversi
 2678              	 .loc 1 801 0
 2679 15d4 484B     	 ldr r3,.L275+16
 2680 15d6 03F59063 	 add r3,r3,#1152
 2681 15da D3E90023 	 ldrd r2,[r3]
 2682 15de 0121     	 movs r1,#1
 2683 15e0 0C46     	 mov r4,r1
 2684 15e2 1046     	 mov r0,r2
 2685 15e4 1946     	 mov r1,r3
 2686 15e6 40A3     	 adr r3,.L275
 2687 15e8 D3E90023 	 ldrd r2,[r3]
 2688 15ec FFF7FEFF 	 bl __aeabi_dcmpgt
 2689 15f0 0346     	 mov r3,r0
 2690 15f2 002B     	 cmp r3,#0
 2691 15f4 01D1     	 bne .L110
 2692 15f6 0023     	 movs r3,#0
 2693 15f8 1C46     	 mov r4,r3
 2694              	.L110:
 2695 15fa E3B2     	 uxtb r3,r4
 2696 15fc 1A46     	 mov r2,r3
 2697 15fe 3E4B     	 ldr r3,.L275+16
 2698 1600 83F8F026 	 strb r2,[r3,#1776]
 802:../Simulink/Subsystem_Transmission.c ****     /* RelationalOperator: '<S210>/Compare' incorporates:
 803:../Simulink/Subsystem_Transmission.c ****  *  Constant: '<S210>/Constant'
 804:../Simulink/Subsystem_Transmission.c ****  */
 805:../Simulink/Subsystem_Transmission.c ****     /*@>25e23*/VCU_B./*@>297a5*/Compare_n/*@>79d7*/ = (/*@>25e29*/VCU_B./*@>297a8*/Add_c/*@>79d6*/ 
 2699              	 .loc 1 805 0
 2700 1604 3C4B     	 ldr r3,.L275+16
 2701 1606 93F88436 	 ldrb r3,[r3,#1668]
 2702 160a 022B     	 cmp r3,#2
 2703 160c 0CBF     	 ite eq
 2704 160e 0123     	 moveq r3,#1
 2705 1610 0023     	 movne r3,#0
 2706 1612 DBB2     	 uxtb r3,r3
 2707 1614 1A46     	 mov r2,r3
 2708 1616 384B     	 ldr r3,.L275+16
 2709 1618 83F8F126 	 strb r2,[r3,#1777]
 806:../Simulink/Subsystem_Transmission.c ****     /* Logic: '<S200>/Logical Operator1' */
 807:../Simulink/Subsystem_Transmission.c ****     /*@>25e59*/VCU_B./*@>297c0*/RPMcheckgear21/*@>79dd*/ = (/*@>25e5f*/VCU_B./*@>297c3*/Compare_n/*
 2710              	 .loc 1 807 0
 2711 161c 364B     	 ldr r3,.L275+16
 2712 161e 93F8F136 	 ldrb r3,[r3,#1777]
 2713 1622 002B     	 cmp r3,#0
 2714 1624 06D0     	 beq .L111
 2715              	 .loc 1 807 0 is_stmt 0 discriminator 1
 2716 1626 344B     	 ldr r3,.L275+16
 2717 1628 93F8F036 	 ldrb r3,[r3,#1776]
 2718 162c 002B     	 cmp r3,#0
 2719 162e 01D0     	 beq .L111
 2720              	 .loc 1 807 0 discriminator 3
 2721 1630 0123     	 movs r3,#1
 2722 1632 00E0     	 b .L112
 2723              	.L111:
 2724              	 .loc 1 807 0 discriminator 4
 2725 1634 0023     	 movs r3,#0
 2726              	.L112:
 2727              	 .loc 1 807 0 discriminator 6
 2728 1636 DAB2     	 uxtb r2,r3
 2729 1638 2F4B     	 ldr r3,.L275+16
 2730 163a 83F8F226 	 strb r2,[r3,#1778]
 808:../Simulink/Subsystem_Transmission.c ****     /* RelationalOperator: '<S211>/Compare' incorporates:
 809:../Simulink/Subsystem_Transmission.c ****  *  Constant: '<S211>/Constant'
 810:../Simulink/Subsystem_Transmission.c ****  */
 811:../Simulink/Subsystem_Transmission.c ****     /*@>25e71*/VCU_B./*@>297cc*/Compare_l/*@>79e1*/ = (/*@>25e77*/VCU_B./*@>297cf*/DataTypeConversi
 2731              	 .loc 1 811 0 is_stmt 1 discriminator 6
 2732 163e 2E4B     	 ldr r3,.L275+16
 2733 1640 03F59063 	 add r3,r3,#1152
 2734 1644 D3E90023 	 ldrd r2,[r3]
 2735 1648 0121     	 movs r1,#1
 2736 164a 0C46     	 mov r4,r1
 2737 164c 1046     	 mov r0,r2
 2738 164e 1946     	 mov r1,r3
 2739 1650 27A3     	 adr r3,.L275+8
 2740 1652 D3E90023 	 ldrd r2,[r3]
 2741 1656 FFF7FEFF 	 bl __aeabi_dcmpgt
 2742 165a 0346     	 mov r3,r0
 2743 165c 002B     	 cmp r3,#0
 2744 165e 01D1     	 bne .L113
 2745 1660 0023     	 movs r3,#0
 2746 1662 1C46     	 mov r4,r3
 2747              	.L113:
 2748 1664 E3B2     	 uxtb r3,r4
 2749 1666 1A46     	 mov r2,r3
 2750 1668 234B     	 ldr r3,.L275+16
 2751 166a 83F8F326 	 strb r2,[r3,#1779]
 812:../Simulink/Subsystem_Transmission.c ****     /* RelationalOperator: '<S212>/Compare' incorporates:
 813:../Simulink/Subsystem_Transmission.c ****  *  Constant: '<S212>/Constant'
 814:../Simulink/Subsystem_Transmission.c ****  */
 815:../Simulink/Subsystem_Transmission.c ****     /*@>25e83*/VCU_B./*@>297d5*/Compare_h/*@>79e5*/ = (/*@>25e89*/VCU_B./*@>297d8*/Add_c/*@>79e4*/ 
 2752              	 .loc 1 815 0 discriminator 6
 2753 166e 224B     	 ldr r3,.L275+16
 2754 1670 93F88436 	 ldrb r3,[r3,#1668]
 2755 1674 032B     	 cmp r3,#3
 2756 1676 0CBF     	 ite eq
 2757 1678 0123     	 moveq r3,#1
 2758 167a 0023     	 movne r3,#0
 2759 167c DBB2     	 uxtb r3,r3
 2760 167e 1A46     	 mov r2,r3
 2761 1680 1D4B     	 ldr r3,.L275+16
 2762 1682 83F8F426 	 strb r2,[r3,#1780]
 816:../Simulink/Subsystem_Transmission.c ****     /* Logic: '<S200>/Logical Operator2' */
 817:../Simulink/Subsystem_Transmission.c ****     /*@>25e8f*/VCU_B./*@>297db*/RPMcheckgear31/*@>79eb*/ = (/*@>25e95*/VCU_B./*@>297de*/Compare_l/*
 2763              	 .loc 1 817 0 discriminator 6
 2764 1686 1C4B     	 ldr r3,.L275+16
 2765 1688 93F8F336 	 ldrb r3,[r3,#1779]
 2766 168c 002B     	 cmp r3,#0
 2767 168e 06D0     	 beq .L114
 2768              	 .loc 1 817 0 is_stmt 0 discriminator 1
 2769 1690 194B     	 ldr r3,.L275+16
 2770 1692 93F8F436 	 ldrb r3,[r3,#1780]
 2771 1696 002B     	 cmp r3,#0
 2772 1698 01D0     	 beq .L114
 2773              	 .loc 1 817 0 discriminator 3
 2774 169a 0123     	 movs r3,#1
 2775 169c 00E0     	 b .L115
 2776              	.L114:
 2777              	 .loc 1 817 0 discriminator 4
 2778 169e 0023     	 movs r3,#0
 2779              	.L115:
 2780              	 .loc 1 817 0 discriminator 6
 2781 16a0 DAB2     	 uxtb r2,r3
 2782 16a2 154B     	 ldr r3,.L275+16
 2783 16a4 83F8F526 	 strb r2,[r3,#1781]
 818:../Simulink/Subsystem_Transmission.c ****     /* CombinatorialLogic: '<S216>/Logic' incorporates:
 819:../Simulink/Subsystem_Transmission.c ****  *  Logic: '<S200>/Logical Operator'
 820:../Simulink/Subsystem_Transmission.c ****  *  Memory: '<S216>/Memory'
 821:../Simulink/Subsystem_Transmission.c ****  */
 822:../Simulink/Subsystem_Transmission.c ****     /*@>25ea7*/VCU_B./*@>297e7*/LogicalOperator_d/*@>79fd*/ = (/*@>25ead*/VCU_B./*@>297ea*/UnitDela
 2784              	 .loc 1 822 0 is_stmt 1 discriminator 6
 2785 16a8 134B     	 ldr r3,.L275+16
 2786 16aa 93F8E836 	 ldrb r3,[r3,#1768]
 2787 16ae 002B     	 cmp r3,#0
 2788 16b0 18D1     	 bne .L116
 2789              	 .loc 1 822 0 is_stmt 0 discriminator 2
 2790 16b2 114B     	 ldr r3,.L275+16
 2791 16b4 93F8ED36 	 ldrb r3,[r3,#1773]
 2792 16b8 002B     	 cmp r3,#0
 2793 16ba 13D1     	 bne .L116
 2794              	 .loc 1 822 0 discriminator 4
 2795 16bc 0E4B     	 ldr r3,.L275+16
 2796 16be 93F8EE36 	 ldrb r3,[r3,#1774]
 2797 16c2 002B     	 cmp r3,#0
 2798 16c4 0ED1     	 bne .L116
 2799              	 .loc 1 822 0 discriminator 6
 2800 16c6 0C4B     	 ldr r3,.L275+16
 2801 16c8 93F8EF36 	 ldrb r3,[r3,#1775]
 2802 16cc 002B     	 cmp r3,#0
 2803 16ce 09D1     	 bne .L116
 2804              	 .loc 1 822 0 discriminator 8
 2805 16d0 094B     	 ldr r3,.L275+16
 2806 16d2 93F8F236 	 ldrb r3,[r3,#1778]
 2807 16d6 002B     	 cmp r3,#0
 2808 16d8 04D1     	 bne .L116
 2809              	 .loc 1 822 0 discriminator 10
 2810 16da 074B     	 ldr r3,.L275+16
 2811 16dc 93F8F536 	 ldrb r3,[r3,#1781]
 2812 16e0 002B     	 cmp r3,#0
 2813 16e2 0DD0     	 beq .L117
 2814              	.L116:
 2815              	 .loc 1 822 0 discriminator 11
 2816 16e4 0123     	 movs r3,#1
 2817 16e6 0CE0     	 b .L118
 2818              	.L276:
 2819              	 .align 3
 2820              	.L275:
 2821 16e8 00000000 	 .word 0
 2822 16ec 0088B340 	 .word 1085507584
 2823 16f0 00000000 	 .word 0
 2824 16f4 00B4B440 	 .word 1085584384
 2825 16f8 00000000 	 .word VCU_B
 2826 16fc 00000000 	 .word VCU_DW
 2827              	.L117:
 2828              	 .loc 1 822 0 discriminator 12
 2829 1700 0023     	 movs r3,#0
 2830              	.L118:
 2831              	 .loc 1 822 0 discriminator 14
 2832 1702 DAB2     	 uxtb r2,r3
 2833 1704 964B     	 ldr r3,.L277+16
 2834 1706 83F8F626 	 strb r2,[r3,#1782]
 823:../Simulink/Subsystem_Transmission.c ****     /*@>25ed7*/VCU_B./*@>297ff*/Memory_l/*@>79ff*/ = /*@>2692c*/VCU_DW./*@>29ca3*/Memory_PreviousIn
 2835              	 .loc 1 823 0 is_stmt 1 discriminator 14
 2836 170a 964B     	 ldr r3,.L277+20
 2837 170c 93F83A21 	 ldrb r2,[r3,#314]
 2838 1710 934B     	 ldr r3,.L277+16
 2839 1712 83F8F726 	 strb r2,[r3,#1783]
 824:../Simulink/Subsystem_Transmission.c ****     /*@>219c5*/tmp/*@>1f18e*/ = /*@>25ee3*/VCU_B./*@>29805*/Logic_i/*@>24ef8*/[/*@>24ef5*/0];
 2840              	 .loc 1 824 0 discriminator 14
 2841 1716 924B     	 ldr r3,.L277+16
 2842 1718 93F8E636 	 ldrb r3,[r3,#1766]
 2843 171c FB71     	 strb r3,[r7,#7]
 825:../Simulink/Subsystem_Transmission.c ****     /*@>218b8*/rowIdx/*@>1f1a5*/ = /*@>219c7*/tmp;
 2844              	 .loc 1 825 0 discriminator 14
 2845 171e FB79     	 ldrb r3,[r7,#7]
 2846 1720 7B61     	 str r3,[r7,#20]
 826:../Simulink/Subsystem_Transmission.c ****     /*@>218bc*/rowIdx/*@>1f1ce*/ = /*@>2212f*/(int32_T)((/*@>2212c*/(uint32_T)/*@>218be*/rowIdx/*@>
 2847              	 .loc 1 826 0 discriminator 14
 2848 1722 7B69     	 ldr r3,[r7,#20]
 2849 1724 5B00     	 lsls r3,r3,#1
 2850 1726 8E4A     	 ldr r2,.L277+16
 2851 1728 92F8F626 	 ldrb r2,[r2,#1782]
 2852 172c 1344     	 add r3,r3,r2
 2853 172e 7B61     	 str r3,[r7,#20]
 827:../Simulink/Subsystem_Transmission.c ****     /*@>218c3*/rowIdx/*@>1f1f7*/ = /*@>2213c*/(int32_T)((/*@>22139*/(uint32_T)/*@>218c5*/rowIdx/*@>
 2854              	 .loc 1 827 0 discriminator 14
 2855 1730 7B69     	 ldr r3,[r7,#20]
 2856 1732 5B00     	 lsls r3,r3,#1
 2857 1734 8A4A     	 ldr r2,.L277+16
 2858 1736 92F8F726 	 ldrb r2,[r2,#1783]
 2859 173a 1344     	 add r3,r3,r2
 2860 173c 7B61     	 str r3,[r7,#20]
 828:../Simulink/Subsystem_Transmission.c ****     /*@>25f25*/VCU_B./*@>29826*/Logic_iy/*@>1f20d*/[/*@>218cc*/0U]/*@>1f20c*/ = /*@>26780*/VCU_Cons
 2861              	 .loc 1 828 0 discriminator 14
 2862 173e 7B69     	 ldr r3,[r7,#20]
 2863 1740 894A     	 ldr r2,.L277+24
 2864 1742 1344     	 add r3,r3,r2
 2865 1744 93F83023 	 ldrb r2,[r3,#816]
 2866 1748 854B     	 ldr r3,.L277+16
 2867 174a 83F8F826 	 strb r2,[r3,#1784]
 829:../Simulink/Subsystem_Transmission.c ****     /*@>25f37*/VCU_B./*@>2982f*/Logic_iy/*@>1f220*/[/*@>218d1*/1U]/*@>1f21f*/ = /*@>26786*/VCU_Cons
 2868              	 .loc 1 829 0 discriminator 14
 2869 174e 7B69     	 ldr r3,[r7,#20]
 2870 1750 0833     	 adds r3,r3,#8
 2871 1752 854A     	 ldr r2,.L277+24
 2872 1754 1344     	 add r3,r3,r2
 2873 1756 93F83023 	 ldrb r2,[r3,#816]
 2874 175a 814B     	 ldr r3,.L277+16
 2875 175c 83F8F926 	 strb r2,[r3,#1785]
 830:../Simulink/Subsystem_Transmission.c ****     /* UnitDelay: '<S222>/Delay Input1'
 831:../Simulink/Subsystem_Transmission.c ****  *
 832:../Simulink/Subsystem_Transmission.c ****  * Block description for '<S222>/Delay Input1':
 833:../Simulink/Subsystem_Transmission.c ****  *  
 834:../Simulink/Subsystem_Transmission.c ****  *  Store in Global RAM
 835:../Simulink/Subsystem_Transmission.c ****  */
 836:../Simulink/Subsystem_Transmission.c ****     /*@>25f49*/VCU_B./*@>29838*/Uk1_i/*@>8480*/ = /*@>26932*/VCU_DW./*@>29ca6*/DelayInput1_DSTATE_g
 2876              	 .loc 1 836 0 discriminator 14
 2877 1760 804B     	 ldr r3,.L277+20
 2878 1762 D3E90223 	 ldrd r2,[r3,#8]
 2879 1766 7E49     	 ldr r1,.L277+16
 2880 1768 C1E91C23 	 strd r2,[r1,#112]
 837:../Simulink/Subsystem_Transmission.c ****     /* CombinatorialLogic: '<S225>/Logic' incorporates:
 838:../Simulink/Subsystem_Transmission.c ****  *  RelationalOperator: '<S222>/FixPt Relational Operator'
 839:../Simulink/Subsystem_Transmission.c ****  */
 840:../Simulink/Subsystem_Transmission.c ****     /*@>25f5b*/VCU_B./*@>29841*/FixPtRelationalOperator_c/*@>7a05*/ = (/*@>25f61*/VCU_B./*@>29844*/
 2881              	 .loc 1 840 0 discriminator 14
 2882 176c 7C4B     	 ldr r3,.L277+16
 2883 176e 03F59C63 	 add r3,r3,#1248
 2884 1772 D3E90001 	 ldrd r0,[r3]
 2885 1776 7A4B     	 ldr r3,.L277+16
 2886 1778 D3E91C23 	 ldrd r2,[r3,#112]
 2887 177c 0124     	 movs r4,#1
 2888 177e FFF7FEFF 	 bl __aeabi_dcmpgt
 2889 1782 0346     	 mov r3,r0
 2890 1784 002B     	 cmp r3,#0
 2891 1786 01D1     	 bne .L119
 2892 1788 0023     	 movs r3,#0
 2893 178a 1C46     	 mov r4,r3
 2894              	.L119:
 2895 178c E3B2     	 uxtb r3,r4
 2896 178e 1A46     	 mov r2,r3
 2897 1790 734B     	 ldr r3,.L277+16
 2898 1792 83F8FA26 	 strb r2,[r3,#1786]
 841:../Simulink/Subsystem_Transmission.c ****     /* Gain: '<S227>/Gain' */
 842:../Simulink/Subsystem_Transmission.c ****     /*@>25f79*/VCU_B./*@>29850*/Gain_m/*@>7a0d*/ = /*@>21793*/2.0/*@>21b48*/ * /*@>25f7f*/VCU_B./*@
 2899              	 .loc 1 842 0 discriminator 14
 2900 1796 724B     	 ldr r3,.L277+16
 2901 1798 03F58F63 	 add r3,r3,#1144
 2902 179c D3E90023 	 ldrd r2,[r3]
 2903 17a0 1046     	 mov r0,r2
 2904 17a2 1946     	 mov r1,r3
 2905 17a4 FFF7FEFF 	 bl __aeabi_dadd
 2906 17a8 0246     	 mov r2,r0
 2907 17aa 0B46     	 mov r3,r1
 2908 17ac 6C49     	 ldr r1,.L277+16
 2909 17ae C1E91E23 	 strd r2,[r1,#120]
 843:../Simulink/Subsystem_Transmission.c ****     /* RelationalOperator: '<S227>/Relational Operator' incorporates:
 844:../Simulink/Subsystem_Transmission.c ****  *  Constant: '<S227>/Constant'
 845:../Simulink/Subsystem_Transmission.c ****  */
 846:../Simulink/Subsystem_Transmission.c ****     /*@>25f9d*/VCU_B./*@>29862*/RelationalOperator_d/*@>7a11*/ = (/*@>25fa3*/VCU_B./*@>29865*/Gain_
 2910              	 .loc 1 846 0 discriminator 14
 2911 17b2 6B4B     	 ldr r3,.L277+16
 2912 17b4 D3E91E23 	 ldrd r2,[r3,#120]
 2913 17b8 0121     	 movs r1,#1
 2914 17ba 0C46     	 mov r4,r1
 2915 17bc 1046     	 mov r0,r2
 2916 17be 1946     	 mov r1,r3
 2917 17c0 63A3     	 adr r3,.L277
 2918 17c2 D3E90023 	 ldrd r2,[r3]
 2919 17c6 FFF7FEFF 	 bl __aeabi_dcmpgt
 2920 17ca 0346     	 mov r3,r0
 2921 17cc 002B     	 cmp r3,#0
 2922 17ce 01D1     	 bne .L120
 2923 17d0 0023     	 movs r3,#0
 2924 17d2 1C46     	 mov r4,r3
 2925              	.L120:
 2926 17d4 E3B2     	 uxtb r3,r4
 2927 17d6 1A46     	 mov r2,r3
 2928 17d8 614B     	 ldr r3,.L277+16
 2929 17da 83F8FB26 	 strb r2,[r3,#1787]
 847:../Simulink/Subsystem_Transmission.c ****     /* RelationalOperator: '<S227>/Relational Operator1' incorporates:
 848:../Simulink/Subsystem_Transmission.c ****  *  Constant: '<S227>/Constant1'
 849:../Simulink/Subsystem_Transmission.c ****  */
 850:../Simulink/Subsystem_Transmission.c ****     /*@>25fb5*/VCU_B./*@>2986e*/RelationalOperator1_a/*@>7a15*/ = (/*@>25fbb*/VCU_B./*@>29871*/Gain
 2930              	 .loc 1 850 0 discriminator 14
 2931 17de 604B     	 ldr r3,.L277+16
 2932 17e0 D3E91E23 	 ldrd r2,[r3,#120]
 2933 17e4 0121     	 movs r1,#1
 2934 17e6 0C46     	 mov r4,r1
 2935 17e8 1046     	 mov r0,r2
 2936 17ea 1946     	 mov r1,r3
 2937 17ec 5AA3     	 adr r3,.L277+8
 2938 17ee D3E90023 	 ldrd r2,[r3]
 2939 17f2 FFF7FEFF 	 bl __aeabi_dcmpgt
 2940 17f6 0346     	 mov r3,r0
 2941 17f8 002B     	 cmp r3,#0
 2942 17fa 01D1     	 bne .L121
 2943 17fc 0023     	 movs r3,#0
 2944 17fe 1C46     	 mov r4,r3
 2945              	.L121:
 2946 1800 E3B2     	 uxtb r3,r4
 2947 1802 1A46     	 mov r2,r3
 2948 1804 564B     	 ldr r3,.L277+16
 2949 1806 83F8FC26 	 strb r2,[r3,#1788]
 851:../Simulink/Subsystem_Transmission.c ****     /* RelationalOperator: '<S227>/Relational Operator2' incorporates:
 852:../Simulink/Subsystem_Transmission.c ****  *  Constant: '<S227>/Constant2'
 853:../Simulink/Subsystem_Transmission.c ****  */
 854:../Simulink/Subsystem_Transmission.c ****     /*@>25fd3*/VCU_B./*@>2987d*/RelationalOperator2_d/*@>7a19*/ = (/*@>25fd9*/VCU_B./*@>29880*/Gain
 2950              	 .loc 1 854 0 discriminator 14
 2951 180a 554B     	 ldr r3,.L277+16
 2952 180c D3E91E23 	 ldrd r2,[r3,#120]
 2953 1810 0121     	 movs r1,#1
 2954 1812 0C46     	 mov r4,r1
 2955 1814 1046     	 mov r0,r2
 2956 1816 1946     	 mov r1,r3
 2957 1818 4FF00002 	 mov r2,#0
 2958 181c 534B     	 ldr r3,.L277+28
 2959 181e FFF7FEFF 	 bl __aeabi_dcmpgt
 2960 1822 0346     	 mov r3,r0
 2961 1824 002B     	 cmp r3,#0
 2962 1826 01D1     	 bne .L122
 2963 1828 0023     	 movs r3,#0
 2964 182a 1C46     	 mov r4,r3
 2965              	.L122:
 2966 182c E3B2     	 uxtb r3,r4
 2967 182e 1A46     	 mov r2,r3
 2968 1830 4B4B     	 ldr r3,.L277+16
 2969 1832 83F8FD26 	 strb r2,[r3,#1789]
 855:../Simulink/Subsystem_Transmission.c ****     /* Sum: '<S227>/Add' */
 856:../Simulink/Subsystem_Transmission.c ****     /*@>25fe5*/VCU_B./*@>29886*/Add_j/*@>a83a*/ = /*@>22178*/(uint8_T)((/*@>22172*/(uint32_T)/*@>25
 2970              	 .loc 1 856 0 discriminator 14
 2971 1836 4A4B     	 ldr r3,.L277+16
 2972 1838 93F8FB26 	 ldrb r2,[r3,#1787]
 2973 183c 484B     	 ldr r3,.L277+16
 2974 183e 93F8FC36 	 ldrb r3,[r3,#1788]
 2975 1842 1344     	 add r3,r3,r2
 2976 1844 DAB2     	 uxtb r2,r3
 2977 1846 464B     	 ldr r3,.L277+16
 2978 1848 93F8FD36 	 ldrb r3,[r3,#1789]
 2979 184c 1344     	 add r3,r3,r2
 2980 184e DAB2     	 uxtb r2,r3
 2981 1850 434B     	 ldr r3,.L277+16
 2982 1852 83F88526 	 strb r2,[r3,#1669]
 857:../Simulink/Subsystem_Transmission.c ****     /* UnitDelay: '<S223>/Delay Input1'
 858:../Simulink/Subsystem_Transmission.c ****  *
 859:../Simulink/Subsystem_Transmission.c ****  * Block description for '<S223>/Delay Input1':
 860:../Simulink/Subsystem_Transmission.c ****  *  
 861:../Simulink/Subsystem_Transmission.c ****  *  Store in Global RAM
 862:../Simulink/Subsystem_Transmission.c ****  */
 863:../Simulink/Subsystem_Transmission.c ****     /*@>2600f*/VCU_B./*@>2989b*/Uk1_b/*@>848c*/ = /*@>2693e*/VCU_DW./*@>29cac*/DelayInput1_DSTATE_g
 2983              	 .loc 1 863 0 discriminator 14
 2984 1856 434B     	 ldr r3,.L277+20
 2985 1858 93F8BC20 	 ldrb r2,[r3,#188]
 2986 185c 404B     	 ldr r3,.L277+16
 2987 185e 83F88626 	 strb r2,[r3,#1670]
 864:../Simulink/Subsystem_Transmission.c ****     /* RelationalOperator: '<S223>/FixPt Relational Operator' */
 865:../Simulink/Subsystem_Transmission.c ****     /*@>26021*/VCU_B./*@>298a4*/FixPtRelationalOperator_m/*@>7a24*/ = (/*@>26027*/VCU_B./*@>298a7*/
 2988              	 .loc 1 865 0 discriminator 14
 2989 1862 3F4B     	 ldr r3,.L277+16
 2990 1864 93F88526 	 ldrb r2,[r3,#1669]
 2991 1868 3D4B     	 ldr r3,.L277+16
 2992 186a 93F88636 	 ldrb r3,[r3,#1670]
 2993 186e 9A42     	 cmp r2,r3
 2994 1870 8CBF     	 ite hi
 2995 1872 0123     	 movhi r3,#1
 2996 1874 0023     	 movls r3,#0
 2997 1876 DBB2     	 uxtb r3,r3
 2998 1878 1A46     	 mov r2,r3
 2999 187a 394B     	 ldr r3,.L277+16
 3000 187c 83F8FE26 	 strb r2,[r3,#1790]
 866:../Simulink/Subsystem_Transmission.c ****     /* RelationalOperator: '<S219>/Compare' incorporates:
 867:../Simulink/Subsystem_Transmission.c ****  *  Constant: '<S219>/Constant'
 868:../Simulink/Subsystem_Transmission.c ****  */
 869:../Simulink/Subsystem_Transmission.c ****     /*@>26039*/VCU_B./*@>298b0*/Compare_ha/*@>7a28*/ = (/*@>2603f*/VCU_B./*@>298b3*/Add_j/*@>7a27*/
 3001              	 .loc 1 869 0 discriminator 14
 3002 1880 374B     	 ldr r3,.L277+16
 3003 1882 93F88536 	 ldrb r3,[r3,#1669]
 3004 1886 022B     	 cmp r3,#2
 3005 1888 8CBF     	 ite hi
 3006 188a 0123     	 movhi r3,#1
 3007 188c 0023     	 movls r3,#0
 3008 188e DBB2     	 uxtb r3,r3
 3009 1890 1A46     	 mov r2,r3
 3010 1892 334B     	 ldr r3,.L277+16
 3011 1894 83F8FF26 	 strb r2,[r3,#1791]
 870:../Simulink/Subsystem_Transmission.c ****     /* UnitDelay: '<S200>/Unit Delay' */
 871:../Simulink/Subsystem_Transmission.c ****     /*@>26057*/VCU_B./*@>298bf*/UnitDelay_p/*@>8498*/ = /*@>2694a*/VCU_DW./*@>29cb2*/UnitDelay_DSTA
 3012              	 .loc 1 871 0 discriminator 14
 3013 1898 324B     	 ldr r3,.L277+20
 3014 189a 93F8DB20 	 ldrb r2,[r3,#219]
 3015 189e 304B     	 ldr r3,.L277+16
 3016 18a0 83F80027 	 strb r2,[r3,#1792]
 872:../Simulink/Subsystem_Transmission.c ****     /* UnitDelay: '<S201>/Unit Delay1' */
 873:../Simulink/Subsystem_Transmission.c ****     /*@>26069*/VCU_B./*@>298c8*/Timeout_i/*@>84a4*/ = /*@>26950*/VCU_DW./*@>29cb5*/UnitDelay1_DSTAT
 3017              	 .loc 1 873 0 discriminator 14
 3018 18a4 2F4B     	 ldr r3,.L277+20
 3019 18a6 93F8DC20 	 ldrb r2,[r3,#220]
 3020 18aa 2D4B     	 ldr r3,.L277+16
 3021 18ac 83F80127 	 strb r2,[r3,#1793]
 874:../Simulink/Subsystem_Transmission.c ****     /* RelationalOperator: '<S221>/Compare' incorporates:
 875:../Simulink/Subsystem_Transmission.c ****  *  Constant: '<S221>/Constant'
 876:../Simulink/Subsystem_Transmission.c ****  */
 877:../Simulink/Subsystem_Transmission.c ****     /*@>26075*/VCU_B./*@>298ce*/Compare_e/*@>7a2e*/ = (/*@>2607b*/VCU_B./*@>298d1*/Add_j/*@>7a2d*/ 
 3022              	 .loc 1 877 0 discriminator 14
 3023 18b0 2B4B     	 ldr r3,.L277+16
 3024 18b2 93F88536 	 ldrb r3,[r3,#1669]
 3025 18b6 002B     	 cmp r3,#0
 3026 18b8 0CBF     	 ite eq
 3027 18ba 0123     	 moveq r3,#1
 3028 18bc 0023     	 movne r3,#0
 3029 18be DBB2     	 uxtb r3,r3
 3030 18c0 1A46     	 mov r2,r3
 3031 18c2 274B     	 ldr r3,.L277+16
 3032 18c4 83F80227 	 strb r2,[r3,#1794]
 878:../Simulink/Subsystem_Transmission.c ****     /* RelationalOperator: '<S220>/Compare' incorporates:
 879:../Simulink/Subsystem_Transmission.c ****  *  Constant: '<S220>/Constant'
 880:../Simulink/Subsystem_Transmission.c ****  */
 881:../Simulink/Subsystem_Transmission.c ****     /*@>26087*/VCU_B./*@>298d7*/Compare_a/*@>7a32*/ = (/*@>2608d*/VCU_B./*@>298da*/x_clutch_STW/*@>
 3033              	 .loc 1 881 0 discriminator 14
 3034 18c8 254B     	 ldr r3,.L277+16
 3035 18ca 03F59A63 	 add r3,r3,#1232
 3036 18ce D3E90023 	 ldrd r2,[r3]
 3037 18d2 0121     	 movs r1,#1
 3038 18d4 0C46     	 mov r4,r1
 3039 18d6 1046     	 mov r0,r2
 3040 18d8 1946     	 mov r1,r3
 3041 18da 4FF00002 	 mov r2,#0
 3042 18de 244B     	 ldr r3,.L277+32
 3043 18e0 FFF7FEFF 	 bl __aeabi_dcmplt
 3044 18e4 0346     	 mov r3,r0
 3045 18e6 002B     	 cmp r3,#0
 3046 18e8 01D1     	 bne .L123
 3047 18ea 0023     	 movs r3,#0
 3048 18ec 1C46     	 mov r4,r3
 3049              	.L123:
 3050 18ee E3B2     	 uxtb r3,r4
 3051 18f0 1A46     	 mov r2,r3
 3052 18f2 1B4B     	 ldr r3,.L277+16
 3053 18f4 83F80327 	 strb r2,[r3,#1795]
 882:../Simulink/Subsystem_Transmission.c ****     /* Logic: '<S201>/Logical Operator1' */
 883:../Simulink/Subsystem_Transmission.c ****     /*@>2609f*/VCU_B./*@>298e3*/FailSafefirstgear/*@>7a38*/ = (/*@>260a5*/VCU_B./*@>298e6*/Compare_
 3054              	 .loc 1 883 0 discriminator 14
 3055 18f8 194B     	 ldr r3,.L277+16
 3056 18fa 93F80237 	 ldrb r3,[r3,#1794]
 3057 18fe 002B     	 cmp r3,#0
 3058 1900 06D0     	 beq .L124
 3059              	 .loc 1 883 0 is_stmt 0 discriminator 1
 3060 1902 174B     	 ldr r3,.L277+16
 3061 1904 93F80337 	 ldrb r3,[r3,#1795]
 3062 1908 002B     	 cmp r3,#0
 3063 190a 01D0     	 beq .L124
 3064              	 .loc 1 883 0 discriminator 3
 3065 190c 0123     	 movs r3,#1
 3066 190e 00E0     	 b .L125
 3067              	.L124:
 3068              	 .loc 1 883 0 discriminator 4
 3069 1910 0023     	 movs r3,#0
 3070              	.L125:
 3071              	 .loc 1 883 0 discriminator 6
 3072 1912 DAB2     	 uxtb r2,r3
 3073 1914 124B     	 ldr r3,.L277+16
 3074 1916 83F80427 	 strb r2,[r3,#1796]
 884:../Simulink/Subsystem_Transmission.c ****     /* CombinatorialLogic: '<S225>/Logic' incorporates:
 885:../Simulink/Subsystem_Transmission.c ****  *  Logic: '<S201>/Logical Operator'
 886:../Simulink/Subsystem_Transmission.c ****  *  Memory: '<S225>/Memory'
 887:../Simulink/Subsystem_Transmission.c ****  */
 888:../Simulink/Subsystem_Transmission.c ****     /*@>260bd*/VCU_B./*@>298f2*/LogicalOperator_i/*@>7a47*/ = (/*@>260c3*/VCU_B./*@>298f5*/FixPtRel
 3075              	 .loc 1 888 0 is_stmt 1 discriminator 6
 3076 191a 114B     	 ldr r3,.L277+16
 3077 191c 93F8FE36 	 ldrb r3,[r3,#1790]
 3078 1920 002B     	 cmp r3,#0
 3079 1922 13D1     	 bne .L126
 3080              	 .loc 1 888 0 is_stmt 0 discriminator 2
 3081 1924 0E4B     	 ldr r3,.L277+16
 3082 1926 93F8FF36 	 ldrb r3,[r3,#1791]
 3083 192a 002B     	 cmp r3,#0
 3084 192c 0ED1     	 bne .L126
 3085              	 .loc 1 888 0 discriminator 4
 3086 192e 0C4B     	 ldr r3,.L277+16
 3087 1930 93F80037 	 ldrb r3,[r3,#1792]
 3088 1934 002B     	 cmp r3,#0
 3089 1936 09D1     	 bne .L126
 3090              	 .loc 1 888 0 discriminator 6
 3091 1938 094B     	 ldr r3,.L277+16
 3092 193a 93F80137 	 ldrb r3,[r3,#1793]
 3093 193e 002B     	 cmp r3,#0
 3094 1940 04D1     	 bne .L126
 3095              	 .loc 1 888 0 discriminator 8
 3096 1942 074B     	 ldr r3,.L277+16
 3097 1944 93F80437 	 ldrb r3,[r3,#1796]
 3098 1948 002B     	 cmp r3,#0
 3099 194a 13D0     	 beq .L127
 3100              	.L126:
 3101              	 .loc 1 888 0 discriminator 9
 3102 194c 0123     	 movs r3,#1
 3103 194e 12E0     	 b .L128
 3104              	.L278:
 3105              	 .align 3
 3106              	.L277:
 3107 1950 00000000 	 .word 0
 3108 1954 00206540 	 .word 1080369152
 3109 1958 00000000 	 .word 0
 3110 195c 00D07040 	 .word 1081135104
 3111 1960 00000000 	 .word VCU_B
 3112 1964 00000000 	 .word VCU_DW
 3113 1968 00000000 	 .word VCU_ConstP
 3114 196c 00807640 	 .word 1081507840
 3115 1970 00002E40 	 .word 1076756480
 3116              	.L127:
 3117              	 .loc 1 888 0 discriminator 10
 3118 1974 0023     	 movs r3,#0
 3119              	.L128:
 3120              	 .loc 1 888 0 discriminator 12
 3121 1976 DAB2     	 uxtb r2,r3
 3122 1978 B04B     	 ldr r3,.L279
 3123 197a 83F80527 	 strb r2,[r3,#1797]
 889:../Simulink/Subsystem_Transmission.c ****     /*@>260f3*/VCU_B./*@>2990d*/Memory_a/*@>7a49*/ = /*@>26962*/VCU_DW./*@>29cbe*/Memory_PreviousIn
 3124              	 .loc 1 889 0 is_stmt 1 discriminator 12
 3125 197e B04B     	 ldr r3,.L279+4
 3126 1980 93F83B21 	 ldrb r2,[r3,#315]
 3127 1984 AD4B     	 ldr r3,.L279
 3128 1986 83F80627 	 strb r2,[r3,#1798]
 890:../Simulink/Subsystem_Transmission.c ****     /*@>218d4*/rowIdx/*@>1f250*/ = /*@>2611d*/VCU_B./*@>29922*/FixPtRelationalOperator_c;
 3129              	 .loc 1 890 0 discriminator 12
 3130 198a AC4B     	 ldr r3,.L279
 3131 198c 93F8FA36 	 ldrb r3,[r3,#1786]
 3132 1990 7B61     	 str r3,[r7,#20]
 891:../Simulink/Subsystem_Transmission.c ****     /*@>218d8*/rowIdx/*@>1f277*/ = /*@>221d2*/(int32_T)((/*@>221cf*/(uint32_T)/*@>218da*/rowIdx/*@>
 3133              	 .loc 1 891 0 discriminator 12
 3134 1992 7B69     	 ldr r3,[r7,#20]
 3135 1994 5B00     	 lsls r3,r3,#1
 3136 1996 A94A     	 ldr r2,.L279
 3137 1998 92F80527 	 ldrb r2,[r2,#1797]
 3138 199c 1344     	 add r3,r3,r2
 3139 199e 7B61     	 str r3,[r7,#20]
 892:../Simulink/Subsystem_Transmission.c ****     /*@>218df*/rowIdx/*@>1f29e*/ = /*@>221df*/(int32_T)((/*@>221dc*/(uint32_T)/*@>218e1*/rowIdx/*@>
 3140              	 .loc 1 892 0 discriminator 12
 3141 19a0 7B69     	 ldr r3,[r7,#20]
 3142 19a2 5B00     	 lsls r3,r3,#1
 3143 19a4 A54A     	 ldr r2,.L279
 3144 19a6 92F80627 	 ldrb r2,[r2,#1798]
 3145 19aa 1344     	 add r3,r3,r2
 3146 19ac 7B61     	 str r3,[r7,#20]
 893:../Simulink/Subsystem_Transmission.c ****     /*@>26153*/VCU_B./*@>2993d*/Logic_iz/*@>1f2b4*/[/*@>218e8*/0U]/*@>1f2b3*/ = /*@>2678c*/VCU_Cons
 3147              	 .loc 1 893 0 discriminator 12
 3148 19ae 7B69     	 ldr r3,[r7,#20]
 3149 19b0 A44A     	 ldr r2,.L279+8
 3150 19b2 1344     	 add r3,r3,r2
 3151 19b4 93F83023 	 ldrb r2,[r3,#816]
 3152 19b8 A04B     	 ldr r3,.L279
 3153 19ba 83F80727 	 strb r2,[r3,#1799]
 894:../Simulink/Subsystem_Transmission.c ****     /*@>2615f*/VCU_B./*@>29943*/Logic_iz/*@>1f2c7*/[/*@>218ed*/1U]/*@>1f2c6*/ = /*@>26792*/VCU_Cons
 3154              	 .loc 1 894 0 discriminator 12
 3155 19be 7B69     	 ldr r3,[r7,#20]
 3156 19c0 0833     	 adds r3,r3,#8
 3157 19c2 A04A     	 ldr r2,.L279+8
 3158 19c4 1344     	 add r3,r3,r2
 3159 19c6 93F83023 	 ldrb r2,[r3,#816]
 3160 19ca 9C4B     	 ldr r3,.L279
 3161 19cc 83F80827 	 strb r2,[r3,#1800]
 895:../Simulink/Subsystem_Transmission.c ****     /* CombinatorialLogic: '<S226>/Logic' incorporates:
 896:../Simulink/Subsystem_Transmission.c ****  *  S-Function (sdspcount2): '<S201>/Counter1'
 897:../Simulink/Subsystem_Transmission.c ****  */
 898:../Simulink/Subsystem_Transmission.c ****     /*@>2616b*/VCU_B./*@>29949*/Counter1/*@>8502*/ = /*@>2160d*/false;
 3162              	 .loc 1 898 0 discriminator 12
 3163 19d0 9A4B     	 ldr r3,.L279
 3164 19d2 0022     	 movs r2,#0
 3165 19d4 83F80927 	 strb r2,[r3,#1801]
 899:../Simulink/Subsystem_Transmission.c ****     /* S-Function (sdspcount2): '<S201>/Counter1' */
 900:../Simulink/Subsystem_Transmission.c ****     /*@>8506*/if (/*@>26177*/VCU_B./*@>2994f*/LogicalOperator_i) {
 3166              	 .loc 1 900 0 discriminator 12
 3167 19d8 984B     	 ldr r3,.L279
 3168 19da 93F80537 	 ldrb r3,[r3,#1797]
 3169 19de 002B     	 cmp r3,#0
 3170 19e0 03D0     	 beq .L129
 901:../Simulink/Subsystem_Transmission.c ****         /*@>2696e*/VCU_DW./*@>29cc4*/Counter1_Count/*@>850a*/ = /*@>28401*/0U;
 3171              	 .loc 1 901 0
 3172 19e2 974B     	 ldr r3,.L279+4
 3173 19e4 0022     	 movs r2,#0
 3174 19e6 83F8FA20 	 strb r2,[r3,#250]
 3175              	.L129:
 902:../Simulink/Subsystem_Transmission.c ****     }
 903:../Simulink/Subsystem_Transmission.c ****     /*@>8520*/if (/*@>26195*/VCU_B./*@>2995e*/Logic_iz/*@>24f3b*/[/*@>24f38*/0]) {
 3176              	 .loc 1 903 0
 3177 19ea 944B     	 ldr r3,.L279
 3178 19ec 93F80737 	 ldrb r3,[r3,#1799]
 3179 19f0 002B     	 cmp r3,#0
 3180 19f2 11D0     	 beq .L130
 904:../Simulink/Subsystem_Transmission.c ****         /*@>1ec81*/if (/*@>2697a*/VCU_DW./*@>29cca*/Counter1_Count/*@>8525*/ < /*@>2179f*/60) {
 3181              	 .loc 1 904 0
 3182 19f4 924B     	 ldr r3,.L279+4
 3183 19f6 93F8FA30 	 ldrb r3,[r3,#250]
 3184 19fa 3B2B     	 cmp r3,#59
 3185 19fc 08D8     	 bhi .L131
 905:../Simulink/Subsystem_Transmission.c ****             /*@>2698c*/VCU_DW./*@>29cd3*/Counter1_Count/*@>28453*/++;
 3186              	 .loc 1 905 0
 3187 19fe 904B     	 ldr r3,.L279+4
 3188 1a00 93F8FA30 	 ldrb r3,[r3,#250]
 3189 1a04 0133     	 adds r3,r3,#1
 3190 1a06 DAB2     	 uxtb r2,r3
 3191 1a08 8D4B     	 ldr r3,.L279+4
 3192 1a0a 83F8FA20 	 strb r2,[r3,#250]
 3193 1a0e 03E0     	 b .L130
 3194              	.L131:
 906:../Simulink/Subsystem_Transmission.c ****         } else {
 907:../Simulink/Subsystem_Transmission.c ****             /*@>26986*/VCU_DW./*@>29cd0*/Counter1_Count/*@>852c*/ = /*@>28404*/0U;
 3195              	 .loc 1 907 0
 3196 1a10 8B4B     	 ldr r3,.L279+4
 3197 1a12 0022     	 movs r2,#0
 3198 1a14 83F8FA20 	 strb r2,[r3,#250]
 3199              	.L130:
 908:../Simulink/Subsystem_Transmission.c ****         }
 909:../Simulink/Subsystem_Transmission.c ****     }
 910:../Simulink/Subsystem_Transmission.c ****     /*@>853e*/if (/*@>26980*/VCU_DW./*@>29ccd*/Counter1_Count/*@>853d*/ == /*@>217a0*/1) {
 3200              	 .loc 1 910 0
 3201 1a18 894B     	 ldr r3,.L279+4
 3202 1a1a 93F8FA30 	 ldrb r3,[r3,#250]
 3203 1a1e 012B     	 cmp r3,#1
 3204 1a20 03D1     	 bne .L132
 911:../Simulink/Subsystem_Transmission.c ****         /* CombinatorialLogic: '<S226>/Logic' */
 912:../Simulink/Subsystem_Transmission.c ****         /*@>261b9*/VCU_B./*@>29970*/Counter1/*@>8542*/ = /*@>2161c*/true;
 3205              	 .loc 1 912 0
 3206 1a22 864B     	 ldr r3,.L279
 3207 1a24 0122     	 movs r2,#1
 3208 1a26 83F80927 	 strb r2,[r3,#1801]
 3209              	.L132:
 913:../Simulink/Subsystem_Transmission.c ****     }
 914:../Simulink/Subsystem_Transmission.c ****     /* UnitDelay: '<S224>/Delay Input1'
 915:../Simulink/Subsystem_Transmission.c ****  *
 916:../Simulink/Subsystem_Transmission.c ****  * Block description for '<S224>/Delay Input1':
 917:../Simulink/Subsystem_Transmission.c ****  *  
 918:../Simulink/Subsystem_Transmission.c ****  *  Store in Global RAM
 919:../Simulink/Subsystem_Transmission.c ****  */
 920:../Simulink/Subsystem_Transmission.c ****     /*@>261c5*/VCU_B./*@>29976*/Uk1_m/*@>8585*/ = /*@>2699e*/VCU_DW./*@>29cd9*/DelayInput1_DSTATE_f
 3210              	 .loc 1 920 0
 3211 1a2a 854B     	 ldr r3,.L279+4
 3212 1a2c 93F8BD20 	 ldrb r2,[r3,#189]
 3213 1a30 824B     	 ldr r3,.L279
 3214 1a32 83F88726 	 strb r2,[r3,#1671]
 921:../Simulink/Subsystem_Transmission.c ****     /* RelationalOperator: '<S224>/FixPt Relational Operator' */
 922:../Simulink/Subsystem_Transmission.c ****     /*@>261d1*/VCU_B./*@>2997c*/FixPtRelationalOperator_b/*@>7a50*/ = (/*@>261d7*/VCU_B./*@>2997f*/
 3215              	 .loc 1 922 0
 3216 1a36 814B     	 ldr r3,.L279
 3217 1a38 93F88526 	 ldrb r2,[r3,#1669]
 3218 1a3c 7F4B     	 ldr r3,.L279
 3219 1a3e 93F88736 	 ldrb r3,[r3,#1671]
 3220 1a42 9A42     	 cmp r2,r3
 3221 1a44 8CBF     	 ite hi
 3222 1a46 0123     	 movhi r3,#1
 3223 1a48 0023     	 movls r3,#0
 3224 1a4a DBB2     	 uxtb r3,r3
 3225 1a4c 1A46     	 mov r2,r3
 3226 1a4e 7B4B     	 ldr r3,.L279
 3227 1a50 83F80A27 	 strb r2,[r3,#1802]
 923:../Simulink/Subsystem_Transmission.c ****     /* CombinatorialLogic: '<S226>/Logic' incorporates:
 924:../Simulink/Subsystem_Transmission.c ****  *  Logic: '<S201>/Logical Operator2'
 925:../Simulink/Subsystem_Transmission.c ****  *  Memory: '<S226>/Memory'
 926:../Simulink/Subsystem_Transmission.c ****  */
 927:../Simulink/Subsystem_Transmission.c ****     /*@>261e9*/VCU_B./*@>29988*/LogicalOperator2_h/*@>7a56*/ = (/*@>261ef*/VCU_B./*@>2998b*/Logical
 3228              	 .loc 1 927 0
 3229 1a54 794B     	 ldr r3,.L279
 3230 1a56 93F80537 	 ldrb r3,[r3,#1797]
 3231 1a5a 002B     	 cmp r3,#0
 3232 1a5c 04D1     	 bne .L133
 3233              	 .loc 1 927 0 is_stmt 0 discriminator 2
 3234 1a5e 774B     	 ldr r3,.L279
 3235 1a60 93F80A37 	 ldrb r3,[r3,#1802]
 3236 1a64 002B     	 cmp r3,#0
 3237 1a66 01D0     	 beq .L134
 3238              	.L133:
 3239              	 .loc 1 927 0 discriminator 3
 3240 1a68 0123     	 movs r3,#1
 3241 1a6a 00E0     	 b .L135
 3242              	.L134:
 3243              	 .loc 1 927 0 discriminator 4
 3244 1a6c 0023     	 movs r3,#0
 3245              	.L135:
 3246              	 .loc 1 927 0 discriminator 6
 3247 1a6e DAB2     	 uxtb r2,r3
 3248 1a70 724B     	 ldr r3,.L279
 3249 1a72 83F80B27 	 strb r2,[r3,#1803]
 928:../Simulink/Subsystem_Transmission.c ****     /*@>26201*/VCU_B./*@>29994*/Memory_gt/*@>7a58*/ = /*@>269a4*/VCU_DW./*@>29cdc*/Memory_PreviousI
 3250              	 .loc 1 928 0 is_stmt 1 discriminator 6
 3251 1a76 724B     	 ldr r3,.L279+4
 3252 1a78 93F83C21 	 ldrb r2,[r3,#316]
 3253 1a7c 6F4B     	 ldr r3,.L279
 3254 1a7e 83F80C27 	 strb r2,[r3,#1804]
 929:../Simulink/Subsystem_Transmission.c ****     /*@>21928*/rowIdx/*@>1f445*/ = /*@>2620d*/VCU_B./*@>2999a*/Counter1;
 3255              	 .loc 1 929 0 discriminator 6
 3256 1a82 6E4B     	 ldr r3,.L279
 3257 1a84 93F80937 	 ldrb r3,[r3,#1801]
 3258 1a88 7B61     	 str r3,[r7,#20]
 930:../Simulink/Subsystem_Transmission.c ****     /*@>2192c*/rowIdx/*@>1f46c*/ = /*@>2226c*/(int32_T)((/*@>22269*/(uint32_T)/*@>2192e*/rowIdx/*@>
 3259              	 .loc 1 930 0 discriminator 6
 3260 1a8a 7B69     	 ldr r3,[r7,#20]
 3261 1a8c 5B00     	 lsls r3,r3,#1
 3262 1a8e 6B4A     	 ldr r2,.L279
 3263 1a90 92F80B27 	 ldrb r2,[r2,#1803]
 3264 1a94 1344     	 add r3,r3,r2
 3265 1a96 7B61     	 str r3,[r7,#20]
 931:../Simulink/Subsystem_Transmission.c ****     /*@>21933*/rowIdx/*@>1f493*/ = /*@>2227c*/(int32_T)((/*@>22279*/(uint32_T)/*@>21935*/rowIdx/*@>
 3266              	 .loc 1 931 0 discriminator 6
 3267 1a98 7B69     	 ldr r3,[r7,#20]
 3268 1a9a 5B00     	 lsls r3,r3,#1
 3269 1a9c 674A     	 ldr r2,.L279
 3270 1a9e 92F80C27 	 ldrb r2,[r2,#1804]
 3271 1aa2 1344     	 add r3,r3,r2
 3272 1aa4 7B61     	 str r3,[r7,#20]
 932:../Simulink/Subsystem_Transmission.c ****     /*@>2622b*/VCU_B./*@>299a9*/Logic_e/*@>1f4a9*/[/*@>2193c*/0U]/*@>1f4a8*/ = /*@>267b0*/VCU_Const
 3273              	 .loc 1 932 0 discriminator 6
 3274 1aa6 7B69     	 ldr r3,[r7,#20]
 3275 1aa8 664A     	 ldr r2,.L279+8
 3276 1aaa 1344     	 add r3,r3,r2
 3277 1aac 93F83023 	 ldrb r2,[r3,#816]
 3278 1ab0 624B     	 ldr r3,.L279
 3279 1ab2 83F80D27 	 strb r2,[r3,#1805]
 933:../Simulink/Subsystem_Transmission.c ****     /*@>26237*/VCU_B./*@>299af*/Logic_e/*@>1f4bc*/[/*@>21941*/1U]/*@>1f4bb*/ = /*@>267b6*/VCU_Const
 3280              	 .loc 1 933 0 discriminator 6
 3281 1ab6 7B69     	 ldr r3,[r7,#20]
 3282 1ab8 0833     	 adds r3,r3,#8
 3283 1aba 624A     	 ldr r2,.L279+8
 3284 1abc 1344     	 add r3,r3,r2
 3285 1abe 93F83023 	 ldrb r2,[r3,#816]
 3286 1ac2 5E4B     	 ldr r3,.L279
 3287 1ac4 83F80E27 	 strb r2,[r3,#1806]
 934:../Simulink/Subsystem_Transmission.c ****     /* DataTypeConversion: '<S139>/Data Type Conversion11' */
 935:../Simulink/Subsystem_Transmission.c ****     /*@>2623d*/VCU_B./*@>299b2*/Ignition_Cut_o/*@>7a5c*/ = /*@>26243*/VCU_B./*@>299b5*/Logic_e/*@>2
 3288              	 .loc 1 935 0 discriminator 6
 3289 1ac8 5C4B     	 ldr r3,.L279
 3290 1aca 93F80D37 	 ldrb r3,[r3,#1805]
 3291 1ace 1846     	 mov r0,r3
 3292 1ad0 FFF7FEFF 	 bl __aeabi_ui2d
 3293 1ad4 0246     	 mov r2,r0
 3294 1ad6 0B46     	 mov r3,r1
 3295 1ad8 5849     	 ldr r1,.L279
 3296 1ada C1E92023 	 strd r2,[r1,#128]
 936:../Simulink/Subsystem_Transmission.c ****     /* S-Function (sdspcount2): '<S200>/Counter' */
 937:../Simulink/Subsystem_Transmission.c ****     /*@>26249*/VCU_B./*@>299b8*/Counter/*@>85e3*/ = /*@>21625*/false;
 3297              	 .loc 1 937 0 discriminator 6
 3298 1ade 574B     	 ldr r3,.L279
 3299 1ae0 0022     	 movs r2,#0
 3300 1ae2 83F80F27 	 strb r2,[r3,#1807]
 938:../Simulink/Subsystem_Transmission.c ****     /*@>85e7*/if (/*@>26255*/VCU_B./*@>299be*/LogicalOperator_d) {
 3301              	 .loc 1 938 0 discriminator 6
 3302 1ae6 554B     	 ldr r3,.L279
 3303 1ae8 93F8F636 	 ldrb r3,[r3,#1782]
 3304 1aec 002B     	 cmp r3,#0
 3305 1aee 03D0     	 beq .L136
 939:../Simulink/Subsystem_Transmission.c ****         /*@>269d4*/VCU_DW./*@>29cf1*/Counter_Count/*@>85eb*/ = /*@>2840d*/0U;
 3306              	 .loc 1 939 0
 3307 1af0 534B     	 ldr r3,.L279+4
 3308 1af2 0022     	 movs r2,#0
 3309 1af4 A3F89C20 	 strh r2,[r3,#156]
 3310              	.L136:
 940:../Simulink/Subsystem_Transmission.c ****     }
 941:../Simulink/Subsystem_Transmission.c ****     /*@>8601*/if (/*@>26273*/VCU_B./*@>299cd*/Logic_i/*@>24f6a*/[/*@>24f67*/0]) {
 3311              	 .loc 1 941 0
 3312 1af8 504B     	 ldr r3,.L279
 3313 1afa 93F8E636 	 ldrb r3,[r3,#1766]
 3314 1afe 002B     	 cmp r3,#0
 3315 1b00 12D0     	 beq .L137
 942:../Simulink/Subsystem_Transmission.c ****         /*@>1ec8b*/if (/*@>269da*/VCU_DW./*@>29cf4*/Counter_Count/*@>8606*/ < /*@>217a6*/500) {
 3316              	 .loc 1 942 0
 3317 1b02 4F4B     	 ldr r3,.L279+4
 3318 1b04 B3F89C30 	 ldrh r3,[r3,#156]
 3319 1b08 B3F5FA7F 	 cmp r3,#500
 3320 1b0c 08D2     	 bcs .L138
 943:../Simulink/Subsystem_Transmission.c ****             /*@>269f2*/VCU_DW./*@>29d00*/Counter_Count/*@>28455*/++;
 3321              	 .loc 1 943 0
 3322 1b0e 4C4B     	 ldr r3,.L279+4
 3323 1b10 B3F89C30 	 ldrh r3,[r3,#156]
 3324 1b14 0133     	 adds r3,r3,#1
 3325 1b16 9AB2     	 uxth r2,r3
 3326 1b18 494B     	 ldr r3,.L279+4
 3327 1b1a A3F89C20 	 strh r2,[r3,#156]
 3328 1b1e 03E0     	 b .L137
 3329              	.L138:
 944:../Simulink/Subsystem_Transmission.c ****         } else {
 945:../Simulink/Subsystem_Transmission.c ****             /*@>269ec*/VCU_DW./*@>29cfd*/Counter_Count/*@>860d*/ = /*@>28410*/0U;
 3330              	 .loc 1 945 0
 3331 1b20 474B     	 ldr r3,.L279+4
 3332 1b22 0022     	 movs r2,#0
 3333 1b24 A3F89C20 	 strh r2,[r3,#156]
 3334              	.L137:
 946:../Simulink/Subsystem_Transmission.c ****         }
 947:../Simulink/Subsystem_Transmission.c ****     }
 948:../Simulink/Subsystem_Transmission.c ****     /*@>861f*/if (/*@>269e6*/VCU_DW./*@>29cfa*/Counter_Count/*@>861e*/ == /*@>217a7*/500) {
 3335              	 .loc 1 948 0
 3336 1b28 454B     	 ldr r3,.L279+4
 3337 1b2a B3F89C30 	 ldrh r3,[r3,#156]
 3338 1b2e B3F5FA7F 	 cmp r3,#500
 3339 1b32 03D1     	 bne .L139
 949:../Simulink/Subsystem_Transmission.c ****         /*@>26297*/VCU_B./*@>299df*/Counter/*@>8623*/ = /*@>21634*/true;
 3340              	 .loc 1 949 0
 3341 1b34 414B     	 ldr r3,.L279
 3342 1b36 0122     	 movs r2,#1
 3343 1b38 83F80F27 	 strb r2,[r3,#1807]
 3344              	.L139:
 950:../Simulink/Subsystem_Transmission.c ****     }
 951:../Simulink/Subsystem_Transmission.c ****     /* End of S-Function (sdspcount2): '<S200>/Counter' */
 952:../Simulink/Subsystem_Transmission.c **** 
 953:../Simulink/Subsystem_Transmission.c ****     /* S-Function (sdspcount2): '<S201>/Counter' */
 954:../Simulink/Subsystem_Transmission.c ****     /*@>262a3*/VCU_B./*@>299e5*/Counter_d/*@>8668*/ = /*@>21639*/false;
 3345              	 .loc 1 954 0
 3346 1b3c 3F4B     	 ldr r3,.L279
 3347 1b3e 0022     	 movs r2,#0
 3348 1b40 83F81027 	 strb r2,[r3,#1808]
 955:../Simulink/Subsystem_Transmission.c ****     /*@>866c*/if (/*@>262af*/VCU_B./*@>299eb*/LogicalOperator_i) {
 3349              	 .loc 1 955 0
 3350 1b44 3D4B     	 ldr r3,.L279
 3351 1b46 93F80537 	 ldrb r3,[r3,#1797]
 3352 1b4a 002B     	 cmp r3,#0
 3353 1b4c 03D0     	 beq .L140
 956:../Simulink/Subsystem_Transmission.c ****         /*@>269fe*/VCU_DW./*@>29d03*/Counter_Count_i/*@>8670*/ = /*@>28413*/0U;
 3354              	 .loc 1 956 0
 3355 1b4e 3C4B     	 ldr r3,.L279+4
 3356 1b50 0022     	 movs r2,#0
 3357 1b52 83F8FB20 	 strb r2,[r3,#251]
 3358              	.L140:
 957:../Simulink/Subsystem_Transmission.c ****     }
 958:../Simulink/Subsystem_Transmission.c ****     /*@>8686*/if (/*@>262c1*/VCU_B./*@>299f4*/Logic_iz/*@>24f7f*/[/*@>24f7c*/0]) {
 3359              	 .loc 1 958 0
 3360 1b56 394B     	 ldr r3,.L279
 3361 1b58 93F80737 	 ldrb r3,[r3,#1799]
 3362 1b5c 002B     	 cmp r3,#0
 3363 1b5e 11D0     	 beq .L141
 959:../Simulink/Subsystem_Transmission.c ****         /*@>1ec95*/if (/*@>26a04*/VCU_DW./*@>29d06*/Counter_Count_i/*@>868b*/ < /*@>217ab*/200) {
 3364              	 .loc 1 959 0
 3365 1b60 374B     	 ldr r3,.L279+4
 3366 1b62 93F8FB30 	 ldrb r3,[r3,#251]
 3367 1b66 C72B     	 cmp r3,#199
 3368 1b68 08D8     	 bhi .L142
 960:../Simulink/Subsystem_Transmission.c ****             /*@>26a16*/VCU_DW./*@>29d0f*/Counter_Count_i/*@>28456*/++;
 3369              	 .loc 1 960 0
 3370 1b6a 354B     	 ldr r3,.L279+4
 3371 1b6c 93F8FB30 	 ldrb r3,[r3,#251]
 3372 1b70 0133     	 adds r3,r3,#1
 3373 1b72 DAB2     	 uxtb r2,r3
 3374 1b74 324B     	 ldr r3,.L279+4
 3375 1b76 83F8FB20 	 strb r2,[r3,#251]
 3376 1b7a 03E0     	 b .L141
 3377              	.L142:
 961:../Simulink/Subsystem_Transmission.c ****         } else {
 962:../Simulink/Subsystem_Transmission.c ****             /*@>26a10*/VCU_DW./*@>29d0c*/Counter_Count_i/*@>8692*/ = /*@>28416*/0U;
 3378              	 .loc 1 962 0
 3379 1b7c 304B     	 ldr r3,.L279+4
 3380 1b7e 0022     	 movs r2,#0
 3381 1b80 83F8FB20 	 strb r2,[r3,#251]
 3382              	.L141:
 963:../Simulink/Subsystem_Transmission.c ****         }
 964:../Simulink/Subsystem_Transmission.c ****     }
 965:../Simulink/Subsystem_Transmission.c ****     /*@>86a4*/if (/*@>26a0a*/VCU_DW./*@>29d09*/Counter_Count_i/*@>86a3*/ == /*@>217ae*/180) {
 3383              	 .loc 1 965 0
 3384 1b84 2E4B     	 ldr r3,.L279+4
 3385 1b86 93F8FB30 	 ldrb r3,[r3,#251]
 3386 1b8a B42B     	 cmp r3,#180
 3387 1b8c 03D1     	 bne .L143
 966:../Simulink/Subsystem_Transmission.c ****         /*@>262df*/VCU_B./*@>29a03*/Counter_d/*@>86a8*/ = /*@>21648*/true;
 3388              	 .loc 1 966 0
 3389 1b8e 2B4B     	 ldr r3,.L279
 3390 1b90 0122     	 movs r2,#1
 3391 1b92 83F81027 	 strb r2,[r3,#1808]
 3392              	.L143:
 967:../Simulink/Subsystem_Transmission.c ****     }
 968:../Simulink/Subsystem_Transmission.c ****     /* End of S-Function (sdspcount2): '<S201>/Counter' */
 969:../Simulink/Subsystem_Transmission.c **** 
 970:../Simulink/Subsystem_Transmission.c ****     /* DataTypeConversion: '<S139>/Data Type Conversion8' */
 971:../Simulink/Subsystem_Transmission.c ****     /*@>262e5*/VCU_B./*@>29a06*/VOVG_ShiftUp_k/*@>7a61*/ = /*@>262eb*/VCU_B./*@>29a09*/Logic_iz/*@>
 3393              	 .loc 1 971 0
 3394 1b96 294B     	 ldr r3,.L279
 3395 1b98 93F80737 	 ldrb r3,[r3,#1799]
 3396 1b9c 1846     	 mov r0,r3
 3397 1b9e FFF7FEFF 	 bl __aeabi_ui2d
 3398 1ba2 0246     	 mov r2,r0
 3399 1ba4 0B46     	 mov r3,r1
 3400 1ba6 2549     	 ldr r1,.L279
 3401 1ba8 C1E92223 	 strd r2,[r1,#136]
 972:../Simulink/Subsystem_Transmission.c ****     /* UnitDelay: '<S213>/Delay Input1'
 973:../Simulink/Subsystem_Transmission.c ****  *
 974:../Simulink/Subsystem_Transmission.c ****  * Block description for '<S213>/Delay Input1':
 975:../Simulink/Subsystem_Transmission.c ****  *  
 976:../Simulink/Subsystem_Transmission.c ****  *  Store in Global RAM
 977:../Simulink/Subsystem_Transmission.c ****  */
 978:../Simulink/Subsystem_Transmission.c ****     /*@>262f7*/VCU_B./*@>29a0f*/Uk1_f/*@>86eb*/ = /*@>26a28*/VCU_DW./*@>29d15*/DelayInput1_DSTATE_p
 3402              	 .loc 1 978 0
 3403 1bac 244B     	 ldr r3,.L279+4
 3404 1bae 93F8BE20 	 ldrb r2,[r3,#190]
 3405 1bb2 224B     	 ldr r3,.L279
 3406 1bb4 83F88826 	 strb r2,[r3,#1672]
 979:../Simulink/Subsystem_Transmission.c ****     /* RelationalOperator: '<S213>/FixPt Relational Operator' */
 980:../Simulink/Subsystem_Transmission.c ****     /*@>262fd*/VCU_B./*@>29a12*/FixPtRelationalOperator_d/*@>7a66*/ = (/*@>26303*/VCU_B./*@>29a15*/
 3407              	 .loc 1 980 0
 3408 1bb8 204B     	 ldr r3,.L279
 3409 1bba 93F88426 	 ldrb r2,[r3,#1668]
 3410 1bbe 1F4B     	 ldr r3,.L279
 3411 1bc0 93F88836 	 ldrb r3,[r3,#1672]
 3412 1bc4 9A42     	 cmp r2,r3
 3413 1bc6 34BF     	 ite cc
 3414 1bc8 0123     	 movcc r3,#1
 3415 1bca 0023     	 movcs r3,#0
 3416 1bcc DBB2     	 uxtb r3,r3
 3417 1bce 1A46     	 mov r2,r3
 3418 1bd0 1A4B     	 ldr r3,.L279
 3419 1bd2 83F81127 	 strb r2,[r3,#1809]
 981:../Simulink/Subsystem_Transmission.c ****     /* Switch: '<S199>/Switch' */
 982:../Simulink/Subsystem_Transmission.c ****     /*@>1ec9a*/if (/*@>2630f*/VCU_B./*@>29a1b*/Logic_i/*@>24f93*/[/*@>24f90*/0]) {
 3420              	 .loc 1 982 0
 3421 1bd6 194B     	 ldr r3,.L279
 3422 1bd8 93F8E636 	 ldrb r3,[r3,#1766]
 3423 1bdc 002B     	 cmp r3,#0
 3424 1bde 06D0     	 beq .L144
 983:../Simulink/Subsystem_Transmission.c ****         /* MinMax: '<S199>/MinMax' incorporates:
 984:../Simulink/Subsystem_Transmission.c ****  *  Constant: '<S199>/Constant'
 985:../Simulink/Subsystem_Transmission.c ****  */
 986:../Simulink/Subsystem_Transmission.c ****         /*@>26321*/VCU_B./*@>29a24*/Switch_g/*@>1ec9d*/ = /*@>217a8*/20.0;
 3425              	 .loc 1 986 0
 3426 1be0 1649     	 ldr r1,.L279
 3427 1be2 4FF00002 	 mov r2,#0
 3428 1be6 184B     	 ldr r3,.L279+12
 3429 1be8 C1E92423 	 strd r2,[r1,#144]
 3430 1bec 06E0     	 b .L145
 3431              	.L144:
 987:../Simulink/Subsystem_Transmission.c ****     } else {
 988:../Simulink/Subsystem_Transmission.c ****         /* MinMax: '<S199>/MinMax' incorporates:
 989:../Simulink/Subsystem_Transmission.c ****  *  Constant: '<S199>/Constant1'
 990:../Simulink/Subsystem_Transmission.c ****  */
 991:../Simulink/Subsystem_Transmission.c ****         /*@>2631b*/VCU_B./*@>29a21*/Switch_g/*@>86fb*/ = /*@>217a9*/0.0;
 3432              	 .loc 1 991 0
 3433 1bee 1349     	 ldr r1,.L279
 3434 1bf0 4FF00002 	 mov r2,#0
 3435 1bf4 4FF00003 	 mov r3,#0
 3436 1bf8 C1E92423 	 strd r2,[r1,#144]
 3437              	.L145:
 992:../Simulink/Subsystem_Transmission.c ****     }
 993:../Simulink/Subsystem_Transmission.c ****     /* End of Switch: '<S199>/Switch' */
 994:../Simulink/Subsystem_Transmission.c **** 
 995:../Simulink/Subsystem_Transmission.c ****     /* MinMax: '<S199>/MinMax' */
 996:../Simulink/Subsystem_Transmission.c ****     /*@>2254f*/if ((/*@>26333*/VCU_B./*@>29a2d*/x_clutch_STW/*@>22548*/ > /*@>26339*/VCU_B./*@>29a3
 3438              	 .loc 1 996 0
 3439 1bfc 0F4B     	 ldr r3,.L279
 3440 1bfe 03F59A63 	 add r3,r3,#1232
 3441 1c02 D3E90001 	 ldrd r0,[r3]
 3442 1c06 0D4B     	 ldr r3,.L279
 3443 1c08 D3E92423 	 ldrd r2,[r3,#144]
 3444 1c0c FFF7FEFF 	 bl __aeabi_dcmpgt
 3445 1c10 0346     	 mov r3,r0
 3446 1c12 002B     	 cmp r3,#0
 3447 1c14 09D1     	 bne .L146
 3448              	 .loc 1 996 0 is_stmt 0 discriminator 1
 3449 1c16 094B     	 ldr r3,.L279
 3450 1c18 D3E92423 	 ldrd r2,[r3,#144]
 3451 1c1c 1046     	 mov r0,r2
 3452 1c1e 1946     	 mov r1,r3
 3453 1c20 FFF7FEFF 	 bl rtIsNaN
 3454 1c24 0346     	 mov r3,r0
 3455 1c26 002B     	 cmp r3,#0
 3456 1c28 10D0     	 beq .L147
 3457              	.L146:
 997:../Simulink/Subsystem_Transmission.c ****         /*@>26351*/VCU_B./*@>29a3c*/MinMax/*@>22551*/ = /*@>26357*/VCU_B./*@>29a3f*/x_clutch_STW;
 3458              	 .loc 1 997 0 is_stmt 1
 3459 1c2a 044B     	 ldr r3,.L279
 3460 1c2c 03F59A63 	 add r3,r3,#1232
 3461 1c30 D3E90023 	 ldrd r2,[r3]
 3462 1c34 0149     	 ldr r1,.L279
 3463 1c36 C1E92623 	 strd r2,[r1,#152]
 3464 1c3a 0DE0     	 b .L148
 3465              	.L280:
 3466              	 .align 2
 3467              	.L279:
 3468 1c3c 00000000 	 .word VCU_B
 3469 1c40 00000000 	 .word VCU_DW
 3470 1c44 00000000 	 .word VCU_ConstP
 3471 1c48 00003440 	 .word 1077149696
 3472              	.L147:
 998:../Simulink/Subsystem_Transmission.c ****     } else {
 999:../Simulink/Subsystem_Transmission.c ****         /*@>26345*/VCU_B./*@>29a36*/MinMax/*@>2254e*/ = /*@>2634b*/VCU_B./*@>29a39*/Switch_g;
 3473              	 .loc 1 999 0
 3474 1c4c A94B     	 ldr r3,.L281
 3475 1c4e D3E92423 	 ldrd r2,[r3,#144]
 3476 1c52 A849     	 ldr r1,.L281
 3477 1c54 C1E92623 	 strd r2,[r1,#152]
 3478              	.L148:
1000:../Simulink/Subsystem_Transmission.c ****     }
1001:../Simulink/Subsystem_Transmission.c ****     /*@>22587*/if (!/*@<2421a*/(/*@>26363*/VCU_B./*@>29a45*/MinMax/*@>22580*/ > /*@>2275c*/0.0)) {
 3479              	 .loc 1 1001 0
 3480 1c58 A64B     	 ldr r3,.L281
 3481 1c5a D3E92623 	 ldrd r2,[r3,#152]
 3482 1c5e 0121     	 movs r1,#1
 3483 1c60 0C46     	 mov r4,r1
 3484 1c62 1046     	 mov r0,r2
 3485 1c64 1946     	 mov r1,r3
 3486 1c66 4FF00002 	 mov r2,#0
 3487 1c6a 4FF00003 	 mov r3,#0
 3488 1c6e FFF7FEFF 	 bl __aeabi_dcmpgt
 3489 1c72 0346     	 mov r3,r0
 3490 1c74 002B     	 cmp r3,#0
 3491 1c76 01D1     	 bne .L149
 3492 1c78 0023     	 movs r3,#0
 3493 1c7a 1C46     	 mov r4,r3
 3494              	.L149:
 3495 1c7c E3B2     	 uxtb r3,r4
 3496 1c7e 83F00103 	 eor r3,r3,#1
 3497 1c82 DBB2     	 uxtb r3,r3
 3498 1c84 002B     	 cmp r3,#0
 3499 1c86 06D0     	 beq .L150
1002:../Simulink/Subsystem_Transmission.c ****         /*@>26369*/VCU_B./*@>29a48*/MinMax/*@>22586*/ = /*@>22760*/0.0;
 3500              	 .loc 1 1002 0
 3501 1c88 9A49     	 ldr r1,.L281
 3502 1c8a 4FF00002 	 mov r2,#0
 3503 1c8e 4FF00003 	 mov r3,#0
 3504 1c92 C1E92623 	 strd r2,[r1,#152]
 3505              	.L150:
1003:../Simulink/Subsystem_Transmission.c ****     }
1004:../Simulink/Subsystem_Transmission.c ****     /* RelationalOperator: '<S203>/Compare' incorporates:
1005:../Simulink/Subsystem_Transmission.c ****  *  Constant: '<S203>/Constant'
1006:../Simulink/Subsystem_Transmission.c ****  */
1007:../Simulink/Subsystem_Transmission.c ****     /*@>26375*/VCU_B./*@>29a4e*/Compare_ao/*@>7a6c*/ = (/*@>2637b*/VCU_B./*@>29a51*/MinMax/*@>7a6b*
 3506              	 .loc 1 1007 0
 3507 1c96 974B     	 ldr r3,.L281
 3508 1c98 D3E92623 	 ldrd r2,[r3,#152]
 3509 1c9c 0121     	 movs r1,#1
 3510 1c9e 0C46     	 mov r4,r1
 3511 1ca0 1046     	 mov r0,r2
 3512 1ca2 1946     	 mov r1,r3
 3513 1ca4 4FF00002 	 mov r2,#0
 3514 1ca8 934B     	 ldr r3,.L281+4
 3515 1caa FFF7FEFF 	 bl __aeabi_dcmpgt
 3516 1cae 0346     	 mov r3,r0
 3517 1cb0 002B     	 cmp r3,#0
 3518 1cb2 01D1     	 bne .L151
 3519 1cb4 0023     	 movs r3,#0
 3520 1cb6 1C46     	 mov r4,r3
 3521              	.L151:
 3522 1cb8 E3B2     	 uxtb r3,r4
 3523 1cba 1A46     	 mov r2,r3
 3524 1cbc 8D4B     	 ldr r3,.L281
 3525 1cbe 83F81227 	 strb r2,[r3,#1810]
1008:../Simulink/Subsystem_Transmission.c ****     /* DataTypeConversion: '<S139>/Data Type Conversion12' */
1009:../Simulink/Subsystem_Transmission.c ****     /*@>2638d*/VCU_B./*@>29a5a*/VOVG_IN_h/*@>7a6f*/ = /*@>26393*/VCU_B./*@>29a5d*/Compare_ao;
 3526              	 .loc 1 1009 0
 3527 1cc2 8C4B     	 ldr r3,.L281
 3528 1cc4 93F81237 	 ldrb r3,[r3,#1810]
 3529 1cc8 1846     	 mov r0,r3
 3530 1cca FFF7FEFF 	 bl __aeabi_ui2d
 3531 1cce 0246     	 mov r2,r0
 3532 1cd0 0B46     	 mov r3,r1
 3533 1cd2 8849     	 ldr r1,.L281
 3534 1cd4 C1E92823 	 strd r2,[r1,#160]
1010:../Simulink/Subsystem_Transmission.c ****     /* Sum: '<S199>/Add' */
1011:../Simulink/Subsystem_Transmission.c ****     /*@>2639f*/VCU_B./*@>29a63*/Add/*@>a83f*/ = /*@>263a5*/VCU_B./*@>29a66*/MinMax/*@>a83c*/ - /*@>
 3535              	 .loc 1 1011 0
 3536 1cd8 864B     	 ldr r3,.L281
 3537 1cda D3E92601 	 ldrd r0,[r3,#152]
 3538 1cde 854B     	 ldr r3,.L281
 3539 1ce0 03F5AB63 	 add r3,r3,#1368
 3540 1ce4 D3E90023 	 ldrd r2,[r3]
 3541 1ce8 FFF7FEFF 	 bl __aeabi_dsub
 3542 1cec 0246     	 mov r2,r0
 3543 1cee 0B46     	 mov r3,r1
 3544 1cf0 8049     	 ldr r1,.L281
 3545 1cf2 C1E92A23 	 strd r2,[r1,#168]
1012:../Simulink/Subsystem_Transmission.c ****     /* RelationalOperator: '<S205>/Compare' incorporates:
1013:../Simulink/Subsystem_Transmission.c ****  *  Constant: '<S205>/Constant'
1014:../Simulink/Subsystem_Transmission.c ****  */
1015:../Simulink/Subsystem_Transmission.c ****     /*@>263c3*/VCU_B./*@>29a75*/Compare_gu/*@>7a78*/ = (/*@>263c9*/VCU_B./*@>29a78*/Add/*@>7a77*/ <
 3546              	 .loc 1 1015 0
 3547 1cf6 7F4B     	 ldr r3,.L281
 3548 1cf8 D3E92A23 	 ldrd r2,[r3,#168]
 3549 1cfc 0121     	 movs r1,#1
 3550 1cfe 0C46     	 mov r4,r1
 3551 1d00 1046     	 mov r0,r2
 3552 1d02 1946     	 mov r1,r3
 3553 1d04 4FF00002 	 mov r2,#0
 3554 1d08 7C4B     	 ldr r3,.L281+8
 3555 1d0a FFF7FEFF 	 bl __aeabi_dcmplt
 3556 1d0e 0346     	 mov r3,r0
 3557 1d10 002B     	 cmp r3,#0
 3558 1d12 01D1     	 bne .L152
 3559 1d14 0023     	 movs r3,#0
 3560 1d16 1C46     	 mov r4,r3
 3561              	.L152:
 3562 1d18 E3B2     	 uxtb r3,r4
 3563 1d1a 1A46     	 mov r2,r3
 3564 1d1c 754B     	 ldr r3,.L281
 3565 1d1e 83F81327 	 strb r2,[r3,#1811]
1016:../Simulink/Subsystem_Transmission.c ****     /* Lookup_n-D: '<S199>/Duty Cycle MHJ1' */
1017:../Simulink/Subsystem_Transmission.c ****     /*@>263d5*/VCU_B./*@>29a7e*/DutyCycleMHJ1/*@>a907*/ = /*@>2423d*/look1_binlxpw(/*@>263db*/VCU_B
 3566              	 .loc 1 1017 0
 3567 1d22 744B     	 ldr r3,.L281
 3568 1d24 D3E92A23 	 ldrd r2,[r3,#168]
 3569 1d28 0E21     	 movs r1,#14
 3570 1d2a 0091     	 str r1,[sp]
 3571 1d2c 1046     	 mov r0,r2
 3572 1d2e 1946     	 mov r1,r3
 3573 1d30 734A     	 ldr r2,.L281+12
 3574 1d32 744B     	 ldr r3,.L281+16
 3575 1d34 FFF7FEFF 	 bl look1_binlxpw
 3576 1d38 0246     	 mov r2,r0
 3577 1d3a 0B46     	 mov r3,r1
 3578 1d3c 6D49     	 ldr r1,.L281
 3579 1d3e C1E92C23 	 strd r2,[r1,#176]
1018:../Simulink/Subsystem_Transmission.c ****     /* Product: '<S199>/Product1' */
1019:../Simulink/Subsystem_Transmission.c ****     /*@>263ed*/VCU_B./*@>29a8a*/Product1/*@>7a86*/ = /*@>263f3*/VCU_B./*@>29a8d*/DutyCycleMHJ1/*@>2
 3580              	 .loc 1 1019 0
 3581 1d42 6C4B     	 ldr r3,.L281
 3582 1d44 D3E92C45 	 ldrd r4,[r3,#176]
 3583 1d48 6A4B     	 ldr r3,.L281
 3584 1d4a 93F81337 	 ldrb r3,[r3,#1811]
 3585 1d4e 1846     	 mov r0,r3
 3586 1d50 FFF7FEFF 	 bl __aeabi_ui2d
 3587 1d54 0246     	 mov r2,r0
 3588 1d56 0B46     	 mov r3,r1
 3589 1d58 2046     	 mov r0,r4
 3590 1d5a 2946     	 mov r1,r5
 3591 1d5c FFF7FEFF 	 bl __aeabi_dmul
 3592 1d60 0246     	 mov r2,r0
 3593 1d62 0B46     	 mov r3,r1
 3594 1d64 6349     	 ldr r1,.L281
 3595 1d66 C1E92E23 	 strd r2,[r1,#184]
1020:../Simulink/Subsystem_Transmission.c ****     /* RelationalOperator: '<S204>/Compare' incorporates:
1021:../Simulink/Subsystem_Transmission.c ****  *  Constant: '<S204>/Constant'
1022:../Simulink/Subsystem_Transmission.c ****  */
1023:../Simulink/Subsystem_Transmission.c ****     /*@>263ff*/VCU_B./*@>29a93*/Compare_eh/*@>7a8a*/ = (/*@>26405*/VCU_B./*@>29a96*/x_clutch_b/*@>7
 3596              	 .loc 1 1023 0
 3597 1d6a 624B     	 ldr r3,.L281
 3598 1d6c 03F5AB63 	 add r3,r3,#1368
 3599 1d70 D3E90023 	 ldrd r2,[r3]
 3600 1d74 0121     	 movs r1,#1
 3601 1d76 0C46     	 mov r4,r1
 3602 1d78 1046     	 mov r0,r2
 3603 1d7a 1946     	 mov r1,r3
 3604 1d7c 4FF00002 	 mov r2,#0
 3605 1d80 614B     	 ldr r3,.L281+20
 3606 1d82 FFF7FEFF 	 bl __aeabi_dcmpgt
 3607 1d86 0346     	 mov r3,r0
 3608 1d88 002B     	 cmp r3,#0
 3609 1d8a 01D1     	 bne .L153
 3610 1d8c 0023     	 movs r3,#0
 3611 1d8e 1C46     	 mov r4,r3
 3612              	.L153:
 3613 1d90 E3B2     	 uxtb r3,r4
 3614 1d92 1A46     	 mov r2,r3
 3615 1d94 574B     	 ldr r3,.L281
 3616 1d96 83F81427 	 strb r2,[r3,#1812]
1024:../Simulink/Subsystem_Transmission.c ****     /* Switch: '<S199>/Switch1' incorporates:
1025:../Simulink/Subsystem_Transmission.c ****  *  Constant: '<S199>/Constant2'
1026:../Simulink/Subsystem_Transmission.c ****  *  Constant: '<S199>/Constant3'
1027:../Simulink/Subsystem_Transmission.c ****  */
1028:../Simulink/Subsystem_Transmission.c ****     /*@>1eca9*/if (/*@>2641d*/VCU_B./*@>29aa2*/Compare_eh) {
 3617              	 .loc 1 1028 0
 3618 1d9a 564B     	 ldr r3,.L281
 3619 1d9c 93F81437 	 ldrb r3,[r3,#1812]
 3620 1da0 002B     	 cmp r3,#0
 3621 1da2 07D0     	 beq .L154
1029:../Simulink/Subsystem_Transmission.c ****         /*@>26441*/VCU_B./*@>29ab4*/Switch1/*@>1ecac*/ = /*@>217b3*/2.0;
 3622              	 .loc 1 1029 0
 3623 1da4 5349     	 ldr r1,.L281
 3624 1da6 4FF00002 	 mov r2,#0
 3625 1daa 4FF08043 	 mov r3,#1073741824
 3626 1dae C1E93023 	 strd r2,[r1,#192]
 3627 1db2 05E0     	 b .L155
 3628              	.L154:
1030:../Simulink/Subsystem_Transmission.c ****     } else {
1031:../Simulink/Subsystem_Transmission.c ****         /*@>2643b*/VCU_B./*@>29ab1*/Switch1/*@>8736*/ = /*@>217b4*/1.0;
 3629              	 .loc 1 1031 0
 3630 1db4 4F49     	 ldr r1,.L281
 3631 1db6 4FF00002 	 mov r2,#0
 3632 1dba 4F4B     	 ldr r3,.L281+4
 3633 1dbc C1E93023 	 strd r2,[r1,#192]
 3634              	.L155:
1032:../Simulink/Subsystem_Transmission.c ****     }
1033:../Simulink/Subsystem_Transmission.c ****     /* End of Switch: '<S199>/Switch1' */
1034:../Simulink/Subsystem_Transmission.c **** 
1035:../Simulink/Subsystem_Transmission.c ****     /* Product: '<S199>/Product2' */
1036:../Simulink/Subsystem_Transmission.c ****     /*@>2644d*/VCU_B./*@>29aba*/Product2/*@>7a92*/ = /*@>26453*/VCU_B./*@>29abd*/Product1/*@>21ac8*
 3635              	 .loc 1 1036 0
 3636 1dc0 4C4B     	 ldr r3,.L281
 3637 1dc2 D3E92E01 	 ldrd r0,[r3,#184]
 3638 1dc6 4B4B     	 ldr r3,.L281
 3639 1dc8 D3E93023 	 ldrd r2,[r3,#192]
 3640 1dcc FFF7FEFF 	 bl __aeabi_dmul
 3641 1dd0 0246     	 mov r2,r0
 3642 1dd2 0B46     	 mov r3,r1
 3643 1dd4 4749     	 ldr r1,.L281
 3644 1dd6 C1E93223 	 strd r2,[r1,#200]
1037:../Simulink/Subsystem_Transmission.c ****     /* DataTypeConversion: '<S139>/Data Type Conversion15' */
1038:../Simulink/Subsystem_Transmission.c ****     /*@>26465*/VCU_B./*@>29ac6*/MHJ9_OUT_d/*@>7a95*/ = /*@>2646b*/VCU_B./*@>29ac9*/Product2;
 3645              	 .loc 1 1038 0
 3646 1dda 464B     	 ldr r3,.L281
 3647 1ddc D3E93223 	 ldrd r2,[r3,#200]
 3648 1de0 4449     	 ldr r1,.L281
 3649 1de2 C1E93423 	 strd r2,[r1,#208]
1039:../Simulink/Subsystem_Transmission.c ****     /* RelationalOperator: '<S206>/Compare' incorporates:
1040:../Simulink/Subsystem_Transmission.c ****  *  Constant: '<S206>/Constant'
1041:../Simulink/Subsystem_Transmission.c ****  */
1042:../Simulink/Subsystem_Transmission.c ****     /*@>2647d*/VCU_B./*@>29ad2*/Compare_m/*@>7a99*/ = (/*@>26483*/VCU_B./*@>29ad5*/Add/*@>7a98*/ > 
 3650              	 .loc 1 1042 0
 3651 1de6 434B     	 ldr r3,.L281
 3652 1de8 D3E92A23 	 ldrd r2,[r3,#168]
 3653 1dec 0121     	 movs r1,#1
 3654 1dee 0C46     	 mov r4,r1
 3655 1df0 1046     	 mov r0,r2
 3656 1df2 1946     	 mov r1,r3
 3657 1df4 4FF00002 	 mov r2,#0
 3658 1df8 4FF00003 	 mov r3,#0
 3659 1dfc FFF7FEFF 	 bl __aeabi_dcmpgt
 3660 1e00 0346     	 mov r3,r0
 3661 1e02 002B     	 cmp r3,#0
 3662 1e04 01D1     	 bne .L156
 3663 1e06 0023     	 movs r3,#0
 3664 1e08 1C46     	 mov r4,r3
 3665              	.L156:
 3666 1e0a E3B2     	 uxtb r3,r4
 3667 1e0c 1A46     	 mov r2,r3
 3668 1e0e 394B     	 ldr r3,.L281
 3669 1e10 83F81527 	 strb r2,[r3,#1813]
1043:../Simulink/Subsystem_Transmission.c ****     /* Product: '<S199>/Product3' */
1044:../Simulink/Subsystem_Transmission.c ****     /*@>26495*/VCU_B./*@>29ade*/Product3/*@>7aa0*/ = /*@>2649b*/VCU_B./*@>29ae1*/DutyCycleMHJ1/*@>2
 3670              	 .loc 1 1044 0
 3671 1e14 374B     	 ldr r3,.L281
 3672 1e16 D3E92C45 	 ldrd r4,[r3,#176]
 3673 1e1a 364B     	 ldr r3,.L281
 3674 1e1c 93F81537 	 ldrb r3,[r3,#1813]
 3675 1e20 1846     	 mov r0,r3
 3676 1e22 FFF7FEFF 	 bl __aeabi_ui2d
 3677 1e26 0246     	 mov r2,r0
 3678 1e28 0B46     	 mov r3,r1
 3679 1e2a 2046     	 mov r0,r4
 3680 1e2c 2946     	 mov r1,r5
 3681 1e2e FFF7FEFF 	 bl __aeabi_dmul
 3682 1e32 0246     	 mov r2,r0
 3683 1e34 0B46     	 mov r3,r1
 3684 1e36 2F49     	 ldr r1,.L281
 3685 1e38 C1E93623 	 strd r2,[r1,#216]
1045:../Simulink/Subsystem_Transmission.c ****     /* DataTypeConversion: '<S139>/Data Type Conversion14' */
1046:../Simulink/Subsystem_Transmission.c ****     /*@>264b9*/VCU_B./*@>29af0*/MHJ9_IN_e/*@>7aa3*/ = /*@>264bf*/VCU_B./*@>29af3*/Product3;
 3686              	 .loc 1 1046 0
 3687 1e3c 2D4B     	 ldr r3,.L281
 3688 1e3e D3E93623 	 ldrd r2,[r3,#216]
 3689 1e42 2C49     	 ldr r1,.L281
 3690 1e44 C1E93823 	 strd r2,[r1,#224]
1047:../Simulink/Subsystem_Transmission.c ****     /* RelationalOperator: '<S207>/Compare' incorporates:
1048:../Simulink/Subsystem_Transmission.c ****  *  Constant: '<S207>/Constant'
1049:../Simulink/Subsystem_Transmission.c ****  */
1050:../Simulink/Subsystem_Transmission.c ****     /*@>264d1*/VCU_B./*@>29afc*/Compare_md/*@>7aa7*/ = (/*@>264d7*/VCU_B./*@>29aff*/Add/*@>7aa6*/ <
 3691              	 .loc 1 1050 0
 3692 1e48 2A4B     	 ldr r3,.L281
 3693 1e4a D3E92A23 	 ldrd r2,[r3,#168]
 3694 1e4e 0121     	 movs r1,#1
 3695 1e50 0C46     	 mov r4,r1
 3696 1e52 1046     	 mov r0,r2
 3697 1e54 1946     	 mov r1,r3
 3698 1e56 4FF00002 	 mov r2,#0
 3699 1e5a 2C4B     	 ldr r3,.L281+24
 3700 1e5c FFF7FEFF 	 bl __aeabi_dcmplt
 3701 1e60 0346     	 mov r3,r0
 3702 1e62 002B     	 cmp r3,#0
 3703 1e64 01D1     	 bne .L157
 3704 1e66 0023     	 movs r3,#0
 3705 1e68 1C46     	 mov r4,r3
 3706              	.L157:
 3707 1e6a E3B2     	 uxtb r3,r4
 3708 1e6c 1A46     	 mov r2,r3
 3709 1e6e 214B     	 ldr r3,.L281
 3710 1e70 83F81627 	 strb r2,[r3,#1814]
1051:../Simulink/Subsystem_Transmission.c ****     /* DataTypeConversion: '<S139>/Data Type Conversion13' */
1052:../Simulink/Subsystem_Transmission.c ****     /*@>264e9*/VCU_B./*@>29b08*/VOVG_OUT_j/*@>7aaa*/ = /*@>264ef*/VCU_B./*@>29b0b*/Compare_md;
 3711              	 .loc 1 1052 0
 3712 1e74 1F4B     	 ldr r3,.L281
 3713 1e76 93F81637 	 ldrb r3,[r3,#1814]
 3714 1e7a 1846     	 mov r0,r3
 3715 1e7c FFF7FEFF 	 bl __aeabi_ui2d
 3716 1e80 0246     	 mov r2,r0
 3717 1e82 0B46     	 mov r3,r1
 3718 1e84 1B49     	 ldr r1,.L281
 3719 1e86 C1E93A23 	 strd r2,[r1,#232]
1053:../Simulink/Subsystem_Transmission.c ****     /* DataTypeConversion: '<S139>/Data Type Conversion2' incorporates:
1054:../Simulink/Subsystem_Transmission.c ****  *  Constant: '<S139>/Constant'
1055:../Simulink/Subsystem_Transmission.c ****  */
1056:../Simulink/Subsystem_Transmission.c ****     /*@>26507*/VCU_B./*@>29b17*/LC_ready_bit_e/*@>7aad*/ = /*@>2196b*/true;
 3720              	 .loc 1 1056 0
 3721 1e8a 1A4B     	 ldr r3,.L281
 3722 1e8c 0122     	 movs r2,#1
 3723 1e8e 83F81727 	 strb r2,[r3,#1815]
1057:../Simulink/Subsystem_Transmission.c ****     /* DataTypeConversion: '<S139>/Data Type Conversion16' */
1058:../Simulink/Subsystem_Transmission.c ****     /*@>26519*/VCU_B./*@>29b20*/x_clutch_LC_b/*@>7ab0*/ = /*@>217be*/0.0;
 3724              	 .loc 1 1058 0
 3725 1e92 1849     	 ldr r1,.L281
 3726 1e94 4FF00002 	 mov r2,#0
 3727 1e98 4FF00003 	 mov r3,#0
 3728 1e9c C1E93C23 	 strd r2,[r1,#240]
1059:../Simulink/Subsystem_Transmission.c ****     /* DataTypeConversion: '<S139>/Data Type Conversion17' */
1060:../Simulink/Subsystem_Transmission.c ****     /*@>26525*/VCU_B./*@>29b26*/LC_Mdes_b/*@>7ab3*/ = /*@>217c0*/0.0;
 3729              	 .loc 1 1060 0
 3730 1ea0 1449     	 ldr r1,.L281
 3731 1ea2 4FF00002 	 mov r2,#0
 3732 1ea6 4FF00003 	 mov r3,#0
 3733 1eaa C1E93E23 	 strd r2,[r1,#248]
1061:../Simulink/Subsystem_Transmission.c ****     /* DataTypeConversion: '<S139>/Data Type Conversion18' */
1062:../Simulink/Subsystem_Transmission.c ****     /*@>26537*/VCU_B./*@>29b2f*/LC_Fnr_l/*@>7ab6*/ = /*@>217c1*/0.0;
 3734              	 .loc 1 1062 0
 3735 1eae 1149     	 ldr r1,.L281
 3736 1eb0 4FF00002 	 mov r2,#0
 3737 1eb4 4FF00003 	 mov r3,#0
 3738 1eb8 C1E94023 	 strd r2,[r1,#256]
1063:../Simulink/Subsystem_Transmission.c ****     /* Update for Memory: '<S202>/Memory' */
1064:../Simulink/Subsystem_Transmission.c ****     /*@>26a76*/VCU_DW./*@>29d36*/Memory_PreviousInput/*@>7bf8*/ = /*@>2653d*/VCU_B./*@>29b32*/LC_da
 3739              	 .loc 1 1064 0
 3740 1ebc 0D4B     	 ldr r3,.L281
 3741 1ebe 93F88327 	 ldrb r2,[r3,#1923]
 3742 1ec2 134B     	 ldr r3,.L281+28
 3743 1ec4 83F83521 	 strb r2,[r3,#309]
1065:../Simulink/Subsystem_Transmission.c ****     /* Update for Memory: '<S202>/Memory1' */
1066:../Simulink/Subsystem_Transmission.c ****     /*@>26a7c*/VCU_DW./*@>29d39*/Memory1_PreviousInput/*@>7bfa*/ = /*@>26555*/VCU_B./*@>29b3e*/Brak
 3744              	 .loc 1 1066 0
 3745 1ec8 0A4B     	 ldr r3,.L281
 3746 1eca 93F8D626 	 ldrb r2,[r3,#1750]
 3747 1ece 104B     	 ldr r3,.L281+28
 3748 1ed0 83F83621 	 strb r2,[r3,#310]
1067:../Simulink/Subsystem_Transmission.c ****     /* Update for Memory: '<S228>/Memory' */
1068:../Simulink/Subsystem_Transmission.c ****     /*@>26a82*/VCU_DW./*@>29d3c*/Memory_PreviousInput_j/*@>7bfc*/ = /*@>26567*/VCU_B./*@>29b47*/Log
 3749              	 .loc 1 1068 0
 3750 1ed4 074B     	 ldr r3,.L281
 3751 1ed6 93F8DA26 	 ldrb r2,[r3,#1754]
 3752 1eda 0D4B     	 ldr r3,.L281+28
 3753 1edc 83F83721 	 strb r2,[r3,#311]
1069:../Simulink/Subsystem_Transmission.c ****     /* Update for UnitDelay: '<S200>/Unit Delay1' */
1070:../Simulink/Subsystem_Transmission.c ****     /*@>26a88*/VCU_DW./*@>29d3f*/UnitDelay1_DSTATE/*@>8747*/ = /*@>26579*/VCU_B./*@>29b50*/Logic_i/
 3754              	 .loc 1 1070 0
 3755 1ee0 044B     	 ldr r3,.L281
 3756 1ee2 93F8E626 	 ldrb r2,[r3,#1766]
 3757 1ee6 0A4B     	 ldr r3,.L281+28
 3758 1ee8 83F8C220 	 strb r2,[r3,#194]
1071:../Simulink/Subsystem_Transmission.c ****     /* Update for Delay: '<S200>/Delay' */
1072:../Simulink/Subsystem_Transmission.c **** /*@>1e391*/    for (/*@>28439*/rowIdx = /*@>217ca*/0; /*@>28441*/rowIdx < /*@>217cb*/19; /*@>2843e*
 3759              	 .loc 1 1072 0
 3760 1eec 0023     	 movs r3,#0
 3761 1eee 7B61     	 str r3,[r7,#20]
 3762 1ef0 1FE0     	 b .L158
 3763              	.L282:
 3764 1ef2 00BF     	 .align 2
 3765              	.L281:
 3766 1ef4 00000000 	 .word VCU_B
 3767 1ef8 0000F03F 	 .word 1072693248
 3768 1efc 0000E0BF 	 .word -1075838976
 3769 1f00 B0020000 	 .word VCU_ConstP+688
 3770 1f04 38020000 	 .word VCU_ConstP+568
 3771 1f08 00003440 	 .word 1077149696
 3772 1f0c 000034C0 	 .word -1070333952
 3773 1f10 00000000 	 .word VCU_DW
 3774              	.L159:
1073:../Simulink/Subsystem_Transmission.c ****         /*@>26a94*/VCU_DW./*@>29d45*/Delay_DSTATE/*@>1c48a*/[/*@>21744*/rowIdx]/*@>8775*/ = /*@>26a
 3775              	 .loc 1 1073 0 discriminator 3
 3776 1f14 7B69     	 ldr r3,[r7,#20]
 3777 1f16 0133     	 adds r3,r3,#1
 3778 1f18 9D4A     	 ldr r2,.L283
 3779 1f1a 1344     	 add r3,r3,r2
 3780 1f1c 93F8C310 	 ldrb r1,[r3,#195]
 3781 1f20 9B4A     	 ldr r2,.L283
 3782 1f22 7B69     	 ldr r3,[r7,#20]
 3783 1f24 1344     	 add r3,r3,r2
 3784 1f26 C033     	 adds r3,r3,#192
 3785 1f28 0A46     	 mov r2,r1
 3786 1f2a DA70     	 strb r2,[r3,#3]
1072:../Simulink/Subsystem_Transmission.c ****         /*@>26a94*/VCU_DW./*@>29d45*/Delay_DSTATE/*@>1c48a*/[/*@>21744*/rowIdx]/*@>8775*/ = /*@>26a
 3787              	 .loc 1 1072 0 discriminator 3
 3788 1f2c 7B69     	 ldr r3,[r7,#20]
 3789 1f2e 0133     	 adds r3,r3,#1
 3790 1f30 7B61     	 str r3,[r7,#20]
 3791              	.L158:
1072:../Simulink/Subsystem_Transmission.c ****         /*@>26a94*/VCU_DW./*@>29d45*/Delay_DSTATE/*@>1c48a*/[/*@>21744*/rowIdx]/*@>8775*/ = /*@>26a
 3792              	 .loc 1 1072 0 is_stmt 0 discriminator 1
 3793 1f32 7B69     	 ldr r3,[r7,#20]
 3794 1f34 122B     	 cmp r3,#18
 3795 1f36 EDDD     	 ble .L159
1074:../Simulink/Subsystem_Transmission.c ****     }
1075:../Simulink/Subsystem_Transmission.c ****     /*@>26a8e*/VCU_DW./*@>29d42*/Delay_DSTATE/*@>878d*/[/*@>21669*/19]/*@>8797*/ = /*@>265a9*/VCU_B
 3796              	 .loc 1 1075 0 is_stmt 1
 3797 1f38 964B     	 ldr r3,.L283+4
 3798 1f3a 93F8F626 	 ldrb r2,[r3,#1782]
 3799 1f3e 944B     	 ldr r3,.L283
 3800 1f40 83F8D620 	 strb r2,[r3,#214]
1076:../Simulink/Subsystem_Transmission.c ****     /* End of Update for Delay: '<S200>/Delay' */
1077:../Simulink/Subsystem_Transmission.c **** 
1078:../Simulink/Subsystem_Transmission.c ****     /* Update for Memory: '<S217>/Memory' */
1079:../Simulink/Subsystem_Transmission.c ****     /*@>26aa0*/VCU_DW./*@>29d4b*/Memory_PreviousInput_p/*@>7c00*/ = /*@>265bb*/VCU_B./*@>29b71*/Log
 3801              	 .loc 1 1079 0
 3802 1f44 934B     	 ldr r3,.L283+4
 3803 1f46 93F8E126 	 ldrb r2,[r3,#1761]
 3804 1f4a 914B     	 ldr r3,.L283
 3805 1f4c 83F83821 	 strb r2,[r3,#312]
1080:../Simulink/Subsystem_Transmission.c ****     /* Update for UnitDelay: '<S214>/Delay Input1'
1081:../Simulink/Subsystem_Transmission.c ****  *
1082:../Simulink/Subsystem_Transmission.c ****  * Block description for '<S214>/Delay Input1':
1083:../Simulink/Subsystem_Transmission.c ****  *  
1084:../Simulink/Subsystem_Transmission.c ****  *  Store in Global RAM
1085:../Simulink/Subsystem_Transmission.c ****  */
1086:../Simulink/Subsystem_Transmission.c ****     /*@>26aa6*/VCU_DW./*@>29d4e*/DelayInput1_DSTATE/*@>87a3*/ = /*@>265c7*/VCU_B./*@>29b77*/STW_shi
 3806              	 .loc 1 1086 0
 3807 1f50 904B     	 ldr r3,.L283+4
 3808 1f52 03F59D63 	 add r3,r3,#1256
 3809 1f56 D3E90023 	 ldrd r2,[r3]
 3810 1f5a 8D49     	 ldr r1,.L283
 3811 1f5c C1E90023 	 strd r2,[r1]
1087:../Simulink/Subsystem_Transmission.c ****     /* Update for Delay: '<S200>/Delay1' */
1088:../Simulink/Subsystem_Transmission.c ****     /*@>26aac*/VCU_DW./*@>29d51*/Delay1_DSTATE/*@>87af*/ = /*@>265d3*/VCU_B./*@>29b7d*/LogicalOpera
 3812              	 .loc 1 1088 0
 3813 1f60 8C4B     	 ldr r3,.L283+4
 3814 1f62 93F8F626 	 ldrb r2,[r3,#1782]
 3815 1f66 8A4B     	 ldr r3,.L283
 3816 1f68 83F8D720 	 strb r2,[r3,#215]
1089:../Simulink/Subsystem_Transmission.c ****     /* Update for Memory: '<S215>/Memory' */
1090:../Simulink/Subsystem_Transmission.c ****     /*@>26ab2*/VCU_DW./*@>29d54*/Memory_PreviousInput_l/*@>7c04*/ = /*@>265df*/VCU_B./*@>29b83*/Log
 3817              	 .loc 1 1090 0
 3818 1f6c 894B     	 ldr r3,.L283+4
 3819 1f6e 93F8E626 	 ldrb r2,[r3,#1766]
 3820 1f72 874B     	 ldr r3,.L283
 3821 1f74 83F83921 	 strb r2,[r3,#313]
1091:../Simulink/Subsystem_Transmission.c ****     /* Update for UnitDelay: '<S200>/Unit Delay4' */
1092:../Simulink/Subsystem_Transmission.c ****     /*@>26ab8*/VCU_DW./*@>29d57*/UnitDelay4_DSTATE/*@>87bb*/ = /*@>265eb*/VCU_B./*@>29b89*/FixPtRel
 3822              	 .loc 1 1092 0
 3823 1f78 864B     	 ldr r3,.L283+4
 3824 1f7a 93F81127 	 ldrb r2,[r3,#1809]
 3825 1f7e 844B     	 ldr r3,.L283
 3826 1f80 83F8D820 	 strb r2,[r3,#216]
1093:../Simulink/Subsystem_Transmission.c ****     /* Update for UnitDelay: '<S201>/Unit Delay' */
1094:../Simulink/Subsystem_Transmission.c ****     /*@>26ac4*/VCU_DW./*@>29d5d*/UnitDelay_DSTATE/*@>87c7*/ = /*@>265f7*/VCU_B./*@>29b8f*/Logic_iz/
 3827              	 .loc 1 1094 0
 3828 1f84 834B     	 ldr r3,.L283+4
 3829 1f86 93F80727 	 ldrb r2,[r3,#1799]
 3830 1f8a 814B     	 ldr r3,.L283
 3831 1f8c 83F8D920 	 strb r2,[r3,#217]
1095:../Simulink/Subsystem_Transmission.c ****     /* Update for UnitDelay: '<S200>/Unit Delay2' */
1096:../Simulink/Subsystem_Transmission.c ****     /*@>26ad0*/VCU_DW./*@>29d63*/UnitDelay2_DSTATE/*@>87d3*/ = /*@>26603*/VCU_B./*@>29b95*/Counter;
 3832              	 .loc 1 1096 0
 3833 1f90 804B     	 ldr r3,.L283+4
 3834 1f92 93F80F27 	 ldrb r2,[r3,#1807]
 3835 1f96 7E4B     	 ldr r3,.L283
 3836 1f98 83F8DA20 	 strb r2,[r3,#218]
1097:../Simulink/Subsystem_Transmission.c ****     /* Update for Memory: '<S216>/Memory' */
1098:../Simulink/Subsystem_Transmission.c ****     /*@>26adc*/VCU_DW./*@>29d69*/Memory_PreviousInput_a/*@>7c09*/ = /*@>2660f*/VCU_B./*@>29b9b*/Log
 3837              	 .loc 1 1098 0
 3838 1f9c 7D4B     	 ldr r3,.L283+4
 3839 1f9e 93F8F826 	 ldrb r2,[r3,#1784]
 3840 1fa2 7B4B     	 ldr r3,.L283
 3841 1fa4 83F83A21 	 strb r2,[r3,#314]
1099:../Simulink/Subsystem_Transmission.c ****     /* Update for UnitDelay: '<S222>/Delay Input1'
1100:../Simulink/Subsystem_Transmission.c ****  *
1101:../Simulink/Subsystem_Transmission.c ****  * Block description for '<S222>/Delay Input1':
1102:../Simulink/Subsystem_Transmission.c ****  *  
1103:../Simulink/Subsystem_Transmission.c ****  *  Store in Global RAM
1104:../Simulink/Subsystem_Transmission.c ****  */
1105:../Simulink/Subsystem_Transmission.c ****     /*@>26ae8*/VCU_DW./*@>29d6f*/DelayInput1_DSTATE_g/*@>87df*/ = /*@>2661b*/VCU_B./*@>29ba1*/STW_s
 3842              	 .loc 1 1105 0
 3843 1fa8 7A4B     	 ldr r3,.L283+4
 3844 1faa 03F59C63 	 add r3,r3,#1248
 3845 1fae D3E90023 	 ldrd r2,[r3]
 3846 1fb2 7749     	 ldr r1,.L283
 3847 1fb4 C1E90223 	 strd r2,[r1,#8]
1106:../Simulink/Subsystem_Transmission.c ****     /* Update for UnitDelay: '<S223>/Delay Input1'
1107:../Simulink/Subsystem_Transmission.c ****  *
1108:../Simulink/Subsystem_Transmission.c ****  * Block description for '<S223>/Delay Input1':
1109:../Simulink/Subsystem_Transmission.c ****  *  
1110:../Simulink/Subsystem_Transmission.c ****  *  Store in Global RAM
1111:../Simulink/Subsystem_Transmission.c ****  */
1112:../Simulink/Subsystem_Transmission.c ****     /*@>26aee*/VCU_DW./*@>29d72*/DelayInput1_DSTATE_ga/*@>87eb*/ = /*@>26621*/VCU_B./*@>29ba4*/Add_
 3848              	 .loc 1 1112 0
 3849 1fb8 764B     	 ldr r3,.L283+4
 3850 1fba 93F88526 	 ldrb r2,[r3,#1669]
 3851 1fbe 744B     	 ldr r3,.L283
 3852 1fc0 83F8BC20 	 strb r2,[r3,#188]
1113:../Simulink/Subsystem_Transmission.c ****     /* Update for UnitDelay: '<S200>/Unit Delay' */
1114:../Simulink/Subsystem_Transmission.c ****     /*@>26af4*/VCU_DW./*@>29d75*/UnitDelay_DSTATE_b/*@>87f7*/ = /*@>26627*/VCU_B./*@>29ba7*/Logic_i
 3853              	 .loc 1 1114 0
 3854 1fc4 734B     	 ldr r3,.L283+4
 3855 1fc6 93F8F826 	 ldrb r2,[r3,#1784]
 3856 1fca 714B     	 ldr r3,.L283
 3857 1fcc 83F8DB20 	 strb r2,[r3,#219]
1115:../Simulink/Subsystem_Transmission.c ****     /* Update for UnitDelay: '<S201>/Unit Delay1' */
1116:../Simulink/Subsystem_Transmission.c ****     /*@>26b0c*/VCU_DW./*@>29d81*/UnitDelay1_DSTATE_k/*@>8803*/ = /*@>26633*/VCU_B./*@>29bad*/Counte
 3858              	 .loc 1 1116 0
 3859 1fd0 704B     	 ldr r3,.L283+4
 3860 1fd2 93F81027 	 ldrb r2,[r3,#1808]
 3861 1fd6 6E4B     	 ldr r3,.L283
 3862 1fd8 83F8DC20 	 strb r2,[r3,#220]
1117:../Simulink/Subsystem_Transmission.c ****     /* Update for Memory: '<S225>/Memory' */
1118:../Simulink/Subsystem_Transmission.c ****     /*@>26b18*/VCU_DW./*@>29d87*/Memory_PreviousInput_al/*@>7c0f*/ = /*@>2663f*/VCU_B./*@>29bb3*/Lo
 3863              	 .loc 1 1118 0
 3864 1fdc 6D4B     	 ldr r3,.L283+4
 3865 1fde 93F80727 	 ldrb r2,[r3,#1799]
 3866 1fe2 6B4B     	 ldr r3,.L283
 3867 1fe4 83F83B21 	 strb r2,[r3,#315]
1119:../Simulink/Subsystem_Transmission.c ****     /* Update for UnitDelay: '<S224>/Delay Input1'
1120:../Simulink/Subsystem_Transmission.c ****  *
1121:../Simulink/Subsystem_Transmission.c ****  * Block description for '<S224>/Delay Input1':
1122:../Simulink/Subsystem_Transmission.c ****  *  
1123:../Simulink/Subsystem_Transmission.c ****  *  Store in Global RAM
