   1              	 .syntax unified
   2              	 .cpu cortex-m4
   3              	 .eabi_attribute 27,3
   4              	 .fpu fpv4-sp-d16
   5              	 .eabi_attribute 20,1
   6              	 .eabi_attribute 21,1
   7              	 .eabi_attribute 23,3
   8              	 .eabi_attribute 24,1
   9              	 .eabi_attribute 25,1
  10              	 .eabi_attribute 26,1
  11              	 .eabi_attribute 30,4
  12              	 .eabi_attribute 34,1
  13              	 .eabi_attribute 18,4
  14              	 .thumb
  15              	 .file "Subsystem_PumpAndFans.c"
  16              	 .global __aeabi_dcmpge
  17              	 .global __aeabi_dcmpgt
  18              	 .global __aeabi_dcmplt
  19              	 .section .text.FUNC_PumpAndFans,"ax",%progbits
  20              	 .align 1
  21              	 .global FUNC_PumpAndFans
  22              	 .thumb
  23              	 .thumb_func
  25              	FUNC_PumpAndFans:
  26              	 
  27              	 
  28 0000 2DE9F043 	 push {r4,r5,r6,r7,r8,r9,lr}
  29 0004 2E4C     	 ldr r4,.L21+8
  30 0006 94F80E38 	 ldrb r3,[r4,#2062]
  31 000a 87B0     	 sub sp,sp,#28
  32 000c 13B1     	 cbz r3,.L2
  33 000e 0022     	 movs r2,#0
  34 0010 2C4B     	 ldr r3,.L21+12
  35 0012 2CE0     	 b .L18
  36              	.L2:
  37 0014 04F5AC63 	 add r3,r4,#1376
  38 0018 D3E90001 	 ldrd r0,[r3]
  39 001c 0022     	 movs r2,#0
  40 001e 294B     	 ldr r3,.L21+12
  41 0020 FFF7FEFF 	 bl __aeabi_dcmpge
  42 0024 30B1     	 cbz r0,.L15
  43 0026 04F5AB63 	 add r3,r4,#1368
  44 002a D3E90023 	 ldrd r2,[r3]
  45 002e C4E9BE23 	 strd r2,[r4,#760]
  46 0032 1AE0     	 b .L6
  47              	.L15:
  48 0034 244B     	 ldr r3,.L21+16
  49 0036 0093     	 str r3,[sp]
  50 0038 03F13800 	 add r0,r3,#56
  51 003c 0190     	 str r0,[sp,#4]
  52 003e A3F1A800 	 sub r0,r3,#168
  53 0042 03F5A073 	 add r3,r3,#320
  54 0046 0393     	 str r3,[sp,#12]
  55 0048 0723     	 movs r3,#7
  56 004a 0290     	 str r0,[sp,#8]
  57 004c 0493     	 str r3,[sp,#16]
  58 004e 04F5A861 	 add r1,r4,#1344
  59 0052 04F5A162 	 add r2,r4,#1288
  60 0056 D1E90001 	 ldrd r0,[r1]
  61 005a D2E90023 	 ldrd r2,[r2]
  62 005e FFF7FEFF 	 bl look2_binlxpw
  63 0062 C4E9C001 	 strd r0,[r4,#768]
  64 0066 C4E9BE01 	 strd r0,[r4,#760]
  65              	.L6:
  66 006a D4E9BE23 	 ldrd r2,[r4,#760]
  67              	.L18:
  68 006e C4E9BA23 	 strd r2,[r4,#744]
  69 0072 0FF24409 	 adr r9,.L21
  70 0076 D9E90089 	 ldrd r8,[r9]
  71 007a D4E9BA67 	 ldrd r6,[r4,#744]
  72 007e 4246     	 mov r2,r8
  73 0080 3046     	 mov r0,r6
  74 0082 3946     	 mov r1,r7
  75 0084 4B46     	 mov r3,r9
  76 0086 0E4D     	 ldr r5,.L21+8
  77 0088 FFF7FEFF 	 bl __aeabi_dcmpgt
  78 008c 50B9     	 cbnz r0,.L19
  79 008e 4FF00008 	 mov r8,#0
  80 0092 4FF00009 	 mov r9,#0
  81 0096 3046     	 mov r0,r6
  82 0098 3946     	 mov r1,r7
  83 009a 4246     	 mov r2,r8
  84 009c 4B46     	 mov r3,r9
  85 009e FFF7FEFF 	 bl __aeabi_dcmplt
  86 00a2 10B1     	 cbz r0,.L17
  87              	.L19:
  88 00a4 C5E9BC89 	 strd r8,[r5,#752]
  89 00a8 01E0     	 b .L1
  90              	.L17:
  91 00aa C5E9BC67 	 strd r6,[r5,#752]
  92              	.L1:
  93 00ae 07B0     	 add sp,sp,#28
  94              	 
  95 00b0 BDE8F083 	 pop {r4,r5,r6,r7,r8,r9,pc}
  96              	.L22:
  97 00b4 AFF30080 	 .align 3
  98              	.L21:
  99 00b8 1EA7E848 	 .word 1223206686
 100 00bc 2EFFEF3F 	 .word 1072693038
 101 00c0 00000000 	 .word VCU_B
 102 00c4 0000F03F 	 .word 1072693248
 103 00c8 E8010000 	 .word VCU_ConstP+488
 105 00cc AFF30080 	 .ident "GCC: (GNU Tools for ARM Embedded Processors) 4.9.3 20141119 (release) [ARM/embedded-4_9-branch revision 218278]"
DEFINED SYMBOLS
                            *ABS*:00000000 Subsystem_PumpAndFans.c
    {standard input}:20     .text.FUNC_PumpAndFans:00000000 $t
    {standard input}:25     .text.FUNC_PumpAndFans:00000000 FUNC_PumpAndFans
    {standard input}:99     .text.FUNC_PumpAndFans:000000b8 $d
    {standard input}:105    .text.FUNC_PumpAndFans:000000cc $t

UNDEFINED SYMBOLS
__aeabi_dcmpge
__aeabi_dcmpgt
__aeabi_dcmplt
look2_binlxpw
VCU_B
VCU_ConstP
