   1              	 .syntax unified
   2              	 .cpu cortex-m4
   3              	 .eabi_attribute 27,3
   4              	 .fpu fpv4-sp-d16
   5              	 .eabi_attribute 20,1
   6              	 .eabi_attribute 21,1
   7              	 .eabi_attribute 23,3
   8              	 .eabi_attribute 24,1
   9              	 .eabi_attribute 25,1
  10              	 .eabi_attribute 26,1
  11              	 .eabi_attribute 30,6
  12              	 .eabi_attribute 34,1
  13              	 .eabi_attribute 18,4
  14              	 .thumb
  15              	 .file "watchdog.c"
  16              	 .text
  17              	.Ltext0:
  18              	 .cfi_sections .debug_frame
  19              	 .section .text.WATCHDOG_GetAppVersion,"ax",%progbits
  20              	 .align 2
  21              	 .global WATCHDOG_GetAppVersion
  22              	 .thumb
  23              	 .thumb_func
  25              	WATCHDOG_GetAppVersion:
  26              	.LFB199:
  27              	 .file 1 "../Dave/Generated/WATCHDOG/watchdog.c"
   1:../Dave/Generated/WATCHDOG/watchdog.c **** /**
   2:../Dave/Generated/WATCHDOG/watchdog.c ****  * @file watchdog.c
   3:../Dave/Generated/WATCHDOG/watchdog.c ****  * @date 2016-02-09
   4:../Dave/Generated/WATCHDOG/watchdog.c ****  *
   5:../Dave/Generated/WATCHDOG/watchdog.c ****  * NOTE:
   6:../Dave/Generated/WATCHDOG/watchdog.c ****  * This file is generated by DAVE. Any manual modification done to this file will be lost when the 
   7:../Dave/Generated/WATCHDOG/watchdog.c ****  *
   8:../Dave/Generated/WATCHDOG/watchdog.c ****  * @cond
   9:../Dave/Generated/WATCHDOG/watchdog.c ****  **************************************************************************************************
  10:../Dave/Generated/WATCHDOG/watchdog.c ****  * WATCHDOG v4.0.14 - Configures the watchdog peripheral instance.
  11:../Dave/Generated/WATCHDOG/watchdog.c ****  *
  12:../Dave/Generated/WATCHDOG/watchdog.c ****  * Copyright (c) 2016, Infineon Technologies AG
  13:../Dave/Generated/WATCHDOG/watchdog.c ****  * All rights reserved.
  14:../Dave/Generated/WATCHDOG/watchdog.c ****  *
  15:../Dave/Generated/WATCHDOG/watchdog.c ****  * Redistribution and use in source and binary forms, with or without modification,are permitted pr
  16:../Dave/Generated/WATCHDOG/watchdog.c ****  * following conditions are met:
  17:../Dave/Generated/WATCHDOG/watchdog.c ****  *
  18:../Dave/Generated/WATCHDOG/watchdog.c ****  *   Redistributions of source code must retain the above copyright notice, this list of conditions
  19:../Dave/Generated/WATCHDOG/watchdog.c ****  *   disclaimer.
  20:../Dave/Generated/WATCHDOG/watchdog.c ****  *
  21:../Dave/Generated/WATCHDOG/watchdog.c ****  *   Redistributions in binary form must reproduce the above copyright notice, this list of conditi
  22:../Dave/Generated/WATCHDOG/watchdog.c ****  *   following disclaimer in the documentation and/or other materials provided with the distributio
  23:../Dave/Generated/WATCHDOG/watchdog.c ****  *
  24:../Dave/Generated/WATCHDOG/watchdog.c ****  *   Neither the name of the copyright holders nor the names of its contributors may be used to end
  25:../Dave/Generated/WATCHDOG/watchdog.c ****  *   products derived from this software without specific prior written permission.
  26:../Dave/Generated/WATCHDOG/watchdog.c ****  *
  27:../Dave/Generated/WATCHDOG/watchdog.c ****  * THIS SOFTWARE IS PROVIDED BY THE COPYRIGHT HOLDERS AND CONTRIBUTORS "AS IS" AND ANY EXPRESS OR I
  28:../Dave/Generated/WATCHDOG/watchdog.c ****  * INCLUDING, BUT NOT LIMITED TO, THE IMPLIED WARRANTIES OF MERCHANTABILITY AND FITNESS FOR A PARTI
  29:../Dave/Generated/WATCHDOG/watchdog.c ****  * DISCLAIMED. IN NO EVENT SHALL THE COPYRIGHT HOLDER OR CONTRIBUTORS BE LIABLE  FOR ANY DIRECT, IN
  30:../Dave/Generated/WATCHDOG/watchdog.c ****  * SPECIAL, EXEMPLARY, OR CONSEQUENTIAL DAMAGES (INCLUDING, BUT NOT LIMITED TO, PROCUREMENT OF SUBS
  31:../Dave/Generated/WATCHDOG/watchdog.c ****  * SERVICES; LOSS OF USE, DATA, OR PROFITS; OR BUSINESS INTERRUPTION) HOWEVER CAUSED AND ON ANY THE
  32:../Dave/Generated/WATCHDOG/watchdog.c ****  * WHETHER IN CONTRACT, STRICT LIABILITY,OR TORT (INCLUDING NEGLIGENCE OR OTHERWISE) ARISING IN ANY
  33:../Dave/Generated/WATCHDOG/watchdog.c ****  * USE OF THIS SOFTWARE, EVEN IF ADVISED OF THE POSSIBILITY OF SUCH DAMAGE.
  34:../Dave/Generated/WATCHDOG/watchdog.c ****  *
  35:../Dave/Generated/WATCHDOG/watchdog.c ****  * To improve the quality of the software, users are encouraged to share modifications, enhancement
  36:../Dave/Generated/WATCHDOG/watchdog.c ****  * with Infineon Technologies AG (dave@infineon.com).
  37:../Dave/Generated/WATCHDOG/watchdog.c ****  **************************************************************************************************
  38:../Dave/Generated/WATCHDOG/watchdog.c ****  *
  39:../Dave/Generated/WATCHDOG/watchdog.c ****  * Change History
  40:../Dave/Generated/WATCHDOG/watchdog.c ****  * --------------
  41:../Dave/Generated/WATCHDOG/watchdog.c ****  *
  42:../Dave/Generated/WATCHDOG/watchdog.c ****  * 2015-02-16:
  43:../Dave/Generated/WATCHDOG/watchdog.c ****  *     - Initial version<br>
  44:../Dave/Generated/WATCHDOG/watchdog.c ****  *
  45:../Dave/Generated/WATCHDOG/watchdog.c ****  * 2015-05-08:
  46:../Dave/Generated/WATCHDOG/watchdog.c ****  *     - Optimization of WATCHDOG_Init() function<br>
  47:../Dave/Generated/WATCHDOG/watchdog.c ****  *     - Added a macro "WATCHDOG_NORMAL_INTERRUPT" to avoid misra warning<br>
  48:../Dave/Generated/WATCHDOG/watchdog.c ****  *
  49:../Dave/Generated/WATCHDOG/watchdog.c ****  * 2015-06-20:
  50:../Dave/Generated/WATCHDOG/watchdog.c ****  *     - Pre-warn event registration is updated by using GLOBAL_SCU APP macros.
  51:../Dave/Generated/WATCHDOG/watchdog.c ****  *
  52:../Dave/Generated/WATCHDOG/watchdog.c ****  * 2015-11-30:
  53:../Dave/Generated/WATCHDOG/watchdog.c ****  *     - macro WATCHDOG_EVENT_CONFIGURATION is replaced with WATCHDOG_EVENT_VIA_SCU.
  54:../Dave/Generated/WATCHDOG/watchdog.c ****  *     - NMI support for XMC4000 devices is added.
  55:../Dave/Generated/WATCHDOG/watchdog.c ****  *
  56:../Dave/Generated/WATCHDOG/watchdog.c ****  * @endcond
  57:../Dave/Generated/WATCHDOG/watchdog.c ****  *
  58:../Dave/Generated/WATCHDOG/watchdog.c ****  */
  59:../Dave/Generated/WATCHDOG/watchdog.c **** 
  60:../Dave/Generated/WATCHDOG/watchdog.c **** /**************************************************************************************************
  61:../Dave/Generated/WATCHDOG/watchdog.c ****  * HEADER FILES
  62:../Dave/Generated/WATCHDOG/watchdog.c ****  **************************************************************************************************
  63:../Dave/Generated/WATCHDOG/watchdog.c **** #include "watchdog.h"
  64:../Dave/Generated/WATCHDOG/watchdog.c **** 
  65:../Dave/Generated/WATCHDOG/watchdog.c **** /**************************************************************************************************
  66:../Dave/Generated/WATCHDOG/watchdog.c ****  * MACROS
  67:../Dave/Generated/WATCHDOG/watchdog.c ****  **************************************************************************************************
  68:../Dave/Generated/WATCHDOG/watchdog.c **** 
  69:../Dave/Generated/WATCHDOG/watchdog.c **** /**************************************************************************************************
  70:../Dave/Generated/WATCHDOG/watchdog.c ****  * LOCAL DATA
  71:../Dave/Generated/WATCHDOG/watchdog.c ****  **************************************************************************************************
  72:../Dave/Generated/WATCHDOG/watchdog.c **** 
  73:../Dave/Generated/WATCHDOG/watchdog.c **** /**************************************************************************************************
  74:../Dave/Generated/WATCHDOG/watchdog.c ****  * LOCAL ROUTINES
  75:../Dave/Generated/WATCHDOG/watchdog.c ****  **************************************************************************************************
  76:../Dave/Generated/WATCHDOG/watchdog.c **** #if (WATCHDOG_PREWARNING_CHECK == 1U)
  77:../Dave/Generated/WATCHDOG/watchdog.c **** /*
  78:../Dave/Generated/WATCHDOG/watchdog.c ****  * Register the Pre-warning event with GLOBAL_SCU APP
  79:../Dave/Generated/WATCHDOG/watchdog.c ****  */
  80:../Dave/Generated/WATCHDOG/watchdog.c **** WATCHDOG_STATUS_t WATCHDOG_lPrewarning_Configure(WATCHDOG_t *handle);
  81:../Dave/Generated/WATCHDOG/watchdog.c **** #endif
  82:../Dave/Generated/WATCHDOG/watchdog.c **** 
  83:../Dave/Generated/WATCHDOG/watchdog.c **** /**************************************************************************************************
  84:../Dave/Generated/WATCHDOG/watchdog.c ****  * API IMPLEMENTATION
  85:../Dave/Generated/WATCHDOG/watchdog.c ****  **************************************************************************************************
  86:../Dave/Generated/WATCHDOG/watchdog.c **** /* Returns the version of the WATCHDOG APP. */
  87:../Dave/Generated/WATCHDOG/watchdog.c **** DAVE_APP_VERSION_t WATCHDOG_GetAppVersion(void)
  88:../Dave/Generated/WATCHDOG/watchdog.c **** {
  28              	 .loc 1 88 0
  29              	 .cfi_startproc
  30              	 
  31              	 
  32              	 
  33 0000 80B4     	 push {r7}
  34              	.LCFI0:
  35              	 .cfi_def_cfa_offset 4
  36              	 .cfi_offset 7,-4
  37 0002 83B0     	 sub sp,sp,#12
  38              	.LCFI1:
  39              	 .cfi_def_cfa_offset 16
  40 0004 00AF     	 add r7,sp,#0
  41              	.LCFI2:
  42              	 .cfi_def_cfa_register 7
  89:../Dave/Generated/WATCHDOG/watchdog.c ****   DAVE_APP_VERSION_t version;
  90:../Dave/Generated/WATCHDOG/watchdog.c **** 
  91:../Dave/Generated/WATCHDOG/watchdog.c ****   version.major = (uint8_t)WATCHDOG_MAJOR_VERSION;
  43              	 .loc 1 91 0
  44 0006 0423     	 movs r3,#4
  45 0008 3B70     	 strb r3,[r7]
  92:../Dave/Generated/WATCHDOG/watchdog.c ****   version.minor = (uint8_t)WATCHDOG_MINOR_VERSION;
  46              	 .loc 1 92 0
  47 000a 0023     	 movs r3,#0
  48 000c 7B70     	 strb r3,[r7,#1]
  93:../Dave/Generated/WATCHDOG/watchdog.c ****   version.patch = (uint8_t)WATCHDOG_PATCH_VERSION;
  49              	 .loc 1 93 0
  50 000e 0E23     	 movs r3,#14
  51 0010 BB70     	 strb r3,[r7,#2]
  94:../Dave/Generated/WATCHDOG/watchdog.c **** 
  95:../Dave/Generated/WATCHDOG/watchdog.c ****   return (version);
  52              	 .loc 1 95 0
  53 0012 3B1D     	 adds r3,r7,#4
  54 0014 3A46     	 mov r2,r7
  55 0016 1268     	 ldr r2,[r2]
  56 0018 1146     	 mov r1,r2
  57 001a 1980     	 strh r1,[r3]
  58 001c 0233     	 adds r3,r3,#2
  59 001e 120C     	 lsrs r2,r2,#16
  60 0020 1A70     	 strb r2,[r3]
  61 0022 0023     	 movs r3,#0
  62 0024 3A79     	 ldrb r2,[r7,#4]
  63 0026 62F30703 	 bfi r3,r2,#0,#8
  64 002a 7A79     	 ldrb r2,[r7,#5]
  65 002c 62F30F23 	 bfi r3,r2,#8,#8
  66 0030 BA79     	 ldrb r2,[r7,#6]
  67 0032 62F31743 	 bfi r3,r2,#16,#8
  96:../Dave/Generated/WATCHDOG/watchdog.c **** }
  68              	 .loc 1 96 0
  69 0036 1846     	 mov r0,r3
  70 0038 0C37     	 adds r7,r7,#12
  71              	.LCFI3:
  72              	 .cfi_def_cfa_offset 4
  73 003a BD46     	 mov sp,r7
  74              	.LCFI4:
  75              	 .cfi_def_cfa_register 13
  76              	 
  77 003c 5DF8047B 	 ldr r7,[sp],#4
  78              	.LCFI5:
  79              	 .cfi_restore 7
  80              	 .cfi_def_cfa_offset 0
  81 0040 7047     	 bx lr
  82              	 .cfi_endproc
  83              	.LFE199:
  85 0042 00BF     	 .section .text.WATCHDOG_Init,"ax",%progbits
  86              	 .align 2
  87              	 .global WATCHDOG_Init
  88              	 .thumb
  89              	 .thumb_func
  91              	WATCHDOG_Init:
  92              	.LFB200:
  97:../Dave/Generated/WATCHDOG/watchdog.c **** 
  98:../Dave/Generated/WATCHDOG/watchdog.c **** /* Initializes the watchdog timer with the generated configuration */
  99:../Dave/Generated/WATCHDOG/watchdog.c **** WATCHDOG_STATUS_t WATCHDOG_Init(WATCHDOG_t *handle)
 100:../Dave/Generated/WATCHDOG/watchdog.c **** {
  93              	 .loc 1 100 0
  94              	 .cfi_startproc
  95              	 
  96              	 
  97 0000 80B5     	 push {r7,lr}
  98              	.LCFI6:
  99              	 .cfi_def_cfa_offset 8
 100              	 .cfi_offset 7,-8
 101              	 .cfi_offset 14,-4
 102 0002 84B0     	 sub sp,sp,#16
 103              	.LCFI7:
 104              	 .cfi_def_cfa_offset 24
 105 0004 00AF     	 add r7,sp,#0
 106              	.LCFI8:
 107              	 .cfi_def_cfa_register 7
 108 0006 7860     	 str r0,[r7,#4]
 101:../Dave/Generated/WATCHDOG/watchdog.c ****   WATCHDOG_STATUS_t status;
 102:../Dave/Generated/WATCHDOG/watchdog.c **** 
 103:../Dave/Generated/WATCHDOG/watchdog.c ****   XMC_ASSERT("WATCHDOG_Init:handle NULL" , (handle != NULL));
 104:../Dave/Generated/WATCHDOG/watchdog.c **** 
 105:../Dave/Generated/WATCHDOG/watchdog.c ****   status = WATCHDOG_STATUS_SUCCESS;
 109              	 .loc 1 105 0
 110 0008 0023     	 movs r3,#0
 111 000a FB73     	 strb r3,[r7,#15]
 106:../Dave/Generated/WATCHDOG/watchdog.c **** 
 107:../Dave/Generated/WATCHDOG/watchdog.c ****   /* Check for app instance is initialized or not */
 108:../Dave/Generated/WATCHDOG/watchdog.c ****   if (false == handle->initialized)
 112              	 .loc 1 108 0
 113 000c 7B68     	 ldr r3,[r7,#4]
 114 000e 1B79     	 ldrb r3,[r3,#4]
 115 0010 83F00103 	 eor r3,r3,#1
 116 0014 DBB2     	 uxtb r3,r3
 117 0016 002B     	 cmp r3,#0
 118 0018 0FD0     	 beq .L4
 109:../Dave/Generated/WATCHDOG/watchdog.c ****   {
 110:../Dave/Generated/WATCHDOG/watchdog.c **** #if (WATCHDOG_PREWARNING_CHECK == 1U)
 111:../Dave/Generated/WATCHDOG/watchdog.c ****       /* Service Event Handling */
 112:../Dave/Generated/WATCHDOG/watchdog.c ****       status = WATCHDOG_lPrewarning_Configure(handle);
 119              	 .loc 1 112 0
 120 001a 7868     	 ldr r0,[r7,#4]
 121 001c FFF7FEFF 	 bl WATCHDOG_lPrewarning_Configure
 122 0020 0346     	 mov r3,r0
 123 0022 FB73     	 strb r3,[r7,#15]
 113:../Dave/Generated/WATCHDOG/watchdog.c ****       if(WATCHDOG_STATUS_FAILURE != status)
 124              	 .loc 1 113 0
 125 0024 FB7B     	 ldrb r3,[r7,#15]
 126 0026 012B     	 cmp r3,#1
 127 0028 07D0     	 beq .L4
 114:../Dave/Generated/WATCHDOG/watchdog.c ****       {
 115:../Dave/Generated/WATCHDOG/watchdog.c **** #endif
 116:../Dave/Generated/WATCHDOG/watchdog.c ****         /* Initialize the WDT peripheral */
 117:../Dave/Generated/WATCHDOG/watchdog.c ****         XMC_WDT_Init(handle->config);
 128              	 .loc 1 117 0
 129 002a 7B68     	 ldr r3,[r7,#4]
 130 002c 1B68     	 ldr r3,[r3]
 131 002e 1846     	 mov r0,r3
 132 0030 FFF7FEFF 	 bl XMC_WDT_Init
 118:../Dave/Generated/WATCHDOG/watchdog.c ****         /* Update the initialization flag */
 119:../Dave/Generated/WATCHDOG/watchdog.c ****         handle->initialized = true;
 133              	 .loc 1 119 0
 134 0034 7B68     	 ldr r3,[r7,#4]
 135 0036 0122     	 movs r2,#1
 136 0038 1A71     	 strb r2,[r3,#4]
 137              	.L4:
 120:../Dave/Generated/WATCHDOG/watchdog.c **** #if (WATCHDOG_PREWARNING_CHECK == 1U)
 121:../Dave/Generated/WATCHDOG/watchdog.c ****       }
 122:../Dave/Generated/WATCHDOG/watchdog.c **** #endif
 123:../Dave/Generated/WATCHDOG/watchdog.c ****   }
 124:../Dave/Generated/WATCHDOG/watchdog.c **** 
 125:../Dave/Generated/WATCHDOG/watchdog.c ****   return (status);
 138              	 .loc 1 125 0
 139 003a FB7B     	 ldrb r3,[r7,#15]
 126:../Dave/Generated/WATCHDOG/watchdog.c **** }
 140              	 .loc 1 126 0
 141 003c 1846     	 mov r0,r3
 142 003e 1037     	 adds r7,r7,#16
 143              	.LCFI9:
 144              	 .cfi_def_cfa_offset 8
 145 0040 BD46     	 mov sp,r7
 146              	.LCFI10:
 147              	 .cfi_def_cfa_register 13
 148              	 
 149 0042 80BD     	 pop {r7,pc}
 150              	 .cfi_endproc
 151              	.LFE200:
 153              	 .section .text.WATCHDOG_lPrewarning_Configure,"ax",%progbits
 154              	 .align 2
 155              	 .global WATCHDOG_lPrewarning_Configure
 156              	 .thumb
 157              	 .thumb_func
 159              	WATCHDOG_lPrewarning_Configure:
 160              	.LFB201:
 127:../Dave/Generated/WATCHDOG/watchdog.c **** 
 128:../Dave/Generated/WATCHDOG/watchdog.c **** /**************************************************************************************************
 129:../Dave/Generated/WATCHDOG/watchdog.c **** **                                        Private function definitions                             
 130:../Dave/Generated/WATCHDOG/watchdog.c **** ***************************************************************************************************
 131:../Dave/Generated/WATCHDOG/watchdog.c **** #if (WATCHDOG_PREWARNING_CHECK == 1U)
 132:../Dave/Generated/WATCHDOG/watchdog.c **** /*
 133:../Dave/Generated/WATCHDOG/watchdog.c ****  * Register the Pre-warning event with GLOBAL_SCU APP
 134:../Dave/Generated/WATCHDOG/watchdog.c ****  */
 135:../Dave/Generated/WATCHDOG/watchdog.c **** WATCHDOG_STATUS_t WATCHDOG_lPrewarning_Configure(WATCHDOG_t *handle)
 136:../Dave/Generated/WATCHDOG/watchdog.c **** {
 161              	 .loc 1 136 0
 162              	 .cfi_startproc
 163              	 
 164              	 
 165 0000 80B5     	 push {r7,lr}
 166              	.LCFI11:
 167              	 .cfi_def_cfa_offset 8
 168              	 .cfi_offset 7,-8
 169              	 .cfi_offset 14,-4
 170 0002 84B0     	 sub sp,sp,#16
 171              	.LCFI12:
 172              	 .cfi_def_cfa_offset 24
 173 0004 00AF     	 add r7,sp,#0
 174              	.LCFI13:
 175              	 .cfi_def_cfa_register 7
 176 0006 7860     	 str r0,[r7,#4]
 137:../Dave/Generated/WATCHDOG/watchdog.c ****   WATCHDOG_STATUS_t status;
 138:../Dave/Generated/WATCHDOG/watchdog.c ****   status = WATCHDOG_STATUS_SUCCESS;
 177              	 .loc 1 138 0
 178 0008 0023     	 movs r3,#0
 179 000a FB73     	 strb r3,[r7,#15]
 139:../Dave/Generated/WATCHDOG/watchdog.c ****   /* Normal interrupt generation */
 140:../Dave/Generated/WATCHDOG/watchdog.c **** #if (WATCHDOG_EVENT_VIA_SCU == 1U)
 141:../Dave/Generated/WATCHDOG/watchdog.c ****   #if(UC_FAMILY == XMC4)
 142:../Dave/Generated/WATCHDOG/watchdog.c ****     status = (WATCHDOG_STATUS_t)GLOBAL_SCU_XMC4_Init(handle->scu_global_handler);
 143:../Dave/Generated/WATCHDOG/watchdog.c ****   #else
 144:../Dave/Generated/WATCHDOG/watchdog.c ****     status = (WATCHDOG_STATUS_t)GLOBAL_SCU_XMC1_Init(handle->scu_global_handler);
 145:../Dave/Generated/WATCHDOG/watchdog.c ****   #endif
 146:../Dave/Generated/WATCHDOG/watchdog.c ****     if ((handle->callback_func_ptr != NULL) &&  (status != WATCHDOG_STATUS_FAILURE))
 147:../Dave/Generated/WATCHDOG/watchdog.c ****     {
 148:../Dave/Generated/WATCHDOG/watchdog.c ****       /* Enable the pre-warn event */
 149:../Dave/Generated/WATCHDOG/watchdog.c ****       XMC_SCU_INTERRUPT_EnableEvent((uint32_t)XMC_SCU_INTERRUPT_EVENT_WDT_WARN);
 150:../Dave/Generated/WATCHDOG/watchdog.c ****       /* Register User defined Event Handler function */
 151:../Dave/Generated/WATCHDOG/watchdog.c **** 	  #if(UC_FAMILY == XMC4)
 152:../Dave/Generated/WATCHDOG/watchdog.c ****       status = (WATCHDOG_STATUS_t)GLOBAL_SCU_XMC4_RegisterCallback(GLOBAL_SCU_XMC4_EVENT_WDT_WARNIN
 153:../Dave/Generated/WATCHDOG/watchdog.c ****     		                                                       handle->callback_func_ptr);
 154:../Dave/Generated/WATCHDOG/watchdog.c **** 	  #else
 155:../Dave/Generated/WATCHDOG/watchdog.c ****       status = (WATCHDOG_STATUS_t)GLOBAL_SCU_XMC1_RegisterCallback(GLOBAL_SCU_XMC1_EVENT_WDT_WARNIN
 156:../Dave/Generated/WATCHDOG/watchdog.c ****     		                                                       handle->callback_func_ptr);
 157:../Dave/Generated/WATCHDOG/watchdog.c **** 	  #endif
 158:../Dave/Generated/WATCHDOG/watchdog.c ****     }
 159:../Dave/Generated/WATCHDOG/watchdog.c ****     else
 160:../Dave/Generated/WATCHDOG/watchdog.c ****     {
 161:../Dave/Generated/WATCHDOG/watchdog.c ****       status = WATCHDOG_STATUS_FAILURE;
 162:../Dave/Generated/WATCHDOG/watchdog.c ****     }
 163:../Dave/Generated/WATCHDOG/watchdog.c **** #endif
 164:../Dave/Generated/WATCHDOG/watchdog.c **** 
 165:../Dave/Generated/WATCHDOG/watchdog.c **** #if (WATCHDOG_EVENT_VIA_NMI == 1U)
 166:../Dave/Generated/WATCHDOG/watchdog.c ****     XMC_SCU_INTERRUPT_EnableEvent((uint32_t)XMC_SCU_INTERRUPT_EVENT_WDT_WARN);
 180              	 .loc 1 166 0
 181 000c 0120     	 movs r0,#1
 182 000e FFF7FEFF 	 bl XMC_SCU_INTERRUPT_EnableEvent
 167:../Dave/Generated/WATCHDOG/watchdog.c ****     XMC_SCU_INTERRUPT_EnableNmiRequest((uint32_t)XMC_SCU_INTERRUPT_EVENT_WDT_WARN);
 183              	 .loc 1 167 0
 184 0012 0120     	 movs r0,#1
 185 0014 FFF7FEFF 	 bl XMC_SCU_INTERRUPT_EnableNmiRequest
 168:../Dave/Generated/WATCHDOG/watchdog.c **** #endif
 169:../Dave/Generated/WATCHDOG/watchdog.c **** 
 170:../Dave/Generated/WATCHDOG/watchdog.c ****   return (status);
 186              	 .loc 1 170 0
 187 0018 FB7B     	 ldrb r3,[r7,#15]
 171:../Dave/Generated/WATCHDOG/watchdog.c **** }
 188              	 .loc 1 171 0
 189 001a 1846     	 mov r0,r3
 190 001c 1037     	 adds r7,r7,#16
 191              	.LCFI14:
 192              	 .cfi_def_cfa_offset 8
 193 001e BD46     	 mov sp,r7
 194              	.LCFI15:
 195              	 .cfi_def_cfa_register 13
 196              	 
 197 0020 80BD     	 pop {r7,pc}
 198              	 .cfi_endproc
 199              	.LFE201:
 201 0022 00BF     	 .text
 202              	.Letext0:
 203              	 .file 2 "c:\\dave\\dave-ide-4.4.2-64bit\\eclipse\\arm-gcc-49\\arm-none-eabi\\include\\machine\\_default_types.h"
 204              	 .file 3 "c:\\dave\\dave-ide-4.4.2-64bit\\eclipse\\arm-gcc-49\\arm-none-eabi\\include\\stdint.h"
 205              	 .file 4 "C:/Users/Yoshi/Documents/GitHub/Software/01_jrg/03_VCUJR20/2021_04_29_VCU_jr20_Source/Libraries/XMCLib/inc/xmc_wdt.h"
 206              	 .file 5 "C:/Users/Yoshi/Documents/GitHub/Software/01_jrg/03_VCUJR20/2021_04_29_VCU_jr20_Source/Dave/Generated/DAVE_Common.h"
 207              	 .file 6 "../Dave/Generated/WATCHDOG/watchdog.h"
 208              	 .file 7 "C:/Users/Yoshi/Documents/GitHub/Software/01_jrg/03_VCUJR20/2021_04_29_VCU_jr20_Source/Libraries/CMSIS/Include/cmsis_gcc.h"
 209              	 .file 8 "C:/Users/Yoshi/Documents/GitHub/Software/01_jrg/03_VCUJR20/2021_04_29_VCU_jr20_Source/Libraries/CMSIS/Include/core_cm4.h"
 210              	 .file 9 "C:/Users/Yoshi/Documents/GitHub/Software/01_jrg/03_VCUJR20/2021_04_29_VCU_jr20_Source/Libraries/CMSIS/Infineon/XMC4500_series/Include/system_XMC4500.h"