
2021_07_14_VCU_jr20_Source.elf:     file format elf32-littlearm

Sections:
Idx Name          Size      VMA       LMA       File off  Algn
  0 .text         00009974  08000000  0c000000  00008000  2**4
                  CONTENTS, ALLOC, LOAD, READONLY, CODE
  1 Stack         00000800  10000000  10000000  00020000  2**0
                  ALLOC
  2 .data         00000690  20000000  0c009974  00018000  2**3
                  CONTENTS, ALLOC, LOAD, DATA
  3 .bss          00000df8  20000690  0c00a004  00018690  2**3
                  ALLOC
  4 .no_init      00000014  2000ffc0  2000ffc0  0001ffc0  2**2
                  ALLOC
  5 .debug_frame  000002a0  00000000  00000000  00018690  2**2
                  CONTENTS, READONLY, DEBUGGING
  6 .build_attributes 0000123f  00000000  00000000  00018930  2**0
                  CONTENTS, READONLY

Disassembly of section .text:

08000000 <__Vectors>:
 8000000:	00 08 00 10 01 02 00 08 fd 72 00 08 89 62 00 08     .........r...b..
 8000010:	b1 02 00 08 b1 02 00 08 b1 02 00 08 00 00 00 00     ................
	...
 800002c:	81 49 00 08 b1 02 00 08 00 00 00 00 21 4a 00 08     .I..........!J..
 800003c:	91 4a 00 08 b1 02 00 08 b1 02 00 08 b1 02 00 08     .J..............
 800004c:	b1 02 00 08 c9 75 00 08 b1 02 00 08 b1 02 00 08     .....u..........
 800005c:	b1 02 00 08 b1 02 00 08 00 00 00 00 00 00 00 00     ................
 800006c:	00 00 00 00 b1 02 00 08 00 00 00 00 b1 02 00 08     ................
 800007c:	b1 02 00 08 b1 02 00 08 b1 02 00 08 b1 02 00 08     ................
 800008c:	b1 02 00 08 b1 02 00 08 b1 02 00 08 b1 02 00 08     ................
 800009c:	b1 02 00 08 b1 02 00 08 b1 02 00 08 b1 02 00 08     ................
 80000ac:	b1 02 00 08 b1 02 00 08 b1 02 00 08 b1 02 00 08     ................
 80000bc:	b1 02 00 08 b1 02 00 08 b1 02 00 08 b1 02 00 08     ................
 80000cc:	b1 02 00 08 b1 02 00 08 b1 02 00 08 b1 02 00 08     ................
 80000dc:	b1 02 00 08 b1 02 00 08 b1 02 00 08 b1 02 00 08     ................
 80000ec:	b1 02 00 08 b1 02 00 08 b1 02 00 08 b1 02 00 08     ................
 80000fc:	b1 02 00 08 b1 02 00 08 b1 02 00 08 b1 02 00 08     ................
 800010c:	b1 02 00 08 b1 02 00 08 b1 02 00 08 b1 02 00 08     ................
 800011c:	b1 02 00 08 b1 02 00 08 b1 02 00 08 b1 02 00 08     ................
 800012c:	b1 02 00 08 b1 02 00 08 b1 02 00 08 b1 02 00 08     ................
 800013c:	b1 02 00 08 b1 02 00 08 b1 02 00 08 b1 02 00 08     ................
 800014c:	b1 02 00 08 b1 02 00 08 b1 02 00 08 b1 02 00 08     ................
 800015c:	b1 02 00 08 00 00 00 00 00 00 00 00 00 00 00 00     ................
 800016c:	00 00 00 00 b1 02 00 08 b1 02 00 08 b1 02 00 08     ................
 800017c:	b1 02 00 08 b1 02 00 08 b1 02 00 08 b1 02 00 08     ................
 800018c:	b1 02 00 08 b1 02 00 08 b1 02 00 08 b1 02 00 08     ................
 800019c:	b1 02 00 08 b1 02 00 08 b1 02 00 08 b1 02 00 08     ................
 80001ac:	b1 02 00 08 b1 02 00 08 b1 02 00 08 b1 02 00 08     ................
 80001bc:	b1 02 00 08 b1 02 00 08 b1 02 00 08 b1 02 00 08     ................
 80001cc:	b1 02 00 08 b1 02 00 08 b1 02 00 08 b1 02 00 08     ................
 80001dc:	00 00 00 00 b1 02 00 08 b1 02 00 08 b1 02 00 08     ................
 80001ec:	b1 02 00 08 b1 02 00 08 00 00 00 00 b1 02 00 08     ................
 80001fc:	00 00 00 00                                         ....

08000200 <Reset_Handler>:
 8000200:	f8df d08c 	ldr.w	sp, [pc, #140]	; 8000290 <__zero_table_end__>
 8000204:	4823      	ldr	r0, [pc, #140]	; (8000294 <__zero_table_end__+0x4>)
 8000206:	4780      	blx	r0
 8000208:	4c23      	ldr	r4, [pc, #140]	; (8000298 <__zero_table_end__+0x8>)
 800020a:	4d24      	ldr	r5, [pc, #144]	; (800029c <__zero_table_end__+0xc>)
 800020c:	42ac      	cmp	r4, r5
 800020e:	da09      	bge.n	8000224 <Reset_Handler+0x24>
 8000210:	6821      	ldr	r1, [r4, #0]
 8000212:	6862      	ldr	r2, [r4, #4]
 8000214:	68a3      	ldr	r3, [r4, #8]
 8000216:	3b04      	subs	r3, #4
 8000218:	bfa2      	ittt	ge
 800021a:	58c8      	ldrge	r0, [r1, r3]
 800021c:	50d0      	strge	r0, [r2, r3]
 800021e:	e7fa      	bge.n	8000216 <Reset_Handler+0x16>
 8000220:	340c      	adds	r4, #12
 8000222:	e7f3      	b.n	800020c <Reset_Handler+0xc>
 8000224:	4b1e      	ldr	r3, [pc, #120]	; (80002a0 <__zero_table_end__+0x10>)
 8000226:	4c1f      	ldr	r4, [pc, #124]	; (80002a4 <__zero_table_end__+0x14>)
 8000228:	42a3      	cmp	r3, r4
 800022a:	da08      	bge.n	800023e <Reset_Handler+0x3e>
 800022c:	6819      	ldr	r1, [r3, #0]
 800022e:	685a      	ldr	r2, [r3, #4]
 8000230:	2000      	movs	r0, #0
 8000232:	3a04      	subs	r2, #4
 8000234:	bfa4      	itt	ge
 8000236:	5088      	strge	r0, [r1, r2]
 8000238:	e7fb      	bge.n	8000232 <Reset_Handler+0x32>
 800023a:	3308      	adds	r3, #8
 800023c:	e7f4      	b.n	8000228 <Reset_Handler+0x28>
 800023e:	481a      	ldr	r0, [pc, #104]	; (80002a8 <__zero_table_end__+0x18>)
 8000240:	4780      	blx	r0
 8000242:	481a      	ldr	r0, [pc, #104]	; (80002ac <__zero_table_end__+0x1c>)
 8000244:	4780      	blx	r0
	...

08000248 <__copy_table_start__>:
 8000248:	0c009974 	.word	0x0c009974
 800024c:	20000000 	.word	0x20000000
 8000250:	00000690 	.word	0x00000690
 8000254:	0c00a004 	.word	0x0c00a004
 8000258:	30000000 	.word	0x30000000
 800025c:	00000000 	.word	0x00000000
 8000260:	0c009974 	.word	0x0c009974
 8000264:	10000800 	.word	0x10000800
 8000268:	00000000 	.word	0x00000000
 800026c:	0c009974 	.word	0x0c009974
 8000270:	10000800 	.word	0x10000800
 8000274:	00000000 	.word	0x00000000

08000278 <__copy_table_end__>:
 8000278:	20000690 	.word	0x20000690
 800027c:	00000df4 	.word	0x00000df4
 8000280:	30000000 	.word	0x30000000
 8000284:	00000000 	.word	0x00000000
 8000288:	10000800 	.word	0x10000800
 800028c:	00000000 	.word	0x00000000

08000290 <__zero_table_end__>:
 8000290:	10000800 	.word	0x10000800
 8000294:	0800033d 	.word	0x0800033d
 8000298:	08000248 	.word	0x08000248
 800029c:	08000278 	.word	0x08000278
 80002a0:	08000278 	.word	0x08000278
 80002a4:	08000290 	.word	0x08000290
 80002a8:	08008e69 	.word	0x08008e69
 80002ac:	080080a9 	.word	0x080080a9

080002b0 <BusFault_Handler>:
 80002b0:	e7fe      	b.n	80002b0 <BusFault_Handler>
	...

080002b4 <SystemCoreClockUpdate>:
 80002b4:	4b1d      	ldr	r3, [pc, #116]	; (800032c <SystemCoreClockUpdate+0x78>)
 80002b6:	68db      	ldr	r3, [r3, #12]
 80002b8:	03d9      	lsls	r1, r3, #15
 80002ba:	b510      	push	{r4, lr}
 80002bc:	d525      	bpl.n	800030a <SystemCoreClockUpdate+0x56>
 80002be:	4b1c      	ldr	r3, [pc, #112]	; (8000330 <SystemCoreClockUpdate+0x7c>)
 80002c0:	68da      	ldr	r2, [r3, #12]
 80002c2:	f012 0f01 	tst.w	r2, #1
 80002c6:	461c      	mov	r4, r3
 80002c8:	d102      	bne.n	80002d0 <SystemCoreClockUpdate+0x1c>
 80002ca:	f006 f841 	bl	8006350 <OSCHP_GetFrequency>
 80002ce:	e000      	b.n	80002d2 <SystemCoreClockUpdate+0x1e>
 80002d0:	4818      	ldr	r0, [pc, #96]	; (8000334 <SystemCoreClockUpdate+0x80>)
 80002d2:	6822      	ldr	r2, [r4, #0]
 80002d4:	4b16      	ldr	r3, [pc, #88]	; (8000330 <SystemCoreClockUpdate+0x7c>)
 80002d6:	0752      	lsls	r2, r2, #29
 80002d8:	d510      	bpl.n	80002fc <SystemCoreClockUpdate+0x48>
 80002da:	689a      	ldr	r2, [r3, #8]
 80002dc:	6899      	ldr	r1, [r3, #8]
 80002de:	689b      	ldr	r3, [r3, #8]
 80002e0:	f3c2 6203 	ubfx	r2, r2, #24, #4
 80002e4:	f3c3 4406 	ubfx	r4, r3, #16, #7
 80002e8:	1c53      	adds	r3, r2, #1
 80002ea:	fb04 3303 	mla	r3, r4, r3, r3
 80002ee:	fbb0 f0f3 	udiv	r0, r0, r3
 80002f2:	f3c1 2306 	ubfx	r3, r1, #8, #7
 80002f6:	fb03 0000 	mla	r0, r3, r0, r0
 80002fa:	e007      	b.n	800030c <SystemCoreClockUpdate+0x58>
 80002fc:	689b      	ldr	r3, [r3, #8]
 80002fe:	f003 037f 	and.w	r3, r3, #127	; 0x7f
 8000302:	3301      	adds	r3, #1
 8000304:	fbb0 f0f3 	udiv	r0, r0, r3
 8000308:	e000      	b.n	800030c <SystemCoreClockUpdate+0x58>
 800030a:	480a      	ldr	r0, [pc, #40]	; (8000334 <SystemCoreClockUpdate+0x80>)
 800030c:	4a07      	ldr	r2, [pc, #28]	; (800032c <SystemCoreClockUpdate+0x78>)
 800030e:	68d3      	ldr	r3, [r2, #12]
 8000310:	b2db      	uxtb	r3, r3
 8000312:	3301      	adds	r3, #1
 8000314:	fbb0 f0f3 	udiv	r0, r0, r3
 8000318:	6913      	ldr	r3, [r2, #16]
 800031a:	f003 0301 	and.w	r3, r3, #1
 800031e:	3301      	adds	r3, #1
 8000320:	fbb0 f0f3 	udiv	r0, r0, r3
 8000324:	4b04      	ldr	r3, [pc, #16]	; (8000338 <SystemCoreClockUpdate+0x84>)
 8000326:	6018      	str	r0, [r3, #0]
 8000328:	bd10      	pop	{r4, pc}
 800032a:	bf00      	nop
 800032c:	50004600 	.word	0x50004600
 8000330:	50004710 	.word	0x50004710
 8000334:	016e3600 	.word	0x016e3600
 8000338:	2000ffc0 	.word	0x2000ffc0

0800033c <SystemInit>:
 800033c:	b538      	push	{r3, r4, r5, lr}
 800033e:	4a09      	ldr	r2, [pc, #36]	; (8000364 <SystemInit+0x28>)
 8000340:	4d09      	ldr	r5, [pc, #36]	; (8000368 <SystemInit+0x2c>)
 8000342:	f04f 5400 	mov.w	r4, #536870912	; 0x20000000
 8000346:	4623      	mov	r3, r4
 8000348:	cb03      	ldmia	r3!, {r0, r1}
 800034a:	42ab      	cmp	r3, r5
 800034c:	6010      	str	r0, [r2, #0]
 800034e:	6051      	str	r1, [r2, #4]
 8000350:	461c      	mov	r4, r3
 8000352:	f102 0208 	add.w	r2, r2, #8
 8000356:	d1f6      	bne.n	8000346 <SystemInit+0xa>
 8000358:	f005 ffa2 	bl	80062a0 <SystemCoreSetup>
 800035c:	f005 fffc 	bl	8006358 <SystemCoreClockSetup>
 8000360:	bd38      	pop	{r3, r4, r5, pc}
 8000362:	bf00      	nop
 8000364:	2000ffc4 	.word	0x2000ffc4
 8000368:	20000010 	.word	0x20000010

0800036c <FUNC_Brakelight>:
 800036c:	b570      	push	{r4, r5, r6, lr}
 800036e:	4c13      	ldr	r4, [pc, #76]	; (80003bc <FUNC_Brakelight+0x50>)
 8000370:	f504 6383 	add.w	r3, r4, #1048	; 0x418
 8000374:	e9d3 0100 	ldrd	r0, r1, [r3]
 8000378:	2200      	movs	r2, #0
 800037a:	4b11      	ldr	r3, [pc, #68]	; (80003c0 <FUNC_Brakelight+0x54>)
 800037c:	f008 fd44 	bl	8008e08 <__aeabi_dcmpgt>
 8000380:	f04f 0601 	mov.w	r6, #1
 8000384:	4625      	mov	r5, r4
 8000386:	b900      	cbnz	r0, 800038a <FUNC_Brakelight+0x1e>
 8000388:	4606      	mov	r6, r0
 800038a:	f884 6780 	strb.w	r6, [r4, #1920]	; 0x780
 800038e:	4c0b      	ldr	r4, [pc, #44]	; (80003bc <FUNC_Brakelight+0x50>)
 8000390:	f504 63b1 	add.w	r3, r4, #1416	; 0x588
 8000394:	e9d3 0100 	ldrd	r0, r1, [r3]
 8000398:	2200      	movs	r2, #0
 800039a:	4b09      	ldr	r3, [pc, #36]	; (80003c0 <FUNC_Brakelight+0x54>)
 800039c:	f04f 0601 	mov.w	r6, #1
 80003a0:	f008 fd32 	bl	8008e08 <__aeabi_dcmpgt>
 80003a4:	b900      	cbnz	r0, 80003a8 <FUNC_Brakelight+0x3c>
 80003a6:	4606      	mov	r6, r0
 80003a8:	f884 6781 	strb.w	r6, [r4, #1921]	; 0x781
 80003ac:	f8b5 3780 	ldrh.w	r3, [r5, #1920]	; 0x780
 80003b0:	3300      	adds	r3, #0
 80003b2:	bf18      	it	ne
 80003b4:	2301      	movne	r3, #1
 80003b6:	f885 3782 	strb.w	r3, [r5, #1922]	; 0x782
 80003ba:	bd70      	pop	{r4, r5, r6, pc}
 80003bc:	200008a0 	.word	0x200008a0
 80003c0:	40140000 	.word	0x40140000
 80003c4:	00000000 	.word	0x00000000

080003c8 <FUNC_InputData>:
 80003c8:	e92d 4ff7 	stmdb	sp!, {r0, r1, r2, r4, r5, r6, r7, r8, r9, sl, fp, lr}
 80003cc:	4dd8      	ldr	r5, [pc, #864]	; (8000730 <FUNC_InputData+0x368>)
 80003ce:	4cd9      	ldr	r4, [pc, #868]	; (8000734 <FUNC_InputData+0x36c>)
 80003d0:	f895 3116 	ldrb.w	r3, [r5, #278]	; 0x116
 80003d4:	f895 2113 	ldrb.w	r2, [r5, #275]	; 0x113
 80003d8:	f884 36a3 	strb.w	r3, [r4, #1699]	; 0x6a3
 80003dc:	01db      	lsls	r3, r3, #7
 80003de:	f8a4 366c 	strh.w	r3, [r4, #1644]	; 0x66c
 80003e2:	eb02 0343 	add.w	r3, r2, r3, lsl #1
 80003e6:	f3c3 034f 	ubfx	r3, r3, #1, #16
 80003ea:	f8a4 366e 	strh.w	r3, [r4, #1646]	; 0x66e
 80003ee:	005b      	lsls	r3, r3, #1
 80003f0:	b29b      	uxth	r3, r3
 80003f2:	f64f 20ad 	movw	r0, #64173	; 0xfaad
 80003f6:	4358      	muls	r0, r3
 80003f8:	f884 26a2 	strb.w	r2, [r4, #1698]	; 0x6a2
 80003fc:	f8a4 365a 	strh.w	r3, [r4, #1626]	; 0x65a
 8000400:	f8c4 062c 	str.w	r0, [r4, #1580]	; 0x62c
 8000404:	f008 f9fa 	bl	80087fc <__aeabi_ui2d>
 8000408:	2200      	movs	r2, #0
 800040a:	4bcb      	ldr	r3, [pc, #812]	; (8000738 <FUNC_InputData+0x370>)
 800040c:	f8df 9338 	ldr.w	r9, [pc, #824]	; 8000748 <FUNC_InputData+0x380>
 8000410:	f008 fa6a 	bl	80088e8 <__aeabi_dmul>
 8000414:	2200      	movs	r2, #0
 8000416:	4bc9      	ldr	r3, [pc, #804]	; (800073c <FUNC_InputData+0x374>)
 8000418:	f008 f8b2 	bl	8008580 <__aeabi_dsub>
 800041c:	f504 6683 	add.w	r6, r4, #1048	; 0x418
 8000420:	e9c6 0100 	strd	r0, r1, [r6]
 8000424:	f895 0114 	ldrb.w	r0, [r5, #276]	; 0x114
 8000428:	f884 06a4 	strb.w	r0, [r4, #1700]	; 0x6a4
 800042c:	f008 f9e6 	bl	80087fc <__aeabi_ui2d>
 8000430:	f504 6684 	add.w	r6, r4, #1056	; 0x420
 8000434:	e9c6 0100 	strd	r0, r1, [r6]
 8000438:	f895 0115 	ldrb.w	r0, [r5, #277]	; 0x115
 800043c:	f884 06a5 	strb.w	r0, [r4, #1701]	; 0x6a5
 8000440:	f008 f9dc 	bl	80087fc <__aeabi_ui2d>
 8000444:	f504 6685 	add.w	r6, r4, #1064	; 0x428
 8000448:	e9c6 0100 	strd	r0, r1, [r6]
 800044c:	f895 0117 	ldrb.w	r0, [r5, #279]	; 0x117
 8000450:	f884 06a6 	strb.w	r0, [r4, #1702]	; 0x6a6
 8000454:	f008 f9d2 	bl	80087fc <__aeabi_ui2d>
 8000458:	f504 6686 	add.w	r6, r4, #1072	; 0x430
 800045c:	e9c6 0100 	strd	r0, r1, [r6]
 8000460:	f895 0118 	ldrb.w	r0, [r5, #280]	; 0x118
 8000464:	f884 06a7 	strb.w	r0, [r4, #1703]	; 0x6a7
 8000468:	f008 f9c8 	bl	80087fc <__aeabi_ui2d>
 800046c:	f504 6687 	add.w	r6, r4, #1080	; 0x438
 8000470:	e9c6 0100 	strd	r0, r1, [r6]
 8000474:	f895 0119 	ldrb.w	r0, [r5, #281]	; 0x119
 8000478:	f884 06a8 	strb.w	r0, [r4, #1704]	; 0x6a8
 800047c:	f008 f9be 	bl	80087fc <__aeabi_ui2d>
 8000480:	f504 6688 	add.w	r6, r4, #1088	; 0x440
 8000484:	e9c6 0100 	strd	r0, r1, [r6]
 8000488:	f895 011a 	ldrb.w	r0, [r5, #282]	; 0x11a
 800048c:	f895 311e 	ldrb.w	r3, [r5, #286]	; 0x11e
 8000490:	f884 06aa 	strb.w	r0, [r4, #1706]	; 0x6aa
 8000494:	01c0      	lsls	r0, r0, #7
 8000496:	f8a4 0670 	strh.w	r0, [r4, #1648]	; 0x670
 800049a:	eb03 0040 	add.w	r0, r3, r0, lsl #1
 800049e:	f3c0 004f 	ubfx	r0, r0, #1, #16
 80004a2:	f8a4 0672 	strh.w	r0, [r4, #1650]	; 0x672
 80004a6:	0040      	lsls	r0, r0, #1
 80004a8:	b280      	uxth	r0, r0
 80004aa:	f8a4 065c 	strh.w	r0, [r4, #1628]	; 0x65c
 80004ae:	03c0      	lsls	r0, r0, #15
 80004b0:	f884 36a9 	strb.w	r3, [r4, #1705]	; 0x6a9
 80004b4:	f8c4 0630 	str.w	r0, [r4, #1584]	; 0x630
 80004b8:	f008 f9a0 	bl	80087fc <__aeabi_ui2d>
 80004bc:	2200      	movs	r2, #0
 80004be:	4ba0      	ldr	r3, [pc, #640]	; (8000740 <FUNC_InputData+0x378>)
 80004c0:	f008 fa12 	bl	80088e8 <__aeabi_dmul>
 80004c4:	f504 6389 	add.w	r3, r4, #1096	; 0x448
 80004c8:	4606      	mov	r6, r0
 80004ca:	460f      	mov	r7, r1
 80004cc:	f895 011c 	ldrb.w	r0, [r5, #284]	; 0x11c
 80004d0:	f884 06ac 	strb.w	r0, [r4, #1708]	; 0x6ac
 80004d4:	e9c3 6700 	strd	r6, r7, [r3]
 80004d8:	f895 311b 	ldrb.w	r3, [r5, #283]	; 0x11b
 80004dc:	f884 36ab 	strb.w	r3, [r4, #1707]	; 0x6ab
 80004e0:	01c0      	lsls	r0, r0, #7
 80004e2:	f8a4 0674 	strh.w	r0, [r4, #1652]	; 0x674
 80004e6:	eb03 0040 	add.w	r0, r3, r0, lsl #1
 80004ea:	f3c0 004f 	ubfx	r0, r0, #1, #16
 80004ee:	f8a4 0676 	strh.w	r0, [r4, #1654]	; 0x676
 80004f2:	0040      	lsls	r0, r0, #1
 80004f4:	b280      	uxth	r0, r0
 80004f6:	f8a4 065e 	strh.w	r0, [r4, #1630]	; 0x65e
 80004fa:	03c0      	lsls	r0, r0, #15
 80004fc:	f8c4 0634 	str.w	r0, [r4, #1588]	; 0x634
 8000500:	f008 f97c 	bl	80087fc <__aeabi_ui2d>
 8000504:	2200      	movs	r2, #0
 8000506:	4b8e      	ldr	r3, [pc, #568]	; (8000740 <FUNC_InputData+0x378>)
 8000508:	f008 f9ee 	bl	80088e8 <__aeabi_dmul>
 800050c:	4602      	mov	r2, r0
 800050e:	460b      	mov	r3, r1
 8000510:	f504 618a 	add.w	r1, r4, #1104	; 0x450
 8000514:	e9c1 2300 	strd	r2, r3, [r1]
 8000518:	4630      	mov	r0, r6
 800051a:	4639      	mov	r1, r7
 800051c:	f008 f832 	bl	8008584 <__adddf3>
 8000520:	f504 638b 	add.w	r3, r4, #1112	; 0x458
 8000524:	e9c3 0100 	strd	r0, r1, [r3]
 8000528:	a37b      	add	r3, pc, #492	; (adr r3, 8000718 <FUNC_InputData+0x350>)
 800052a:	e9d3 2300 	ldrd	r2, r3, [r3]
 800052e:	f008 f9db 	bl	80088e8 <__aeabi_dmul>
 8000532:	f504 668c 	add.w	r6, r4, #1120	; 0x460
 8000536:	e9c6 0100 	strd	r0, r1, [r6]
 800053a:	f895 011f 	ldrb.w	r0, [r5, #287]	; 0x11f
 800053e:	f895 311d 	ldrb.w	r3, [r5, #285]	; 0x11d
 8000542:	f884 06ae 	strb.w	r0, [r4, #1710]	; 0x6ae
 8000546:	01c0      	lsls	r0, r0, #7
 8000548:	f8a4 0678 	strh.w	r0, [r4, #1656]	; 0x678
 800054c:	eb03 0040 	add.w	r0, r3, r0, lsl #1
 8000550:	f3c0 004f 	ubfx	r0, r0, #1, #16
 8000554:	f8a4 067a 	strh.w	r0, [r4, #1658]	; 0x67a
 8000558:	0040      	lsls	r0, r0, #1
 800055a:	b280      	uxth	r0, r0
 800055c:	f8a4 0660 	strh.w	r0, [r4, #1632]	; 0x660
 8000560:	03c0      	lsls	r0, r0, #15
 8000562:	f884 36ad 	strb.w	r3, [r4, #1709]	; 0x6ad
 8000566:	f8c4 0638 	str.w	r0, [r4, #1592]	; 0x638
 800056a:	f008 f947 	bl	80087fc <__aeabi_ui2d>
 800056e:	2200      	movs	r2, #0
 8000570:	4b73      	ldr	r3, [pc, #460]	; (8000740 <FUNC_InputData+0x378>)
 8000572:	f008 f9b9 	bl	80088e8 <__aeabi_dmul>
 8000576:	f504 668d 	add.w	r6, r4, #1128	; 0x468
 800057a:	e9c6 0100 	strd	r0, r1, [r6]
 800057e:	f895 0121 	ldrb.w	r0, [r5, #289]	; 0x121
 8000582:	f895 3120 	ldrb.w	r3, [r5, #288]	; 0x120
 8000586:	f884 06b0 	strb.w	r0, [r4, #1712]	; 0x6b0
 800058a:	01c0      	lsls	r0, r0, #7
 800058c:	f8a4 067c 	strh.w	r0, [r4, #1660]	; 0x67c
 8000590:	eb03 0040 	add.w	r0, r3, r0, lsl #1
 8000594:	f3c0 004f 	ubfx	r0, r0, #1, #16
 8000598:	f8a4 067e 	strh.w	r0, [r4, #1662]	; 0x67e
 800059c:	0040      	lsls	r0, r0, #1
 800059e:	b280      	uxth	r0, r0
 80005a0:	f8a4 0662 	strh.w	r0, [r4, #1634]	; 0x662
 80005a4:	03c0      	lsls	r0, r0, #15
 80005a6:	f884 36af 	strb.w	r3, [r4, #1711]	; 0x6af
 80005aa:	f8c4 063c 	str.w	r0, [r4, #1596]	; 0x63c
 80005ae:	f008 f925 	bl	80087fc <__aeabi_ui2d>
 80005b2:	2200      	movs	r2, #0
 80005b4:	4b62      	ldr	r3, [pc, #392]	; (8000740 <FUNC_InputData+0x378>)
 80005b6:	f008 f997 	bl	80088e8 <__aeabi_dmul>
 80005ba:	f504 668e 	add.w	r6, r4, #1136	; 0x470
 80005be:	f895 3122 	ldrb.w	r3, [r5, #290]	; 0x122
 80005c2:	f884 36b1 	strb.w	r3, [r4, #1713]	; 0x6b1
 80005c6:	e9c6 0100 	strd	r0, r1, [r6]
 80005ca:	f895 0127 	ldrb.w	r0, [r5, #295]	; 0x127
 80005ce:	f884 06b2 	strb.w	r0, [r4, #1714]	; 0x6b2
 80005d2:	f008 f913 	bl	80087fc <__aeabi_ui2d>
 80005d6:	f504 668f 	add.w	r6, r4, #1144	; 0x478
 80005da:	e9c6 0100 	strd	r0, r1, [r6]
 80005de:	f895 0124 	ldrb.w	r0, [r5, #292]	; 0x124
 80005e2:	f895 3125 	ldrb.w	r3, [r5, #293]	; 0x125
 80005e6:	f884 06b3 	strb.w	r0, [r4, #1715]	; 0x6b3
 80005ea:	01c0      	lsls	r0, r0, #7
 80005ec:	f8a4 0680 	strh.w	r0, [r4, #1664]	; 0x680
 80005f0:	eb03 0040 	add.w	r0, r3, r0, lsl #1
 80005f4:	f3c0 004f 	ubfx	r0, r0, #1, #16
 80005f8:	f8a4 0682 	strh.w	r0, [r4, #1666]	; 0x682
 80005fc:	0040      	lsls	r0, r0, #1
 80005fe:	b280      	uxth	r0, r0
 8000600:	f884 36b4 	strb.w	r3, [r4, #1716]	; 0x6b4
 8000604:	f8a4 0664 	strh.w	r0, [r4, #1636]	; 0x664
 8000608:	f008 f8f8 	bl	80087fc <__aeabi_ui2d>
 800060c:	f504 6690 	add.w	r6, r4, #1152	; 0x480
 8000610:	e9c6 0100 	strd	r0, r1, [r6]
 8000614:	f895 0123 	ldrb.w	r0, [r5, #291]	; 0x123
 8000618:	f884 06b5 	strb.w	r0, [r4, #1717]	; 0x6b5
 800061c:	08c0      	lsrs	r0, r0, #3
 800061e:	f884 06b6 	strb.w	r0, [r4, #1718]	; 0x6b6
 8000622:	f008 f8eb 	bl	80087fc <__aeabi_ui2d>
 8000626:	f504 6691 	add.w	r6, r4, #1160	; 0x488
 800062a:	e9c6 0100 	strd	r0, r1, [r6]
 800062e:	f895 0129 	ldrb.w	r0, [r5, #297]	; 0x129
 8000632:	f895 3126 	ldrb.w	r3, [r5, #294]	; 0x126
 8000636:	f884 36b7 	strb.w	r3, [r4, #1719]	; 0x6b7
 800063a:	f884 06b9 	strb.w	r0, [r4, #1721]	; 0x6b9
 800063e:	f895 3128 	ldrb.w	r3, [r5, #296]	; 0x128
 8000642:	f884 36b8 	strb.w	r3, [r4, #1720]	; 0x6b8
 8000646:	01c0      	lsls	r0, r0, #7
 8000648:	f8a4 0666 	strh.w	r0, [r4, #1638]	; 0x666
 800064c:	f008 f8d6 	bl	80087fc <__aeabi_ui2d>
 8000650:	2200      	movs	r2, #0
 8000652:	f04f 537e 	mov.w	r3, #1065353216	; 0x3f800000
 8000656:	f008 f947 	bl	80088e8 <__aeabi_dmul>
 800065a:	2200      	movs	r2, #0
 800065c:	4b39      	ldr	r3, [pc, #228]	; (8000744 <FUNC_InputData+0x37c>)
 800065e:	f007 ff8f 	bl	8008580 <__aeabi_dsub>
 8000662:	f504 6692 	add.w	r6, r4, #1168	; 0x490
 8000666:	e9c6 0100 	strd	r0, r1, [r6]
 800066a:	f895 012a 	ldrb.w	r0, [r5, #298]	; 0x12a
 800066e:	f884 06ba 	strb.w	r0, [r4, #1722]	; 0x6ba
 8000672:	f008 f8c3 	bl	80087fc <__aeabi_ui2d>
 8000676:	f504 6393 	add.w	r3, r4, #1176	; 0x498
 800067a:	e9c3 0100 	strd	r0, r1, [r3]
 800067e:	a328      	add	r3, pc, #160	; (adr r3, 8000720 <FUNC_InputData+0x358>)
 8000680:	e9d3 2300 	ldrd	r2, r3, [r3]
 8000684:	f008 f930 	bl	80088e8 <__aeabi_dmul>
 8000688:	f504 6394 	add.w	r3, r4, #1184	; 0x4a0
 800068c:	e9c3 0100 	strd	r0, r1, [r3]
 8000690:	f504 6395 	add.w	r3, r4, #1192	; 0x4a8
 8000694:	e9c3 0100 	strd	r0, r1, [r3]
 8000698:	f895 012b 	ldrb.w	r0, [r5, #299]	; 0x12b
 800069c:	f884 06bb 	strb.w	r0, [r4, #1723]	; 0x6bb
 80006a0:	f008 f8ac 	bl	80087fc <__aeabi_ui2d>
 80006a4:	f895 312c 	ldrb.w	r3, [r5, #300]	; 0x12c
 80006a8:	f884 36bc 	strb.w	r3, [r4, #1724]	; 0x6bc
 80006ac:	f895 312e 	ldrb.w	r3, [r5, #302]	; 0x12e
 80006b0:	f884 36bd 	strb.w	r3, [r4, #1725]	; 0x6bd
 80006b4:	f895 312d 	ldrb.w	r3, [r5, #301]	; 0x12d
 80006b8:	f884 36be 	strb.w	r3, [r4, #1726]	; 0x6be
 80006bc:	f504 6696 	add.w	r6, r4, #1200	; 0x4b0
 80006c0:	f895 312f 	ldrb.w	r3, [r5, #303]	; 0x12f
 80006c4:	e9c6 0100 	strd	r0, r1, [r6]
 80006c8:	f884 36bf 	strb.w	r3, [r4, #1727]	; 0x6bf
 80006cc:	e9d5 010c 	ldrd	r0, r1, [r5, #48]	; 0x30
 80006d0:	f504 6397 	add.w	r3, r4, #1208	; 0x4b8
 80006d4:	e9c3 0100 	strd	r0, r1, [r3]
 80006d8:	a313      	add	r3, pc, #76	; (adr r3, 8000728 <FUNC_InputData+0x360>)
 80006da:	e9d3 2300 	ldrd	r2, r3, [r3]
 80006de:	f008 f903 	bl	80088e8 <__aeabi_dmul>
 80006e2:	f04f 0800 	mov.w	r8, #0
 80006e6:	4606      	mov	r6, r0
 80006e8:	460f      	mov	r7, r1
 80006ea:	f504 6398 	add.w	r3, r4, #1216	; 0x4c0
 80006ee:	e9c3 6700 	strd	r6, r7, [r3]
 80006f2:	4642      	mov	r2, r8
 80006f4:	464b      	mov	r3, r9
 80006f6:	f008 fb87 	bl	8008e08 <__aeabi_dcmpgt>
 80006fa:	f504 6a99 	add.w	sl, r4, #1224	; 0x4c8
 80006fe:	bb28      	cbnz	r0, 800074c <FUNC_InputData+0x384>
 8000700:	f04f 0800 	mov.w	r8, #0
 8000704:	f04f 0900 	mov.w	r9, #0
 8000708:	4630      	mov	r0, r6
 800070a:	4639      	mov	r1, r7
 800070c:	4642      	mov	r2, r8
 800070e:	464b      	mov	r3, r9
 8000710:	f008 fb5c 	bl	8008dcc <__aeabi_dcmplt>
 8000714:	b1e8      	cbz	r0, 8000752 <FUNC_InputData+0x38a>
 8000716:	e019      	b.n	800074c <FUNC_InputData+0x384>
 8000718:	cccccccd 	.word	0xcccccccd
 800071c:	3feccccc 	.word	0x3feccccc
 8000720:	47ae147b 	.word	0x47ae147b
 8000724:	3f847ae1 	.word	0x3f847ae1
 8000728:	d2f1a9fc 	.word	0xd2f1a9fc
 800072c:	3f50624d 	.word	0x3f50624d
 8000730:	20001030 	.word	0x20001030
 8000734:	200008a0 	.word	0x200008a0
 8000738:	3e900000 	.word	0x3e900000
 800073c:	40340000 	.word	0x40340000
 8000740:	3ea00000 	.word	0x3ea00000
 8000744:	40490000 	.word	0x40490000
 8000748:	40140000 	.word	0x40140000
 800074c:	e9ca 8900 	strd	r8, r9, [sl]
 8000750:	e001      	b.n	8000756 <FUNC_InputData+0x38e>
 8000752:	e9ca 6700 	strd	r6, r7, [sl]
 8000756:	2701      	movs	r7, #1
 8000758:	4a9f      	ldr	r2, [pc, #636]	; (80009d8 <FUNC_InputData+0x610>)
 800075a:	9700      	str	r7, [sp, #0]
 800075c:	f1a2 0310 	sub.w	r3, r2, #16
 8000760:	e9da 0100 	ldrd	r0, r1, [sl]
 8000764:	4e9d      	ldr	r6, [pc, #628]	; (80009dc <FUNC_InputData+0x614>)
 8000766:	f8df b29c 	ldr.w	fp, [pc, #668]	; 8000a04 <FUNC_InputData+0x63c>
 800076a:	f002 fecd 	bl	8003508 <look1_binlxpw>
 800076e:	f895 3132 	ldrb.w	r3, [r5, #306]	; 0x132
 8000772:	f884 36c0 	strb.w	r3, [r4, #1728]	; 0x6c0
 8000776:	46b0      	mov	r8, r6
 8000778:	e8e8 0102 	strd	r0, r1, [r8], #8
 800077c:	eb03 0083 	add.w	r0, r3, r3, lsl #2
 8000780:	eb03 00c0 	add.w	r0, r3, r0, lsl #3
 8000784:	0080      	lsls	r0, r0, #2
 8000786:	b280      	uxth	r0, r0
 8000788:	f8a4 0668 	strh.w	r0, [r4, #1640]	; 0x668
 800078c:	f008 f836 	bl	80087fc <__aeabi_ui2d>
 8000790:	2200      	movs	r2, #0
 8000792:	4b93      	ldr	r3, [pc, #588]	; (80009e0 <FUNC_InputData+0x618>)
 8000794:	f008 f8a8 	bl	80088e8 <__aeabi_dmul>
 8000798:	e9c8 0100 	strd	r0, r1, [r8]
 800079c:	f895 0130 	ldrb.w	r0, [r5, #304]	; 0x130
 80007a0:	f884 06c1 	strb.w	r0, [r4, #1729]	; 0x6c1
 80007a4:	f008 f82a 	bl	80087fc <__aeabi_ui2d>
 80007a8:	e9c6 0104 	strd	r0, r1, [r6, #16]
 80007ac:	f895 0131 	ldrb.w	r0, [r5, #305]	; 0x131
 80007b0:	f884 06c2 	strb.w	r0, [r4, #1730]	; 0x6c2
 80007b4:	f008 f822 	bl	80087fc <__aeabi_ui2d>
 80007b8:	e9c6 0106 	strd	r0, r1, [r6, #24]
 80007bc:	f895 0133 	ldrb.w	r0, [r5, #307]	; 0x133
 80007c0:	f884 06c3 	strb.w	r0, [r4, #1731]	; 0x6c3
 80007c4:	f008 f81a 	bl	80087fc <__aeabi_ui2d>
 80007c8:	e9c6 0108 	strd	r0, r1, [r6, #32]
 80007cc:	e9d5 0124 	ldrd	r0, r1, [r5, #144]	; 0x90
 80007d0:	a379      	add	r3, pc, #484	; (adr r3, 80009b8 <FUNC_InputData+0x5f0>)
 80007d2:	e9d3 2300 	ldrd	r2, r3, [r3]
 80007d6:	e9c6 010a 	strd	r0, r1, [r6, #40]	; 0x28
 80007da:	f008 f885 	bl	80088e8 <__aeabi_dmul>
 80007de:	4a81      	ldr	r2, [pc, #516]	; (80009e4 <FUNC_InputData+0x61c>)
 80007e0:	e9c6 010c 	strd	r0, r1, [r6, #48]	; 0x30
 80007e4:	f1a2 0310 	sub.w	r3, r2, #16
 80007e8:	9700      	str	r7, [sp, #0]
 80007ea:	f002 fe8d 	bl	8003508 <look1_binlxpw>
 80007ee:	e9c6 010e 	strd	r0, r1, [r6, #56]	; 0x38
 80007f2:	e9d5 0112 	ldrd	r0, r1, [r5, #72]	; 0x48
 80007f6:	a370      	add	r3, pc, #448	; (adr r3, 80009b8 <FUNC_InputData+0x5f0>)
 80007f8:	e9d3 2300 	ldrd	r2, r3, [r3]
 80007fc:	e9c6 0110 	strd	r0, r1, [r6, #64]	; 0x40
 8000800:	f008 f872 	bl	80088e8 <__aeabi_dmul>
 8000804:	4a78      	ldr	r2, [pc, #480]	; (80009e8 <FUNC_InputData+0x620>)
 8000806:	e9c6 0112 	strd	r0, r1, [r6, #72]	; 0x48
 800080a:	f1a2 0320 	sub.w	r3, r2, #32
 800080e:	9700      	str	r7, [sp, #0]
 8000810:	f002 fe7a 	bl	8003508 <look1_binlxpw>
 8000814:	e9c6 0114 	strd	r0, r1, [r6, #80]	; 0x50
 8000818:	e9d5 0114 	ldrd	r0, r1, [r5, #80]	; 0x50
 800081c:	a366      	add	r3, pc, #408	; (adr r3, 80009b8 <FUNC_InputData+0x5f0>)
 800081e:	e9d3 2300 	ldrd	r2, r3, [r3]
 8000822:	e9c6 0116 	strd	r0, r1, [r6, #88]	; 0x58
 8000826:	f008 f85f 	bl	80088e8 <__aeabi_dmul>
 800082a:	4a6e      	ldr	r2, [pc, #440]	; (80009e4 <FUNC_InputData+0x61c>)
 800082c:	e9c6 0118 	strd	r0, r1, [r6, #96]	; 0x60
 8000830:	f1a2 0310 	sub.w	r3, r2, #16
 8000834:	9700      	str	r7, [sp, #0]
 8000836:	f002 fe67 	bl	8003508 <look1_binlxpw>
 800083a:	f895 3134 	ldrb.w	r3, [r5, #308]	; 0x134
 800083e:	f884 36c4 	strb.w	r3, [r4, #1732]	; 0x6c4
 8000842:	e9c6 011a 	strd	r0, r1, [r6, #104]	; 0x68
 8000846:	eb03 0283 	add.w	r2, r3, r3, lsl #2
 800084a:	e9d5 0118 	ldrd	r0, r1, [r5, #96]	; 0x60
 800084e:	eb03 03c2 	add.w	r3, r3, r2, lsl #3
 8000852:	009b      	lsls	r3, r3, #2
 8000854:	f8a4 366a 	strh.w	r3, [r4, #1642]	; 0x66a
 8000858:	e9c6 011c 	strd	r0, r1, [r6, #112]	; 0x70
 800085c:	a356      	add	r3, pc, #344	; (adr r3, 80009b8 <FUNC_InputData+0x5f0>)
 800085e:	e9d3 2300 	ldrd	r2, r3, [r3]
 8000862:	f008 f841 	bl	80088e8 <__aeabi_dmul>
 8000866:	4a61      	ldr	r2, [pc, #388]	; (80009ec <FUNC_InputData+0x624>)
 8000868:	e9c6 011e 	strd	r0, r1, [r6, #120]	; 0x78
 800086c:	f1a2 0350 	sub.w	r3, r2, #80	; 0x50
 8000870:	9700      	str	r7, [sp, #0]
 8000872:	f002 fe49 	bl	8003508 <look1_binlxpw>
 8000876:	f04f 0a00 	mov.w	sl, #0
 800087a:	4680      	mov	r8, r0
 800087c:	4689      	mov	r9, r1
 800087e:	e9c6 8920 	strd	r8, r9, [r6, #128]	; 0x80
 8000882:	4652      	mov	r2, sl
 8000884:	465b      	mov	r3, fp
 8000886:	f008 fabf 	bl	8008e08 <__aeabi_dcmpgt>
 800088a:	3688      	adds	r6, #136	; 0x88
 800088c:	b950      	cbnz	r0, 80008a4 <FUNC_InputData+0x4dc>
 800088e:	f04f 0a00 	mov.w	sl, #0
 8000892:	f04f 0b00 	mov.w	fp, #0
 8000896:	4640      	mov	r0, r8
 8000898:	4649      	mov	r1, r9
 800089a:	4652      	mov	r2, sl
 800089c:	465b      	mov	r3, fp
 800089e:	f008 fa95 	bl	8008dcc <__aeabi_dcmplt>
 80008a2:	b110      	cbz	r0, 80008aa <FUNC_InputData+0x4e2>
 80008a4:	e9c6 ab00 	strd	sl, fp, [r6]
 80008a8:	e001      	b.n	80008ae <FUNC_InputData+0x4e6>
 80008aa:	e9c6 8900 	strd	r8, r9, [r6]
 80008ae:	e9d5 010e 	ldrd	r0, r1, [r5, #56]	; 0x38
 80008b2:	4c4f      	ldr	r4, [pc, #316]	; (80009f0 <FUNC_InputData+0x628>)
 80008b4:	f504 63ac 	add.w	r3, r4, #1376	; 0x560
 80008b8:	e9c3 0100 	strd	r0, r1, [r3]
 80008bc:	2200      	movs	r2, #0
 80008be:	2300      	movs	r3, #0
 80008c0:	f04f 0601 	mov.w	r6, #1
 80008c4:	f008 fa78 	bl	8008db8 <__aeabi_dcmpeq>
 80008c8:	b108      	cbz	r0, 80008ce <FUNC_InputData+0x506>
 80008ca:	f04f 0600 	mov.w	r6, #0
 80008ce:	f884 677e 	strb.w	r6, [r4, #1918]	; 0x77e
 80008d2:	e9d5 0110 	ldrd	r0, r1, [r5, #64]	; 0x40
 80008d6:	4c47      	ldr	r4, [pc, #284]	; (80009f4 <FUNC_InputData+0x62c>)
 80008d8:	46a0      	mov	r8, r4
 80008da:	e8e8 0102 	strd	r0, r1, [r8], #8
 80008de:	a336      	add	r3, pc, #216	; (adr r3, 80009b8 <FUNC_InputData+0x5f0>)
 80008e0:	e9d3 2300 	ldrd	r2, r3, [r3]
 80008e4:	f008 f800 	bl	80088e8 <__aeabi_dmul>
 80008e8:	4606      	mov	r6, r0
 80008ea:	460f      	mov	r7, r1
 80008ec:	e9c8 6700 	strd	r6, r7, [r8]
 80008f0:	f20f 09cc 	addw	r9, pc, #204	; 0xcc
 80008f4:	e9d9 8900 	ldrd	r8, r9, [r9]
 80008f8:	4642      	mov	r2, r8
 80008fa:	464b      	mov	r3, r9
 80008fc:	f008 fa84 	bl	8008e08 <__aeabi_dcmpgt>
 8000900:	3410      	adds	r4, #16
 8000902:	b950      	cbnz	r0, 800091a <FUNC_InputData+0x552>
 8000904:	f8df 90f0 	ldr.w	r9, [pc, #240]	; 80009f8 <FUNC_InputData+0x630>
 8000908:	f04f 0800 	mov.w	r8, #0
 800090c:	4630      	mov	r0, r6
 800090e:	4639      	mov	r1, r7
 8000910:	4642      	mov	r2, r8
 8000912:	464b      	mov	r3, r9
 8000914:	f008 fa5a 	bl	8008dcc <__aeabi_dcmplt>
 8000918:	b110      	cbz	r0, 8000920 <FUNC_InputData+0x558>
 800091a:	e9c4 8900 	strd	r8, r9, [r4]
 800091e:	e001      	b.n	8000924 <FUNC_InputData+0x55c>
 8000920:	e9c4 6700 	strd	r6, r7, [r4]
 8000924:	e9d4 0100 	ldrd	r0, r1, [r4]
 8000928:	2200      	movs	r2, #0
 800092a:	4b33      	ldr	r3, [pc, #204]	; (80009f8 <FUNC_InputData+0x630>)
 800092c:	4c33      	ldr	r4, [pc, #204]	; (80009fc <FUNC_InputData+0x634>)
 800092e:	f007 fe27 	bl	8008580 <__aeabi_dsub>
 8000932:	4626      	mov	r6, r4
 8000934:	e8e6 0102 	strd	r0, r1, [r6], #8
 8000938:	a323      	add	r3, pc, #140	; (adr r3, 80009c8 <FUNC_InputData+0x600>)
 800093a:	e9d3 2300 	ldrd	r2, r3, [r3]
 800093e:	f007 ffd3 	bl	80088e8 <__aeabi_dmul>
 8000942:	e9c6 0100 	strd	r0, r1, [r6]
 8000946:	e9d5 0116 	ldrd	r0, r1, [r5, #88]	; 0x58
 800094a:	a31b      	add	r3, pc, #108	; (adr r3, 80009b8 <FUNC_InputData+0x5f0>)
 800094c:	e9d3 2300 	ldrd	r2, r3, [r3]
 8000950:	e9c4 0104 	strd	r0, r1, [r4, #16]
 8000954:	f007 ffc8 	bl	80088e8 <__aeabi_dmul>
 8000958:	e9c4 0106 	strd	r0, r1, [r4, #24]
 800095c:	e9d5 011a 	ldrd	r0, r1, [r5, #104]	; 0x68
 8000960:	a315      	add	r3, pc, #84	; (adr r3, 80009b8 <FUNC_InputData+0x5f0>)
 8000962:	e9d3 2300 	ldrd	r2, r3, [r3]
 8000966:	e9c4 0108 	strd	r0, r1, [r4, #32]
 800096a:	f007 ffbd 	bl	80088e8 <__aeabi_dmul>
 800096e:	4a24      	ldr	r2, [pc, #144]	; (8000a00 <FUNC_InputData+0x638>)
 8000970:	2301      	movs	r3, #1
 8000972:	e9c4 010a 	strd	r0, r1, [r4, #40]	; 0x28
 8000976:	9300      	str	r3, [sp, #0]
 8000978:	f1a2 0310 	sub.w	r3, r2, #16
 800097c:	f002 fdc4 	bl	8003508 <look1_binlxpw>
 8000980:	f20f 094c 	addw	r9, pc, #76	; 0x4c
 8000984:	e9d9 8900 	ldrd	r8, r9, [r9]
 8000988:	4606      	mov	r6, r0
 800098a:	460f      	mov	r7, r1
 800098c:	e9c4 670c 	strd	r6, r7, [r4, #48]	; 0x30
 8000990:	4642      	mov	r2, r8
 8000992:	464b      	mov	r3, r9
 8000994:	f008 fa38 	bl	8008e08 <__aeabi_dcmpgt>
 8000998:	3438      	adds	r4, #56	; 0x38
 800099a:	b950      	cbnz	r0, 80009b2 <FUNC_InputData+0x5ea>
 800099c:	f04f 0800 	mov.w	r8, #0
 80009a0:	f04f 0900 	mov.w	r9, #0
 80009a4:	4630      	mov	r0, r6
 80009a6:	4639      	mov	r1, r7
 80009a8:	4642      	mov	r2, r8
 80009aa:	464b      	mov	r3, r9
 80009ac:	f008 fa0e 	bl	8008dcc <__aeabi_dcmplt>
 80009b0:	b350      	cbz	r0, 8000a08 <FUNC_InputData+0x640>
 80009b2:	e9c4 8900 	strd	r8, r9, [r4]
 80009b6:	e029      	b.n	8000a0c <FUNC_InputData+0x644>
 80009b8:	d2f1a9fc 	.word	0xd2f1a9fc
 80009bc:	3f50624d 	.word	0x3f50624d
 80009c0:	33333333 	.word	0x33333333
 80009c4:	40133333 	.word	0x40133333
 80009c8:	9578d7b8 	.word	0x9578d7b8
 80009cc:	4050413f 	.word	0x4050413f
 80009d0:	00000000 	.word	0x00000000
 80009d4:	40c19400 	.word	0x40c19400
 80009d8:	08009078 	.word	0x08009078
 80009dc:	20000d70 	.word	0x20000d70
 80009e0:	3f100000 	.word	0x3f100000
 80009e4:	08009098 	.word	0x08009098
 80009e8:	080090a8 	.word	0x080090a8
 80009ec:	080090b8 	.word	0x080090b8
 80009f0:	200008a0 	.word	0x200008a0
 80009f4:	20000e08 	.word	0x20000e08
 80009f8:	3fe00000 	.word	0x3fe00000
 80009fc:	20000e20 	.word	0x20000e20
 8000a00:	080090d8 	.word	0x080090d8
 8000a04:	40390000 	.word	0x40390000
 8000a08:	e9c4 6700 	strd	r6, r7, [r4]
 8000a0c:	e9d5 011c 	ldrd	r0, r1, [r5, #112]	; 0x70
 8000a10:	4c59      	ldr	r4, [pc, #356]	; (8000b78 <FUNC_InputData+0x7b0>)
 8000a12:	4626      	mov	r6, r4
 8000a14:	e8e6 0102 	strd	r0, r1, [r6], #8
 8000a18:	a353      	add	r3, pc, #332	; (adr r3, 8000b68 <FUNC_InputData+0x7a0>)
 8000a1a:	e9d3 2300 	ldrd	r2, r3, [r3]
 8000a1e:	f007 ff63 	bl	80088e8 <__aeabi_dmul>
 8000a22:	4a56      	ldr	r2, [pc, #344]	; (8000b7c <FUNC_InputData+0x7b4>)
 8000a24:	2301      	movs	r3, #1
 8000a26:	e9c6 0100 	strd	r0, r1, [r6]
 8000a2a:	9300      	str	r3, [sp, #0]
 8000a2c:	f1a2 0310 	sub.w	r3, r2, #16
 8000a30:	f002 fd6a 	bl	8003508 <look1_binlxpw>
 8000a34:	f20f 1938 	addw	r9, pc, #312	; 0x138
 8000a38:	e9d9 8900 	ldrd	r8, r9, [r9]
 8000a3c:	4606      	mov	r6, r0
 8000a3e:	460f      	mov	r7, r1
 8000a40:	e9c4 6704 	strd	r6, r7, [r4, #16]
 8000a44:	4642      	mov	r2, r8
 8000a46:	464b      	mov	r3, r9
 8000a48:	f008 f9de 	bl	8008e08 <__aeabi_dcmpgt>
 8000a4c:	3418      	adds	r4, #24
 8000a4e:	b950      	cbnz	r0, 8000a66 <FUNC_InputData+0x69e>
 8000a50:	f04f 0800 	mov.w	r8, #0
 8000a54:	f04f 0900 	mov.w	r9, #0
 8000a58:	4630      	mov	r0, r6
 8000a5a:	4639      	mov	r1, r7
 8000a5c:	4642      	mov	r2, r8
 8000a5e:	464b      	mov	r3, r9
 8000a60:	f008 f9b4 	bl	8008dcc <__aeabi_dcmplt>
 8000a64:	b110      	cbz	r0, 8000a6c <FUNC_InputData+0x6a4>
 8000a66:	e9c4 8900 	strd	r8, r9, [r4]
 8000a6a:	e001      	b.n	8000a70 <FUNC_InputData+0x6a8>
 8000a6c:	e9c4 6700 	strd	r6, r7, [r4]
 8000a70:	e9d5 011e 	ldrd	r0, r1, [r5, #120]	; 0x78
 8000a74:	4c42      	ldr	r4, [pc, #264]	; (8000b80 <FUNC_InputData+0x7b8>)
 8000a76:	4626      	mov	r6, r4
 8000a78:	e8e6 0102 	strd	r0, r1, [r6], #8
 8000a7c:	a33a      	add	r3, pc, #232	; (adr r3, 8000b68 <FUNC_InputData+0x7a0>)
 8000a7e:	e9d3 2300 	ldrd	r2, r3, [r3]
 8000a82:	f007 ff31 	bl	80088e8 <__aeabi_dmul>
 8000a86:	4a3f      	ldr	r2, [pc, #252]	; (8000b84 <FUNC_InputData+0x7bc>)
 8000a88:	2304      	movs	r3, #4
 8000a8a:	e9c6 0100 	strd	r0, r1, [r6]
 8000a8e:	9300      	str	r3, [sp, #0]
 8000a90:	f1a2 0328 	sub.w	r3, r2, #40	; 0x28
 8000a94:	f002 fd38 	bl	8003508 <look1_binlxpw>
 8000a98:	f20f 09d4 	addw	r9, pc, #212	; 0xd4
 8000a9c:	e9d9 8900 	ldrd	r8, r9, [r9]
 8000aa0:	4606      	mov	r6, r0
 8000aa2:	460f      	mov	r7, r1
 8000aa4:	e9c4 6704 	strd	r6, r7, [r4, #16]
 8000aa8:	4642      	mov	r2, r8
 8000aaa:	464b      	mov	r3, r9
 8000aac:	f008 f9ac 	bl	8008e08 <__aeabi_dcmpgt>
 8000ab0:	3418      	adds	r4, #24
 8000ab2:	b950      	cbnz	r0, 8000aca <FUNC_InputData+0x702>
 8000ab4:	f04f 0800 	mov.w	r8, #0
 8000ab8:	f04f 0900 	mov.w	r9, #0
 8000abc:	4630      	mov	r0, r6
 8000abe:	4639      	mov	r1, r7
 8000ac0:	4642      	mov	r2, r8
 8000ac2:	464b      	mov	r3, r9
 8000ac4:	f008 f982 	bl	8008dcc <__aeabi_dcmplt>
 8000ac8:	b110      	cbz	r0, 8000ad0 <FUNC_InputData+0x708>
 8000aca:	e9c4 8900 	strd	r8, r9, [r4]
 8000ace:	e001      	b.n	8000ad4 <FUNC_InputData+0x70c>
 8000ad0:	e9c4 6700 	strd	r6, r7, [r4]
 8000ad4:	e9d5 0120 	ldrd	r0, r1, [r5, #128]	; 0x80
 8000ad8:	4c2b      	ldr	r4, [pc, #172]	; (8000b88 <FUNC_InputData+0x7c0>)
 8000ada:	4626      	mov	r6, r4
 8000adc:	e8e6 0102 	strd	r0, r1, [r6], #8
 8000ae0:	a321      	add	r3, pc, #132	; (adr r3, 8000b68 <FUNC_InputData+0x7a0>)
 8000ae2:	e9d3 2300 	ldrd	r2, r3, [r3]
 8000ae6:	f007 feff 	bl	80088e8 <__aeabi_dmul>
 8000aea:	4a28      	ldr	r2, [pc, #160]	; (8000b8c <FUNC_InputData+0x7c4>)
 8000aec:	2304      	movs	r3, #4
 8000aee:	e9c6 0100 	strd	r0, r1, [r6]
 8000af2:	9300      	str	r3, [sp, #0]
 8000af4:	f1a2 0328 	sub.w	r3, r2, #40	; 0x28
 8000af8:	f002 fd06 	bl	8003508 <look1_binlxpw>
 8000afc:	f20f 0970 	addw	r9, pc, #112	; 0x70
 8000b00:	e9d9 8900 	ldrd	r8, r9, [r9]
 8000b04:	4606      	mov	r6, r0
 8000b06:	460f      	mov	r7, r1
 8000b08:	e9c4 6704 	strd	r6, r7, [r4, #16]
 8000b0c:	4642      	mov	r2, r8
 8000b0e:	464b      	mov	r3, r9
 8000b10:	f008 f97a 	bl	8008e08 <__aeabi_dcmpgt>
 8000b14:	3418      	adds	r4, #24
 8000b16:	b950      	cbnz	r0, 8000b2e <FUNC_InputData+0x766>
 8000b18:	f04f 0800 	mov.w	r8, #0
 8000b1c:	f04f 0900 	mov.w	r9, #0
 8000b20:	4630      	mov	r0, r6
 8000b22:	4639      	mov	r1, r7
 8000b24:	4642      	mov	r2, r8
 8000b26:	464b      	mov	r3, r9
 8000b28:	f008 f950 	bl	8008dcc <__aeabi_dcmplt>
 8000b2c:	b110      	cbz	r0, 8000b34 <FUNC_InputData+0x76c>
 8000b2e:	e9c4 8900 	strd	r8, r9, [r4]
 8000b32:	e001      	b.n	8000b38 <FUNC_InputData+0x770>
 8000b34:	e9c4 6700 	strd	r6, r7, [r4]
 8000b38:	e9d5 0122 	ldrd	r0, r1, [r5, #136]	; 0x88
 8000b3c:	4c14      	ldr	r4, [pc, #80]	; (8000b90 <FUNC_InputData+0x7c8>)
 8000b3e:	f504 63c4 	add.w	r3, r4, #1568	; 0x620
 8000b42:	e9c3 0100 	strd	r0, r1, [r3]
 8000b46:	2200      	movs	r2, #0
 8000b48:	2300      	movs	r3, #0
 8000b4a:	f04f 0501 	mov.w	r5, #1
 8000b4e:	f008 f933 	bl	8008db8 <__aeabi_dcmpeq>
 8000b52:	b108      	cbz	r0, 8000b58 <FUNC_InputData+0x790>
 8000b54:	f04f 0500 	mov.w	r5, #0
 8000b58:	f884 577f 	strb.w	r5, [r4, #1919]	; 0x77f
 8000b5c:	b003      	add	sp, #12
 8000b5e:	e8bd 8ff0 	ldmia.w	sp!, {r4, r5, r6, r7, r8, r9, sl, fp, pc}
 8000b62:	bf00      	nop
 8000b64:	f3af 8000 	nop.w
 8000b68:	d2f1a9fc 	.word	0xd2f1a9fc
 8000b6c:	3f50624d 	.word	0x3f50624d
 8000b70:	00000000 	.word	0x00000000
 8000b74:	40c19400 	.word	0x40c19400
 8000b78:	20000e60 	.word	0x20000e60
 8000b7c:	080090f8 	.word	0x080090f8
 8000b80:	20000e80 	.word	0x20000e80
 8000b84:	08009130 	.word	0x08009130
 8000b88:	20000ea0 	.word	0x20000ea0
 8000b8c:	08009180 	.word	0x08009180
 8000b90:	200008a0 	.word	0x200008a0
 8000b94:	f3af 8000 	nop.w

08000b98 <FUNC_OutputData>:
 8000b98:	e92d 4ff8 	stmdb	sp!, {r3, r4, r5, r6, r7, r8, r9, sl, fp, lr}
 8000b9c:	4cba      	ldr	r4, [pc, #744]	; (8000e88 <FUNC_OutputData+0x2f0>)
 8000b9e:	f504 6389 	add.w	r3, r4, #1096	; 0x448
 8000ba2:	e9d3 0100 	ldrd	r0, r1, [r3]
 8000ba6:	a3b6      	add	r3, pc, #728	; (adr r3, 8000e80 <FUNC_OutputData+0x2e8>)
 8000ba8:	e9d3 2300 	ldrd	r2, r3, [r3]
 8000bac:	f007 fe9c 	bl	80088e8 <__aeabi_dmul>
 8000bb0:	2200      	movs	r2, #0
 8000bb2:	4bb6      	ldr	r3, [pc, #728]	; (8000e8c <FUNC_OutputData+0x2f4>)
 8000bb4:	e9c4 019c 	strd	r0, r1, [r4, #624]	; 0x270
 8000bb8:	f007 fe96 	bl	80088e8 <__aeabi_dmul>
 8000bbc:	4602      	mov	r2, r0
 8000bbe:	460b      	mov	r3, r1
 8000bc0:	e9c4 239e 	strd	r2, r3, [r4, #632]	; 0x278
 8000bc4:	e9c4 23a0 	strd	r2, r3, [r4, #640]	; 0x280
 8000bc8:	f007 fa82 	bl	80080d0 <floor>
 8000bcc:	4606      	mov	r6, r0
 8000bce:	460f      	mov	r7, r1
 8000bd0:	f002 fee0 	bl	8003994 <rtIsNaN>
 8000bd4:	b9d0      	cbnz	r0, 8000c0c <FUNC_OutputData+0x74>
 8000bd6:	4630      	mov	r0, r6
 8000bd8:	4639      	mov	r1, r7
 8000bda:	f002 febf 	bl	800395c <rtIsInf>
 8000bde:	b9a8      	cbnz	r0, 8000c0c <FUNC_OutputData+0x74>
 8000be0:	4630      	mov	r0, r6
 8000be2:	4639      	mov	r1, r7
 8000be4:	2200      	movs	r2, #0
 8000be6:	4baa      	ldr	r3, [pc, #680]	; (8000e90 <FUNC_OutputData+0x2f8>)
 8000be8:	f007 fafa 	bl	80081e0 <fmod>
 8000bec:	2200      	movs	r2, #0
 8000bee:	2300      	movs	r3, #0
 8000bf0:	4606      	mov	r6, r0
 8000bf2:	460f      	mov	r7, r1
 8000bf4:	4680      	mov	r8, r0
 8000bf6:	4689      	mov	r9, r1
 8000bf8:	f008 f8e8 	bl	8008dcc <__aeabi_dcmplt>
 8000bfc:	b150      	cbz	r0, 8000c14 <FUNC_OutputData+0x7c>
 8000bfe:	4630      	mov	r0, r6
 8000c00:	f107 4100 	add.w	r1, r7, #2147483648	; 0x80000000
 8000c04:	f008 f90a 	bl	8008e1c <__aeabi_d2uiz>
 8000c08:	4240      	negs	r0, r0
 8000c0a:	e007      	b.n	8000c1c <FUNC_OutputData+0x84>
 8000c0c:	f04f 0800 	mov.w	r8, #0
 8000c10:	f04f 0900 	mov.w	r9, #0
 8000c14:	4640      	mov	r0, r8
 8000c16:	4649      	mov	r1, r9
 8000c18:	f008 f900 	bl	8008e1c <__aeabi_d2uiz>
 8000c1c:	4b9d      	ldr	r3, [pc, #628]	; (8000e94 <FUNC_OutputData+0x2fc>)
 8000c1e:	4d9e      	ldr	r5, [pc, #632]	; (8000e98 <FUNC_OutputData+0x300>)
 8000c20:	b280      	uxth	r0, r0
 8000c22:	f8a4 0640 	strh.w	r0, [r4, #1600]	; 0x640
 8000c26:	f8a5 00a0 	strh.w	r0, [r5, #160]	; 0xa0
 8000c2a:	e9d3 0100 	ldrd	r0, r1, [r3]
 8000c2e:	a394      	add	r3, pc, #592	; (adr r3, 8000e80 <FUNC_OutputData+0x2e8>)
 8000c30:	e9d3 2300 	ldrd	r2, r3, [r3]
 8000c34:	f007 fe58 	bl	80088e8 <__aeabi_dmul>
 8000c38:	2200      	movs	r2, #0
 8000c3a:	4b94      	ldr	r3, [pc, #592]	; (8000e8c <FUNC_OutputData+0x2f4>)
 8000c3c:	e9c4 01a2 	strd	r0, r1, [r4, #648]	; 0x288
 8000c40:	f007 fe52 	bl	80088e8 <__aeabi_dmul>
 8000c44:	4602      	mov	r2, r0
 8000c46:	460b      	mov	r3, r1
 8000c48:	e9c4 23a4 	strd	r2, r3, [r4, #656]	; 0x290
 8000c4c:	e9c4 23a6 	strd	r2, r3, [r4, #664]	; 0x298
 8000c50:	f007 fa3e 	bl	80080d0 <floor>
 8000c54:	4606      	mov	r6, r0
 8000c56:	460f      	mov	r7, r1
 8000c58:	f002 fe9c 	bl	8003994 <rtIsNaN>
 8000c5c:	b9d0      	cbnz	r0, 8000c94 <FUNC_OutputData+0xfc>
 8000c5e:	4630      	mov	r0, r6
 8000c60:	4639      	mov	r1, r7
 8000c62:	f002 fe7b 	bl	800395c <rtIsInf>
 8000c66:	b9a8      	cbnz	r0, 8000c94 <FUNC_OutputData+0xfc>
 8000c68:	4630      	mov	r0, r6
 8000c6a:	4639      	mov	r1, r7
 8000c6c:	2200      	movs	r2, #0
 8000c6e:	4b88      	ldr	r3, [pc, #544]	; (8000e90 <FUNC_OutputData+0x2f8>)
 8000c70:	f007 fab6 	bl	80081e0 <fmod>
 8000c74:	2200      	movs	r2, #0
 8000c76:	2300      	movs	r3, #0
 8000c78:	4606      	mov	r6, r0
 8000c7a:	460f      	mov	r7, r1
 8000c7c:	4680      	mov	r8, r0
 8000c7e:	4689      	mov	r9, r1
 8000c80:	f008 f8a4 	bl	8008dcc <__aeabi_dcmplt>
 8000c84:	b150      	cbz	r0, 8000c9c <FUNC_OutputData+0x104>
 8000c86:	4630      	mov	r0, r6
 8000c88:	f107 4100 	add.w	r1, r7, #2147483648	; 0x80000000
 8000c8c:	f008 f8c6 	bl	8008e1c <__aeabi_d2uiz>
 8000c90:	4240      	negs	r0, r0
 8000c92:	e007      	b.n	8000ca4 <FUNC_OutputData+0x10c>
 8000c94:	f04f 0800 	mov.w	r8, #0
 8000c98:	f04f 0900 	mov.w	r9, #0
 8000c9c:	4640      	mov	r0, r8
 8000c9e:	4649      	mov	r1, r9
 8000ca0:	f008 f8bc 	bl	8008e1c <__aeabi_d2uiz>
 8000ca4:	4b7d      	ldr	r3, [pc, #500]	; (8000e9c <FUNC_OutputData+0x304>)
 8000ca6:	b280      	uxth	r0, r0
 8000ca8:	f8a4 0642 	strh.w	r0, [r4, #1602]	; 0x642
 8000cac:	f8a5 00a2 	strh.w	r0, [r5, #162]	; 0xa2
 8000cb0:	e9d3 0100 	ldrd	r0, r1, [r3]
 8000cb4:	a372      	add	r3, pc, #456	; (adr r3, 8000e80 <FUNC_OutputData+0x2e8>)
 8000cb6:	e9d3 2300 	ldrd	r2, r3, [r3]
 8000cba:	f007 fe15 	bl	80088e8 <__aeabi_dmul>
 8000cbe:	2200      	movs	r2, #0
 8000cc0:	4b72      	ldr	r3, [pc, #456]	; (8000e8c <FUNC_OutputData+0x2f4>)
 8000cc2:	e9c4 01a8 	strd	r0, r1, [r4, #672]	; 0x2a0
 8000cc6:	f007 fe0f 	bl	80088e8 <__aeabi_dmul>
 8000cca:	4602      	mov	r2, r0
 8000ccc:	460b      	mov	r3, r1
 8000cce:	e9c4 23aa 	strd	r2, r3, [r4, #680]	; 0x2a8
 8000cd2:	e9c4 23ac 	strd	r2, r3, [r4, #688]	; 0x2b0
 8000cd6:	f007 f9fb 	bl	80080d0 <floor>
 8000cda:	4606      	mov	r6, r0
 8000cdc:	460f      	mov	r7, r1
 8000cde:	f002 fe59 	bl	8003994 <rtIsNaN>
 8000ce2:	b9d0      	cbnz	r0, 8000d1a <FUNC_OutputData+0x182>
 8000ce4:	4630      	mov	r0, r6
 8000ce6:	4639      	mov	r1, r7
 8000ce8:	f002 fe38 	bl	800395c <rtIsInf>
 8000cec:	b9a8      	cbnz	r0, 8000d1a <FUNC_OutputData+0x182>
 8000cee:	4630      	mov	r0, r6
 8000cf0:	4639      	mov	r1, r7
 8000cf2:	2200      	movs	r2, #0
 8000cf4:	4b66      	ldr	r3, [pc, #408]	; (8000e90 <FUNC_OutputData+0x2f8>)
 8000cf6:	f007 fa73 	bl	80081e0 <fmod>
 8000cfa:	2200      	movs	r2, #0
 8000cfc:	2300      	movs	r3, #0
 8000cfe:	4606      	mov	r6, r0
 8000d00:	460f      	mov	r7, r1
 8000d02:	4680      	mov	r8, r0
 8000d04:	4689      	mov	r9, r1
 8000d06:	f008 f861 	bl	8008dcc <__aeabi_dcmplt>
 8000d0a:	b150      	cbz	r0, 8000d22 <FUNC_OutputData+0x18a>
 8000d0c:	4630      	mov	r0, r6
 8000d0e:	f107 4100 	add.w	r1, r7, #2147483648	; 0x80000000
 8000d12:	f008 f883 	bl	8008e1c <__aeabi_d2uiz>
 8000d16:	4240      	negs	r0, r0
 8000d18:	e007      	b.n	8000d2a <FUNC_OutputData+0x192>
 8000d1a:	f04f 0800 	mov.w	r8, #0
 8000d1e:	f04f 0900 	mov.w	r9, #0
 8000d22:	4640      	mov	r0, r8
 8000d24:	4649      	mov	r1, r9
 8000d26:	f008 f879 	bl	8008e1c <__aeabi_d2uiz>
 8000d2a:	4b5d      	ldr	r3, [pc, #372]	; (8000ea0 <FUNC_OutputData+0x308>)
 8000d2c:	b280      	uxth	r0, r0
 8000d2e:	f8a4 0644 	strh.w	r0, [r4, #1604]	; 0x644
 8000d32:	f8a5 00a4 	strh.w	r0, [r5, #164]	; 0xa4
 8000d36:	e9d3 0100 	ldrd	r0, r1, [r3]
 8000d3a:	a351      	add	r3, pc, #324	; (adr r3, 8000e80 <FUNC_OutputData+0x2e8>)
 8000d3c:	e9d3 2300 	ldrd	r2, r3, [r3]
 8000d40:	f007 fdd2 	bl	80088e8 <__aeabi_dmul>
 8000d44:	2200      	movs	r2, #0
 8000d46:	4b51      	ldr	r3, [pc, #324]	; (8000e8c <FUNC_OutputData+0x2f4>)
 8000d48:	e9c4 01ae 	strd	r0, r1, [r4, #696]	; 0x2b8
 8000d4c:	f007 fdcc 	bl	80088e8 <__aeabi_dmul>
 8000d50:	4602      	mov	r2, r0
 8000d52:	460b      	mov	r3, r1
 8000d54:	e9c4 23b0 	strd	r2, r3, [r4, #704]	; 0x2c0
 8000d58:	e9c4 23b2 	strd	r2, r3, [r4, #712]	; 0x2c8
 8000d5c:	f007 f9b8 	bl	80080d0 <floor>
 8000d60:	4606      	mov	r6, r0
 8000d62:	460f      	mov	r7, r1
 8000d64:	f002 fe16 	bl	8003994 <rtIsNaN>
 8000d68:	b9d0      	cbnz	r0, 8000da0 <FUNC_OutputData+0x208>
 8000d6a:	4630      	mov	r0, r6
 8000d6c:	4639      	mov	r1, r7
 8000d6e:	f002 fdf5 	bl	800395c <rtIsInf>
 8000d72:	b9a8      	cbnz	r0, 8000da0 <FUNC_OutputData+0x208>
 8000d74:	4630      	mov	r0, r6
 8000d76:	4639      	mov	r1, r7
 8000d78:	2200      	movs	r2, #0
 8000d7a:	4b45      	ldr	r3, [pc, #276]	; (8000e90 <FUNC_OutputData+0x2f8>)
 8000d7c:	f007 fa30 	bl	80081e0 <fmod>
 8000d80:	2200      	movs	r2, #0
 8000d82:	2300      	movs	r3, #0
 8000d84:	4606      	mov	r6, r0
 8000d86:	460f      	mov	r7, r1
 8000d88:	4680      	mov	r8, r0
 8000d8a:	4689      	mov	r9, r1
 8000d8c:	f008 f81e 	bl	8008dcc <__aeabi_dcmplt>
 8000d90:	b150      	cbz	r0, 8000da8 <FUNC_OutputData+0x210>
 8000d92:	4630      	mov	r0, r6
 8000d94:	f107 4100 	add.w	r1, r7, #2147483648	; 0x80000000
 8000d98:	f008 f840 	bl	8008e1c <__aeabi_d2uiz>
 8000d9c:	4240      	negs	r0, r0
 8000d9e:	e007      	b.n	8000db0 <FUNC_OutputData+0x218>
 8000da0:	f04f 0800 	mov.w	r8, #0
 8000da4:	f04f 0900 	mov.w	r9, #0
 8000da8:	4640      	mov	r0, r8
 8000daa:	4649      	mov	r1, r9
 8000dac:	f008 f836 	bl	8008e1c <__aeabi_d2uiz>
 8000db0:	4b3c      	ldr	r3, [pc, #240]	; (8000ea4 <FUNC_OutputData+0x30c>)
 8000db2:	b280      	uxth	r0, r0
 8000db4:	f8a4 0646 	strh.w	r0, [r4, #1606]	; 0x646
 8000db8:	f8a5 00a6 	strh.w	r0, [r5, #166]	; 0xa6
 8000dbc:	e9d3 0100 	ldrd	r0, r1, [r3]
 8000dc0:	e9c4 01b4 	strd	r0, r1, [r4, #720]	; 0x2d0
 8000dc4:	f007 f984 	bl	80080d0 <floor>
 8000dc8:	4606      	mov	r6, r0
 8000dca:	460f      	mov	r7, r1
 8000dcc:	f002 fde2 	bl	8003994 <rtIsNaN>
 8000dd0:	b9d0      	cbnz	r0, 8000e08 <FUNC_OutputData+0x270>
 8000dd2:	4630      	mov	r0, r6
 8000dd4:	4639      	mov	r1, r7
 8000dd6:	f002 fdc1 	bl	800395c <rtIsInf>
 8000dda:	b9a8      	cbnz	r0, 8000e08 <FUNC_OutputData+0x270>
 8000ddc:	4630      	mov	r0, r6
 8000dde:	4639      	mov	r1, r7
 8000de0:	2200      	movs	r2, #0
 8000de2:	4b31      	ldr	r3, [pc, #196]	; (8000ea8 <FUNC_OutputData+0x310>)
 8000de4:	f007 f9fc 	bl	80081e0 <fmod>
 8000de8:	2200      	movs	r2, #0
 8000dea:	2300      	movs	r3, #0
 8000dec:	4606      	mov	r6, r0
 8000dee:	460f      	mov	r7, r1
 8000df0:	4680      	mov	r8, r0
 8000df2:	4689      	mov	r9, r1
 8000df4:	f007 ffea 	bl	8008dcc <__aeabi_dcmplt>
 8000df8:	b150      	cbz	r0, 8000e10 <FUNC_OutputData+0x278>
 8000dfa:	4630      	mov	r0, r6
 8000dfc:	f107 4100 	add.w	r1, r7, #2147483648	; 0x80000000
 8000e00:	f008 f80c 	bl	8008e1c <__aeabi_d2uiz>
 8000e04:	4240      	negs	r0, r0
 8000e06:	e007      	b.n	8000e18 <FUNC_OutputData+0x280>
 8000e08:	f04f 0800 	mov.w	r8, #0
 8000e0c:	f04f 0900 	mov.w	r9, #0
 8000e10:	4640      	mov	r0, r8
 8000e12:	4649      	mov	r1, r9
 8000e14:	f008 f802 	bl	8008e1c <__aeabi_d2uiz>
 8000e18:	4b24      	ldr	r3, [pc, #144]	; (8000eac <FUNC_OutputData+0x314>)
 8000e1a:	b2c0      	uxtb	r0, r0
 8000e1c:	f884 068e 	strb.w	r0, [r4, #1678]	; 0x68e
 8000e20:	f885 00fe 	strb.w	r0, [r5, #254]	; 0xfe
 8000e24:	2200      	movs	r2, #0
 8000e26:	e9d3 0100 	ldrd	r0, r1, [r3]
 8000e2a:	4b21      	ldr	r3, [pc, #132]	; (8000eb0 <FUNC_OutputData+0x318>)
 8000e2c:	f007 fd5c 	bl	80088e8 <__aeabi_dmul>
 8000e30:	4602      	mov	r2, r0
 8000e32:	460b      	mov	r3, r1
 8000e34:	e9c4 23b6 	strd	r2, r3, [r4, #728]	; 0x2d8
 8000e38:	e9c4 23b8 	strd	r2, r3, [r4, #736]	; 0x2e0
 8000e3c:	f007 f948 	bl	80080d0 <floor>
 8000e40:	4606      	mov	r6, r0
 8000e42:	460f      	mov	r7, r1
 8000e44:	f002 fda6 	bl	8003994 <rtIsNaN>
 8000e48:	bba0      	cbnz	r0, 8000eb4 <FUNC_OutputData+0x31c>
 8000e4a:	4630      	mov	r0, r6
 8000e4c:	4639      	mov	r1, r7
 8000e4e:	f002 fd85 	bl	800395c <rtIsInf>
 8000e52:	bb78      	cbnz	r0, 8000eb4 <FUNC_OutputData+0x31c>
 8000e54:	4630      	mov	r0, r6
 8000e56:	4639      	mov	r1, r7
 8000e58:	2200      	movs	r2, #0
 8000e5a:	4b13      	ldr	r3, [pc, #76]	; (8000ea8 <FUNC_OutputData+0x310>)
 8000e5c:	f007 f9c0 	bl	80081e0 <fmod>
 8000e60:	2200      	movs	r2, #0
 8000e62:	2300      	movs	r3, #0
 8000e64:	4606      	mov	r6, r0
 8000e66:	460f      	mov	r7, r1
 8000e68:	4680      	mov	r8, r0
 8000e6a:	4689      	mov	r9, r1
 8000e6c:	f007 ffae 	bl	8008dcc <__aeabi_dcmplt>
 8000e70:	b320      	cbz	r0, 8000ebc <FUNC_OutputData+0x324>
 8000e72:	4630      	mov	r0, r6
 8000e74:	f107 4100 	add.w	r1, r7, #2147483648	; 0x80000000
 8000e78:	f007 ffd0 	bl	8008e1c <__aeabi_d2uiz>
 8000e7c:	4240      	negs	r0, r0
 8000e7e:	e021      	b.n	8000ec4 <FUNC_OutputData+0x32c>
 8000e80:	cccccccd 	.word	0xcccccccd
 8000e84:	400ccccc 	.word	0x400ccccc
 8000e88:	200008a0 	.word	0x200008a0
 8000e8c:	40240000 	.word	0x40240000
 8000e90:	40f00000 	.word	0x40f00000
 8000e94:	20000cf0 	.word	0x20000cf0
 8000e98:	20001030 	.word	0x20001030
 8000e9c:	20000d08 	.word	0x20000d08
 8000ea0:	20000d10 	.word	0x20000d10
 8000ea4:	20000e28 	.word	0x20000e28
 8000ea8:	40700000 	.word	0x40700000
 8000eac:	20000d78 	.word	0x20000d78
 8000eb0:	40590000 	.word	0x40590000
 8000eb4:	f04f 0800 	mov.w	r8, #0
 8000eb8:	f04f 0900 	mov.w	r9, #0
 8000ebc:	4640      	mov	r0, r8
 8000ebe:	4649      	mov	r1, r9
 8000ec0:	f007 ffac 	bl	8008e1c <__aeabi_d2uiz>
 8000ec4:	b2c0      	uxtb	r0, r0
 8000ec6:	f884 068f 	strb.w	r0, [r4, #1679]	; 0x68f
 8000eca:	f885 00ff 	strb.w	r0, [r5, #255]	; 0xff
 8000ece:	2200      	movs	r2, #0
 8000ed0:	4bad      	ldr	r3, [pc, #692]	; (8001188 <FUNC_OutputData+0x5f0>)
 8000ed2:	e9d4 0110 	ldrd	r0, r1, [r4, #64]	; 0x40
 8000ed6:	f007 fd07 	bl	80088e8 <__aeabi_dmul>
 8000eda:	4602      	mov	r2, r0
 8000edc:	460b      	mov	r3, r1
 8000ede:	e9c4 23ba 	strd	r2, r3, [r4, #744]	; 0x2e8
 8000ee2:	e9c4 23bc 	strd	r2, r3, [r4, #752]	; 0x2f0
 8000ee6:	f007 f8f3 	bl	80080d0 <floor>
 8000eea:	4606      	mov	r6, r0
 8000eec:	460f      	mov	r7, r1
 8000eee:	f002 fd51 	bl	8003994 <rtIsNaN>
 8000ef2:	b9d0      	cbnz	r0, 8000f2a <FUNC_OutputData+0x392>
 8000ef4:	4630      	mov	r0, r6
 8000ef6:	4639      	mov	r1, r7
 8000ef8:	f002 fd30 	bl	800395c <rtIsInf>
 8000efc:	b9a8      	cbnz	r0, 8000f2a <FUNC_OutputData+0x392>
 8000efe:	4630      	mov	r0, r6
 8000f00:	4639      	mov	r1, r7
 8000f02:	2200      	movs	r2, #0
 8000f04:	4ba1      	ldr	r3, [pc, #644]	; (800118c <FUNC_OutputData+0x5f4>)
 8000f06:	f007 f96b 	bl	80081e0 <fmod>
 8000f0a:	2200      	movs	r2, #0
 8000f0c:	2300      	movs	r3, #0
 8000f0e:	4606      	mov	r6, r0
 8000f10:	460f      	mov	r7, r1
 8000f12:	4680      	mov	r8, r0
 8000f14:	4689      	mov	r9, r1
 8000f16:	f007 ff59 	bl	8008dcc <__aeabi_dcmplt>
 8000f1a:	b150      	cbz	r0, 8000f32 <FUNC_OutputData+0x39a>
 8000f1c:	4630      	mov	r0, r6
 8000f1e:	f107 4100 	add.w	r1, r7, #2147483648	; 0x80000000
 8000f22:	f007 ff7b 	bl	8008e1c <__aeabi_d2uiz>
 8000f26:	4240      	negs	r0, r0
 8000f28:	e007      	b.n	8000f3a <FUNC_OutputData+0x3a2>
 8000f2a:	f04f 0800 	mov.w	r8, #0
 8000f2e:	f04f 0900 	mov.w	r9, #0
 8000f32:	4640      	mov	r0, r8
 8000f34:	4649      	mov	r1, r9
 8000f36:	f007 ff71 	bl	8008e1c <__aeabi_d2uiz>
 8000f3a:	b2c0      	uxtb	r0, r0
 8000f3c:	f884 0690 	strb.w	r0, [r4, #1680]	; 0x690
 8000f40:	f885 0100 	strb.w	r0, [r5, #256]	; 0x100
 8000f44:	f894 077f 	ldrb.w	r0, [r4, #1919]	; 0x77f
 8000f48:	01c0      	lsls	r0, r0, #7
 8000f4a:	b2c0      	uxtb	r0, r0
 8000f4c:	f884 06c5 	strb.w	r0, [r4, #1733]	; 0x6c5
 8000f50:	f007 fc54 	bl	80087fc <__aeabi_ui2d>
 8000f54:	2200      	movs	r2, #0
 8000f56:	f04f 537e 	mov.w	r3, #1065353216	; 0x3f800000
 8000f5a:	f007 fcc5 	bl	80088e8 <__aeabi_dmul>
 8000f5e:	e9c4 01be 	strd	r0, r1, [r4, #760]	; 0x2f8
 8000f62:	f007 f8b5 	bl	80080d0 <floor>
 8000f66:	4606      	mov	r6, r0
 8000f68:	460f      	mov	r7, r1
 8000f6a:	f002 fd13 	bl	8003994 <rtIsNaN>
 8000f6e:	b9d0      	cbnz	r0, 8000fa6 <FUNC_OutputData+0x40e>
 8000f70:	4630      	mov	r0, r6
 8000f72:	4639      	mov	r1, r7
 8000f74:	f002 fcf2 	bl	800395c <rtIsInf>
 8000f78:	b9a8      	cbnz	r0, 8000fa6 <FUNC_OutputData+0x40e>
 8000f7a:	4630      	mov	r0, r6
 8000f7c:	4639      	mov	r1, r7
 8000f7e:	2200      	movs	r2, #0
 8000f80:	4b82      	ldr	r3, [pc, #520]	; (800118c <FUNC_OutputData+0x5f4>)
 8000f82:	f007 f92d 	bl	80081e0 <fmod>
 8000f86:	2200      	movs	r2, #0
 8000f88:	2300      	movs	r3, #0
 8000f8a:	4606      	mov	r6, r0
 8000f8c:	460f      	mov	r7, r1
 8000f8e:	4680      	mov	r8, r0
 8000f90:	4689      	mov	r9, r1
 8000f92:	f007 ff1b 	bl	8008dcc <__aeabi_dcmplt>
 8000f96:	b150      	cbz	r0, 8000fae <FUNC_OutputData+0x416>
 8000f98:	4630      	mov	r0, r6
 8000f9a:	f107 4100 	add.w	r1, r7, #2147483648	; 0x80000000
 8000f9e:	f007 ff3d 	bl	8008e1c <__aeabi_d2uiz>
 8000fa2:	4240      	negs	r0, r0
 8000fa4:	e007      	b.n	8000fb6 <FUNC_OutputData+0x41e>
 8000fa6:	f04f 0800 	mov.w	r8, #0
 8000faa:	f04f 0900 	mov.w	r9, #0
 8000fae:	4640      	mov	r0, r8
 8000fb0:	4649      	mov	r1, r9
 8000fb2:	f007 ff33 	bl	8008e1c <__aeabi_d2uiz>
 8000fb6:	b2c0      	uxtb	r0, r0
 8000fb8:	f884 0691 	strb.w	r0, [r4, #1681]	; 0x691
 8000fbc:	f885 0101 	strb.w	r0, [r5, #257]	; 0x101
 8000fc0:	f894 06ce 	ldrb.w	r0, [r4, #1742]	; 0x6ce
 8000fc4:	f884 0778 	strb.w	r0, [r4, #1912]	; 0x778
 8000fc8:	01c0      	lsls	r0, r0, #7
 8000fca:	b2c0      	uxtb	r0, r0
 8000fcc:	f884 06c6 	strb.w	r0, [r4, #1734]	; 0x6c6
 8000fd0:	f007 fc14 	bl	80087fc <__aeabi_ui2d>
 8000fd4:	2200      	movs	r2, #0
 8000fd6:	f04f 537e 	mov.w	r3, #1065353216	; 0x3f800000
 8000fda:	f007 fc85 	bl	80088e8 <__aeabi_dmul>
 8000fde:	e9c4 01c0 	strd	r0, r1, [r4, #768]	; 0x300
 8000fe2:	f007 f875 	bl	80080d0 <floor>
 8000fe6:	4606      	mov	r6, r0
 8000fe8:	460f      	mov	r7, r1
 8000fea:	f002 fcd3 	bl	8003994 <rtIsNaN>
 8000fee:	b9d0      	cbnz	r0, 8001026 <FUNC_OutputData+0x48e>
 8000ff0:	4630      	mov	r0, r6
 8000ff2:	4639      	mov	r1, r7
 8000ff4:	f002 fcb2 	bl	800395c <rtIsInf>
 8000ff8:	b9a8      	cbnz	r0, 8001026 <FUNC_OutputData+0x48e>
 8000ffa:	4630      	mov	r0, r6
 8000ffc:	4639      	mov	r1, r7
 8000ffe:	2200      	movs	r2, #0
 8001000:	4b62      	ldr	r3, [pc, #392]	; (800118c <FUNC_OutputData+0x5f4>)
 8001002:	f007 f8ed 	bl	80081e0 <fmod>
 8001006:	2200      	movs	r2, #0
 8001008:	2300      	movs	r3, #0
 800100a:	4606      	mov	r6, r0
 800100c:	460f      	mov	r7, r1
 800100e:	4680      	mov	r8, r0
 8001010:	4689      	mov	r9, r1
 8001012:	f007 fedb 	bl	8008dcc <__aeabi_dcmplt>
 8001016:	b150      	cbz	r0, 800102e <FUNC_OutputData+0x496>
 8001018:	4630      	mov	r0, r6
 800101a:	f107 4100 	add.w	r1, r7, #2147483648	; 0x80000000
 800101e:	f007 fefd 	bl	8008e1c <__aeabi_d2uiz>
 8001022:	4240      	negs	r0, r0
 8001024:	e007      	b.n	8001036 <FUNC_OutputData+0x49e>
 8001026:	f04f 0800 	mov.w	r8, #0
 800102a:	f04f 0900 	mov.w	r9, #0
 800102e:	4640      	mov	r0, r8
 8001030:	4649      	mov	r1, r9
 8001032:	f007 fef3 	bl	8008e1c <__aeabi_d2uiz>
 8001036:	b2c0      	uxtb	r0, r0
 8001038:	f884 0692 	strb.w	r0, [r4, #1682]	; 0x692
 800103c:	f885 0102 	strb.w	r0, [r5, #258]	; 0x102
 8001040:	f894 06cf 	ldrb.w	r0, [r4, #1743]	; 0x6cf
 8001044:	01c0      	lsls	r0, r0, #7
 8001046:	b2c0      	uxtb	r0, r0
 8001048:	f884 06c7 	strb.w	r0, [r4, #1735]	; 0x6c7
 800104c:	f007 fbd6 	bl	80087fc <__aeabi_ui2d>
 8001050:	2200      	movs	r2, #0
 8001052:	f04f 537e 	mov.w	r3, #1065353216	; 0x3f800000
 8001056:	f007 fc47 	bl	80088e8 <__aeabi_dmul>
 800105a:	e9c4 01c2 	strd	r0, r1, [r4, #776]	; 0x308
 800105e:	f007 f837 	bl	80080d0 <floor>
 8001062:	4606      	mov	r6, r0
 8001064:	460f      	mov	r7, r1
 8001066:	f002 fc95 	bl	8003994 <rtIsNaN>
 800106a:	b9d0      	cbnz	r0, 80010a2 <FUNC_OutputData+0x50a>
 800106c:	4630      	mov	r0, r6
 800106e:	4639      	mov	r1, r7
 8001070:	f002 fc74 	bl	800395c <rtIsInf>
 8001074:	b9a8      	cbnz	r0, 80010a2 <FUNC_OutputData+0x50a>
 8001076:	4630      	mov	r0, r6
 8001078:	4639      	mov	r1, r7
 800107a:	2200      	movs	r2, #0
 800107c:	4b43      	ldr	r3, [pc, #268]	; (800118c <FUNC_OutputData+0x5f4>)
 800107e:	f007 f8af 	bl	80081e0 <fmod>
 8001082:	2200      	movs	r2, #0
 8001084:	2300      	movs	r3, #0
 8001086:	4606      	mov	r6, r0
 8001088:	460f      	mov	r7, r1
 800108a:	4680      	mov	r8, r0
 800108c:	4689      	mov	r9, r1
 800108e:	f007 fe9d 	bl	8008dcc <__aeabi_dcmplt>
 8001092:	b150      	cbz	r0, 80010aa <FUNC_OutputData+0x512>
 8001094:	4630      	mov	r0, r6
 8001096:	f107 4100 	add.w	r1, r7, #2147483648	; 0x80000000
 800109a:	f007 febf 	bl	8008e1c <__aeabi_d2uiz>
 800109e:	4240      	negs	r0, r0
 80010a0:	e007      	b.n	80010b2 <FUNC_OutputData+0x51a>
 80010a2:	f04f 0800 	mov.w	r8, #0
 80010a6:	f04f 0900 	mov.w	r9, #0
 80010aa:	4640      	mov	r0, r8
 80010ac:	4649      	mov	r1, r9
 80010ae:	f007 feb5 	bl	8008e1c <__aeabi_d2uiz>
 80010b2:	b2c0      	uxtb	r0, r0
 80010b4:	f884 0693 	strb.w	r0, [r4, #1683]	; 0x693
 80010b8:	f885 0103 	strb.w	r0, [r5, #259]	; 0x103
 80010bc:	e9d4 0112 	ldrd	r0, r1, [r4, #72]	; 0x48
 80010c0:	e9c4 01c4 	strd	r0, r1, [r4, #784]	; 0x310
 80010c4:	f007 f804 	bl	80080d0 <floor>
 80010c8:	4606      	mov	r6, r0
 80010ca:	460f      	mov	r7, r1
 80010cc:	f002 fc62 	bl	8003994 <rtIsNaN>
 80010d0:	b9d0      	cbnz	r0, 8001108 <FUNC_OutputData+0x570>
 80010d2:	4630      	mov	r0, r6
 80010d4:	4639      	mov	r1, r7
 80010d6:	f002 fc41 	bl	800395c <rtIsInf>
 80010da:	b9a8      	cbnz	r0, 8001108 <FUNC_OutputData+0x570>
 80010dc:	4630      	mov	r0, r6
 80010de:	4639      	mov	r1, r7
 80010e0:	2200      	movs	r2, #0
 80010e2:	4b2a      	ldr	r3, [pc, #168]	; (800118c <FUNC_OutputData+0x5f4>)
 80010e4:	f007 f87c 	bl	80081e0 <fmod>
 80010e8:	2200      	movs	r2, #0
 80010ea:	2300      	movs	r3, #0
 80010ec:	4606      	mov	r6, r0
 80010ee:	460f      	mov	r7, r1
 80010f0:	4680      	mov	r8, r0
 80010f2:	4689      	mov	r9, r1
 80010f4:	f007 fe6a 	bl	8008dcc <__aeabi_dcmplt>
 80010f8:	b150      	cbz	r0, 8001110 <FUNC_OutputData+0x578>
 80010fa:	4630      	mov	r0, r6
 80010fc:	f107 4100 	add.w	r1, r7, #2147483648	; 0x80000000
 8001100:	f007 fe8c 	bl	8008e1c <__aeabi_d2uiz>
 8001104:	4240      	negs	r0, r0
 8001106:	e007      	b.n	8001118 <FUNC_OutputData+0x580>
 8001108:	f04f 0800 	mov.w	r8, #0
 800110c:	f04f 0900 	mov.w	r9, #0
 8001110:	4640      	mov	r0, r8
 8001112:	4649      	mov	r1, r9
 8001114:	f007 fe82 	bl	8008e1c <__aeabi_d2uiz>
 8001118:	b2c0      	uxtb	r0, r0
 800111a:	a319      	add	r3, pc, #100	; (adr r3, 8001180 <FUNC_OutputData+0x5e8>)
 800111c:	e9d3 2300 	ldrd	r2, r3, [r3]
 8001120:	f884 0694 	strb.w	r0, [r4, #1684]	; 0x694
 8001124:	f885 0104 	strb.w	r0, [r5, #260]	; 0x104
 8001128:	e9d4 0102 	ldrd	r0, r1, [r4, #8]
 800112c:	f007 fbdc 	bl	80088e8 <__aeabi_dmul>
 8001130:	4602      	mov	r2, r0
 8001132:	460b      	mov	r3, r1
 8001134:	e9c4 23c6 	strd	r2, r3, [r4, #792]	; 0x318
 8001138:	e9c4 23c8 	strd	r2, r3, [r4, #800]	; 0x320
 800113c:	f006 ffc8 	bl	80080d0 <floor>
 8001140:	4606      	mov	r6, r0
 8001142:	460f      	mov	r7, r1
 8001144:	f002 fc26 	bl	8003994 <rtIsNaN>
 8001148:	bb10      	cbnz	r0, 8001190 <FUNC_OutputData+0x5f8>
 800114a:	4630      	mov	r0, r6
 800114c:	4639      	mov	r1, r7
 800114e:	f002 fc05 	bl	800395c <rtIsInf>
 8001152:	b9e8      	cbnz	r0, 8001190 <FUNC_OutputData+0x5f8>
 8001154:	4630      	mov	r0, r6
 8001156:	4639      	mov	r1, r7
 8001158:	2200      	movs	r2, #0
 800115a:	4b0c      	ldr	r3, [pc, #48]	; (800118c <FUNC_OutputData+0x5f4>)
 800115c:	f007 f840 	bl	80081e0 <fmod>
 8001160:	2200      	movs	r2, #0
 8001162:	2300      	movs	r3, #0
 8001164:	4606      	mov	r6, r0
 8001166:	460f      	mov	r7, r1
 8001168:	4680      	mov	r8, r0
 800116a:	4689      	mov	r9, r1
 800116c:	f007 fe2e 	bl	8008dcc <__aeabi_dcmplt>
 8001170:	b190      	cbz	r0, 8001198 <FUNC_OutputData+0x600>
 8001172:	4630      	mov	r0, r6
 8001174:	f107 4100 	add.w	r1, r7, #2147483648	; 0x80000000
 8001178:	f007 fe50 	bl	8008e1c <__aeabi_d2uiz>
 800117c:	4240      	negs	r0, r0
 800117e:	e00f      	b.n	80011a0 <FUNC_OutputData+0x608>
 8001180:	9999999a 	.word	0x9999999a
 8001184:	3fb99999 	.word	0x3fb99999
 8001188:	40240000 	.word	0x40240000
 800118c:	40700000 	.word	0x40700000
 8001190:	f04f 0800 	mov.w	r8, #0
 8001194:	f04f 0900 	mov.w	r9, #0
 8001198:	4640      	mov	r0, r8
 800119a:	4649      	mov	r1, r9
 800119c:	f007 fe3e 	bl	8008e1c <__aeabi_d2uiz>
 80011a0:	4bb5      	ldr	r3, [pc, #724]	; (8001478 <FUNC_OutputData+0x8e0>)
 80011a2:	b2c0      	uxtb	r0, r0
 80011a4:	f884 0695 	strb.w	r0, [r4, #1685]	; 0x695
 80011a8:	f885 0105 	strb.w	r0, [r5, #261]	; 0x105
 80011ac:	e9d3 0100 	ldrd	r0, r1, [r3]
 80011b0:	e9c4 01ca 	strd	r0, r1, [r4, #808]	; 0x328
 80011b4:	f006 ff8c 	bl	80080d0 <floor>
 80011b8:	4606      	mov	r6, r0
 80011ba:	460f      	mov	r7, r1
 80011bc:	f002 fbea 	bl	8003994 <rtIsNaN>
 80011c0:	b9d0      	cbnz	r0, 80011f8 <FUNC_OutputData+0x660>
 80011c2:	4630      	mov	r0, r6
 80011c4:	4639      	mov	r1, r7
 80011c6:	f002 fbc9 	bl	800395c <rtIsInf>
 80011ca:	b9a8      	cbnz	r0, 80011f8 <FUNC_OutputData+0x660>
 80011cc:	4630      	mov	r0, r6
 80011ce:	4639      	mov	r1, r7
 80011d0:	2200      	movs	r2, #0
 80011d2:	4baa      	ldr	r3, [pc, #680]	; (800147c <FUNC_OutputData+0x8e4>)
 80011d4:	f007 f804 	bl	80081e0 <fmod>
 80011d8:	2200      	movs	r2, #0
 80011da:	2300      	movs	r3, #0
 80011dc:	4606      	mov	r6, r0
 80011de:	460f      	mov	r7, r1
 80011e0:	4680      	mov	r8, r0
 80011e2:	4689      	mov	r9, r1
 80011e4:	f007 fdf2 	bl	8008dcc <__aeabi_dcmplt>
 80011e8:	b150      	cbz	r0, 8001200 <FUNC_OutputData+0x668>
 80011ea:	4630      	mov	r0, r6
 80011ec:	f107 4100 	add.w	r1, r7, #2147483648	; 0x80000000
 80011f0:	f007 fe14 	bl	8008e1c <__aeabi_d2uiz>
 80011f4:	4240      	negs	r0, r0
 80011f6:	e007      	b.n	8001208 <FUNC_OutputData+0x670>
 80011f8:	f04f 0800 	mov.w	r8, #0
 80011fc:	f04f 0900 	mov.w	r9, #0
 8001200:	4640      	mov	r0, r8
 8001202:	4649      	mov	r1, r9
 8001204:	f007 fe0a 	bl	8008e1c <__aeabi_d2uiz>
 8001208:	4b9d      	ldr	r3, [pc, #628]	; (8001480 <FUNC_OutputData+0x8e8>)
 800120a:	b2c0      	uxtb	r0, r0
 800120c:	f884 0696 	strb.w	r0, [r4, #1686]	; 0x696
 8001210:	f885 0106 	strb.w	r0, [r5, #262]	; 0x106
 8001214:	e9d3 0100 	ldrd	r0, r1, [r3]
 8001218:	e9c4 01cc 	strd	r0, r1, [r4, #816]	; 0x330
 800121c:	f006 ff58 	bl	80080d0 <floor>
 8001220:	4606      	mov	r6, r0
 8001222:	460f      	mov	r7, r1
 8001224:	f002 fbb6 	bl	8003994 <rtIsNaN>
 8001228:	b9d0      	cbnz	r0, 8001260 <FUNC_OutputData+0x6c8>
 800122a:	4630      	mov	r0, r6
 800122c:	4639      	mov	r1, r7
 800122e:	f002 fb95 	bl	800395c <rtIsInf>
 8001232:	b9a8      	cbnz	r0, 8001260 <FUNC_OutputData+0x6c8>
 8001234:	4630      	mov	r0, r6
 8001236:	4639      	mov	r1, r7
 8001238:	2200      	movs	r2, #0
 800123a:	4b92      	ldr	r3, [pc, #584]	; (8001484 <FUNC_OutputData+0x8ec>)
 800123c:	f006 ffd0 	bl	80081e0 <fmod>
 8001240:	2200      	movs	r2, #0
 8001242:	2300      	movs	r3, #0
 8001244:	4606      	mov	r6, r0
 8001246:	460f      	mov	r7, r1
 8001248:	4680      	mov	r8, r0
 800124a:	4689      	mov	r9, r1
 800124c:	f007 fdbe 	bl	8008dcc <__aeabi_dcmplt>
 8001250:	b150      	cbz	r0, 8001268 <FUNC_OutputData+0x6d0>
 8001252:	4630      	mov	r0, r6
 8001254:	f107 4100 	add.w	r1, r7, #2147483648	; 0x80000000
 8001258:	f007 fde0 	bl	8008e1c <__aeabi_d2uiz>
 800125c:	4240      	negs	r0, r0
 800125e:	e007      	b.n	8001270 <FUNC_OutputData+0x6d8>
 8001260:	f04f 0800 	mov.w	r8, #0
 8001264:	f04f 0900 	mov.w	r9, #0
 8001268:	4640      	mov	r0, r8
 800126a:	4649      	mov	r1, r9
 800126c:	f007 fdd6 	bl	8008e1c <__aeabi_d2uiz>
 8001270:	4b85      	ldr	r3, [pc, #532]	; (8001488 <FUNC_OutputData+0x8f0>)
 8001272:	b280      	uxth	r0, r0
 8001274:	f8a4 0648 	strh.w	r0, [r4, #1608]	; 0x648
 8001278:	f8a5 00a8 	strh.w	r0, [r5, #168]	; 0xa8
 800127c:	e9d3 0100 	ldrd	r0, r1, [r3]
 8001280:	e9c4 01ce 	strd	r0, r1, [r4, #824]	; 0x338
 8001284:	f006 ff24 	bl	80080d0 <floor>
 8001288:	4606      	mov	r6, r0
 800128a:	460f      	mov	r7, r1
 800128c:	f002 fb82 	bl	8003994 <rtIsNaN>
 8001290:	b9d0      	cbnz	r0, 80012c8 <FUNC_OutputData+0x730>
 8001292:	4630      	mov	r0, r6
 8001294:	4639      	mov	r1, r7
 8001296:	f002 fb61 	bl	800395c <rtIsInf>
 800129a:	b9a8      	cbnz	r0, 80012c8 <FUNC_OutputData+0x730>
 800129c:	4630      	mov	r0, r6
 800129e:	4639      	mov	r1, r7
 80012a0:	2200      	movs	r2, #0
 80012a2:	4b76      	ldr	r3, [pc, #472]	; (800147c <FUNC_OutputData+0x8e4>)
 80012a4:	f006 ff9c 	bl	80081e0 <fmod>
 80012a8:	2200      	movs	r2, #0
 80012aa:	2300      	movs	r3, #0
 80012ac:	4606      	mov	r6, r0
 80012ae:	460f      	mov	r7, r1
 80012b0:	4680      	mov	r8, r0
 80012b2:	4689      	mov	r9, r1
 80012b4:	f007 fd8a 	bl	8008dcc <__aeabi_dcmplt>
 80012b8:	b150      	cbz	r0, 80012d0 <FUNC_OutputData+0x738>
 80012ba:	4630      	mov	r0, r6
 80012bc:	f107 4100 	add.w	r1, r7, #2147483648	; 0x80000000
 80012c0:	f007 fdac 	bl	8008e1c <__aeabi_d2uiz>
 80012c4:	4240      	negs	r0, r0
 80012c6:	e007      	b.n	80012d8 <FUNC_OutputData+0x740>
 80012c8:	f04f 0800 	mov.w	r8, #0
 80012cc:	f04f 0900 	mov.w	r9, #0
 80012d0:	4640      	mov	r0, r8
 80012d2:	4649      	mov	r1, r9
 80012d4:	f007 fda2 	bl	8008e1c <__aeabi_d2uiz>
 80012d8:	4b6c      	ldr	r3, [pc, #432]	; (800148c <FUNC_OutputData+0x8f4>)
 80012da:	b2c0      	uxtb	r0, r0
 80012dc:	f884 0697 	strb.w	r0, [r4, #1687]	; 0x697
 80012e0:	f885 0107 	strb.w	r0, [r5, #263]	; 0x107
 80012e4:	e9d3 0100 	ldrd	r0, r1, [r3]
 80012e8:	e9c4 01d0 	strd	r0, r1, [r4, #832]	; 0x340
 80012ec:	f006 fef0 	bl	80080d0 <floor>
 80012f0:	4606      	mov	r6, r0
 80012f2:	460f      	mov	r7, r1
 80012f4:	f002 fb4e 	bl	8003994 <rtIsNaN>
 80012f8:	b9d0      	cbnz	r0, 8001330 <FUNC_OutputData+0x798>
 80012fa:	4630      	mov	r0, r6
 80012fc:	4639      	mov	r1, r7
 80012fe:	f002 fb2d 	bl	800395c <rtIsInf>
 8001302:	b9a8      	cbnz	r0, 8001330 <FUNC_OutputData+0x798>
 8001304:	4630      	mov	r0, r6
 8001306:	4639      	mov	r1, r7
 8001308:	2200      	movs	r2, #0
 800130a:	4b5c      	ldr	r3, [pc, #368]	; (800147c <FUNC_OutputData+0x8e4>)
 800130c:	f006 ff68 	bl	80081e0 <fmod>
 8001310:	2200      	movs	r2, #0
 8001312:	2300      	movs	r3, #0
 8001314:	4606      	mov	r6, r0
 8001316:	460f      	mov	r7, r1
 8001318:	4680      	mov	r8, r0
 800131a:	4689      	mov	r9, r1
 800131c:	f007 fd56 	bl	8008dcc <__aeabi_dcmplt>
 8001320:	b150      	cbz	r0, 8001338 <FUNC_OutputData+0x7a0>
 8001322:	4630      	mov	r0, r6
 8001324:	f107 4100 	add.w	r1, r7, #2147483648	; 0x80000000
 8001328:	f007 fd78 	bl	8008e1c <__aeabi_d2uiz>
 800132c:	4240      	negs	r0, r0
 800132e:	e007      	b.n	8001340 <FUNC_OutputData+0x7a8>
 8001330:	f04f 0800 	mov.w	r8, #0
 8001334:	f04f 0900 	mov.w	r9, #0
 8001338:	4640      	mov	r0, r8
 800133a:	4649      	mov	r1, r9
 800133c:	f007 fd6e 	bl	8008e1c <__aeabi_d2uiz>
 8001340:	4b53      	ldr	r3, [pc, #332]	; (8001490 <FUNC_OutputData+0x8f8>)
 8001342:	b2c0      	uxtb	r0, r0
 8001344:	f884 0698 	strb.w	r0, [r4, #1688]	; 0x698
 8001348:	f885 0108 	strb.w	r0, [r5, #264]	; 0x108
 800134c:	e9d3 0100 	ldrd	r0, r1, [r3]
 8001350:	e9c4 01d2 	strd	r0, r1, [r4, #840]	; 0x348
 8001354:	f006 febc 	bl	80080d0 <floor>
 8001358:	4606      	mov	r6, r0
 800135a:	460f      	mov	r7, r1
 800135c:	f002 fb1a 	bl	8003994 <rtIsNaN>
 8001360:	b9d0      	cbnz	r0, 8001398 <FUNC_OutputData+0x800>
 8001362:	4630      	mov	r0, r6
 8001364:	4639      	mov	r1, r7
 8001366:	f002 faf9 	bl	800395c <rtIsInf>
 800136a:	b9a8      	cbnz	r0, 8001398 <FUNC_OutputData+0x800>
 800136c:	4630      	mov	r0, r6
 800136e:	4639      	mov	r1, r7
 8001370:	2200      	movs	r2, #0
 8001372:	4b42      	ldr	r3, [pc, #264]	; (800147c <FUNC_OutputData+0x8e4>)
 8001374:	f006 ff34 	bl	80081e0 <fmod>
 8001378:	2200      	movs	r2, #0
 800137a:	2300      	movs	r3, #0
 800137c:	4606      	mov	r6, r0
 800137e:	460f      	mov	r7, r1
 8001380:	4680      	mov	r8, r0
 8001382:	4689      	mov	r9, r1
 8001384:	f007 fd22 	bl	8008dcc <__aeabi_dcmplt>
 8001388:	b150      	cbz	r0, 80013a0 <FUNC_OutputData+0x808>
 800138a:	4630      	mov	r0, r6
 800138c:	f107 4100 	add.w	r1, r7, #2147483648	; 0x80000000
 8001390:	f007 fd44 	bl	8008e1c <__aeabi_d2uiz>
 8001394:	4240      	negs	r0, r0
 8001396:	e007      	b.n	80013a8 <FUNC_OutputData+0x810>
 8001398:	f04f 0800 	mov.w	r8, #0
 800139c:	f04f 0900 	mov.w	r9, #0
 80013a0:	4640      	mov	r0, r8
 80013a2:	4649      	mov	r1, r9
 80013a4:	f007 fd3a 	bl	8008e1c <__aeabi_d2uiz>
 80013a8:	4b3a      	ldr	r3, [pc, #232]	; (8001494 <FUNC_OutputData+0x8fc>)
 80013aa:	b2c0      	uxtb	r0, r0
 80013ac:	f884 0699 	strb.w	r0, [r4, #1689]	; 0x699
 80013b0:	f885 0109 	strb.w	r0, [r5, #265]	; 0x109
 80013b4:	e9d3 0100 	ldrd	r0, r1, [r3]
 80013b8:	e9c4 01d4 	strd	r0, r1, [r4, #848]	; 0x350
 80013bc:	f006 fe88 	bl	80080d0 <floor>
 80013c0:	4606      	mov	r6, r0
 80013c2:	460f      	mov	r7, r1
 80013c4:	f002 fae6 	bl	8003994 <rtIsNaN>
 80013c8:	b9d0      	cbnz	r0, 8001400 <FUNC_OutputData+0x868>
 80013ca:	4630      	mov	r0, r6
 80013cc:	4639      	mov	r1, r7
 80013ce:	f002 fac5 	bl	800395c <rtIsInf>
 80013d2:	b9a8      	cbnz	r0, 8001400 <FUNC_OutputData+0x868>
 80013d4:	4630      	mov	r0, r6
 80013d6:	4639      	mov	r1, r7
 80013d8:	2200      	movs	r2, #0
 80013da:	4b28      	ldr	r3, [pc, #160]	; (800147c <FUNC_OutputData+0x8e4>)
 80013dc:	f006 ff00 	bl	80081e0 <fmod>
 80013e0:	2200      	movs	r2, #0
 80013e2:	2300      	movs	r3, #0
 80013e4:	4606      	mov	r6, r0
 80013e6:	460f      	mov	r7, r1
 80013e8:	4680      	mov	r8, r0
 80013ea:	4689      	mov	r9, r1
 80013ec:	f007 fcee 	bl	8008dcc <__aeabi_dcmplt>
 80013f0:	b150      	cbz	r0, 8001408 <FUNC_OutputData+0x870>
 80013f2:	4630      	mov	r0, r6
 80013f4:	f107 4100 	add.w	r1, r7, #2147483648	; 0x80000000
 80013f8:	f007 fd10 	bl	8008e1c <__aeabi_d2uiz>
 80013fc:	4240      	negs	r0, r0
 80013fe:	e007      	b.n	8001410 <FUNC_OutputData+0x878>
 8001400:	f04f 0800 	mov.w	r8, #0
 8001404:	f04f 0900 	mov.w	r9, #0
 8001408:	4640      	mov	r0, r8
 800140a:	4649      	mov	r1, r9
 800140c:	f007 fd06 	bl	8008e1c <__aeabi_d2uiz>
 8001410:	4b21      	ldr	r3, [pc, #132]	; (8001498 <FUNC_OutputData+0x900>)
 8001412:	b2c0      	uxtb	r0, r0
 8001414:	f884 069a 	strb.w	r0, [r4, #1690]	; 0x69a
 8001418:	f885 010a 	strb.w	r0, [r5, #266]	; 0x10a
 800141c:	2200      	movs	r2, #0
 800141e:	e9d3 0100 	ldrd	r0, r1, [r3]
 8001422:	4b1e      	ldr	r3, [pc, #120]	; (800149c <FUNC_OutputData+0x904>)
 8001424:	f007 fa60 	bl	80088e8 <__aeabi_dmul>
 8001428:	4602      	mov	r2, r0
 800142a:	460b      	mov	r3, r1
 800142c:	e9c4 23d6 	strd	r2, r3, [r4, #856]	; 0x358
 8001430:	e9c4 23d8 	strd	r2, r3, [r4, #864]	; 0x360
 8001434:	f006 fe4c 	bl	80080d0 <floor>
 8001438:	4606      	mov	r6, r0
 800143a:	460f      	mov	r7, r1
 800143c:	f002 faaa 	bl	8003994 <rtIsNaN>
 8001440:	bb70      	cbnz	r0, 80014a0 <FUNC_OutputData+0x908>
 8001442:	4630      	mov	r0, r6
 8001444:	4639      	mov	r1, r7
 8001446:	f002 fa89 	bl	800395c <rtIsInf>
 800144a:	bb48      	cbnz	r0, 80014a0 <FUNC_OutputData+0x908>
 800144c:	4630      	mov	r0, r6
 800144e:	4639      	mov	r1, r7
 8001450:	2200      	movs	r2, #0
 8001452:	4b0c      	ldr	r3, [pc, #48]	; (8001484 <FUNC_OutputData+0x8ec>)
 8001454:	f006 fec4 	bl	80081e0 <fmod>
 8001458:	2200      	movs	r2, #0
 800145a:	2300      	movs	r3, #0
 800145c:	4606      	mov	r6, r0
 800145e:	460f      	mov	r7, r1
 8001460:	4680      	mov	r8, r0
 8001462:	4689      	mov	r9, r1
 8001464:	f007 fcb2 	bl	8008dcc <__aeabi_dcmplt>
 8001468:	b1f0      	cbz	r0, 80014a8 <FUNC_OutputData+0x910>
 800146a:	4630      	mov	r0, r6
 800146c:	f107 4100 	add.w	r1, r7, #2147483648	; 0x80000000
 8001470:	f007 fcd4 	bl	8008e1c <__aeabi_d2uiz>
 8001474:	4240      	negs	r0, r0
 8001476:	e01b      	b.n	80014b0 <FUNC_OutputData+0x918>
 8001478:	20000cc8 	.word	0x20000cc8
 800147c:	40700000 	.word	0x40700000
 8001480:	20000cb8 	.word	0x20000cb8
 8001484:	40f00000 	.word	0x40f00000
 8001488:	20000cc0 	.word	0x20000cc0
 800148c:	20000cd8 	.word	0x20000cd8
 8001490:	20000cd0 	.word	0x20000cd0
 8001494:	20000ce0 	.word	0x20000ce0
 8001498:	20000e58 	.word	0x20000e58
 800149c:	40240000 	.word	0x40240000
 80014a0:	f04f 0800 	mov.w	r8, #0
 80014a4:	f04f 0900 	mov.w	r9, #0
 80014a8:	4640      	mov	r0, r8
 80014aa:	4649      	mov	r1, r9
 80014ac:	f007 fcb6 	bl	8008e1c <__aeabi_d2uiz>
 80014b0:	4bb3      	ldr	r3, [pc, #716]	; (8001780 <FUNC_OutputData+0xbe8>)
 80014b2:	b280      	uxth	r0, r0
 80014b4:	f8a4 064a 	strh.w	r0, [r4, #1610]	; 0x64a
 80014b8:	f8a5 00aa 	strh.w	r0, [r5, #170]	; 0xaa
 80014bc:	2200      	movs	r2, #0
 80014be:	e9d3 0100 	ldrd	r0, r1, [r3]
 80014c2:	4bb0      	ldr	r3, [pc, #704]	; (8001784 <FUNC_OutputData+0xbec>)
 80014c4:	f007 fa10 	bl	80088e8 <__aeabi_dmul>
 80014c8:	4602      	mov	r2, r0
 80014ca:	460b      	mov	r3, r1
 80014cc:	e9c4 23da 	strd	r2, r3, [r4, #872]	; 0x368
 80014d0:	e9c4 23dc 	strd	r2, r3, [r4, #880]	; 0x370
 80014d4:	f006 fdfc 	bl	80080d0 <floor>
 80014d8:	4606      	mov	r6, r0
 80014da:	460f      	mov	r7, r1
 80014dc:	f002 fa5a 	bl	8003994 <rtIsNaN>
 80014e0:	b9d0      	cbnz	r0, 8001518 <FUNC_OutputData+0x980>
 80014e2:	4630      	mov	r0, r6
 80014e4:	4639      	mov	r1, r7
 80014e6:	f002 fa39 	bl	800395c <rtIsInf>
 80014ea:	b9a8      	cbnz	r0, 8001518 <FUNC_OutputData+0x980>
 80014ec:	4630      	mov	r0, r6
 80014ee:	4639      	mov	r1, r7
 80014f0:	2200      	movs	r2, #0
 80014f2:	4ba5      	ldr	r3, [pc, #660]	; (8001788 <FUNC_OutputData+0xbf0>)
 80014f4:	f006 fe74 	bl	80081e0 <fmod>
 80014f8:	2200      	movs	r2, #0
 80014fa:	2300      	movs	r3, #0
 80014fc:	4606      	mov	r6, r0
 80014fe:	460f      	mov	r7, r1
 8001500:	4680      	mov	r8, r0
 8001502:	4689      	mov	r9, r1
 8001504:	f007 fc62 	bl	8008dcc <__aeabi_dcmplt>
 8001508:	b150      	cbz	r0, 8001520 <FUNC_OutputData+0x988>
 800150a:	4630      	mov	r0, r6
 800150c:	f107 4100 	add.w	r1, r7, #2147483648	; 0x80000000
 8001510:	f007 fc84 	bl	8008e1c <__aeabi_d2uiz>
 8001514:	4240      	negs	r0, r0
 8001516:	e007      	b.n	8001528 <FUNC_OutputData+0x990>
 8001518:	f04f 0800 	mov.w	r8, #0
 800151c:	f04f 0900 	mov.w	r9, #0
 8001520:	4640      	mov	r0, r8
 8001522:	4649      	mov	r1, r9
 8001524:	f007 fc7a 	bl	8008e1c <__aeabi_d2uiz>
 8001528:	4b98      	ldr	r3, [pc, #608]	; (800178c <FUNC_OutputData+0xbf4>)
 800152a:	b280      	uxth	r0, r0
 800152c:	f8a4 064c 	strh.w	r0, [r4, #1612]	; 0x64c
 8001530:	f8a5 00ac 	strh.w	r0, [r5, #172]	; 0xac
 8001534:	2200      	movs	r2, #0
 8001536:	e9d3 0100 	ldrd	r0, r1, [r3]
 800153a:	4b92      	ldr	r3, [pc, #584]	; (8001784 <FUNC_OutputData+0xbec>)
 800153c:	f007 f9d4 	bl	80088e8 <__aeabi_dmul>
 8001540:	4602      	mov	r2, r0
 8001542:	460b      	mov	r3, r1
 8001544:	e9c4 23de 	strd	r2, r3, [r4, #888]	; 0x378
 8001548:	e9c4 23e0 	strd	r2, r3, [r4, #896]	; 0x380
 800154c:	f006 fdc0 	bl	80080d0 <floor>
 8001550:	4606      	mov	r6, r0
 8001552:	460f      	mov	r7, r1
 8001554:	f002 fa1e 	bl	8003994 <rtIsNaN>
 8001558:	b9d0      	cbnz	r0, 8001590 <FUNC_OutputData+0x9f8>
 800155a:	4630      	mov	r0, r6
 800155c:	4639      	mov	r1, r7
 800155e:	f002 f9fd 	bl	800395c <rtIsInf>
 8001562:	b9a8      	cbnz	r0, 8001590 <FUNC_OutputData+0x9f8>
 8001564:	4630      	mov	r0, r6
 8001566:	4639      	mov	r1, r7
 8001568:	2200      	movs	r2, #0
 800156a:	4b87      	ldr	r3, [pc, #540]	; (8001788 <FUNC_OutputData+0xbf0>)
 800156c:	f006 fe38 	bl	80081e0 <fmod>
 8001570:	2200      	movs	r2, #0
 8001572:	2300      	movs	r3, #0
 8001574:	4606      	mov	r6, r0
 8001576:	460f      	mov	r7, r1
 8001578:	4680      	mov	r8, r0
 800157a:	4689      	mov	r9, r1
 800157c:	f007 fc26 	bl	8008dcc <__aeabi_dcmplt>
 8001580:	b150      	cbz	r0, 8001598 <FUNC_OutputData+0xa00>
 8001582:	4630      	mov	r0, r6
 8001584:	f107 4100 	add.w	r1, r7, #2147483648	; 0x80000000
 8001588:	f007 fc48 	bl	8008e1c <__aeabi_d2uiz>
 800158c:	4240      	negs	r0, r0
 800158e:	e007      	b.n	80015a0 <FUNC_OutputData+0xa08>
 8001590:	f04f 0800 	mov.w	r8, #0
 8001594:	f04f 0900 	mov.w	r9, #0
 8001598:	4640      	mov	r0, r8
 800159a:	4649      	mov	r1, r9
 800159c:	f007 fc3e 	bl	8008e1c <__aeabi_d2uiz>
 80015a0:	4b7b      	ldr	r3, [pc, #492]	; (8001790 <FUNC_OutputData+0xbf8>)
 80015a2:	b280      	uxth	r0, r0
 80015a4:	f8a4 064e 	strh.w	r0, [r4, #1614]	; 0x64e
 80015a8:	f8a5 00ae 	strh.w	r0, [r5, #174]	; 0xae
 80015ac:	2200      	movs	r2, #0
 80015ae:	e9d3 0100 	ldrd	r0, r1, [r3]
 80015b2:	4b74      	ldr	r3, [pc, #464]	; (8001784 <FUNC_OutputData+0xbec>)
 80015b4:	f007 f998 	bl	80088e8 <__aeabi_dmul>
 80015b8:	4602      	mov	r2, r0
 80015ba:	460b      	mov	r3, r1
 80015bc:	e9c4 23e2 	strd	r2, r3, [r4, #904]	; 0x388
 80015c0:	e9c4 23e4 	strd	r2, r3, [r4, #912]	; 0x390
 80015c4:	f006 fd84 	bl	80080d0 <floor>
 80015c8:	4606      	mov	r6, r0
 80015ca:	460f      	mov	r7, r1
 80015cc:	f002 f9e2 	bl	8003994 <rtIsNaN>
 80015d0:	b9d0      	cbnz	r0, 8001608 <FUNC_OutputData+0xa70>
 80015d2:	4630      	mov	r0, r6
 80015d4:	4639      	mov	r1, r7
 80015d6:	f002 f9c1 	bl	800395c <rtIsInf>
 80015da:	b9a8      	cbnz	r0, 8001608 <FUNC_OutputData+0xa70>
 80015dc:	4630      	mov	r0, r6
 80015de:	4639      	mov	r1, r7
 80015e0:	2200      	movs	r2, #0
 80015e2:	4b69      	ldr	r3, [pc, #420]	; (8001788 <FUNC_OutputData+0xbf0>)
 80015e4:	f006 fdfc 	bl	80081e0 <fmod>
 80015e8:	2200      	movs	r2, #0
 80015ea:	2300      	movs	r3, #0
 80015ec:	4606      	mov	r6, r0
 80015ee:	460f      	mov	r7, r1
 80015f0:	4680      	mov	r8, r0
 80015f2:	4689      	mov	r9, r1
 80015f4:	f007 fbea 	bl	8008dcc <__aeabi_dcmplt>
 80015f8:	b150      	cbz	r0, 8001610 <FUNC_OutputData+0xa78>
 80015fa:	4630      	mov	r0, r6
 80015fc:	f107 4100 	add.w	r1, r7, #2147483648	; 0x80000000
 8001600:	f007 fc0c 	bl	8008e1c <__aeabi_d2uiz>
 8001604:	4240      	negs	r0, r0
 8001606:	e007      	b.n	8001618 <FUNC_OutputData+0xa80>
 8001608:	f04f 0800 	mov.w	r8, #0
 800160c:	f04f 0900 	mov.w	r9, #0
 8001610:	4640      	mov	r0, r8
 8001612:	4649      	mov	r1, r9
 8001614:	f007 fc02 	bl	8008e1c <__aeabi_d2uiz>
 8001618:	4b5e      	ldr	r3, [pc, #376]	; (8001794 <FUNC_OutputData+0xbfc>)
 800161a:	b280      	uxth	r0, r0
 800161c:	f8a4 0650 	strh.w	r0, [r4, #1616]	; 0x650
 8001620:	f8a5 00b0 	strh.w	r0, [r5, #176]	; 0xb0
 8001624:	e9d3 0100 	ldrd	r0, r1, [r3]
 8001628:	a353      	add	r3, pc, #332	; (adr r3, 8001778 <FUNC_OutputData+0xbe0>)
 800162a:	e9d3 2300 	ldrd	r2, r3, [r3]
 800162e:	f007 f95b 	bl	80088e8 <__aeabi_dmul>
 8001632:	4602      	mov	r2, r0
 8001634:	460b      	mov	r3, r1
 8001636:	e9c4 23e6 	strd	r2, r3, [r4, #920]	; 0x398
 800163a:	e9c4 23e8 	strd	r2, r3, [r4, #928]	; 0x3a0
 800163e:	f006 fd47 	bl	80080d0 <floor>
 8001642:	4606      	mov	r6, r0
 8001644:	460f      	mov	r7, r1
 8001646:	f002 f9a5 	bl	8003994 <rtIsNaN>
 800164a:	b9d0      	cbnz	r0, 8001682 <FUNC_OutputData+0xaea>
 800164c:	4630      	mov	r0, r6
 800164e:	4639      	mov	r1, r7
 8001650:	f002 f984 	bl	800395c <rtIsInf>
 8001654:	b9a8      	cbnz	r0, 8001682 <FUNC_OutputData+0xaea>
 8001656:	4630      	mov	r0, r6
 8001658:	4639      	mov	r1, r7
 800165a:	2200      	movs	r2, #0
 800165c:	4b4e      	ldr	r3, [pc, #312]	; (8001798 <FUNC_OutputData+0xc00>)
 800165e:	f006 fdbf 	bl	80081e0 <fmod>
 8001662:	2200      	movs	r2, #0
 8001664:	2300      	movs	r3, #0
 8001666:	4606      	mov	r6, r0
 8001668:	460f      	mov	r7, r1
 800166a:	4680      	mov	r8, r0
 800166c:	4689      	mov	r9, r1
 800166e:	f007 fbad 	bl	8008dcc <__aeabi_dcmplt>
 8001672:	b150      	cbz	r0, 800168a <FUNC_OutputData+0xaf2>
 8001674:	4630      	mov	r0, r6
 8001676:	f107 4100 	add.w	r1, r7, #2147483648	; 0x80000000
 800167a:	f007 fbcf 	bl	8008e1c <__aeabi_d2uiz>
 800167e:	4240      	negs	r0, r0
 8001680:	e007      	b.n	8001692 <FUNC_OutputData+0xafa>
 8001682:	f04f 0800 	mov.w	r8, #0
 8001686:	f04f 0900 	mov.w	r9, #0
 800168a:	4640      	mov	r0, r8
 800168c:	4649      	mov	r1, r9
 800168e:	f007 fbc5 	bl	8008e1c <__aeabi_d2uiz>
 8001692:	4b42      	ldr	r3, [pc, #264]	; (800179c <FUNC_OutputData+0xc04>)
 8001694:	b2c0      	uxtb	r0, r0
 8001696:	f884 069b 	strb.w	r0, [r4, #1691]	; 0x69b
 800169a:	f885 010b 	strb.w	r0, [r5, #267]	; 0x10b
 800169e:	e9d3 0100 	ldrd	r0, r1, [r3]
 80016a2:	a335      	add	r3, pc, #212	; (adr r3, 8001778 <FUNC_OutputData+0xbe0>)
 80016a4:	e9d3 2300 	ldrd	r2, r3, [r3]
 80016a8:	f007 f91e 	bl	80088e8 <__aeabi_dmul>
 80016ac:	4602      	mov	r2, r0
 80016ae:	460b      	mov	r3, r1
 80016b0:	e9c4 23ea 	strd	r2, r3, [r4, #936]	; 0x3a8
 80016b4:	e9c4 23ec 	strd	r2, r3, [r4, #944]	; 0x3b0
 80016b8:	f006 fd0a 	bl	80080d0 <floor>
 80016bc:	4606      	mov	r6, r0
 80016be:	460f      	mov	r7, r1
 80016c0:	f002 f968 	bl	8003994 <rtIsNaN>
 80016c4:	b9d0      	cbnz	r0, 80016fc <FUNC_OutputData+0xb64>
 80016c6:	4630      	mov	r0, r6
 80016c8:	4639      	mov	r1, r7
 80016ca:	f002 f947 	bl	800395c <rtIsInf>
 80016ce:	b9a8      	cbnz	r0, 80016fc <FUNC_OutputData+0xb64>
 80016d0:	4630      	mov	r0, r6
 80016d2:	4639      	mov	r1, r7
 80016d4:	2200      	movs	r2, #0
 80016d6:	4b30      	ldr	r3, [pc, #192]	; (8001798 <FUNC_OutputData+0xc00>)
 80016d8:	f006 fd82 	bl	80081e0 <fmod>
 80016dc:	2200      	movs	r2, #0
 80016de:	2300      	movs	r3, #0
 80016e0:	4606      	mov	r6, r0
 80016e2:	460f      	mov	r7, r1
 80016e4:	4680      	mov	r8, r0
 80016e6:	4689      	mov	r9, r1
 80016e8:	f007 fb70 	bl	8008dcc <__aeabi_dcmplt>
 80016ec:	b150      	cbz	r0, 8001704 <FUNC_OutputData+0xb6c>
 80016ee:	4630      	mov	r0, r6
 80016f0:	f107 4100 	add.w	r1, r7, #2147483648	; 0x80000000
 80016f4:	f007 fb92 	bl	8008e1c <__aeabi_d2uiz>
 80016f8:	4240      	negs	r0, r0
 80016fa:	e007      	b.n	800170c <FUNC_OutputData+0xb74>
 80016fc:	f04f 0800 	mov.w	r8, #0
 8001700:	f04f 0900 	mov.w	r9, #0
 8001704:	4640      	mov	r0, r8
 8001706:	4649      	mov	r1, r9
 8001708:	f007 fb88 	bl	8008e1c <__aeabi_d2uiz>
 800170c:	4b24      	ldr	r3, [pc, #144]	; (80017a0 <FUNC_OutputData+0xc08>)
 800170e:	b2c0      	uxtb	r0, r0
 8001710:	f884 069c 	strb.w	r0, [r4, #1692]	; 0x69c
 8001714:	f885 010c 	strb.w	r0, [r5, #268]	; 0x10c
 8001718:	e9d3 0100 	ldrd	r0, r1, [r3]
 800171c:	a316      	add	r3, pc, #88	; (adr r3, 8001778 <FUNC_OutputData+0xbe0>)
 800171e:	e9d3 2300 	ldrd	r2, r3, [r3]
 8001722:	f007 f8e1 	bl	80088e8 <__aeabi_dmul>
 8001726:	4602      	mov	r2, r0
 8001728:	460b      	mov	r3, r1
 800172a:	e9c4 23ee 	strd	r2, r3, [r4, #952]	; 0x3b8
 800172e:	e9c4 23f0 	strd	r2, r3, [r4, #960]	; 0x3c0
 8001732:	f006 fccd 	bl	80080d0 <floor>
 8001736:	4606      	mov	r6, r0
 8001738:	460f      	mov	r7, r1
 800173a:	f002 f92b 	bl	8003994 <rtIsNaN>
 800173e:	bb88      	cbnz	r0, 80017a4 <FUNC_OutputData+0xc0c>
 8001740:	4630      	mov	r0, r6
 8001742:	4639      	mov	r1, r7
 8001744:	f002 f90a 	bl	800395c <rtIsInf>
 8001748:	bb60      	cbnz	r0, 80017a4 <FUNC_OutputData+0xc0c>
 800174a:	4630      	mov	r0, r6
 800174c:	4639      	mov	r1, r7
 800174e:	2200      	movs	r2, #0
 8001750:	4b11      	ldr	r3, [pc, #68]	; (8001798 <FUNC_OutputData+0xc00>)
 8001752:	f006 fd45 	bl	80081e0 <fmod>
 8001756:	2200      	movs	r2, #0
 8001758:	2300      	movs	r3, #0
 800175a:	4606      	mov	r6, r0
 800175c:	460f      	mov	r7, r1
 800175e:	4680      	mov	r8, r0
 8001760:	4689      	mov	r9, r1
 8001762:	f007 fb33 	bl	8008dcc <__aeabi_dcmplt>
 8001766:	b308      	cbz	r0, 80017ac <FUNC_OutputData+0xc14>
 8001768:	4630      	mov	r0, r6
 800176a:	f107 4100 	add.w	r1, r7, #2147483648	; 0x80000000
 800176e:	f007 fb55 	bl	8008e1c <__aeabi_d2uiz>
 8001772:	4240      	negs	r0, r0
 8001774:	e01e      	b.n	80017b4 <FUNC_OutputData+0xc1c>
 8001776:	bf00      	nop
 8001778:	cccccccd 	.word	0xcccccccd
 800177c:	3ff4cccc 	.word	0x3ff4cccc
 8001780:	20000e78 	.word	0x20000e78
 8001784:	40240000 	.word	0x40240000
 8001788:	40f00000 	.word	0x40f00000
 800178c:	20000e98 	.word	0x20000e98
 8001790:	20000eb8 	.word	0x20000eb8
 8001794:	20000dc0 	.word	0x20000dc0
 8001798:	40700000 	.word	0x40700000
 800179c:	20000dd8 	.word	0x20000dd8
 80017a0:	20000da8 	.word	0x20000da8
 80017a4:	f04f 0800 	mov.w	r8, #0
 80017a8:	f04f 0900 	mov.w	r9, #0
 80017ac:	4640      	mov	r0, r8
 80017ae:	4649      	mov	r1, r9
 80017b0:	f007 fb34 	bl	8008e1c <__aeabi_d2uiz>
 80017b4:	4ba6      	ldr	r3, [pc, #664]	; (8001a50 <FUNC_OutputData+0xeb8>)
 80017b6:	b2c0      	uxtb	r0, r0
 80017b8:	f884 069d 	strb.w	r0, [r4, #1693]	; 0x69d
 80017bc:	f885 010d 	strb.w	r0, [r5, #269]	; 0x10d
 80017c0:	2200      	movs	r2, #0
 80017c2:	e9d3 0100 	ldrd	r0, r1, [r3]
 80017c6:	4ba3      	ldr	r3, [pc, #652]	; (8001a54 <FUNC_OutputData+0xebc>)
 80017c8:	f007 f88e 	bl	80088e8 <__aeabi_dmul>
 80017cc:	4602      	mov	r2, r0
 80017ce:	460b      	mov	r3, r1
 80017d0:	e9c4 23f2 	strd	r2, r3, [r4, #968]	; 0x3c8
 80017d4:	e9c4 23f4 	strd	r2, r3, [r4, #976]	; 0x3d0
 80017d8:	f006 fc7a 	bl	80080d0 <floor>
 80017dc:	4606      	mov	r6, r0
 80017de:	460f      	mov	r7, r1
 80017e0:	f002 f8d8 	bl	8003994 <rtIsNaN>
 80017e4:	b9d0      	cbnz	r0, 800181c <FUNC_OutputData+0xc84>
 80017e6:	4630      	mov	r0, r6
 80017e8:	4639      	mov	r1, r7
 80017ea:	f002 f8b7 	bl	800395c <rtIsInf>
 80017ee:	b9a8      	cbnz	r0, 800181c <FUNC_OutputData+0xc84>
 80017f0:	4630      	mov	r0, r6
 80017f2:	4639      	mov	r1, r7
 80017f4:	2200      	movs	r2, #0
 80017f6:	4b98      	ldr	r3, [pc, #608]	; (8001a58 <FUNC_OutputData+0xec0>)
 80017f8:	f006 fcf2 	bl	80081e0 <fmod>
 80017fc:	2200      	movs	r2, #0
 80017fe:	2300      	movs	r3, #0
 8001800:	4606      	mov	r6, r0
 8001802:	460f      	mov	r7, r1
 8001804:	4680      	mov	r8, r0
 8001806:	4689      	mov	r9, r1
 8001808:	f007 fae0 	bl	8008dcc <__aeabi_dcmplt>
 800180c:	b150      	cbz	r0, 8001824 <FUNC_OutputData+0xc8c>
 800180e:	4630      	mov	r0, r6
 8001810:	f107 4100 	add.w	r1, r7, #2147483648	; 0x80000000
 8001814:	f007 fb02 	bl	8008e1c <__aeabi_d2uiz>
 8001818:	4240      	negs	r0, r0
 800181a:	e007      	b.n	800182c <FUNC_OutputData+0xc94>
 800181c:	f04f 0800 	mov.w	r8, #0
 8001820:	f04f 0900 	mov.w	r9, #0
 8001824:	4640      	mov	r0, r8
 8001826:	4649      	mov	r1, r9
 8001828:	f007 faf8 	bl	8008e1c <__aeabi_d2uiz>
 800182c:	4b8b      	ldr	r3, [pc, #556]	; (8001a5c <FUNC_OutputData+0xec4>)
 800182e:	b2c0      	uxtb	r0, r0
 8001830:	f884 069e 	strb.w	r0, [r4, #1694]	; 0x69e
 8001834:	f885 010e 	strb.w	r0, [r5, #270]	; 0x10e
 8001838:	2200      	movs	r2, #0
 800183a:	e9d3 0100 	ldrd	r0, r1, [r3]
 800183e:	4b85      	ldr	r3, [pc, #532]	; (8001a54 <FUNC_OutputData+0xebc>)
 8001840:	f007 f852 	bl	80088e8 <__aeabi_dmul>
 8001844:	4602      	mov	r2, r0
 8001846:	460b      	mov	r3, r1
 8001848:	e9c4 23f6 	strd	r2, r3, [r4, #984]	; 0x3d8
 800184c:	e9c4 23f8 	strd	r2, r3, [r4, #992]	; 0x3e0
 8001850:	f006 fc3e 	bl	80080d0 <floor>
 8001854:	4606      	mov	r6, r0
 8001856:	460f      	mov	r7, r1
 8001858:	f002 f89c 	bl	8003994 <rtIsNaN>
 800185c:	b9d0      	cbnz	r0, 8001894 <FUNC_OutputData+0xcfc>
 800185e:	4630      	mov	r0, r6
 8001860:	4639      	mov	r1, r7
 8001862:	f002 f87b 	bl	800395c <rtIsInf>
 8001866:	b9a8      	cbnz	r0, 8001894 <FUNC_OutputData+0xcfc>
 8001868:	4630      	mov	r0, r6
 800186a:	4639      	mov	r1, r7
 800186c:	2200      	movs	r2, #0
 800186e:	4b7a      	ldr	r3, [pc, #488]	; (8001a58 <FUNC_OutputData+0xec0>)
 8001870:	f006 fcb6 	bl	80081e0 <fmod>
 8001874:	2200      	movs	r2, #0
 8001876:	2300      	movs	r3, #0
 8001878:	4606      	mov	r6, r0
 800187a:	460f      	mov	r7, r1
 800187c:	4680      	mov	r8, r0
 800187e:	4689      	mov	r9, r1
 8001880:	f007 faa4 	bl	8008dcc <__aeabi_dcmplt>
 8001884:	b150      	cbz	r0, 800189c <FUNC_OutputData+0xd04>
 8001886:	4630      	mov	r0, r6
 8001888:	f107 4100 	add.w	r1, r7, #2147483648	; 0x80000000
 800188c:	f007 fac6 	bl	8008e1c <__aeabi_d2uiz>
 8001890:	4240      	negs	r0, r0
 8001892:	e007      	b.n	80018a4 <FUNC_OutputData+0xd0c>
 8001894:	f04f 0800 	mov.w	r8, #0
 8001898:	f04f 0900 	mov.w	r9, #0
 800189c:	4640      	mov	r0, r8
 800189e:	4649      	mov	r1, r9
 80018a0:	f007 fabc 	bl	8008e1c <__aeabi_d2uiz>
 80018a4:	b2c0      	uxtb	r0, r0
 80018a6:	f884 069f 	strb.w	r0, [r4, #1695]	; 0x69f
 80018aa:	f885 010f 	strb.w	r0, [r5, #271]	; 0x10f
 80018ae:	f8b4 066a 	ldrh.w	r0, [r4, #1642]	; 0x66a
 80018b2:	f44f 4320 	mov.w	r3, #40960	; 0xa000
 80018b6:	4358      	muls	r0, r3
 80018b8:	f8c4 0628 	str.w	r0, [r4, #1576]	; 0x628
 80018bc:	f006 ff9e 	bl	80087fc <__aeabi_ui2d>
 80018c0:	2200      	movs	r2, #0
 80018c2:	4b67      	ldr	r3, [pc, #412]	; (8001a60 <FUNC_OutputData+0xec8>)
 80018c4:	f007 f810 	bl	80088e8 <__aeabi_dmul>
 80018c8:	e9c4 01fa 	strd	r0, r1, [r4, #1000]	; 0x3e8
 80018cc:	f006 fc00 	bl	80080d0 <floor>
 80018d0:	4606      	mov	r6, r0
 80018d2:	460f      	mov	r7, r1
 80018d4:	f002 f85e 	bl	8003994 <rtIsNaN>
 80018d8:	b9d0      	cbnz	r0, 8001910 <FUNC_OutputData+0xd78>
 80018da:	4630      	mov	r0, r6
 80018dc:	4639      	mov	r1, r7
 80018de:	f002 f83d 	bl	800395c <rtIsInf>
 80018e2:	b9a8      	cbnz	r0, 8001910 <FUNC_OutputData+0xd78>
 80018e4:	4630      	mov	r0, r6
 80018e6:	4639      	mov	r1, r7
 80018e8:	2200      	movs	r2, #0
 80018ea:	4b5b      	ldr	r3, [pc, #364]	; (8001a58 <FUNC_OutputData+0xec0>)
 80018ec:	f006 fc78 	bl	80081e0 <fmod>
 80018f0:	2200      	movs	r2, #0
 80018f2:	2300      	movs	r3, #0
 80018f4:	4606      	mov	r6, r0
 80018f6:	460f      	mov	r7, r1
 80018f8:	4680      	mov	r8, r0
 80018fa:	4689      	mov	r9, r1
 80018fc:	f007 fa66 	bl	8008dcc <__aeabi_dcmplt>
 8001900:	b150      	cbz	r0, 8001918 <FUNC_OutputData+0xd80>
 8001902:	4630      	mov	r0, r6
 8001904:	f107 4100 	add.w	r1, r7, #2147483648	; 0x80000000
 8001908:	f007 fa88 	bl	8008e1c <__aeabi_d2uiz>
 800190c:	4240      	negs	r0, r0
 800190e:	e007      	b.n	8001920 <FUNC_OutputData+0xd88>
 8001910:	f04f 0800 	mov.w	r8, #0
 8001914:	f04f 0900 	mov.w	r9, #0
 8001918:	4640      	mov	r0, r8
 800191a:	4649      	mov	r1, r9
 800191c:	f007 fa7e 	bl	8008e1c <__aeabi_d2uiz>
 8001920:	4b50      	ldr	r3, [pc, #320]	; (8001a64 <FUNC_OutputData+0xecc>)
 8001922:	b2c0      	uxtb	r0, r0
 8001924:	f884 06a0 	strb.w	r0, [r4, #1696]	; 0x6a0
 8001928:	f885 0110 	strb.w	r0, [r5, #272]	; 0x110
 800192c:	2200      	movs	r2, #0
 800192e:	e9d3 0100 	ldrd	r0, r1, [r3]
 8001932:	4b48      	ldr	r3, [pc, #288]	; (8001a54 <FUNC_OutputData+0xebc>)
 8001934:	f006 ffd8 	bl	80088e8 <__aeabi_dmul>
 8001938:	4602      	mov	r2, r0
 800193a:	460b      	mov	r3, r1
 800193c:	e9c4 23fc 	strd	r2, r3, [r4, #1008]	; 0x3f0
 8001940:	e9c4 23fe 	strd	r2, r3, [r4, #1016]	; 0x3f8
 8001944:	f006 fbc4 	bl	80080d0 <floor>
 8001948:	4606      	mov	r6, r0
 800194a:	460f      	mov	r7, r1
 800194c:	f002 f822 	bl	8003994 <rtIsNaN>
 8001950:	b9d0      	cbnz	r0, 8001988 <FUNC_OutputData+0xdf0>
 8001952:	4630      	mov	r0, r6
 8001954:	4639      	mov	r1, r7
 8001956:	f002 f801 	bl	800395c <rtIsInf>
 800195a:	b9a8      	cbnz	r0, 8001988 <FUNC_OutputData+0xdf0>
 800195c:	4630      	mov	r0, r6
 800195e:	4639      	mov	r1, r7
 8001960:	2200      	movs	r2, #0
 8001962:	4b3d      	ldr	r3, [pc, #244]	; (8001a58 <FUNC_OutputData+0xec0>)
 8001964:	f006 fc3c 	bl	80081e0 <fmod>
 8001968:	2200      	movs	r2, #0
 800196a:	2300      	movs	r3, #0
 800196c:	4606      	mov	r6, r0
 800196e:	460f      	mov	r7, r1
 8001970:	4680      	mov	r8, r0
 8001972:	4689      	mov	r9, r1
 8001974:	f007 fa2a 	bl	8008dcc <__aeabi_dcmplt>
 8001978:	b150      	cbz	r0, 8001990 <FUNC_OutputData+0xdf8>
 800197a:	4630      	mov	r0, r6
 800197c:	f107 4100 	add.w	r1, r7, #2147483648	; 0x80000000
 8001980:	f007 fa4c 	bl	8008e1c <__aeabi_d2uiz>
 8001984:	4240      	negs	r0, r0
 8001986:	e007      	b.n	8001998 <FUNC_OutputData+0xe00>
 8001988:	f04f 0800 	mov.w	r8, #0
 800198c:	f04f 0900 	mov.w	r9, #0
 8001990:	4640      	mov	r0, r8
 8001992:	4649      	mov	r1, r9
 8001994:	f007 fa42 	bl	8008e1c <__aeabi_d2uiz>
 8001998:	e9d4 6796 	ldrd	r6, r7, [r4, #600]	; 0x258
 800199c:	4b32      	ldr	r3, [pc, #200]	; (8001a68 <FUNC_OutputData+0xed0>)
 800199e:	f8df b0d4 	ldr.w	fp, [pc, #212]	; 8001a74 <FUNC_OutputData+0xedc>
 80019a2:	e9c3 6700 	strd	r6, r7, [r3]
 80019a6:	e9db 2302 	ldrd	r2, r3, [fp, #8]
 80019aa:	b2c0      	uxtb	r0, r0
 80019ac:	e9c5 230a 	strd	r2, r3, [r5, #40]	; 0x28
 80019b0:	f884 06a1 	strb.w	r0, [r4, #1697]	; 0x6a1
 80019b4:	f885 0111 	strb.w	r0, [r5, #273]	; 0x111
 80019b8:	e9c5 6708 	strd	r6, r7, [r5, #32]
 80019bc:	e9d4 0100 	ldrd	r0, r1, [r4]
 80019c0:	2200      	movs	r2, #0
 80019c2:	2300      	movs	r3, #0
 80019c4:	f04f 0801 	mov.w	r8, #1
 80019c8:	f007 fa1e 	bl	8008e08 <__aeabi_dcmpgt>
 80019cc:	b900      	cbnz	r0, 80019d0 <FUNC_OutputData+0xe38>
 80019ce:	4680      	mov	r8, r0
 80019d0:	f884 8779 	strb.w	r8, [r4, #1913]	; 0x779
 80019d4:	f885 8146 	strb.w	r8, [r5, #326]	; 0x146
 80019d8:	e9d4 0104 	ldrd	r0, r1, [r4, #16]
 80019dc:	2200      	movs	r2, #0
 80019de:	2300      	movs	r3, #0
 80019e0:	f04f 0801 	mov.w	r8, #1
 80019e4:	f007 fa10 	bl	8008e08 <__aeabi_dcmpgt>
 80019e8:	b900      	cbnz	r0, 80019ec <FUNC_OutputData+0xe54>
 80019ea:	4680      	mov	r8, r0
 80019ec:	4c1f      	ldr	r4, [pc, #124]	; (8001a6c <FUNC_OutputData+0xed4>)
 80019ee:	f885 8147 	strb.w	r8, [r5, #327]	; 0x147
 80019f2:	4630      	mov	r0, r6
 80019f4:	4639      	mov	r1, r7
 80019f6:	a314      	add	r3, pc, #80	; (adr r3, 8001a48 <FUNC_OutputData+0xeb0>)
 80019f8:	e9d3 2300 	ldrd	r2, r3, [r3]
 80019fc:	f884 877a 	strb.w	r8, [r4, #1914]	; 0x77a
 8001a00:	f006 ff72 	bl	80088e8 <__aeabi_dmul>
 8001a04:	f006 fb64 	bl	80080d0 <floor>
 8001a08:	4606      	mov	r6, r0
 8001a0a:	460f      	mov	r7, r1
 8001a0c:	f001 ffc2 	bl	8003994 <rtIsNaN>
 8001a10:	bb90      	cbnz	r0, 8001a78 <FUNC_OutputData+0xee0>
 8001a12:	4630      	mov	r0, r6
 8001a14:	4639      	mov	r1, r7
 8001a16:	f001 ffa1 	bl	800395c <rtIsInf>
 8001a1a:	bb68      	cbnz	r0, 8001a78 <FUNC_OutputData+0xee0>
 8001a1c:	4630      	mov	r0, r6
 8001a1e:	4639      	mov	r1, r7
 8001a20:	2200      	movs	r2, #0
 8001a22:	4b13      	ldr	r3, [pc, #76]	; (8001a70 <FUNC_OutputData+0xed8>)
 8001a24:	f006 fbdc 	bl	80081e0 <fmod>
 8001a28:	2200      	movs	r2, #0
 8001a2a:	2300      	movs	r3, #0
 8001a2c:	4606      	mov	r6, r0
 8001a2e:	460f      	mov	r7, r1
 8001a30:	4680      	mov	r8, r0
 8001a32:	4689      	mov	r9, r1
 8001a34:	f007 f9ca 	bl	8008dcc <__aeabi_dcmplt>
 8001a38:	b310      	cbz	r0, 8001a80 <FUNC_OutputData+0xee8>
 8001a3a:	4630      	mov	r0, r6
 8001a3c:	f107 4100 	add.w	r1, r7, #2147483648	; 0x80000000
 8001a40:	f007 f9ec 	bl	8008e1c <__aeabi_d2uiz>
 8001a44:	4240      	negs	r0, r0
 8001a46:	e01f      	b.n	8001a88 <FUNC_OutputData+0xef0>
 8001a48:	00000000 	.word	0x00000000
 8001a4c:	40efffe0 	.word	0x40efffe0
 8001a50:	20000df8 	.word	0x20000df8
 8001a54:	40240000 	.word	0x40240000
 8001a58:	40700000 	.word	0x40700000
 8001a5c:	20000d70 	.word	0x20000d70
 8001a60:	3e700000 	.word	0x3e700000
 8001a64:	20000e38 	.word	0x20000e38
 8001a68:	20000ca0 	.word	0x20000ca0
 8001a6c:	200008a0 	.word	0x200008a0
 8001a70:	40f00000 	.word	0x40f00000
 8001a74:	08009050 	.word	0x08009050
 8001a78:	f04f 0800 	mov.w	r8, #0
 8001a7c:	f04f 0900 	mov.w	r9, #0
 8001a80:	4640      	mov	r0, r8
 8001a82:	4649      	mov	r1, r9
 8001a84:	f007 f9ca 	bl	8008e1c <__aeabi_d2uiz>
 8001a88:	4d91      	ldr	r5, [pc, #580]	; (8001cd0 <FUNC_OutputData+0x1138>)
 8001a8a:	b280      	uxth	r0, r0
 8001a8c:	f8a4 0652 	strh.w	r0, [r4, #1618]	; 0x652
 8001a90:	f8a5 00b2 	strh.w	r0, [r5, #178]	; 0xb2
 8001a94:	2200      	movs	r2, #0
 8001a96:	e9d4 0106 	ldrd	r0, r1, [r4, #24]
 8001a9a:	2300      	movs	r3, #0
 8001a9c:	f04f 0601 	mov.w	r6, #1
 8001aa0:	f007 f9b2 	bl	8008e08 <__aeabi_dcmpgt>
 8001aa4:	b900      	cbnz	r0, 8001aa8 <FUNC_OutputData+0xf10>
 8001aa6:	4606      	mov	r6, r0
 8001aa8:	f884 677b 	strb.w	r6, [r4, #1915]	; 0x77b
 8001aac:	f885 6149 	strb.w	r6, [r5, #329]	; 0x149
 8001ab0:	e9d4 0108 	ldrd	r0, r1, [r4, #32]
 8001ab4:	2200      	movs	r2, #0
 8001ab6:	2300      	movs	r3, #0
 8001ab8:	f04f 0601 	mov.w	r6, #1
 8001abc:	f007 f9a4 	bl	8008e08 <__aeabi_dcmpgt>
 8001ac0:	b900      	cbnz	r0, 8001ac4 <FUNC_OutputData+0xf2c>
 8001ac2:	4606      	mov	r6, r0
 8001ac4:	f884 677c 	strb.w	r6, [r4, #1916]	; 0x77c
 8001ac8:	f885 614a 	strb.w	r6, [r5, #330]	; 0x14a
 8001acc:	e9d4 010a 	ldrd	r0, r1, [r4, #40]	; 0x28
 8001ad0:	2200      	movs	r2, #0
 8001ad2:	2300      	movs	r3, #0
 8001ad4:	f04f 0601 	mov.w	r6, #1
 8001ad8:	f007 f996 	bl	8008e08 <__aeabi_dcmpgt>
 8001adc:	b900      	cbnz	r0, 8001ae0 <FUNC_OutputData+0xf48>
 8001ade:	4606      	mov	r6, r0
 8001ae0:	f884 677d 	strb.w	r6, [r4, #1917]	; 0x77d
 8001ae4:	f885 614b 	strb.w	r6, [r5, #331]	; 0x14b
 8001ae8:	e9d4 670c 	ldrd	r6, r7, [r4, #48]	; 0x30
 8001aec:	f8df 91e8 	ldr.w	r9, [pc, #488]	; 8001cd8 <FUNC_OutputData+0x1140>
 8001af0:	f8df a1e8 	ldr.w	sl, [pc, #488]	; 8001cdc <FUNC_OutputData+0x1144>
 8001af4:	f04f 0800 	mov.w	r8, #0
 8001af8:	4630      	mov	r0, r6
 8001afa:	4639      	mov	r1, r7
 8001afc:	4642      	mov	r2, r8
 8001afe:	464b      	mov	r3, r9
 8001b00:	f007 f982 	bl	8008e08 <__aeabi_dcmpgt>
 8001b04:	b950      	cbnz	r0, 8001b1c <FUNC_OutputData+0xf84>
 8001b06:	f04f 0800 	mov.w	r8, #0
 8001b0a:	f04f 0900 	mov.w	r9, #0
 8001b0e:	4630      	mov	r0, r6
 8001b10:	4639      	mov	r1, r7
 8001b12:	4642      	mov	r2, r8
 8001b14:	464b      	mov	r3, r9
 8001b16:	f007 f959 	bl	8008dcc <__aeabi_dcmplt>
 8001b1a:	b110      	cbz	r0, 8001b22 <FUNC_OutputData+0xf8a>
 8001b1c:	e9ca 8900 	strd	r8, r9, [sl]
 8001b20:	e001      	b.n	8001b26 <FUNC_OutputData+0xf8e>
 8001b22:	e9ca 6700 	strd	r6, r7, [sl]
 8001b26:	a368      	add	r3, pc, #416	; (adr r3, 8001cc8 <FUNC_OutputData+0x1130>)
 8001b28:	e9d3 2300 	ldrd	r2, r3, [r3]
 8001b2c:	e9da 0100 	ldrd	r0, r1, [sl]
 8001b30:	f006 feda 	bl	80088e8 <__aeabi_dmul>
 8001b34:	f006 facc 	bl	80080d0 <floor>
 8001b38:	4606      	mov	r6, r0
 8001b3a:	460f      	mov	r7, r1
 8001b3c:	f001 ff2a 	bl	8003994 <rtIsNaN>
 8001b40:	b9d0      	cbnz	r0, 8001b78 <FUNC_OutputData+0xfe0>
 8001b42:	4630      	mov	r0, r6
 8001b44:	4639      	mov	r1, r7
 8001b46:	f001 ff09 	bl	800395c <rtIsInf>
 8001b4a:	b9a8      	cbnz	r0, 8001b78 <FUNC_OutputData+0xfe0>
 8001b4c:	4630      	mov	r0, r6
 8001b4e:	4639      	mov	r1, r7
 8001b50:	2200      	movs	r2, #0
 8001b52:	4b60      	ldr	r3, [pc, #384]	; (8001cd4 <FUNC_OutputData+0x113c>)
 8001b54:	f006 fb44 	bl	80081e0 <fmod>
 8001b58:	2200      	movs	r2, #0
 8001b5a:	2300      	movs	r3, #0
 8001b5c:	4606      	mov	r6, r0
 8001b5e:	460f      	mov	r7, r1
 8001b60:	4680      	mov	r8, r0
 8001b62:	4689      	mov	r9, r1
 8001b64:	f007 f932 	bl	8008dcc <__aeabi_dcmplt>
 8001b68:	b150      	cbz	r0, 8001b80 <FUNC_OutputData+0xfe8>
 8001b6a:	4630      	mov	r0, r6
 8001b6c:	f107 4100 	add.w	r1, r7, #2147483648	; 0x80000000
 8001b70:	f007 f954 	bl	8008e1c <__aeabi_d2uiz>
 8001b74:	4240      	negs	r0, r0
 8001b76:	e007      	b.n	8001b88 <FUNC_OutputData+0xff0>
 8001b78:	f04f 0800 	mov.w	r8, #0
 8001b7c:	f04f 0900 	mov.w	r9, #0
 8001b80:	4640      	mov	r0, r8
 8001b82:	4649      	mov	r1, r9
 8001b84:	f007 f94a 	bl	8008e1c <__aeabi_d2uiz>
 8001b88:	e9d4 670e 	ldrd	r6, r7, [r4, #56]	; 0x38
 8001b8c:	f8df 9148 	ldr.w	r9, [pc, #328]	; 8001cd8 <FUNC_OutputData+0x1140>
 8001b90:	f8df a14c 	ldr.w	sl, [pc, #332]	; 8001ce0 <FUNC_OutputData+0x1148>
 8001b94:	b280      	uxth	r0, r0
 8001b96:	f04f 0800 	mov.w	r8, #0
 8001b9a:	f8a4 0654 	strh.w	r0, [r4, #1620]	; 0x654
 8001b9e:	f8a5 00b4 	strh.w	r0, [r5, #180]	; 0xb4
 8001ba2:	4639      	mov	r1, r7
 8001ba4:	4630      	mov	r0, r6
 8001ba6:	4642      	mov	r2, r8
 8001ba8:	464b      	mov	r3, r9
 8001baa:	f007 f92d 	bl	8008e08 <__aeabi_dcmpgt>
 8001bae:	b950      	cbnz	r0, 8001bc6 <FUNC_OutputData+0x102e>
 8001bb0:	f04f 0800 	mov.w	r8, #0
 8001bb4:	f04f 0900 	mov.w	r9, #0
 8001bb8:	4630      	mov	r0, r6
 8001bba:	4639      	mov	r1, r7
 8001bbc:	4642      	mov	r2, r8
 8001bbe:	464b      	mov	r3, r9
 8001bc0:	f007 f904 	bl	8008dcc <__aeabi_dcmplt>
 8001bc4:	b110      	cbz	r0, 8001bcc <FUNC_OutputData+0x1034>
 8001bc6:	e9ca 8900 	strd	r8, r9, [sl]
 8001bca:	e001      	b.n	8001bd0 <FUNC_OutputData+0x1038>
 8001bcc:	e9ca 6700 	strd	r6, r7, [sl]
 8001bd0:	a33d      	add	r3, pc, #244	; (adr r3, 8001cc8 <FUNC_OutputData+0x1130>)
 8001bd2:	e9d3 2300 	ldrd	r2, r3, [r3]
 8001bd6:	e9da 0100 	ldrd	r0, r1, [sl]
 8001bda:	f006 fe85 	bl	80088e8 <__aeabi_dmul>
 8001bde:	f006 fa77 	bl	80080d0 <floor>
 8001be2:	4606      	mov	r6, r0
 8001be4:	460f      	mov	r7, r1
 8001be6:	f001 fed5 	bl	8003994 <rtIsNaN>
 8001bea:	b9d0      	cbnz	r0, 8001c22 <FUNC_OutputData+0x108a>
 8001bec:	4630      	mov	r0, r6
 8001bee:	4639      	mov	r1, r7
 8001bf0:	f001 feb4 	bl	800395c <rtIsInf>
 8001bf4:	b9a8      	cbnz	r0, 8001c22 <FUNC_OutputData+0x108a>
 8001bf6:	4630      	mov	r0, r6
 8001bf8:	4639      	mov	r1, r7
 8001bfa:	2200      	movs	r2, #0
 8001bfc:	4b35      	ldr	r3, [pc, #212]	; (8001cd4 <FUNC_OutputData+0x113c>)
 8001bfe:	f006 faef 	bl	80081e0 <fmod>
 8001c02:	2200      	movs	r2, #0
 8001c04:	2300      	movs	r3, #0
 8001c06:	4606      	mov	r6, r0
 8001c08:	460f      	mov	r7, r1
 8001c0a:	4680      	mov	r8, r0
 8001c0c:	4689      	mov	r9, r1
 8001c0e:	f007 f8dd 	bl	8008dcc <__aeabi_dcmplt>
 8001c12:	b150      	cbz	r0, 8001c2a <FUNC_OutputData+0x1092>
 8001c14:	4630      	mov	r0, r6
 8001c16:	f107 4100 	add.w	r1, r7, #2147483648	; 0x80000000
 8001c1a:	f007 f8ff 	bl	8008e1c <__aeabi_d2uiz>
 8001c1e:	4240      	negs	r0, r0
 8001c20:	e007      	b.n	8001c32 <FUNC_OutputData+0x109a>
 8001c22:	f04f 0800 	mov.w	r8, #0
 8001c26:	f04f 0900 	mov.w	r9, #0
 8001c2a:	4640      	mov	r0, r8
 8001c2c:	4649      	mov	r1, r9
 8001c2e:	f007 f8f5 	bl	8008e1c <__aeabi_d2uiz>
 8001c32:	b280      	uxth	r0, r0
 8001c34:	f8bb 3010 	ldrh.w	r3, [fp, #16]
 8001c38:	f8a4 0656 	strh.w	r0, [r4, #1622]	; 0x656
 8001c3c:	f8a5 00b6 	strh.w	r0, [r5, #182]	; 0xb6
 8001c40:	f8a5 30b8 	strh.w	r3, [r5, #184]	; 0xb8
 8001c44:	e9d4 0196 	ldrd	r0, r1, [r4, #600]	; 0x258
 8001c48:	a31f      	add	r3, pc, #124	; (adr r3, 8001cc8 <FUNC_OutputData+0x1130>)
 8001c4a:	e9d3 2300 	ldrd	r2, r3, [r3]
 8001c4e:	f006 fe4b 	bl	80088e8 <__aeabi_dmul>
 8001c52:	f006 fa3d 	bl	80080d0 <floor>
 8001c56:	4606      	mov	r6, r0
 8001c58:	460f      	mov	r7, r1
 8001c5a:	f001 fe9b 	bl	8003994 <rtIsNaN>
 8001c5e:	b9d0      	cbnz	r0, 8001c96 <FUNC_OutputData+0x10fe>
 8001c60:	4630      	mov	r0, r6
 8001c62:	4639      	mov	r1, r7
 8001c64:	f001 fe7a 	bl	800395c <rtIsInf>
 8001c68:	b9a8      	cbnz	r0, 8001c96 <FUNC_OutputData+0x10fe>
 8001c6a:	4630      	mov	r0, r6
 8001c6c:	4639      	mov	r1, r7
 8001c6e:	2200      	movs	r2, #0
 8001c70:	4b18      	ldr	r3, [pc, #96]	; (8001cd4 <FUNC_OutputData+0x113c>)
 8001c72:	f006 fab5 	bl	80081e0 <fmod>
 8001c76:	2200      	movs	r2, #0
 8001c78:	2300      	movs	r3, #0
 8001c7a:	4606      	mov	r6, r0
 8001c7c:	460f      	mov	r7, r1
 8001c7e:	4680      	mov	r8, r0
 8001c80:	4689      	mov	r9, r1
 8001c82:	f007 f8a3 	bl	8008dcc <__aeabi_dcmplt>
 8001c86:	b150      	cbz	r0, 8001c9e <FUNC_OutputData+0x1106>
 8001c88:	4630      	mov	r0, r6
 8001c8a:	f107 4100 	add.w	r1, r7, #2147483648	; 0x80000000
 8001c8e:	f007 f8c5 	bl	8008e1c <__aeabi_d2uiz>
 8001c92:	4240      	negs	r0, r0
 8001c94:	e007      	b.n	8001ca6 <FUNC_OutputData+0x110e>
 8001c96:	f04f 0800 	mov.w	r8, #0
 8001c9a:	f04f 0900 	mov.w	r9, #0
 8001c9e:	4640      	mov	r0, r8
 8001ca0:	4649      	mov	r1, r9
 8001ca2:	f007 f8bb 	bl	8008e1c <__aeabi_d2uiz>
 8001ca6:	f894 3777 	ldrb.w	r3, [r4, #1911]	; 0x777
 8001caa:	f885 3148 	strb.w	r3, [r5, #328]	; 0x148
 8001cae:	f894 3782 	ldrb.w	r3, [r4, #1922]	; 0x782
 8001cb2:	f885 314c 	strb.w	r3, [r5, #332]	; 0x14c
 8001cb6:	b280      	uxth	r0, r0
 8001cb8:	f8a4 0658 	strh.w	r0, [r4, #1624]	; 0x658
 8001cbc:	f8a5 00ba 	strh.w	r0, [r5, #186]	; 0xba
 8001cc0:	e8bd 8ff8 	ldmia.w	sp!, {r3, r4, r5, r6, r7, r8, r9, sl, fp, pc}
 8001cc4:	f3af 8000 	nop.w
 8001cc8:	00000000 	.word	0x00000000
 8001ccc:	40efffe0 	.word	0x40efffe0
 8001cd0:	20001030 	.word	0x20001030
 8001cd4:	40f00000 	.word	0x40f00000
 8001cd8:	3ff00000 	.word	0x3ff00000
 8001cdc:	20000ca8 	.word	0x20000ca8
 8001ce0:	20000cb0 	.word	0x20000cb0
 8001ce4:	f3af 8000 	nop.w

08001ce8 <FUNC_PumpAndFans>:
 8001ce8:	e92d 43f0 	stmdb	sp!, {r4, r5, r6, r7, r8, r9, lr}
 8001cec:	4c2e      	ldr	r4, [pc, #184]	; (8001da8 <FUNC_PumpAndFans+0xc0>)
 8001cee:	f894 377e 	ldrb.w	r3, [r4, #1918]	; 0x77e
 8001cf2:	b087      	sub	sp, #28
 8001cf4:	b113      	cbz	r3, 8001cfc <FUNC_PumpAndFans+0x14>
 8001cf6:	2200      	movs	r2, #0
 8001cf8:	4b2c      	ldr	r3, [pc, #176]	; (8001dac <FUNC_PumpAndFans+0xc4>)
 8001cfa:	e02c      	b.n	8001d56 <FUNC_PumpAndFans+0x6e>
 8001cfc:	f504 6396 	add.w	r3, r4, #1200	; 0x4b0
 8001d00:	e9d3 0100 	ldrd	r0, r1, [r3]
 8001d04:	2200      	movs	r2, #0
 8001d06:	4b29      	ldr	r3, [pc, #164]	; (8001dac <FUNC_PumpAndFans+0xc4>)
 8001d08:	f007 f874 	bl	8008df4 <__aeabi_dcmpge>
 8001d0c:	b130      	cbz	r0, 8001d1c <FUNC_PumpAndFans+0x34>
 8001d0e:	f504 6395 	add.w	r3, r4, #1192	; 0x4a8
 8001d12:	e9d3 2300 	ldrd	r2, r3, [r3]
 8001d16:	e9c4 2398 	strd	r2, r3, [r4, #608]	; 0x260
 8001d1a:	e01a      	b.n	8001d52 <FUNC_PumpAndFans+0x6a>
 8001d1c:	4b24      	ldr	r3, [pc, #144]	; (8001db0 <FUNC_PumpAndFans+0xc8>)
 8001d1e:	9300      	str	r3, [sp, #0]
 8001d20:	f103 0038 	add.w	r0, r3, #56	; 0x38
 8001d24:	9001      	str	r0, [sp, #4]
 8001d26:	f1a3 00a8 	sub.w	r0, r3, #168	; 0xa8
 8001d2a:	f503 73a0 	add.w	r3, r3, #320	; 0x140
 8001d2e:	9303      	str	r3, [sp, #12]
 8001d30:	2307      	movs	r3, #7
 8001d32:	9002      	str	r0, [sp, #8]
 8001d34:	9304      	str	r3, [sp, #16]
 8001d36:	f504 6192 	add.w	r1, r4, #1168	; 0x490
 8001d3a:	f504 628c 	add.w	r2, r4, #1120	; 0x460
 8001d3e:	e9d1 0100 	ldrd	r0, r1, [r1]
 8001d42:	e9d2 2300 	ldrd	r2, r3, [r2]
 8001d46:	f001 fc70 	bl	800362a <look2_binlxpw>
 8001d4a:	e9c4 019a 	strd	r0, r1, [r4, #616]	; 0x268
 8001d4e:	e9c4 0198 	strd	r0, r1, [r4, #608]	; 0x260
 8001d52:	e9d4 2398 	ldrd	r2, r3, [r4, #608]	; 0x260
 8001d56:	e9c4 2394 	strd	r2, r3, [r4, #592]	; 0x250
 8001d5a:	f20f 0944 	addw	r9, pc, #68	; 0x44
 8001d5e:	e9d9 8900 	ldrd	r8, r9, [r9]
 8001d62:	e9d4 6794 	ldrd	r6, r7, [r4, #592]	; 0x250
 8001d66:	4642      	mov	r2, r8
 8001d68:	4630      	mov	r0, r6
 8001d6a:	4639      	mov	r1, r7
 8001d6c:	464b      	mov	r3, r9
 8001d6e:	4d0e      	ldr	r5, [pc, #56]	; (8001da8 <FUNC_PumpAndFans+0xc0>)
 8001d70:	f007 f84a 	bl	8008e08 <__aeabi_dcmpgt>
 8001d74:	b950      	cbnz	r0, 8001d8c <FUNC_PumpAndFans+0xa4>
 8001d76:	f04f 0800 	mov.w	r8, #0
 8001d7a:	f04f 0900 	mov.w	r9, #0
 8001d7e:	4630      	mov	r0, r6
 8001d80:	4639      	mov	r1, r7
 8001d82:	4642      	mov	r2, r8
 8001d84:	464b      	mov	r3, r9
 8001d86:	f007 f821 	bl	8008dcc <__aeabi_dcmplt>
 8001d8a:	b110      	cbz	r0, 8001d92 <FUNC_PumpAndFans+0xaa>
 8001d8c:	e9c5 8996 	strd	r8, r9, [r5, #600]	; 0x258
 8001d90:	e001      	b.n	8001d96 <FUNC_PumpAndFans+0xae>
 8001d92:	e9c5 6796 	strd	r6, r7, [r5, #600]	; 0x258
 8001d96:	b007      	add	sp, #28
 8001d98:	e8bd 83f0 	ldmia.w	sp!, {r4, r5, r6, r7, r8, r9, pc}
 8001d9c:	f3af 8000 	nop.w
 8001da0:	48e8a71e 	.word	0x48e8a71e
 8001da4:	3fefff2e 	.word	0x3fefff2e
 8001da8:	200008a0 	.word	0x200008a0
 8001dac:	3ff00000 	.word	0x3ff00000
 8001db0:	08009250 	.word	0x08009250
 8001db4:	f3af 8000 	nop.w

08001db8 <FUNC_Safety>:
 8001db8:	b538      	push	{r3, r4, r5, lr}
 8001dba:	4c11      	ldr	r4, [pc, #68]	; (8001e00 <FUNC_Safety+0x48>)
 8001dbc:	f894 36b7 	ldrb.w	r3, [r4, #1719]	; 0x6b7
 8001dc0:	1e9a      	subs	r2, r3, #2
 8001dc2:	4253      	negs	r3, r2
 8001dc4:	4153      	adcs	r3, r2
 8001dc6:	f884 3775 	strb.w	r3, [r4, #1909]	; 0x775
 8001dca:	f504 63b1 	add.w	r3, r4, #1416	; 0x588
 8001dce:	e9d3 0100 	ldrd	r0, r1, [r3]
 8001dd2:	2200      	movs	r2, #0
 8001dd4:	4b0b      	ldr	r3, [pc, #44]	; (8001e04 <FUNC_Safety+0x4c>)
 8001dd6:	f007 f817 	bl	8008e08 <__aeabi_dcmpgt>
 8001dda:	f04f 0501 	mov.w	r5, #1
 8001dde:	4622      	mov	r2, r4
 8001de0:	b900      	cbnz	r0, 8001de4 <FUNC_Safety+0x2c>
 8001de2:	4605      	mov	r5, r0
 8001de4:	f884 5776 	strb.w	r5, [r4, #1910]	; 0x776
 8001de8:	f8d2 3774 	ldr.w	r3, [r2, #1908]	; 0x774
 8001dec:	f023 437f 	bic.w	r3, r3, #4278190080	; 0xff000000
 8001df0:	f023 03ff 	bic.w	r3, r3, #255	; 0xff
 8001df4:	3300      	adds	r3, #0
 8001df6:	bf18      	it	ne
 8001df8:	2301      	movne	r3, #1
 8001dfa:	f882 3777 	strb.w	r3, [r2, #1911]	; 0x777
 8001dfe:	bd38      	pop	{r3, r4, r5, pc}
 8001e00:	200008a0 	.word	0x200008a0
 8001e04:	40690000 	.word	0x40690000

08001e08 <FUNC_Transmission_Init>:
 8001e08:	4b07      	ldr	r3, [pc, #28]	; (8001e28 <FUNC_Transmission_Init+0x20>)
 8001e0a:	2200      	movs	r2, #0
 8001e0c:	f883 20fc 	strb.w	r2, [r3, #252]	; 0xfc
 8001e10:	f8a3 209e 	strh.w	r2, [r3, #158]	; 0x9e
 8001e14:	f883 20fd 	strb.w	r2, [r3, #253]	; 0xfd
 8001e18:	f883 20fa 	strb.w	r2, [r3, #250]	; 0xfa
 8001e1c:	f8a3 209c 	strh.w	r2, [r3, #156]	; 0x9c
 8001e20:	f883 20fb 	strb.w	r2, [r3, #251]	; 0xfb
 8001e24:	4770      	bx	lr
 8001e26:	bf00      	nop
 8001e28:	20001030 	.word	0x20001030
 8001e2c:	00000000 	.word	0x00000000

08001e30 <FUNC_Transmission>:
 8001e30:	e92d 4ff0 	stmdb	sp!, {r4, r5, r6, r7, r8, r9, sl, fp, lr}
 8001e34:	ed2d 8b02 	vpush	{d8}
 8001e38:	4b12      	ldr	r3, [pc, #72]	; (8001e84 <FUNC_Transmission+0x54>)
 8001e3a:	b089      	sub	sp, #36	; 0x24
 8001e3c:	e9d3 0100 	ldrd	r0, r1, [r3]
 8001e40:	f006 f946 	bl	80080d0 <floor>
 8001e44:	4604      	mov	r4, r0
 8001e46:	460d      	mov	r5, r1
 8001e48:	f001 fda4 	bl	8003994 <rtIsNaN>
 8001e4c:	b9f0      	cbnz	r0, 8001e8c <FUNC_Transmission+0x5c>
 8001e4e:	4620      	mov	r0, r4
 8001e50:	4629      	mov	r1, r5
 8001e52:	f001 fd83 	bl	800395c <rtIsInf>
 8001e56:	b9c8      	cbnz	r0, 8001e8c <FUNC_Transmission+0x5c>
 8001e58:	4620      	mov	r0, r4
 8001e5a:	4629      	mov	r1, r5
 8001e5c:	2200      	movs	r2, #0
 8001e5e:	4b0a      	ldr	r3, [pc, #40]	; (8001e88 <FUNC_Transmission+0x58>)
 8001e60:	f006 f9be 	bl	80081e0 <fmod>
 8001e64:	2200      	movs	r2, #0
 8001e66:	2300      	movs	r3, #0
 8001e68:	4604      	mov	r4, r0
 8001e6a:	460d      	mov	r5, r1
 8001e6c:	4606      	mov	r6, r0
 8001e6e:	460f      	mov	r7, r1
 8001e70:	f006 ffac 	bl	8008dcc <__aeabi_dcmplt>
 8001e74:	b160      	cbz	r0, 8001e90 <FUNC_Transmission+0x60>
 8001e76:	4620      	mov	r0, r4
 8001e78:	f105 4100 	add.w	r1, r5, #2147483648	; 0x80000000
 8001e7c:	f006 ffce 	bl	8008e1c <__aeabi_d2uiz>
 8001e80:	4240      	negs	r0, r0
 8001e82:	e009      	b.n	8001e98 <FUNC_Transmission+0x68>
 8001e84:	20000d90 	.word	0x20000d90
 8001e88:	40700000 	.word	0x40700000
 8001e8c:	2600      	movs	r6, #0
 8001e8e:	2700      	movs	r7, #0
 8001e90:	4630      	mov	r0, r6
 8001e92:	4639      	mov	r1, r7
 8001e94:	f006 ffc2 	bl	8008e1c <__aeabi_d2uiz>
 8001e98:	b2c0      	uxtb	r0, r0
 8001e9a:	4ec3      	ldr	r6, [pc, #780]	; (80021a8 <FUNC_Transmission+0x378>)
 8001e9c:	f1a0 0903 	sub.w	r9, r0, #3
 8001ea0:	f886 06c8 	strb.w	r0, [r6, #1736]	; 0x6c8
 8001ea4:	f1d9 0000 	rsbs	r0, r9, #0
 8001ea8:	eb40 0009 	adc.w	r0, r0, r9
 8001eac:	f886 06c9 	strb.w	r0, [r6, #1737]	; 0x6c9
 8001eb0:	4634      	mov	r4, r6
 8001eb2:	2800      	cmp	r0, #0
 8001eb4:	f000 8496 	beq.w	80027e4 <FUNC_Transmission+0x9b4>
 8001eb8:	4dbc      	ldr	r5, [pc, #752]	; (80021ac <FUNC_Transmission+0x37c>)
 8001eba:	f896 977f 	ldrb.w	r9, [r6, #1919]	; 0x77f
 8001ebe:	f895 213d 	ldrb.w	r2, [r5, #317]	; 0x13d
 8001ec2:	f895 813e 	ldrb.w	r8, [r5, #318]	; 0x13e
 8001ec6:	f886 2721 	strb.w	r2, [r6, #1825]	; 0x721
 8001eca:	4591      	cmp	r9, r2
 8001ecc:	bf94      	ite	ls
 8001ece:	2700      	movls	r7, #0
 8001ed0:	2701      	movhi	r7, #1
 8001ed2:	f506 63b1 	add.w	r3, r6, #1416	; 0x588
 8001ed6:	fab9 f989 	clz	r9, r9
 8001eda:	ea4f 1959 	mov.w	r9, r9, lsr #5
 8001ede:	e9d3 0100 	ldrd	r0, r1, [r3]
 8001ee2:	f886 7722 	strb.w	r7, [r6, #1826]	; 0x722
 8001ee6:	f886 9723 	strb.w	r9, [r6, #1827]	; 0x723
 8001eea:	f886 8724 	strb.w	r8, [r6, #1828]	; 0x724
 8001eee:	2200      	movs	r2, #0
 8001ef0:	4baf      	ldr	r3, [pc, #700]	; (80021b0 <FUNC_Transmission+0x380>)
 8001ef2:	f04f 0a01 	mov.w	sl, #1
 8001ef6:	f006 ff87 	bl	8008e08 <__aeabi_dcmpgt>
 8001efa:	b900      	cbnz	r0, 8001efe <FUNC_Transmission+0xce>
 8001efc:	4682      	mov	sl, r0
 8001efe:	f886 a725 	strb.w	sl, [r6, #1829]	; 0x725
 8001f02:	4ea9      	ldr	r6, [pc, #676]	; (80021a8 <FUNC_Transmission+0x378>)
 8001f04:	f506 6383 	add.w	r3, r6, #1048	; 0x418
 8001f08:	e9d3 0100 	ldrd	r0, r1, [r3]
 8001f0c:	2200      	movs	r2, #0
 8001f0e:	4ba8      	ldr	r3, [pc, #672]	; (80021b0 <FUNC_Transmission+0x380>)
 8001f10:	f04f 0a01 	mov.w	sl, #1
 8001f14:	f006 ff78 	bl	8008e08 <__aeabi_dcmpgt>
 8001f18:	b900      	cbnz	r0, 8001f1c <FUNC_Transmission+0xec>
 8001f1a:	4682      	mov	sl, r0
 8001f1c:	f886 a726 	strb.w	sl, [r6, #1830]	; 0x726
 8001f20:	f8d4 3724 	ldr.w	r3, [r4, #1828]	; 0x724
 8001f24:	f895 113f 	ldrb.w	r1, [r5, #319]	; 0x13f
 8001f28:	4ea2      	ldr	r6, [pc, #648]	; (80021b4 <FUNC_Transmission+0x384>)
 8001f2a:	f884 172a 	strb.w	r1, [r4, #1834]	; 0x72a
 8001f2e:	f023 437f 	bic.w	r3, r3, #4278190080	; 0xff000000
 8001f32:	f023 03ff 	bic.w	r3, r3, #255	; 0xff
 8001f36:	3300      	adds	r3, #0
 8001f38:	bf18      	it	ne
 8001f3a:	2301      	movne	r3, #1
 8001f3c:	4598      	cmp	r8, r3
 8001f3e:	bf94      	ite	ls
 8001f40:	2200      	movls	r2, #0
 8001f42:	2201      	movhi	r2, #1
 8001f44:	f1b9 0f00 	cmp.w	r9, #0
 8001f48:	f884 2728 	strb.w	r2, [r4, #1832]	; 0x728
 8001f4c:	bf18      	it	ne
 8001f4e:	2201      	movne	r2, #1
 8001f50:	f884 2729 	strb.w	r2, [r4, #1833]	; 0x729
 8001f54:	eb02 0247 	add.w	r2, r2, r7, lsl #1
 8001f58:	eb01 0242 	add.w	r2, r1, r2, lsl #1
 8001f5c:	4432      	add	r2, r6
 8001f5e:	f884 3727 	strb.w	r3, [r4, #1831]	; 0x727
 8001f62:	f892 1330 	ldrb.w	r1, [r2, #816]	; 0x330
 8001f66:	f892 2338 	ldrb.w	r2, [r2, #824]	; 0x338
 8001f6a:	f884 272c 	strb.w	r2, [r4, #1836]	; 0x72c
 8001f6e:	2900      	cmp	r1, #0
 8001f70:	bf08      	it	eq
 8001f72:	2300      	moveq	r3, #0
 8001f74:	f884 372d 	strb.w	r3, [r4, #1837]	; 0x72d
 8001f78:	f884 372e 	strb.w	r3, [r4, #1838]	; 0x72e
 8001f7c:	f895 20dd 	ldrb.w	r2, [r5, #221]	; 0xdd
 8001f80:	f895 30de 	ldrb.w	r3, [r5, #222]	; 0xde
 8001f84:	f884 172b 	strb.w	r1, [r4, #1835]	; 0x72b
 8001f88:	f895 1140 	ldrb.w	r1, [r5, #320]	; 0x140
 8001f8c:	f884 272f 	strb.w	r2, [r4, #1839]	; 0x72f
 8001f90:	eb03 0242 	add.w	r2, r3, r2, lsl #1
 8001f94:	eb01 0242 	add.w	r2, r1, r2, lsl #1
 8001f98:	4432      	add	r2, r6
 8001f9a:	f884 3730 	strb.w	r3, [r4, #1840]	; 0x730
 8001f9e:	f892 0330 	ldrb.w	r0, [r2, #816]	; 0x330
 8001fa2:	f892 3338 	ldrb.w	r3, [r2, #824]	; 0x338
 8001fa6:	f884 3733 	strb.w	r3, [r4, #1843]	; 0x733
 8001faa:	f884 1731 	strb.w	r1, [r4, #1841]	; 0x731
 8001fae:	f884 0732 	strb.w	r0, [r4, #1842]	; 0x732
 8001fb2:	f006 fc23 	bl	80087fc <__aeabi_ui2d>
 8001fb6:	e9d5 2304 	ldrd	r2, r3, [r5, #16]
 8001fba:	e9c4 0164 	strd	r0, r1, [r4, #400]	; 0x190
 8001fbe:	497e      	ldr	r1, [pc, #504]	; (80021b8 <FUNC_Transmission+0x388>)
 8001fc0:	e9c4 2366 	strd	r2, r3, [r4, #408]	; 0x198
 8001fc4:	e9d1 0100 	ldrd	r0, r1, [r1]
 8001fc8:	f04f 0701 	mov.w	r7, #1
 8001fcc:	f006 ff1c 	bl	8008e08 <__aeabi_dcmpgt>
 8001fd0:	b900      	cbnz	r0, 8001fd4 <FUNC_Transmission+0x1a4>
 8001fd2:	4607      	mov	r7, r0
 8001fd4:	f895 30f2 	ldrb.w	r3, [r5, #242]	; 0xf2
 8001fd8:	f895 2141 	ldrb.w	r2, [r5, #321]	; 0x141
 8001fdc:	f884 3735 	strb.w	r3, [r4, #1845]	; 0x735
 8001fe0:	b2f9      	uxtb	r1, r7
 8001fe2:	eb03 0341 	add.w	r3, r3, r1, lsl #1
 8001fe6:	eb02 0343 	add.w	r3, r2, r3, lsl #1
 8001fea:	4433      	add	r3, r6
 8001fec:	f884 2736 	strb.w	r2, [r4, #1846]	; 0x736
 8001ff0:	f893 2330 	ldrb.w	r2, [r3, #816]	; 0x330
 8001ff4:	f893 3338 	ldrb.w	r3, [r3, #824]	; 0x338
 8001ff8:	f884 3738 	strb.w	r3, [r4, #1848]	; 0x738
 8001ffc:	4b6f      	ldr	r3, [pc, #444]	; (80021bc <FUNC_Transmission+0x38c>)
 8001ffe:	9204      	str	r2, [sp, #16]
 8002000:	e9d3 0100 	ldrd	r0, r1, [r3]
 8002004:	f89d 2010 	ldrb.w	r2, [sp, #16]
 8002008:	f895 60f3 	ldrb.w	r6, [r5, #243]	; 0xf3
 800200c:	f884 7734 	strb.w	r7, [r4, #1844]	; 0x734
 8002010:	f884 2737 	strb.w	r2, [r4, #1847]	; 0x737
 8002014:	460b      	mov	r3, r1
 8002016:	4602      	mov	r2, r0
 8002018:	f884 6739 	strb.w	r6, [r4, #1849]	; 0x739
 800201c:	f006 fab2 	bl	8008584 <__adddf3>
 8002020:	a359      	add	r3, pc, #356	; (adr r3, 8002188 <FUNC_Transmission+0x358>)
 8002022:	e9d3 2300 	ldrd	r2, r3, [r3]
 8002026:	e9c4 0168 	strd	r0, r1, [r4, #416]	; 0x1a0
 800202a:	e9cd 0102 	strd	r0, r1, [sp, #8]
 800202e:	f04f 0701 	mov.w	r7, #1
 8002032:	f006 fee9 	bl	8008e08 <__aeabi_dcmpgt>
 8002036:	b900      	cbnz	r0, 800203a <FUNC_Transmission+0x20a>
 8002038:	4607      	mov	r7, r0
 800203a:	f884 773a 	strb.w	r7, [r4, #1850]	; 0x73a
 800203e:	e9dd 0102 	ldrd	r0, r1, [sp, #8]
 8002042:	2200      	movs	r2, #0
 8002044:	4b5e      	ldr	r3, [pc, #376]	; (80021c0 <FUNC_Transmission+0x390>)
 8002046:	b2fd      	uxtb	r5, r7
 8002048:	f04f 0701 	mov.w	r7, #1
 800204c:	f006 fedc 	bl	8008e08 <__aeabi_dcmpgt>
 8002050:	b900      	cbnz	r0, 8002054 <FUNC_Transmission+0x224>
 8002052:	4607      	mov	r7, r0
 8002054:	f884 773b 	strb.w	r7, [r4, #1851]	; 0x73b
 8002058:	e9dd 0102 	ldrd	r0, r1, [sp, #8]
 800205c:	a34c      	add	r3, pc, #304	; (adr r3, 8002190 <FUNC_Transmission+0x360>)
 800205e:	e9d3 2300 	ldrd	r2, r3, [r3]
 8002062:	fa5f f887 	uxtb.w	r8, r7
 8002066:	f04f 0701 	mov.w	r7, #1
 800206a:	f006 fecd 	bl	8008e08 <__aeabi_dcmpgt>
 800206e:	b900      	cbnz	r0, 8002072 <FUNC_Transmission+0x242>
 8002070:	4607      	mov	r7, r0
 8002072:	4b54      	ldr	r3, [pc, #336]	; (80021c4 <FUNC_Transmission+0x394>)
 8002074:	f884 773c 	strb.w	r7, [r4, #1852]	; 0x73c
 8002078:	ed93 7b00 	vldr	d7, [r3]
 800207c:	44a8      	add	r8, r5
 800207e:	fa58 f887 	uxtab	r8, r8, r7
 8002082:	fa5f f888 	uxtb.w	r8, r8
 8002086:	f884 8689 	strb.w	r8, [r4, #1673]	; 0x689
 800208a:	ec51 0b17 	vmov	r0, r1, d7
 800208e:	2200      	movs	r2, #0
 8002090:	4b4d      	ldr	r3, [pc, #308]	; (80021c8 <FUNC_Transmission+0x398>)
 8002092:	ed8d 7b06 	vstr	d7, [sp, #24]
 8002096:	f04f 0701 	mov.w	r7, #1
 800209a:	f006 feab 	bl	8008df4 <__aeabi_dcmpge>
 800209e:	b900      	cbnz	r0, 80020a2 <FUNC_Transmission+0x272>
 80020a0:	4607      	mov	r7, r0
 80020a2:	f017 0fff 	tst.w	r7, #255	; 0xff
 80020a6:	4b40      	ldr	r3, [pc, #256]	; (80021a8 <FUNC_Transmission+0x378>)
 80020a8:	bf18      	it	ne
 80020aa:	4948      	ldrne	r1, [pc, #288]	; (80021cc <FUNC_Transmission+0x39c>)
 80020ac:	f884 773d 	strb.w	r7, [r4, #1853]	; 0x73d
 80020b0:	bf08      	it	eq
 80020b2:	f04f 4180 	moveq.w	r1, #1073741824	; 0x40000000
 80020b6:	2000      	movs	r0, #0
 80020b8:	e9c3 016a 	strd	r0, r1, [r3, #424]	; 0x1a8
 80020bc:	4640      	mov	r0, r8
 80020be:	f006 fbad 	bl	800881c <__aeabi_i2d>
 80020c2:	e9d4 236a 	ldrd	r2, r3, [r4, #424]	; 0x1a8
 80020c6:	f04f 0701 	mov.w	r7, #1
 80020ca:	f006 fe7f 	bl	8008dcc <__aeabi_dcmplt>
 80020ce:	b900      	cbnz	r0, 80020d2 <FUNC_Transmission+0x2a2>
 80020d0:	4607      	mov	r7, r0
 80020d2:	4b35      	ldr	r3, [pc, #212]	; (80021a8 <FUNC_Transmission+0x378>)
 80020d4:	f883 773e 	strb.w	r7, [r3, #1854]	; 0x73e
 80020d8:	461f      	mov	r7, r3
 80020da:	4b34      	ldr	r3, [pc, #208]	; (80021ac <FUNC_Transmission+0x37c>)
 80020dc:	f893 20f4 	ldrb.w	r2, [r3, #244]	; 0xf4
 80020e0:	f893 30f5 	ldrb.w	r3, [r3, #245]	; 0xf5
 80020e4:	f887 3740 	strb.w	r3, [r7, #1856]	; 0x740
 80020e8:	f507 6390 	add.w	r3, r7, #1152	; 0x480
 80020ec:	e9d3 ab00 	ldrd	sl, fp, [r3]
 80020f0:	f887 273f 	strb.w	r2, [r7, #1855]	; 0x73f
 80020f4:	4650      	mov	r0, sl
 80020f6:	4659      	mov	r1, fp
 80020f8:	a327      	add	r3, pc, #156	; (adr r3, 8002198 <FUNC_Transmission+0x368>)
 80020fa:	e9d3 2300 	ldrd	r2, r3, [r3]
 80020fe:	f04f 0901 	mov.w	r9, #1
 8002102:	f006 fe81 	bl	8008e08 <__aeabi_dcmpgt>
 8002106:	b900      	cbnz	r0, 800210a <FUNC_Transmission+0x2da>
 8002108:	4681      	mov	r9, r0
 800210a:	f1a8 0c02 	sub.w	ip, r8, #2
 800210e:	f1dc 0200 	rsbs	r2, ip, #0
 8002112:	eb42 020c 	adc.w	r2, r2, ip
 8002116:	2a00      	cmp	r2, #0
 8002118:	f887 9741 	strb.w	r9, [r7, #1857]	; 0x741
 800211c:	f887 2742 	strb.w	r2, [r7, #1858]	; 0x742
 8002120:	4f21      	ldr	r7, [pc, #132]	; (80021a8 <FUNC_Transmission+0x378>)
 8002122:	fa5f f389 	uxtb.w	r3, r9
 8002126:	bf08      	it	eq
 8002128:	2300      	moveq	r3, #0
 800212a:	f887 3743 	strb.w	r3, [r7, #1859]	; 0x743
 800212e:	4650      	mov	r0, sl
 8002130:	4659      	mov	r1, fp
 8002132:	a31b      	add	r3, pc, #108	; (adr r3, 80021a0 <FUNC_Transmission+0x370>)
 8002134:	e9d3 2300 	ldrd	r2, r3, [r3]
 8002138:	f04f 0901 	mov.w	r9, #1
 800213c:	f006 fe64 	bl	8008e08 <__aeabi_dcmpgt>
 8002140:	b900      	cbnz	r0, 8002144 <FUNC_Transmission+0x314>
 8002142:	4681      	mov	r9, r0
 8002144:	f1a8 0e03 	sub.w	lr, r8, #3
 8002148:	fa5f f389 	uxtb.w	r3, r9
 800214c:	f1de 0a00 	rsbs	sl, lr, #0
 8002150:	eb4a 0a0e 	adc.w	sl, sl, lr
 8002154:	2b00      	cmp	r3, #0
 8002156:	f887 a745 	strb.w	sl, [r7, #1861]	; 0x745
 800215a:	bf08      	it	eq
 800215c:	f04f 0a00 	moveq.w	sl, #0
 8002160:	f887 9744 	strb.w	r9, [r7, #1860]	; 0x744
 8002164:	4b10      	ldr	r3, [pc, #64]	; (80021a8 <FUNC_Transmission+0x378>)
 8002166:	f887 a746 	strb.w	sl, [r7, #1862]	; 0x746
 800216a:	bb8e      	cbnz	r6, 80021d0 <FUNC_Transmission+0x3a0>
 800216c:	f8b3 273e 	ldrh.w	r2, [r3, #1854]	; 0x73e
 8002170:	bb72      	cbnz	r2, 80021d0 <FUNC_Transmission+0x3a0>
 8002172:	f8d3 3740 	ldr.w	r3, [r3, #1856]	; 0x740
 8002176:	f423 037f 	bic.w	r3, r3, #16711680	; 0xff0000
 800217a:	f423 437f 	bic.w	r3, r3, #65280	; 0xff00
 800217e:	2b00      	cmp	r3, #0
 8002180:	bf18      	it	ne
 8002182:	f04f 0a01 	movne.w	sl, #1
 8002186:	e025      	b.n	80021d4 <FUNC_Transmission+0x3a4>
 8002188:	00000000 	.word	0x00000000
 800218c:	40652000 	.word	0x40652000
 8002190:	00000000 	.word	0x00000000
 8002194:	40745000 	.word	0x40745000
 8002198:	00000000 	.word	0x00000000
 800219c:	40b38800 	.word	0x40b38800
 80021a0:	00000000 	.word	0x00000000
 80021a4:	40b4b400 	.word	0x40b4b400
 80021a8:	200008a0 	.word	0x200008a0
 80021ac:	20001030 	.word	0x20001030
 80021b0:	40080000 	.word	0x40080000
 80021b4:	08009068 	.word	0x08009068
 80021b8:	20000d88 	.word	0x20000d88
 80021bc:	20000d18 	.word	0x20000d18
 80021c0:	406c8000 	.word	0x406c8000
 80021c4:	20000d70 	.word	0x20000d70
 80021c8:	402e0000 	.word	0x402e0000
 80021cc:	3ff00000 	.word	0x3ff00000
 80021d0:	f04f 0a01 	mov.w	sl, #1
 80021d4:	4bc8      	ldr	r3, [pc, #800]	; (80024f8 <FUNC_Transmission+0x6c8>)
 80021d6:	9a04      	ldr	r2, [sp, #16]
 80021d8:	f893 3142 	ldrb.w	r3, [r3, #322]	; 0x142
 80021dc:	f884 3748 	strb.w	r3, [r4, #1864]	; 0x748
 80021e0:	eb0a 0242 	add.w	r2, sl, r2, lsl #1
 80021e4:	eb03 0342 	add.w	r3, r3, r2, lsl #1
 80021e8:	4ac4      	ldr	r2, [pc, #784]	; (80024fc <FUNC_Transmission+0x6cc>)
 80021ea:	f884 a747 	strb.w	sl, [r4, #1863]	; 0x747
 80021ee:	4413      	add	r3, r2
 80021f0:	f893 2330 	ldrb.w	r2, [r3, #816]	; 0x330
 80021f4:	f893 3338 	ldrb.w	r3, [r3, #824]	; 0x338
 80021f8:	f884 374a 	strb.w	r3, [r4, #1866]	; 0x74a
 80021fc:	4bc0      	ldr	r3, [pc, #768]	; (8002500 <FUNC_Transmission+0x6d0>)
 80021fe:	f884 2749 	strb.w	r2, [r4, #1865]	; 0x749
 8002202:	e9d3 0100 	ldrd	r0, r1, [r3]
 8002206:	e9d3 2302 	ldrd	r2, r3, [r3, #8]
 800220a:	f006 f9bb 	bl	8008584 <__adddf3>
 800220e:	2200      	movs	r2, #0
 8002210:	e9c4 016c 	strd	r0, r1, [r4, #432]	; 0x1b0
 8002214:	4bbb      	ldr	r3, [pc, #748]	; (8002504 <FUNC_Transmission+0x6d4>)
 8002216:	f006 fb67 	bl	80088e8 <__aeabi_dmul>
 800221a:	a3b3      	add	r3, pc, #716	; (adr r3, 80024e8 <FUNC_Transmission+0x6b8>)
 800221c:	e9d3 2300 	ldrd	r2, r3, [r3]
 8002220:	e9c4 016e 	strd	r0, r1, [r4, #440]	; 0x1b8
 8002224:	f04f 0401 	mov.w	r4, #1
 8002228:	f006 fdee 	bl	8008e08 <__aeabi_dcmpgt>
 800222c:	b900      	cbnz	r0, 8002230 <FUNC_Transmission+0x400>
 800222e:	4604      	mov	r4, r0
 8002230:	ed9d 7b02 	vldr	d7, [sp, #8]
 8002234:	4fb4      	ldr	r7, [pc, #720]	; (8002508 <FUNC_Transmission+0x6d8>)
 8002236:	ec51 0b17 	vmov	r0, r1, d7
 800223a:	f887 474b 	strb.w	r4, [r7, #1867]	; 0x74b
 800223e:	ed87 7b70 	vstr	d7, [r7, #448]	; 0x1c0
 8002242:	f887 574c 	strb.w	r5, [r7, #1868]	; 0x74c
 8002246:	a3aa      	add	r3, pc, #680	; (adr r3, 80024f0 <FUNC_Transmission+0x6c0>)
 8002248:	e9d3 2300 	ldrd	r2, r3, [r3]
 800224c:	fa5f f984 	uxtb.w	r9, r4
 8002250:	f04f 0b01 	mov.w	fp, #1
 8002254:	f006 fdd8 	bl	8008e08 <__aeabi_dcmpgt>
 8002258:	b900      	cbnz	r0, 800225c <FUNC_Transmission+0x42c>
 800225a:	4683      	mov	fp, r0
 800225c:	f887 b74d 	strb.w	fp, [r7, #1869]	; 0x74d
 8002260:	e9dd 0102 	ldrd	r0, r1, [sp, #8]
 8002264:	2200      	movs	r2, #0
 8002266:	4ba9      	ldr	r3, [pc, #676]	; (800250c <FUNC_Transmission+0x6dc>)
 8002268:	fa5f f68b 	uxtb.w	r6, fp
 800226c:	f04f 0401 	mov.w	r4, #1
 8002270:	f006 fdca 	bl	8008e08 <__aeabi_dcmpgt>
 8002274:	b900      	cbnz	r0, 8002278 <FUNC_Transmission+0x448>
 8002276:	4604      	mov	r4, r0
 8002278:	442e      	add	r6, r5
 800227a:	fa56 f684 	uxtab	r6, r6, r4
 800227e:	b2f6      	uxtb	r6, r6
 8002280:	1eb5      	subs	r5, r6, #2
 8002282:	f887 474e 	strb.w	r4, [r7, #1870]	; 0x74e
 8002286:	4c9c      	ldr	r4, [pc, #624]	; (80024f8 <FUNC_Transmission+0x6c8>)
 8002288:	f887 668a 	strb.w	r6, [r7, #1674]	; 0x68a
 800228c:	f1d5 0c00 	rsbs	ip, r5, #0
 8002290:	eb4c 0c05 	adc.w	ip, ip, r5
 8002294:	f894 30f6 	ldrb.w	r3, [r4, #246]	; 0xf6
 8002298:	f887 3751 	strb.w	r3, [r7, #1873]	; 0x751
 800229c:	f1b9 0f00 	cmp.w	r9, #0
 80022a0:	bf14      	ite	ne
 80022a2:	46e3      	movne	fp, ip
 80022a4:	f04f 0b00 	moveq.w	fp, #0
 80022a8:	459b      	cmp	fp, r3
 80022aa:	f894 30bf 	ldrb.w	r3, [r4, #191]	; 0xbf
 80022ae:	f887 b750 	strb.w	fp, [r7, #1872]	; 0x750
 80022b2:	bf94      	ite	ls
 80022b4:	f04f 0b00 	movls.w	fp, #0
 80022b8:	f04f 0b01 	movhi.w	fp, #1
 80022bc:	429e      	cmp	r6, r3
 80022be:	f887 368b 	strb.w	r3, [r7, #1675]	; 0x68b
 80022c2:	bf94      	ite	ls
 80022c4:	2300      	movls	r3, #0
 80022c6:	2301      	movhi	r3, #1
 80022c8:	2e02      	cmp	r6, #2
 80022ca:	f887 3754 	strb.w	r3, [r7, #1876]	; 0x754
 80022ce:	bf94      	ite	ls
 80022d0:	2300      	movls	r3, #0
 80022d2:	2301      	movhi	r3, #1
 80022d4:	f887 3755 	strb.w	r3, [r7, #1877]	; 0x755
 80022d8:	f894 30f7 	ldrb.w	r3, [r4, #247]	; 0xf7
 80022dc:	f887 c74f 	strb.w	ip, [r7, #1871]	; 0x74f
 80022e0:	f887 3756 	strb.w	r3, [r7, #1878]	; 0x756
 80022e4:	f08c 0c01 	eor.w	ip, ip, #1
 80022e8:	f894 30f8 	ldrb.w	r3, [r4, #248]	; 0xf8
 80022ec:	fab6 f986 	clz	r9, r6
 80022f0:	ea4f 1959 	mov.w	r9, r9, lsr #5
 80022f4:	f887 c753 	strb.w	ip, [r7, #1875]	; 0x753
 80022f8:	f887 3757 	strb.w	r3, [r7, #1879]	; 0x757
 80022fc:	f887 b752 	strb.w	fp, [r7, #1874]	; 0x752
 8002300:	f887 9758 	strb.w	r9, [r7, #1880]	; 0x758
 8002304:	e9dd 0106 	ldrd	r0, r1, [sp, #24]
 8002308:	2200      	movs	r2, #0
 800230a:	4b81      	ldr	r3, [pc, #516]	; (8002510 <FUNC_Transmission+0x6e0>)
 800230c:	f8cd c008 	str.w	ip, [sp, #8]
 8002310:	f006 fd5c 	bl	8008dcc <__aeabi_dcmplt>
 8002314:	f04f 0501 	mov.w	r5, #1
 8002318:	f8dd c008 	ldr.w	ip, [sp, #8]
 800231c:	b900      	cbnz	r0, 8002320 <FUNC_Transmission+0x4f0>
 800231e:	4605      	mov	r5, r0
 8002320:	4b79      	ldr	r3, [pc, #484]	; (8002508 <FUNC_Transmission+0x6d8>)
 8002322:	f1b9 0f00 	cmp.w	r9, #0
 8002326:	b2ea      	uxtb	r2, r5
 8002328:	bf14      	ite	ne
 800232a:	4691      	movne	r9, r2
 800232c:	f04f 0900 	moveq.w	r9, #0
 8002330:	f883 5759 	strb.w	r5, [r3, #1881]	; 0x759
 8002334:	f883 975a 	strb.w	r9, [r3, #1882]	; 0x75a
 8002338:	461d      	mov	r5, r3
 800233a:	f8d3 3754 	ldr.w	r3, [r3, #1876]	; 0x754
 800233e:	2b00      	cmp	r3, #0
 8002340:	bf18      	it	ne
 8002342:	f04f 0901 	movne.w	r9, #1
 8002346:	f885 975b 	strb.w	r9, [r5, #1883]	; 0x75b
 800234a:	f1bc 0f00 	cmp.w	ip, #0
 800234e:	d10c      	bne.n	800236a <FUNC_Transmission+0x53a>
 8002350:	f505 639c 	add.w	r3, r5, #1248	; 0x4e0
 8002354:	e9d3 0100 	ldrd	r0, r1, [r3]
 8002358:	2200      	movs	r2, #0
 800235a:	2300      	movs	r3, #0
 800235c:	f006 fd2c 	bl	8008db8 <__aeabi_dcmpeq>
 8002360:	2800      	cmp	r0, #0
 8002362:	bf14      	ite	ne
 8002364:	464b      	movne	r3, r9
 8002366:	2301      	moveq	r3, #1
 8002368:	e000      	b.n	800236c <FUNC_Transmission+0x53c>
 800236a:	2301      	movs	r3, #1
 800236c:	f894 2143 	ldrb.w	r2, [r4, #323]	; 0x143
 8002370:	f885 375c 	strb.w	r3, [r5, #1884]	; 0x75c
 8002374:	eb03 034b 	add.w	r3, r3, fp, lsl #1
 8002378:	f885 275d 	strb.w	r2, [r5, #1885]	; 0x75d
 800237c:	eb02 0243 	add.w	r2, r2, r3, lsl #1
 8002380:	4b5e      	ldr	r3, [pc, #376]	; (80024fc <FUNC_Transmission+0x6cc>)
 8002382:	4413      	add	r3, r2
 8002384:	2200      	movs	r2, #0
 8002386:	f893 b330 	ldrb.w	fp, [r3, #816]	; 0x330
 800238a:	f893 3338 	ldrb.w	r3, [r3, #824]	; 0x338
 800238e:	f885 375f 	strb.w	r3, [r5, #1887]	; 0x75f
 8002392:	4b60      	ldr	r3, [pc, #384]	; (8002514 <FUNC_Transmission+0x6e4>)
 8002394:	f885 b75e 	strb.w	fp, [r5, #1886]	; 0x75e
 8002398:	e9d3 0100 	ldrd	r0, r1, [r3]
 800239c:	2300      	movs	r3, #0
 800239e:	f006 fd0b 	bl	8008db8 <__aeabi_dcmpeq>
 80023a2:	b128      	cbz	r0, 80023b0 <FUNC_Transmission+0x580>
 80023a4:	f11b 0b00 	adds.w	fp, fp, #0
 80023a8:	bf18      	it	ne
 80023aa:	f04f 0b01 	movne.w	fp, #1
 80023ae:	e001      	b.n	80023b4 <FUNC_Transmission+0x584>
 80023b0:	f04f 0b01 	mov.w	fp, #1
 80023b4:	f894 20f9 	ldrb.w	r2, [r4, #249]	; 0xf9
 80023b8:	f885 2761 	strb.w	r2, [r5, #1889]	; 0x761
 80023bc:	fa5f fb8b 	uxtb.w	fp, fp
 80023c0:	4593      	cmp	fp, r2
 80023c2:	f885 b760 	strb.w	fp, [r5, #1888]	; 0x760
 80023c6:	f894 2144 	ldrb.w	r2, [r4, #324]	; 0x144
 80023ca:	f885 2763 	strb.w	r2, [r5, #1891]	; 0x763
 80023ce:	bf94      	ite	ls
 80023d0:	f04f 0b00 	movls.w	fp, #0
 80023d4:	f04f 0b01 	movhi.w	fp, #1
 80023d8:	f885 b762 	strb.w	fp, [r5, #1890]	; 0x762
 80023dc:	eb09 0b4b 	add.w	fp, r9, fp, lsl #1
 80023e0:	eb02 0b4b 	add.w	fp, r2, fp, lsl #1
 80023e4:	4a45      	ldr	r2, [pc, #276]	; (80024fc <FUNC_Transmission+0x6cc>)
 80023e6:	4b44      	ldr	r3, [pc, #272]	; (80024f8 <FUNC_Transmission+0x6c8>)
 80023e8:	445a      	add	r2, fp
 80023ea:	f892 b330 	ldrb.w	fp, [r2, #816]	; 0x330
 80023ee:	f892 2338 	ldrb.w	r2, [r2, #824]	; 0x338
 80023f2:	f885 2765 	strb.w	r2, [r5, #1893]	; 0x765
 80023f6:	2200      	movs	r2, #0
 80023f8:	f885 b764 	strb.w	fp, [r5, #1892]	; 0x764
 80023fc:	f885 2766 	strb.w	r2, [r5, #1894]	; 0x766
 8002400:	f1b9 0f00 	cmp.w	r9, #0
 8002404:	d005      	beq.n	8002412 <FUNC_Transmission+0x5e2>
 8002406:	f883 20fc 	strb.w	r2, [r3, #252]	; 0xfc
 800240a:	f1bb 0f00 	cmp.w	fp, #0
 800240e:	d107      	bne.n	8002420 <FUNC_Transmission+0x5f0>
 8002410:	e00c      	b.n	800242c <FUNC_Transmission+0x5fc>
 8002412:	f1bb 0f00 	cmp.w	fp, #0
 8002416:	d009      	beq.n	800242c <FUNC_Transmission+0x5fc>
 8002418:	f893 20fc 	ldrb.w	r2, [r3, #252]	; 0xfc
 800241c:	2a3b      	cmp	r2, #59	; 0x3b
 800241e:	d803      	bhi.n	8002428 <FUNC_Transmission+0x5f8>
 8002420:	3201      	adds	r2, #1
 8002422:	f884 20fc 	strb.w	r2, [r4, #252]	; 0xfc
 8002426:	e001      	b.n	800242c <FUNC_Transmission+0x5fc>
 8002428:	f883 90fc 	strb.w	r9, [r3, #252]	; 0xfc
 800242c:	f894 30fc 	ldrb.w	r3, [r4, #252]	; 0xfc
 8002430:	4d35      	ldr	r5, [pc, #212]	; (8002508 <FUNC_Transmission+0x6d8>)
 8002432:	f894 2145 	ldrb.w	r2, [r4, #325]	; 0x145
 8002436:	f885 2769 	strb.w	r2, [r5, #1897]	; 0x769
 800243a:	2b01      	cmp	r3, #1
 800243c:	bf08      	it	eq
 800243e:	f885 3766 	strbeq.w	r3, [r5, #1894]	; 0x766
 8002442:	f894 30c0 	ldrb.w	r3, [r4, #192]	; 0xc0
 8002446:	f895 1766 	ldrb.w	r1, [r5, #1894]	; 0x766
 800244a:	f885 368c 	strb.w	r3, [r5, #1676]	; 0x68c
 800244e:	429e      	cmp	r6, r3
 8002450:	bf94      	ite	ls
 8002452:	2600      	movls	r6, #0
 8002454:	2601      	movhi	r6, #1
 8002456:	f1b9 0f00 	cmp.w	r9, #0
 800245a:	bf0c      	ite	eq
 800245c:	4633      	moveq	r3, r6
 800245e:	2301      	movne	r3, #1
 8002460:	f885 3768 	strb.w	r3, [r5, #1896]	; 0x768
 8002464:	eb03 0341 	add.w	r3, r3, r1, lsl #1
 8002468:	eb02 0343 	add.w	r3, r2, r3, lsl #1
 800246c:	4a23      	ldr	r2, [pc, #140]	; (80024fc <FUNC_Transmission+0x6cc>)
 800246e:	f885 6767 	strb.w	r6, [r5, #1895]	; 0x767
 8002472:	4413      	add	r3, r2
 8002474:	4e20      	ldr	r6, [pc, #128]	; (80024f8 <FUNC_Transmission+0x6c8>)
 8002476:	f893 0330 	ldrb.w	r0, [r3, #816]	; 0x330
 800247a:	f893 3338 	ldrb.w	r3, [r3, #824]	; 0x338
 800247e:	f885 376b 	strb.w	r3, [r5, #1899]	; 0x76b
 8002482:	f885 076a 	strb.w	r0, [r5, #1898]	; 0x76a
 8002486:	f006 f9b9 	bl	80087fc <__aeabi_ui2d>
 800248a:	2300      	movs	r3, #0
 800248c:	e9c5 0172 	strd	r0, r1, [r5, #456]	; 0x1c8
 8002490:	f885 376c 	strb.w	r3, [r5, #1900]	; 0x76c
 8002494:	f1ba 0f00 	cmp.w	sl, #0
 8002498:	d004      	beq.n	80024a4 <FUNC_Transmission+0x674>
 800249a:	9a04      	ldr	r2, [sp, #16]
 800249c:	f8a6 309e 	strh.w	r3, [r6, #158]	; 0x9e
 80024a0:	b93a      	cbnz	r2, 80024b2 <FUNC_Transmission+0x682>
 80024a2:	e00c      	b.n	80024be <FUNC_Transmission+0x68e>
 80024a4:	9b04      	ldr	r3, [sp, #16]
 80024a6:	b153      	cbz	r3, 80024be <FUNC_Transmission+0x68e>
 80024a8:	f8b6 309e 	ldrh.w	r3, [r6, #158]	; 0x9e
 80024ac:	f5b3 7ffa 	cmp.w	r3, #500	; 0x1f4
 80024b0:	d203      	bcs.n	80024ba <FUNC_Transmission+0x68a>
 80024b2:	3301      	adds	r3, #1
 80024b4:	f8a4 309e 	strh.w	r3, [r4, #158]	; 0x9e
 80024b8:	e001      	b.n	80024be <FUNC_Transmission+0x68e>
 80024ba:	f8a6 a09e 	strh.w	sl, [r6, #158]	; 0x9e
 80024be:	f8b4 309e 	ldrh.w	r3, [r4, #158]	; 0x9e
 80024c2:	4e11      	ldr	r6, [pc, #68]	; (8002508 <FUNC_Transmission+0x6d8>)
 80024c4:	f5b3 7ffa 	cmp.w	r3, #500	; 0x1f4
 80024c8:	bf04      	itt	eq
 80024ca:	2301      	moveq	r3, #1
 80024cc:	f886 376c 	strbeq.w	r3, [r6, #1900]	; 0x76c
 80024d0:	2300      	movs	r3, #0
 80024d2:	f886 376d 	strb.w	r3, [r6, #1901]	; 0x76d
 80024d6:	f1b9 0f00 	cmp.w	r9, #0
 80024da:	d01d      	beq.n	8002518 <FUNC_Transmission+0x6e8>
 80024dc:	f884 30fd 	strb.w	r3, [r4, #253]	; 0xfd
 80024e0:	f1bb 0f00 	cmp.w	fp, #0
 80024e4:	d11f      	bne.n	8002526 <FUNC_Transmission+0x6f6>
 80024e6:	e025      	b.n	8002534 <FUNC_Transmission+0x704>
 80024e8:	eb851eb8 	.word	0xeb851eb8
 80024ec:	404fd851 	.word	0x404fd851
 80024f0:	00000000 	.word	0x00000000
 80024f4:	4070d000 	.word	0x4070d000
 80024f8:	20001030 	.word	0x20001030
 80024fc:	08009068 	.word	0x08009068
 8002500:	20000ce8 	.word	0x20000ce8
 8002504:	3fe00000 	.word	0x3fe00000
 8002508:	200008a0 	.word	0x200008a0
 800250c:	40768000 	.word	0x40768000
 8002510:	402e0000 	.word	0x402e0000
 8002514:	20000d80 	.word	0x20000d80
 8002518:	f1bb 0f00 	cmp.w	fp, #0
 800251c:	d00a      	beq.n	8002534 <FUNC_Transmission+0x704>
 800251e:	f894 30fd 	ldrb.w	r3, [r4, #253]	; 0xfd
 8002522:	2bc7      	cmp	r3, #199	; 0xc7
 8002524:	d803      	bhi.n	800252e <FUNC_Transmission+0x6fe>
 8002526:	3301      	adds	r3, #1
 8002528:	f884 30fd 	strb.w	r3, [r4, #253]	; 0xfd
 800252c:	e002      	b.n	8002534 <FUNC_Transmission+0x704>
 800252e:	4b1e      	ldr	r3, [pc, #120]	; (80025a8 <FUNC_Transmission+0x778>)
 8002530:	f883 90fd 	strb.w	r9, [r3, #253]	; 0xfd
 8002534:	f894 30fd 	ldrb.w	r3, [r4, #253]	; 0xfd
 8002538:	f8df 9078 	ldr.w	r9, [pc, #120]	; 80025b4 <FUNC_Transmission+0x784>
 800253c:	2bb4      	cmp	r3, #180	; 0xb4
 800253e:	bf04      	itt	eq
 8002540:	2301      	moveq	r3, #1
 8002542:	f886 376d 	strbeq.w	r3, [r6, #1901]	; 0x76d
 8002546:	4658      	mov	r0, fp
 8002548:	f006 f958 	bl	80087fc <__aeabi_ui2d>
 800254c:	f894 30c1 	ldrb.w	r3, [r4, #193]	; 0xc1
 8002550:	f886 368d 	strb.w	r3, [r6, #1677]	; 0x68d
 8002554:	4598      	cmp	r8, r3
 8002556:	9b04      	ldr	r3, [sp, #16]
 8002558:	bf2c      	ite	cs
 800255a:	f04f 0800 	movcs.w	r8, #0
 800255e:	f04f 0801 	movcc.w	r8, #1
 8002562:	e9c6 0174 	strd	r0, r1, [r6, #464]	; 0x1d0
 8002566:	f886 876e 	strb.w	r8, [r6, #1902]	; 0x76e
 800256a:	ed9f 8b0d 	vldr	d8, [pc, #52]	; 80025a0 <FUNC_Transmission+0x770>
 800256e:	b123      	cbz	r3, 800257a <FUNC_Transmission+0x74a>
 8002570:	4b0e      	ldr	r3, [pc, #56]	; (80025ac <FUNC_Transmission+0x77c>)
 8002572:	2200      	movs	r2, #0
 8002574:	e9c9 2376 	strd	r2, r3, [r9, #472]	; 0x1d8
 8002578:	e001      	b.n	800257e <FUNC_Transmission+0x74e>
 800257a:	ed89 8b76 	vstr	d8, [r9, #472]	; 0x1d8
 800257e:	e9d6 8976 	ldrd	r8, r9, [r6, #472]	; 0x1d8
 8002582:	e9dd 0106 	ldrd	r0, r1, [sp, #24]
 8002586:	4642      	mov	r2, r8
 8002588:	464b      	mov	r3, r9
 800258a:	f8df a028 	ldr.w	sl, [pc, #40]	; 80025b4 <FUNC_Transmission+0x784>
 800258e:	f006 fc3b 	bl	8008e08 <__aeabi_dcmpgt>
 8002592:	b188      	cbz	r0, 80025b8 <FUNC_Transmission+0x788>
 8002594:	4b06      	ldr	r3, [pc, #24]	; (80025b0 <FUNC_Transmission+0x780>)
 8002596:	e9d3 2300 	ldrd	r2, r3, [r3]
 800259a:	e9c6 2378 	strd	r2, r3, [r6, #480]	; 0x1e0
 800259e:	e015      	b.n	80025cc <FUNC_Transmission+0x79c>
	...
 80025a8:	20001030 	.word	0x20001030
 80025ac:	40340000 	.word	0x40340000
 80025b0:	20000d70 	.word	0x20000d70
 80025b4:	200008a0 	.word	0x200008a0
 80025b8:	4640      	mov	r0, r8
 80025ba:	4649      	mov	r1, r9
 80025bc:	f001 f9ea 	bl	8003994 <rtIsNaN>
 80025c0:	2800      	cmp	r0, #0
 80025c2:	d1e7      	bne.n	8002594 <FUNC_Transmission+0x764>
 80025c4:	e9da 2376 	ldrd	r2, r3, [sl, #472]	; 0x1d8
 80025c8:	e9ca 2378 	strd	r2, r3, [sl, #480]	; 0x1e0
 80025cc:	f04f 0800 	mov.w	r8, #0
 80025d0:	f04f 0900 	mov.w	r9, #0
 80025d4:	e9d6 0178 	ldrd	r0, r1, [r6, #480]	; 0x1e0
 80025d8:	4642      	mov	r2, r8
 80025da:	464b      	mov	r3, r9
 80025dc:	f006 fc14 	bl	8008e08 <__aeabi_dcmpgt>
 80025e0:	b910      	cbnz	r0, 80025e8 <FUNC_Transmission+0x7b8>
 80025e2:	4bcc      	ldr	r3, [pc, #816]	; (8002914 <FUNC_Transmission+0xae4>)
 80025e4:	e9c3 8978 	strd	r8, r9, [r3, #480]	; 0x1e0
 80025e8:	e9d6 8978 	ldrd	r8, r9, [r6, #480]	; 0x1e0
 80025ec:	2200      	movs	r2, #0
 80025ee:	4640      	mov	r0, r8
 80025f0:	4649      	mov	r1, r9
 80025f2:	4bc9      	ldr	r3, [pc, #804]	; (8002918 <FUNC_Transmission+0xae8>)
 80025f4:	f04f 0b01 	mov.w	fp, #1
 80025f8:	f006 fc06 	bl	8008e08 <__aeabi_dcmpgt>
 80025fc:	b900      	cbnz	r0, 8002600 <FUNC_Transmission+0x7d0>
 80025fe:	4683      	mov	fp, r0
 8002600:	f885 b76f 	strb.w	fp, [r5, #1903]	; 0x76f
 8002604:	fa5f f08b 	uxtb.w	r0, fp
 8002608:	f006 f8f8 	bl	80087fc <__aeabi_ui2d>
 800260c:	f8df a304 	ldr.w	sl, [pc, #772]	; 8002914 <FUNC_Transmission+0xae4>
 8002610:	f50a 63ab 	add.w	r3, sl, #1368	; 0x558
 8002614:	e9c5 017a 	strd	r0, r1, [r5, #488]	; 0x1e8
 8002618:	e9d3 2300 	ldrd	r2, r3, [r3]
 800261c:	4640      	mov	r0, r8
 800261e:	4649      	mov	r1, r9
 8002620:	f005 ffae 	bl	8008580 <__aeabi_dsub>
 8002624:	4680      	mov	r8, r0
 8002626:	4689      	mov	r9, r1
 8002628:	e9c5 897c 	strd	r8, r9, [r5, #496]	; 0x1f0
 800262c:	2200      	movs	r2, #0
 800262e:	4bbb      	ldr	r3, [pc, #748]	; (800291c <FUNC_Transmission+0xaec>)
 8002630:	f04f 0b01 	mov.w	fp, #1
 8002634:	f006 fbca 	bl	8008dcc <__aeabi_dcmplt>
 8002638:	b900      	cbnz	r0, 800263c <FUNC_Transmission+0x80c>
 800263a:	4683      	mov	fp, r0
 800263c:	4ab8      	ldr	r2, [pc, #736]	; (8002920 <FUNC_Transmission+0xaf0>)
 800263e:	f88a b770 	strb.w	fp, [sl, #1904]	; 0x770
 8002642:	230e      	movs	r3, #14
 8002644:	9300      	str	r3, [sp, #0]
 8002646:	4640      	mov	r0, r8
 8002648:	f1a2 0378 	sub.w	r3, r2, #120	; 0x78
 800264c:	4649      	mov	r1, r9
 800264e:	f000 ff5b 	bl	8003508 <look1_binlxpw>
 8002652:	4682      	mov	sl, r0
 8002654:	468b      	mov	fp, r1
 8002656:	e9c5 ab7e 	strd	sl, fp, [r5, #504]	; 0x1f8
 800265a:	f895 0770 	ldrb.w	r0, [r5, #1904]	; 0x770
 800265e:	f006 f8cd 	bl	80087fc <__aeabi_ui2d>
 8002662:	4602      	mov	r2, r0
 8002664:	460b      	mov	r3, r1
 8002666:	4650      	mov	r0, sl
 8002668:	4659      	mov	r1, fp
 800266a:	f006 f93d 	bl	80088e8 <__aeabi_dmul>
 800266e:	4bad      	ldr	r3, [pc, #692]	; (8002924 <FUNC_Transmission+0xaf4>)
 8002670:	4680      	mov	r8, r0
 8002672:	4689      	mov	r9, r1
 8002674:	f04f 0c01 	mov.w	ip, #1
 8002678:	e9d3 0100 	ldrd	r0, r1, [r3]
 800267c:	e9c5 8980 	strd	r8, r9, [r5, #512]	; 0x200
 8002680:	2200      	movs	r2, #0
 8002682:	4ba9      	ldr	r3, [pc, #676]	; (8002928 <FUNC_Transmission+0xaf8>)
 8002684:	f8cd c008 	str.w	ip, [sp, #8]
 8002688:	f006 fbbe 	bl	8008e08 <__aeabi_dcmpgt>
 800268c:	f8dd c008 	ldr.w	ip, [sp, #8]
 8002690:	b900      	cbnz	r0, 8002694 <FUNC_Transmission+0x864>
 8002692:	4684      	mov	ip, r0
 8002694:	f01c 0fff 	tst.w	ip, #255	; 0xff
 8002698:	bf08      	it	eq
 800269a:	499f      	ldreq	r1, [pc, #636]	; (8002918 <FUNC_Transmission+0xae8>)
 800269c:	4b9d      	ldr	r3, [pc, #628]	; (8002914 <FUNC_Transmission+0xae4>)
 800269e:	f886 c771 	strb.w	ip, [r6, #1905]	; 0x771
 80026a2:	bf18      	it	ne
 80026a4:	f04f 4180 	movne.w	r1, #1073741824	; 0x40000000
 80026a8:	2000      	movs	r0, #0
 80026aa:	e9c3 0182 	strd	r0, r1, [r3, #520]	; 0x208
 80026ae:	4640      	mov	r0, r8
 80026b0:	e9d6 2382 	ldrd	r2, r3, [r6, #520]	; 0x208
 80026b4:	4649      	mov	r1, r9
 80026b6:	f006 f917 	bl	80088e8 <__aeabi_dmul>
 80026ba:	e9d6 897c 	ldrd	r8, r9, [r6, #496]	; 0x1f0
 80026be:	e9c6 0184 	strd	r0, r1, [r6, #528]	; 0x210
 80026c2:	e9c6 0186 	strd	r0, r1, [r6, #536]	; 0x218
 80026c6:	2200      	movs	r2, #0
 80026c8:	4640      	mov	r0, r8
 80026ca:	4649      	mov	r1, r9
 80026cc:	2300      	movs	r3, #0
 80026ce:	f04f 0601 	mov.w	r6, #1
 80026d2:	f006 fb99 	bl	8008e08 <__aeabi_dcmpgt>
 80026d6:	b900      	cbnz	r0, 80026da <FUNC_Transmission+0x8aa>
 80026d8:	4606      	mov	r6, r0
 80026da:	f885 6772 	strb.w	r6, [r5, #1906]	; 0x772
 80026de:	b2f0      	uxtb	r0, r6
 80026e0:	f006 f88c 	bl	80087fc <__aeabi_ui2d>
 80026e4:	4602      	mov	r2, r0
 80026e6:	460b      	mov	r3, r1
 80026e8:	4650      	mov	r0, sl
 80026ea:	4659      	mov	r1, fp
 80026ec:	f006 f8fc 	bl	80088e8 <__aeabi_dmul>
 80026f0:	2200      	movs	r2, #0
 80026f2:	e9c5 0188 	strd	r0, r1, [r5, #544]	; 0x220
 80026f6:	e9c5 018a 	strd	r0, r1, [r5, #552]	; 0x228
 80026fa:	4b8c      	ldr	r3, [pc, #560]	; (800292c <FUNC_Transmission+0xafc>)
 80026fc:	4640      	mov	r0, r8
 80026fe:	4649      	mov	r1, r9
 8002700:	f04f 0601 	mov.w	r6, #1
 8002704:	f006 fb62 	bl	8008dcc <__aeabi_dcmplt>
 8002708:	b900      	cbnz	r0, 800270c <FUNC_Transmission+0x8dc>
 800270a:	4606      	mov	r6, r0
 800270c:	f885 6773 	strb.w	r6, [r5, #1907]	; 0x773
 8002710:	b2f0      	uxtb	r0, r6
 8002712:	f006 f873 	bl	80087fc <__aeabi_ui2d>
 8002716:	2301      	movs	r3, #1
 8002718:	f885 3774 	strb.w	r3, [r5, #1908]	; 0x774
 800271c:	f895 377f 	ldrb.w	r3, [r5, #1919]	; 0x77f
 8002720:	f884 313d 	strb.w	r3, [r4, #317]	; 0x13d
 8002724:	f895 3727 	ldrb.w	r3, [r5, #1831]	; 0x727
 8002728:	f884 313e 	strb.w	r3, [r4, #318]	; 0x13e
 800272c:	f895 372b 	ldrb.w	r3, [r5, #1835]	; 0x72b
 8002730:	f884 313f 	strb.w	r3, [r4, #319]	; 0x13f
 8002734:	ed85 8b8e 	vstr	d8, [r5, #568]	; 0x238
 8002738:	4b7d      	ldr	r3, [pc, #500]	; (8002930 <FUNC_Transmission+0xb00>)
 800273a:	f895 2737 	ldrb.w	r2, [r5, #1847]	; 0x737
 800273e:	f884 20dd 	strb.w	r2, [r4, #221]	; 0xdd
 8002742:	ed85 8b90 	vstr	d8, [r5, #576]	; 0x240
 8002746:	ed85 8b92 	vstr	d8, [r5, #584]	; 0x248
 800274a:	e9c5 018c 	strd	r0, r1, [r5, #560]	; 0x230
 800274e:	f103 0113 	add.w	r1, r3, #19
 8002752:	f813 0f01 	ldrb.w	r0, [r3, #1]!
 8002756:	f803 0c01 	strb.w	r0, [r3, #-1]
 800275a:	428b      	cmp	r3, r1
 800275c:	d1f9      	bne.n	8002752 <FUNC_Transmission+0x922>
 800275e:	f897 1732 	ldrb.w	r1, [r7, #1842]	; 0x732
 8002762:	f884 1140 	strb.w	r1, [r4, #320]	; 0x140
 8002766:	4973      	ldr	r1, [pc, #460]	; (8002934 <FUNC_Transmission+0xb04>)
 8002768:	f897 3747 	ldrb.w	r3, [r7, #1863]	; 0x747
 800276c:	f884 30f1 	strb.w	r3, [r4, #241]	; 0xf1
 8002770:	e9d1 0100 	ldrd	r0, r1, [r1]
 8002774:	f884 30f2 	strb.w	r3, [r4, #242]	; 0xf2
 8002778:	f897 376e 	ldrb.w	r3, [r7, #1902]	; 0x76e
 800277c:	f884 30f3 	strb.w	r3, [r4, #243]	; 0xf3
 8002780:	f897 376c 	ldrb.w	r3, [r7, #1900]	; 0x76c
 8002784:	f884 30f5 	strb.w	r3, [r4, #245]	; 0xf5
 8002788:	e9c4 0104 	strd	r0, r1, [r4, #16]
 800278c:	f897 3750 	ldrb.w	r3, [r7, #1872]	; 0x750
 8002790:	f897 1749 	ldrb.w	r1, [r7, #1865]	; 0x749
 8002794:	f884 1142 	strb.w	r1, [r4, #322]	; 0x142
 8002798:	f884 30f6 	strb.w	r3, [r4, #246]	; 0xf6
 800279c:	f884 10f7 	strb.w	r1, [r4, #247]	; 0xf7
 80027a0:	f897 368a 	ldrb.w	r3, [r7, #1674]	; 0x68a
 80027a4:	f897 176d 	ldrb.w	r1, [r7, #1901]	; 0x76d
 80027a8:	f884 30bf 	strb.w	r3, [r4, #191]	; 0xbf
 80027ac:	f884 10f8 	strb.w	r1, [r4, #248]	; 0xf8
 80027b0:	f884 30c0 	strb.w	r3, [r4, #192]	; 0xc0
 80027b4:	f897 175e 	ldrb.w	r1, [r7, #1886]	; 0x75e
 80027b8:	f897 376a 	ldrb.w	r3, [r7, #1898]	; 0x76a
 80027bc:	f884 2141 	strb.w	r2, [r4, #321]	; 0x141
 80027c0:	f884 1143 	strb.w	r1, [r4, #323]	; 0x143
 80027c4:	f897 2764 	ldrb.w	r2, [r7, #1892]	; 0x764
 80027c8:	f897 1760 	ldrb.w	r1, [r7, #1888]	; 0x760
 80027cc:	f884 3145 	strb.w	r3, [r4, #325]	; 0x145
 80027d0:	f897 3689 	ldrb.w	r3, [r7, #1673]	; 0x689
 80027d4:	f884 20f4 	strb.w	r2, [r4, #244]	; 0xf4
 80027d8:	f884 10f9 	strb.w	r1, [r4, #249]	; 0xf9
 80027dc:	f884 2144 	strb.w	r2, [r4, #324]	; 0x144
 80027e0:	f884 30c1 	strb.w	r3, [r4, #193]	; 0xc1
 80027e4:	4d4b      	ldr	r5, [pc, #300]	; (8002914 <FUNC_Transmission+0xae4>)
 80027e6:	f995 36c8 	ldrsb.w	r3, [r5, #1736]	; 0x6c8
 80027ea:	1e5c      	subs	r4, r3, #1
 80027ec:	4262      	negs	r2, r4
 80027ee:	4162      	adcs	r2, r4
 80027f0:	2b03      	cmp	r3, #3
 80027f2:	bfd4      	ite	le
 80027f4:	2300      	movle	r3, #0
 80027f6:	2301      	movgt	r3, #1
 80027f8:	f885 26ca 	strb.w	r2, [r5, #1738]	; 0x6ca
 80027fc:	f885 36cb 	strb.w	r3, [r5, #1739]	; 0x6cb
 8002800:	f8b5 36ca 	ldrh.w	r3, [r5, #1738]	; 0x6ca
 8002804:	3300      	adds	r3, #0
 8002806:	bf18      	it	ne
 8002808:	2301      	movne	r3, #1
 800280a:	f885 36cc 	strb.w	r3, [r5, #1740]	; 0x6cc
 800280e:	462c      	mov	r4, r5
 8002810:	2b00      	cmp	r3, #0
 8002812:	f000 8420 	beq.w	8003056 <FUNC_Transmission+0x1226>
 8002816:	4e48      	ldr	r6, [pc, #288]	; (8002938 <FUNC_Transmission+0xb08>)
 8002818:	f895 977f 	ldrb.w	r9, [r5, #1919]	; 0x77f
 800281c:	f896 3135 	ldrb.w	r3, [r6, #309]	; 0x135
 8002820:	f885 36d0 	strb.w	r3, [r5, #1744]	; 0x6d0
 8002824:	4599      	cmp	r9, r3
 8002826:	bf94      	ite	ls
 8002828:	f04f 0800 	movls.w	r8, #0
 800282c:	f04f 0801 	movhi.w	r8, #1
 8002830:	f505 63b1 	add.w	r3, r5, #1416	; 0x588
 8002834:	fab9 f989 	clz	r9, r9
 8002838:	f896 7136 	ldrb.w	r7, [r6, #310]	; 0x136
 800283c:	f885 86d1 	strb.w	r8, [r5, #1745]	; 0x6d1
 8002840:	ea4f 1959 	mov.w	r9, r9, lsr #5
 8002844:	e9d3 0100 	ldrd	r0, r1, [r3]
 8002848:	f885 96d2 	strb.w	r9, [r5, #1746]	; 0x6d2
 800284c:	f885 76d3 	strb.w	r7, [r5, #1747]	; 0x6d3
 8002850:	2200      	movs	r2, #0
 8002852:	4b3a      	ldr	r3, [pc, #232]	; (800293c <FUNC_Transmission+0xb0c>)
 8002854:	f04f 0a01 	mov.w	sl, #1
 8002858:	f006 fad6 	bl	8008e08 <__aeabi_dcmpgt>
 800285c:	b900      	cbnz	r0, 8002860 <FUNC_Transmission+0xa30>
 800285e:	4682      	mov	sl, r0
 8002860:	f885 a6d4 	strb.w	sl, [r5, #1748]	; 0x6d4
 8002864:	4d2b      	ldr	r5, [pc, #172]	; (8002914 <FUNC_Transmission+0xae4>)
 8002866:	f505 6383 	add.w	r3, r5, #1048	; 0x418
 800286a:	e9d3 0100 	ldrd	r0, r1, [r3]
 800286e:	2200      	movs	r2, #0
 8002870:	4b32      	ldr	r3, [pc, #200]	; (800293c <FUNC_Transmission+0xb0c>)
 8002872:	f04f 0a01 	mov.w	sl, #1
 8002876:	f006 fac7 	bl	8008e08 <__aeabi_dcmpgt>
 800287a:	b900      	cbnz	r0, 800287e <FUNC_Transmission+0xa4e>
 800287c:	4682      	mov	sl, r0
 800287e:	f885 a6d5 	strb.w	sl, [r5, #1749]	; 0x6d5
 8002882:	f8b4 26d4 	ldrh.w	r2, [r4, #1748]	; 0x6d4
 8002886:	1c11      	adds	r1, r2, #0
 8002888:	bf18      	it	ne
 800288a:	2101      	movne	r1, #1
 800288c:	428f      	cmp	r7, r1
 800288e:	bf94      	ite	ls
 8002890:	2300      	movls	r3, #0
 8002892:	2301      	movhi	r3, #1
 8002894:	f1b9 0f00 	cmp.w	r9, #0
 8002898:	f884 36d7 	strb.w	r3, [r4, #1751]	; 0x6d7
 800289c:	f896 2137 	ldrb.w	r2, [r6, #311]	; 0x137
 80028a0:	f884 26d9 	strb.w	r2, [r4, #1753]	; 0x6d9
 80028a4:	bf18      	it	ne
 80028a6:	2301      	movne	r3, #1
 80028a8:	f884 36d8 	strb.w	r3, [r4, #1752]	; 0x6d8
 80028ac:	eb03 0348 	add.w	r3, r3, r8, lsl #1
 80028b0:	eb02 0243 	add.w	r2, r2, r3, lsl #1
 80028b4:	4b22      	ldr	r3, [pc, #136]	; (8002940 <FUNC_Transmission+0xb10>)
 80028b6:	f884 16d6 	strb.w	r1, [r4, #1750]	; 0x6d6
 80028ba:	441a      	add	r2, r3
 80028bc:	461d      	mov	r5, r3
 80028be:	f892 0330 	ldrb.w	r0, [r2, #816]	; 0x330
 80028c2:	f892 2338 	ldrb.w	r2, [r2, #824]	; 0x338
 80028c6:	f884 26db 	strb.w	r2, [r4, #1755]	; 0x6db
 80028ca:	2800      	cmp	r0, #0
 80028cc:	bf14      	ite	ne
 80028ce:	460a      	movne	r2, r1
 80028d0:	2200      	moveq	r2, #0
 80028d2:	f896 30c3 	ldrb.w	r3, [r6, #195]	; 0xc3
 80028d6:	f884 26dc 	strb.w	r2, [r4, #1756]	; 0x6dc
 80028da:	f884 26dd 	strb.w	r2, [r4, #1757]	; 0x6dd
 80028de:	f896 20c2 	ldrb.w	r2, [r6, #194]	; 0xc2
 80028e2:	f896 1138 	ldrb.w	r1, [r6, #312]	; 0x138
 80028e6:	f884 26de 	strb.w	r2, [r4, #1758]	; 0x6de
 80028ea:	eb03 0242 	add.w	r2, r3, r2, lsl #1
 80028ee:	eb01 0242 	add.w	r2, r1, r2, lsl #1
 80028f2:	442a      	add	r2, r5
 80028f4:	f884 06da 	strb.w	r0, [r4, #1754]	; 0x6da
 80028f8:	f884 36df 	strb.w	r3, [r4, #1759]	; 0x6df
 80028fc:	f892 0330 	ldrb.w	r0, [r2, #816]	; 0x330
 8002900:	f892 3338 	ldrb.w	r3, [r2, #824]	; 0x338
 8002904:	f884 36e2 	strb.w	r3, [r4, #1762]	; 0x6e2
 8002908:	f884 16e0 	strb.w	r1, [r4, #1760]	; 0x6e0
 800290c:	f884 06e1 	strb.w	r0, [r4, #1761]	; 0x6e1
 8002910:	e018      	b.n	8002944 <FUNC_Transmission+0xb14>
 8002912:	bf00      	nop
 8002914:	200008a0 	.word	0x200008a0
 8002918:	3ff00000 	.word	0x3ff00000
 800291c:	bfe00000 	.word	0xbfe00000
 8002920:	08009318 	.word	0x08009318
 8002924:	20000df8 	.word	0x20000df8
 8002928:	40340000 	.word	0x40340000
 800292c:	c0340000 	.word	0xc0340000
 8002930:	2000110e 	.word	0x2000110e
 8002934:	20000d88 	.word	0x20000d88
 8002938:	20001030 	.word	0x20001030
 800293c:	40080000 	.word	0x40080000
 8002940:	08009068 	.word	0x08009068
 8002944:	f005 ff5a 	bl	80087fc <__aeabi_ui2d>
 8002948:	e9d6 2300 	ldrd	r2, r3, [r6]
 800294c:	e9c4 0114 	strd	r0, r1, [r4, #80]	; 0x50
 8002950:	49c3      	ldr	r1, [pc, #780]	; (8002c60 <FUNC_Transmission+0xe30>)
 8002952:	e9c4 2316 	strd	r2, r3, [r4, #88]	; 0x58
 8002956:	e9d1 0100 	ldrd	r0, r1, [r1]
 800295a:	f04f 0701 	mov.w	r7, #1
 800295e:	f006 fa53 	bl	8008e08 <__aeabi_dcmpgt>
 8002962:	b900      	cbnz	r0, 8002966 <FUNC_Transmission+0xb36>
 8002964:	4607      	mov	r7, r0
 8002966:	f896 30d7 	ldrb.w	r3, [r6, #215]	; 0xd7
 800296a:	f896 2139 	ldrb.w	r2, [r6, #313]	; 0x139
 800296e:	f884 36e4 	strb.w	r3, [r4, #1764]	; 0x6e4
 8002972:	b2f9      	uxtb	r1, r7
 8002974:	eb03 0341 	add.w	r3, r3, r1, lsl #1
 8002978:	eb02 0343 	add.w	r3, r2, r3, lsl #1
 800297c:	442b      	add	r3, r5
 800297e:	f896 50d8 	ldrb.w	r5, [r6, #216]	; 0xd8
 8002982:	f893 8330 	ldrb.w	r8, [r3, #816]	; 0x330
 8002986:	f893 3338 	ldrb.w	r3, [r3, #824]	; 0x338
 800298a:	f884 36e7 	strb.w	r3, [r4, #1767]	; 0x6e7
 800298e:	4bb5      	ldr	r3, [pc, #724]	; (8002c64 <FUNC_Transmission+0xe34>)
 8002990:	f884 26e5 	strb.w	r2, [r4, #1765]	; 0x6e5
 8002994:	e9d3 0100 	ldrd	r0, r1, [r3]
 8002998:	f884 76e3 	strb.w	r7, [r4, #1763]	; 0x6e3
 800299c:	4602      	mov	r2, r0
 800299e:	460b      	mov	r3, r1
 80029a0:	f884 86e6 	strb.w	r8, [r4, #1766]	; 0x6e6
 80029a4:	f884 56e8 	strb.w	r5, [r4, #1768]	; 0x6e8
 80029a8:	f005 fdec 	bl	8008584 <__adddf3>
 80029ac:	a3a2      	add	r3, pc, #648	; (adr r3, 8002c38 <FUNC_Transmission+0xe08>)
 80029ae:	e9d3 2300 	ldrd	r2, r3, [r3]
 80029b2:	e9c4 0118 	strd	r0, r1, [r4, #96]	; 0x60
 80029b6:	e9cd 0102 	strd	r0, r1, [sp, #8]
 80029ba:	f04f 0601 	mov.w	r6, #1
 80029be:	f006 fa23 	bl	8008e08 <__aeabi_dcmpgt>
 80029c2:	b900      	cbnz	r0, 80029c6 <FUNC_Transmission+0xb96>
 80029c4:	4606      	mov	r6, r0
 80029c6:	f884 66e9 	strb.w	r6, [r4, #1769]	; 0x6e9
 80029ca:	e9dd 0102 	ldrd	r0, r1, [sp, #8]
 80029ce:	2200      	movs	r2, #0
 80029d0:	4ba5      	ldr	r3, [pc, #660]	; (8002c68 <FUNC_Transmission+0xe38>)
 80029d2:	fa5f f986 	uxtb.w	r9, r6
 80029d6:	f04f 0701 	mov.w	r7, #1
 80029da:	f006 fa15 	bl	8008e08 <__aeabi_dcmpgt>
 80029de:	b900      	cbnz	r0, 80029e2 <FUNC_Transmission+0xbb2>
 80029e0:	4607      	mov	r7, r0
 80029e2:	f884 76ea 	strb.w	r7, [r4, #1770]	; 0x6ea
 80029e6:	e9dd 0102 	ldrd	r0, r1, [sp, #8]
 80029ea:	a395      	add	r3, pc, #596	; (adr r3, 8002c40 <FUNC_Transmission+0xe10>)
 80029ec:	e9d3 2300 	ldrd	r2, r3, [r3]
 80029f0:	b2fe      	uxtb	r6, r7
 80029f2:	f04f 0701 	mov.w	r7, #1
 80029f6:	f006 fa07 	bl	8008e08 <__aeabi_dcmpgt>
 80029fa:	b900      	cbnz	r0, 80029fe <FUNC_Transmission+0xbce>
 80029fc:	4607      	mov	r7, r0
 80029fe:	4b9b      	ldr	r3, [pc, #620]	; (8002c6c <FUNC_Transmission+0xe3c>)
 8002a00:	f884 76eb 	strb.w	r7, [r4, #1771]	; 0x6eb
 8002a04:	ed93 7b00 	vldr	d7, [r3]
 8002a08:	444e      	add	r6, r9
 8002a0a:	fa56 f687 	uxtab	r6, r6, r7
 8002a0e:	b2f6      	uxtb	r6, r6
 8002a10:	f884 6684 	strb.w	r6, [r4, #1668]	; 0x684
 8002a14:	ec51 0b17 	vmov	r0, r1, d7
 8002a18:	2200      	movs	r2, #0
 8002a1a:	4b95      	ldr	r3, [pc, #596]	; (8002c70 <FUNC_Transmission+0xe40>)
 8002a1c:	ed8d 7b04 	vstr	d7, [sp, #16]
 8002a20:	f04f 0701 	mov.w	r7, #1
 8002a24:	f006 f9e6 	bl	8008df4 <__aeabi_dcmpge>
 8002a28:	b900      	cbnz	r0, 8002a2c <FUNC_Transmission+0xbfc>
 8002a2a:	4607      	mov	r7, r0
 8002a2c:	f017 0fff 	tst.w	r7, #255	; 0xff
 8002a30:	4b90      	ldr	r3, [pc, #576]	; (8002c74 <FUNC_Transmission+0xe44>)
 8002a32:	bf18      	it	ne
 8002a34:	4990      	ldrne	r1, [pc, #576]	; (8002c78 <FUNC_Transmission+0xe48>)
 8002a36:	f884 76ec 	strb.w	r7, [r4, #1772]	; 0x6ec
 8002a3a:	bf08      	it	eq
 8002a3c:	f04f 4180 	moveq.w	r1, #1073741824	; 0x40000000
 8002a40:	2000      	movs	r0, #0
 8002a42:	e9c3 011a 	strd	r0, r1, [r3, #104]	; 0x68
 8002a46:	4630      	mov	r0, r6
 8002a48:	f005 fee8 	bl	800881c <__aeabi_i2d>
 8002a4c:	e9d4 231a 	ldrd	r2, r3, [r4, #104]	; 0x68
 8002a50:	f04f 0701 	mov.w	r7, #1
 8002a54:	f006 f9ba 	bl	8008dcc <__aeabi_dcmplt>
 8002a58:	b900      	cbnz	r0, 8002a5c <FUNC_Transmission+0xc2c>
 8002a5a:	4607      	mov	r7, r0
 8002a5c:	4b85      	ldr	r3, [pc, #532]	; (8002c74 <FUNC_Transmission+0xe44>)
 8002a5e:	461c      	mov	r4, r3
 8002a60:	f883 76ed 	strb.w	r7, [r3, #1773]	; 0x6ed
 8002a64:	4b85      	ldr	r3, [pc, #532]	; (8002c7c <FUNC_Transmission+0xe4c>)
 8002a66:	f893 20d9 	ldrb.w	r2, [r3, #217]	; 0xd9
 8002a6a:	f893 30da 	ldrb.w	r3, [r3, #218]	; 0xda
 8002a6e:	f884 36ef 	strb.w	r3, [r4, #1775]	; 0x6ef
 8002a72:	f504 6390 	add.w	r3, r4, #1152	; 0x480
 8002a76:	e9d3 ab00 	ldrd	sl, fp, [r3]
 8002a7a:	f884 26ee 	strb.w	r2, [r4, #1774]	; 0x6ee
 8002a7e:	4650      	mov	r0, sl
 8002a80:	4659      	mov	r1, fp
 8002a82:	a371      	add	r3, pc, #452	; (adr r3, 8002c48 <FUNC_Transmission+0xe18>)
 8002a84:	e9d3 2300 	ldrd	r2, r3, [r3]
 8002a88:	f04f 0701 	mov.w	r7, #1
 8002a8c:	f006 f9bc 	bl	8008e08 <__aeabi_dcmpgt>
 8002a90:	b900      	cbnz	r0, 8002a94 <FUNC_Transmission+0xc64>
 8002a92:	4607      	mov	r7, r0
 8002a94:	1eb0      	subs	r0, r6, #2
 8002a96:	4243      	negs	r3, r0
 8002a98:	4143      	adcs	r3, r0
 8002a9a:	2b00      	cmp	r3, #0
 8002a9c:	fa5f fc87 	uxtb.w	ip, r7
 8002aa0:	bf08      	it	eq
 8002aa2:	f04f 0c00 	moveq.w	ip, #0
 8002aa6:	f884 76f0 	strb.w	r7, [r4, #1776]	; 0x6f0
 8002aaa:	f884 36f1 	strb.w	r3, [r4, #1777]	; 0x6f1
 8002aae:	f884 c6f2 	strb.w	ip, [r4, #1778]	; 0x6f2
 8002ab2:	4650      	mov	r0, sl
 8002ab4:	4659      	mov	r1, fp
 8002ab6:	a366      	add	r3, pc, #408	; (adr r3, 8002c50 <FUNC_Transmission+0xe20>)
 8002ab8:	e9d3 2300 	ldrd	r2, r3, [r3]
 8002abc:	f8cd c018 	str.w	ip, [sp, #24]
 8002ac0:	f006 f9a2 	bl	8008e08 <__aeabi_dcmpgt>
 8002ac4:	f04f 0701 	mov.w	r7, #1
 8002ac8:	f8dd c018 	ldr.w	ip, [sp, #24]
 8002acc:	b900      	cbnz	r0, 8002ad0 <FUNC_Transmission+0xca0>
 8002ace:	4607      	mov	r7, r0
 8002ad0:	1ef1      	subs	r1, r6, #3
 8002ad2:	b2fb      	uxtb	r3, r7
 8002ad4:	f884 76f3 	strb.w	r7, [r4, #1779]	; 0x6f3
 8002ad8:	424f      	negs	r7, r1
 8002ada:	414f      	adcs	r7, r1
 8002adc:	2b00      	cmp	r3, #0
 8002ade:	f884 76f4 	strb.w	r7, [r4, #1780]	; 0x6f4
 8002ae2:	bf08      	it	eq
 8002ae4:	2700      	moveq	r7, #0
 8002ae6:	f884 76f5 	strb.w	r7, [r4, #1781]	; 0x6f5
 8002aea:	b955      	cbnz	r5, 8002b02 <FUNC_Transmission+0xcd2>
 8002aec:	4b61      	ldr	r3, [pc, #388]	; (8002c74 <FUNC_Transmission+0xe44>)
 8002aee:	f8d3 36ec 	ldr.w	r3, [r3, #1772]	; 0x6ec
 8002af2:	f033 03ff 	bics.w	r3, r3, #255	; 0xff
 8002af6:	d104      	bne.n	8002b02 <FUNC_Transmission+0xcd2>
 8002af8:	f1bc 0f00 	cmp.w	ip, #0
 8002afc:	bf18      	it	ne
 8002afe:	2701      	movne	r7, #1
 8002b00:	e000      	b.n	8002b04 <FUNC_Transmission+0xcd4>
 8002b02:	2701      	movs	r7, #1
 8002b04:	4a5d      	ldr	r2, [pc, #372]	; (8002c7c <FUNC_Transmission+0xe4c>)
 8002b06:	f884 76f6 	strb.w	r7, [r4, #1782]	; 0x6f6
 8002b0a:	f892 313a 	ldrb.w	r3, [r2, #314]	; 0x13a
 8002b0e:	f884 36f7 	strb.w	r3, [r4, #1783]	; 0x6f7
 8002b12:	eb07 0148 	add.w	r1, r7, r8, lsl #1
 8002b16:	eb03 0341 	add.w	r3, r3, r1, lsl #1
 8002b1a:	4959      	ldr	r1, [pc, #356]	; (8002c80 <FUNC_Transmission+0xe50>)
 8002b1c:	440b      	add	r3, r1
 8002b1e:	f04f 0b01 	mov.w	fp, #1
 8002b22:	f893 1330 	ldrb.w	r1, [r3, #816]	; 0x330
 8002b26:	f893 3338 	ldrb.w	r3, [r3, #824]	; 0x338
 8002b2a:	f884 36f9 	strb.w	r3, [r4, #1785]	; 0x6f9
 8002b2e:	e9d2 2302 	ldrd	r2, r3, [r2, #8]
 8002b32:	f884 16f8 	strb.w	r1, [r4, #1784]	; 0x6f8
 8002b36:	4953      	ldr	r1, [pc, #332]	; (8002c84 <FUNC_Transmission+0xe54>)
 8002b38:	e9c4 231c 	strd	r2, r3, [r4, #112]	; 0x70
 8002b3c:	e9d1 0100 	ldrd	r0, r1, [r1]
 8002b40:	f006 f962 	bl	8008e08 <__aeabi_dcmpgt>
 8002b44:	b900      	cbnz	r0, 8002b48 <FUNC_Transmission+0xd18>
 8002b46:	4683      	mov	fp, r0
 8002b48:	ed9d 7b02 	vldr	d7, [sp, #8]
 8002b4c:	4d49      	ldr	r5, [pc, #292]	; (8002c74 <FUNC_Transmission+0xe44>)
 8002b4e:	ec51 0b17 	vmov	r0, r1, d7
 8002b52:	f885 b6fa 	strb.w	fp, [r5, #1786]	; 0x6fa
 8002b56:	ed85 7b1e 	vstr	d7, [r5, #120]	; 0x78
 8002b5a:	f885 96fb 	strb.w	r9, [r5, #1787]	; 0x6fb
 8002b5e:	a33e      	add	r3, pc, #248	; (adr r3, 8002c58 <FUNC_Transmission+0xe28>)
 8002b60:	e9d3 2300 	ldrd	r2, r3, [r3]
 8002b64:	fa5f fa8b 	uxtb.w	sl, fp
 8002b68:	f04f 0b01 	mov.w	fp, #1
 8002b6c:	f006 f94c 	bl	8008e08 <__aeabi_dcmpgt>
 8002b70:	b900      	cbnz	r0, 8002b74 <FUNC_Transmission+0xd44>
 8002b72:	4683      	mov	fp, r0
 8002b74:	fa5f fc8b 	uxtb.w	ip, fp
 8002b78:	f885 b6fc 	strb.w	fp, [r5, #1788]	; 0x6fc
 8002b7c:	e9dd 0102 	ldrd	r0, r1, [sp, #8]
 8002b80:	2200      	movs	r2, #0
 8002b82:	4b41      	ldr	r3, [pc, #260]	; (8002c88 <FUNC_Transmission+0xe58>)
 8002b84:	f8cd c018 	str.w	ip, [sp, #24]
 8002b88:	f006 f93e 	bl	8008e08 <__aeabi_dcmpgt>
 8002b8c:	f04f 0501 	mov.w	r5, #1
 8002b90:	f8dd c018 	ldr.w	ip, [sp, #24]
 8002b94:	b900      	cbnz	r0, 8002b98 <FUNC_Transmission+0xd68>
 8002b96:	4605      	mov	r5, r0
 8002b98:	44e1      	add	r9, ip
 8002b9a:	f884 56fd 	strb.w	r5, [r4, #1789]	; 0x6fd
 8002b9e:	fa59 f985 	uxtab	r9, r9, r5
 8002ba2:	4d36      	ldr	r5, [pc, #216]	; (8002c7c <FUNC_Transmission+0xe4c>)
 8002ba4:	f895 30bc 	ldrb.w	r3, [r5, #188]	; 0xbc
 8002ba8:	f884 3686 	strb.w	r3, [r4, #1670]	; 0x686
 8002bac:	fa5f f989 	uxtb.w	r9, r9
 8002bb0:	4599      	cmp	r9, r3
 8002bb2:	bf94      	ite	ls
 8002bb4:	2300      	movls	r3, #0
 8002bb6:	2301      	movhi	r3, #1
 8002bb8:	f1b9 0f02 	cmp.w	r9, #2
 8002bbc:	f884 36fe 	strb.w	r3, [r4, #1790]	; 0x6fe
 8002bc0:	bf94      	ite	ls
 8002bc2:	2300      	movls	r3, #0
 8002bc4:	2301      	movhi	r3, #1
 8002bc6:	f884 36ff 	strb.w	r3, [r4, #1791]	; 0x6ff
 8002bca:	f895 30db 	ldrb.w	r3, [r5, #219]	; 0xdb
 8002bce:	f884 3700 	strb.w	r3, [r4, #1792]	; 0x700
 8002bd2:	fab9 fb89 	clz	fp, r9
 8002bd6:	f895 30dc 	ldrb.w	r3, [r5, #220]	; 0xdc
 8002bda:	f884 3701 	strb.w	r3, [r4, #1793]	; 0x701
 8002bde:	ea4f 1b5b 	mov.w	fp, fp, lsr #5
 8002be2:	f04f 0c01 	mov.w	ip, #1
 8002be6:	f884 9685 	strb.w	r9, [r4, #1669]	; 0x685
 8002bea:	f884 b702 	strb.w	fp, [r4, #1794]	; 0x702
 8002bee:	e9dd 0104 	ldrd	r0, r1, [sp, #16]
 8002bf2:	2200      	movs	r2, #0
 8002bf4:	4b1e      	ldr	r3, [pc, #120]	; (8002c70 <FUNC_Transmission+0xe40>)
 8002bf6:	f8cd c008 	str.w	ip, [sp, #8]
 8002bfa:	f006 f8e7 	bl	8008dcc <__aeabi_dcmplt>
 8002bfe:	f8dd c008 	ldr.w	ip, [sp, #8]
 8002c02:	b900      	cbnz	r0, 8002c06 <FUNC_Transmission+0xdd6>
 8002c04:	4684      	mov	ip, r0
 8002c06:	4a1b      	ldr	r2, [pc, #108]	; (8002c74 <FUNC_Transmission+0xe44>)
 8002c08:	fa5f f38c 	uxtb.w	r3, ip
 8002c0c:	f1bb 0f00 	cmp.w	fp, #0
 8002c10:	bf18      	it	ne
 8002c12:	469b      	movne	fp, r3
 8002c14:	f8b2 36fe 	ldrh.w	r3, [r2, #1790]	; 0x6fe
 8002c18:	f882 c703 	strb.w	ip, [r2, #1795]	; 0x703
 8002c1c:	bf08      	it	eq
 8002c1e:	f04f 0b00 	moveq.w	fp, #0
 8002c22:	f882 b704 	strb.w	fp, [r2, #1796]	; 0x704
 8002c26:	bb8b      	cbnz	r3, 8002c8c <FUNC_Transmission+0xe5c>
 8002c28:	f8b2 3700 	ldrh.w	r3, [r2, #1792]	; 0x700
 8002c2c:	2b00      	cmp	r3, #0
 8002c2e:	bf18      	it	ne
 8002c30:	f04f 0b01 	movne.w	fp, #1
 8002c34:	e02c      	b.n	8002c90 <FUNC_Transmission+0xe60>
 8002c36:	bf00      	nop
 8002c38:	00000000 	.word	0x00000000
 8002c3c:	40652000 	.word	0x40652000
 8002c40:	00000000 	.word	0x00000000
 8002c44:	40745000 	.word	0x40745000
 8002c48:	00000000 	.word	0x00000000
 8002c4c:	40b38800 	.word	0x40b38800
 8002c50:	00000000 	.word	0x00000000
 8002c54:	40b4b400 	.word	0x40b4b400
 8002c58:	00000000 	.word	0x00000000
 8002c5c:	4070d000 	.word	0x4070d000
 8002c60:	20000d88 	.word	0x20000d88
 8002c64:	20000d18 	.word	0x20000d18
 8002c68:	406c8000 	.word	0x406c8000
 8002c6c:	20000d70 	.word	0x20000d70
 8002c70:	402e0000 	.word	0x402e0000
 8002c74:	200008a0 	.word	0x200008a0
 8002c78:	3ff00000 	.word	0x3ff00000
 8002c7c:	20001030 	.word	0x20001030
 8002c80:	08009068 	.word	0x08009068
 8002c84:	20000d80 	.word	0x20000d80
 8002c88:	40768000 	.word	0x40768000
 8002c8c:	f04f 0b01 	mov.w	fp, #1
 8002c90:	f895 313b 	ldrb.w	r3, [r5, #315]	; 0x13b
 8002c94:	4966      	ldr	r1, [pc, #408]	; (8002e30 <FUNC_Transmission+0x1000>)
 8002c96:	f884 3706 	strb.w	r3, [r4, #1798]	; 0x706
 8002c9a:	eb0b 0a4a 	add.w	sl, fp, sl, lsl #1
 8002c9e:	eb03 034a 	add.w	r3, r3, sl, lsl #1
 8002ca2:	eb01 0a03 	add.w	sl, r1, r3
 8002ca6:	f884 b705 	strb.w	fp, [r4, #1797]	; 0x705
 8002caa:	f89a 1338 	ldrb.w	r1, [sl, #824]	; 0x338
 8002cae:	f89a 3330 	ldrb.w	r3, [sl, #816]	; 0x330
 8002cb2:	f884 1708 	strb.w	r1, [r4, #1800]	; 0x708
 8002cb6:	2100      	movs	r1, #0
 8002cb8:	485e      	ldr	r0, [pc, #376]	; (8002e34 <FUNC_Transmission+0x1004>)
 8002cba:	f884 3707 	strb.w	r3, [r4, #1799]	; 0x707
 8002cbe:	f884 1709 	strb.w	r1, [r4, #1801]	; 0x709
 8002cc2:	f1bb 0f00 	cmp.w	fp, #0
 8002cc6:	d003      	beq.n	8002cd0 <FUNC_Transmission+0xea0>
 8002cc8:	f880 10fa 	strb.w	r1, [r0, #250]	; 0xfa
 8002ccc:	b92b      	cbnz	r3, 8002cda <FUNC_Transmission+0xeaa>
 8002cce:	e00a      	b.n	8002ce6 <FUNC_Transmission+0xeb6>
 8002cd0:	b14b      	cbz	r3, 8002ce6 <FUNC_Transmission+0xeb6>
 8002cd2:	f890 10fa 	ldrb.w	r1, [r0, #250]	; 0xfa
 8002cd6:	293b      	cmp	r1, #59	; 0x3b
 8002cd8:	d803      	bhi.n	8002ce2 <FUNC_Transmission+0xeb2>
 8002cda:	3101      	adds	r1, #1
 8002cdc:	f885 10fa 	strb.w	r1, [r5, #250]	; 0xfa
 8002ce0:	e001      	b.n	8002ce6 <FUNC_Transmission+0xeb6>
 8002ce2:	f880 b0fa 	strb.w	fp, [r0, #250]	; 0xfa
 8002ce6:	f895 10fa 	ldrb.w	r1, [r5, #250]	; 0xfa
 8002cea:	f895 c0bd 	ldrb.w	ip, [r5, #189]	; 0xbd
 8002cee:	f882 c687 	strb.w	ip, [r2, #1671]	; 0x687
 8002cf2:	2901      	cmp	r1, #1
 8002cf4:	bf08      	it	eq
 8002cf6:	f882 1709 	strbeq.w	r1, [r2, #1801]	; 0x709
 8002cfa:	45e1      	cmp	r9, ip
 8002cfc:	bf94      	ite	ls
 8002cfe:	f04f 0900 	movls.w	r9, #0
 8002d02:	f04f 0901 	movhi.w	r9, #1
 8002d06:	f894 1709 	ldrb.w	r1, [r4, #1801]	; 0x709
 8002d0a:	f882 970a 	strb.w	r9, [r2, #1802]	; 0x70a
 8002d0e:	f1bb 0f00 	cmp.w	fp, #0
 8002d12:	bf18      	it	ne
 8002d14:	f04f 0901 	movne.w	r9, #1
 8002d18:	f895 213c 	ldrb.w	r2, [r5, #316]	; 0x13c
 8002d1c:	f884 970b 	strb.w	r9, [r4, #1803]	; 0x70b
 8002d20:	eb09 0941 	add.w	r9, r9, r1, lsl #1
 8002d24:	f884 270c 	strb.w	r2, [r4, #1804]	; 0x70c
 8002d28:	eb02 0949 	add.w	r9, r2, r9, lsl #1
 8002d2c:	4a40      	ldr	r2, [pc, #256]	; (8002e30 <FUNC_Transmission+0x1000>)
 8002d2e:	9302      	str	r3, [sp, #8]
 8002d30:	4491      	add	r9, r2
 8002d32:	f8df a100 	ldr.w	sl, [pc, #256]	; 8002e34 <FUNC_Transmission+0x1004>
 8002d36:	f899 2338 	ldrb.w	r2, [r9, #824]	; 0x338
 8002d3a:	f899 0330 	ldrb.w	r0, [r9, #816]	; 0x330
 8002d3e:	f884 270e 	strb.w	r2, [r4, #1806]	; 0x70e
 8002d42:	f884 070d 	strb.w	r0, [r4, #1805]	; 0x70d
 8002d46:	f005 fd59 	bl	80087fc <__aeabi_ui2d>
 8002d4a:	2200      	movs	r2, #0
 8002d4c:	e9c4 0120 	strd	r0, r1, [r4, #128]	; 0x80
 8002d50:	f884 270f 	strb.w	r2, [r4, #1807]	; 0x70f
 8002d54:	9b02      	ldr	r3, [sp, #8]
 8002d56:	b12f      	cbz	r7, 8002d64 <FUNC_Transmission+0xf34>
 8002d58:	f8aa 209c 	strh.w	r2, [sl, #156]	; 0x9c
 8002d5c:	f1b8 0f00 	cmp.w	r8, #0
 8002d60:	d108      	bne.n	8002d74 <FUNC_Transmission+0xf44>
 8002d62:	e00d      	b.n	8002d80 <FUNC_Transmission+0xf50>
 8002d64:	f1b8 0f00 	cmp.w	r8, #0
 8002d68:	d00a      	beq.n	8002d80 <FUNC_Transmission+0xf50>
 8002d6a:	f8ba 209c 	ldrh.w	r2, [sl, #156]	; 0x9c
 8002d6e:	f5b2 7ffa 	cmp.w	r2, #500	; 0x1f4
 8002d72:	d203      	bcs.n	8002d7c <FUNC_Transmission+0xf4c>
 8002d74:	3201      	adds	r2, #1
 8002d76:	f8a5 209c 	strh.w	r2, [r5, #156]	; 0x9c
 8002d7a:	e001      	b.n	8002d80 <FUNC_Transmission+0xf50>
 8002d7c:	f8aa 709c 	strh.w	r7, [sl, #156]	; 0x9c
 8002d80:	f8b5 209c 	ldrh.w	r2, [r5, #156]	; 0x9c
 8002d84:	f8df a0b0 	ldr.w	sl, [pc, #176]	; 8002e38 <FUNC_Transmission+0x1008>
 8002d88:	f5b2 7ffa 	cmp.w	r2, #500	; 0x1f4
 8002d8c:	bf04      	itt	eq
 8002d8e:	2201      	moveq	r2, #1
 8002d90:	f88a 270f 	strbeq.w	r2, [sl, #1807]	; 0x70f
 8002d94:	2200      	movs	r2, #0
 8002d96:	f88a 2710 	strb.w	r2, [sl, #1808]	; 0x710
 8002d9a:	f1bb 0f00 	cmp.w	fp, #0
 8002d9e:	d003      	beq.n	8002da8 <FUNC_Transmission+0xf78>
 8002da0:	f885 20fb 	strb.w	r2, [r5, #251]	; 0xfb
 8002da4:	b92b      	cbnz	r3, 8002db2 <FUNC_Transmission+0xf82>
 8002da6:	e00b      	b.n	8002dc0 <FUNC_Transmission+0xf90>
 8002da8:	b153      	cbz	r3, 8002dc0 <FUNC_Transmission+0xf90>
 8002daa:	f895 20fb 	ldrb.w	r2, [r5, #251]	; 0xfb
 8002dae:	2ac7      	cmp	r2, #199	; 0xc7
 8002db0:	d803      	bhi.n	8002dba <FUNC_Transmission+0xf8a>
 8002db2:	3201      	adds	r2, #1
 8002db4:	f885 20fb 	strb.w	r2, [r5, #251]	; 0xfb
 8002db8:	e002      	b.n	8002dc0 <FUNC_Transmission+0xf90>
 8002dba:	4a1e      	ldr	r2, [pc, #120]	; (8002e34 <FUNC_Transmission+0x1004>)
 8002dbc:	f882 b0fb 	strb.w	fp, [r2, #251]	; 0xfb
 8002dc0:	f895 20fb 	ldrb.w	r2, [r5, #251]	; 0xfb
 8002dc4:	4f1c      	ldr	r7, [pc, #112]	; (8002e38 <FUNC_Transmission+0x1008>)
 8002dc6:	2ab4      	cmp	r2, #180	; 0xb4
 8002dc8:	bf04      	itt	eq
 8002dca:	2201      	moveq	r2, #1
 8002dcc:	f88a 2710 	strbeq.w	r2, [sl, #1808]	; 0x710
 8002dd0:	4618      	mov	r0, r3
 8002dd2:	f005 fd13 	bl	80087fc <__aeabi_ui2d>
 8002dd6:	f895 30be 	ldrb.w	r3, [r5, #190]	; 0xbe
 8002dda:	f88a 3688 	strb.w	r3, [sl, #1672]	; 0x688
 8002dde:	429e      	cmp	r6, r3
 8002de0:	bf2c      	ite	cs
 8002de2:	2600      	movcs	r6, #0
 8002de4:	2601      	movcc	r6, #1
 8002de6:	e9ca 0122 	strd	r0, r1, [sl, #136]	; 0x88
 8002dea:	f88a 6711 	strb.w	r6, [sl, #1809]	; 0x711
 8002dee:	ed9f 8b0e 	vldr	d8, [pc, #56]	; 8002e28 <FUNC_Transmission+0xff8>
 8002df2:	f1b8 0f00 	cmp.w	r8, #0
 8002df6:	d004      	beq.n	8002e02 <FUNC_Transmission+0xfd2>
 8002df8:	4b10      	ldr	r3, [pc, #64]	; (8002e3c <FUNC_Transmission+0x100c>)
 8002dfa:	2200      	movs	r2, #0
 8002dfc:	e9c7 2324 	strd	r2, r3, [r7, #144]	; 0x90
 8002e00:	e001      	b.n	8002e06 <FUNC_Transmission+0xfd6>
 8002e02:	ed87 8b24 	vstr	d8, [r7, #144]	; 0x90
 8002e06:	e9da 6724 	ldrd	r6, r7, [sl, #144]	; 0x90
 8002e0a:	e9dd 0104 	ldrd	r0, r1, [sp, #16]
 8002e0e:	4632      	mov	r2, r6
 8002e10:	463b      	mov	r3, r7
 8002e12:	f8df 8024 	ldr.w	r8, [pc, #36]	; 8002e38 <FUNC_Transmission+0x1008>
 8002e16:	f005 fff7 	bl	8008e08 <__aeabi_dcmpgt>
 8002e1a:	b198      	cbz	r0, 8002e44 <FUNC_Transmission+0x1014>
 8002e1c:	4b08      	ldr	r3, [pc, #32]	; (8002e40 <FUNC_Transmission+0x1010>)
 8002e1e:	e9d3 2300 	ldrd	r2, r3, [r3]
 8002e22:	e9ca 2326 	strd	r2, r3, [sl, #152]	; 0x98
 8002e26:	e017      	b.n	8002e58 <FUNC_Transmission+0x1028>
	...
 8002e30:	08009068 	.word	0x08009068
 8002e34:	20001030 	.word	0x20001030
 8002e38:	200008a0 	.word	0x200008a0
 8002e3c:	40340000 	.word	0x40340000
 8002e40:	20000d70 	.word	0x20000d70
 8002e44:	4630      	mov	r0, r6
 8002e46:	4639      	mov	r1, r7
 8002e48:	f000 fda4 	bl	8003994 <rtIsNaN>
 8002e4c:	2800      	cmp	r0, #0
 8002e4e:	d1e5      	bne.n	8002e1c <FUNC_Transmission+0xfec>
 8002e50:	e9d8 2324 	ldrd	r2, r3, [r8, #144]	; 0x90
 8002e54:	e9c8 2326 	strd	r2, r3, [r8, #152]	; 0x98
 8002e58:	2600      	movs	r6, #0
 8002e5a:	2700      	movs	r7, #0
 8002e5c:	e9da 0126 	ldrd	r0, r1, [sl, #152]	; 0x98
 8002e60:	4632      	mov	r2, r6
 8002e62:	463b      	mov	r3, r7
 8002e64:	f005 ffd0 	bl	8008e08 <__aeabi_dcmpgt>
 8002e68:	b910      	cbnz	r0, 8002e70 <FUNC_Transmission+0x1040>
 8002e6a:	4b89      	ldr	r3, [pc, #548]	; (8003090 <FUNC_Transmission+0x1260>)
 8002e6c:	e9c3 6726 	strd	r6, r7, [r3, #152]	; 0x98
 8002e70:	e9da 6726 	ldrd	r6, r7, [sl, #152]	; 0x98
 8002e74:	2200      	movs	r2, #0
 8002e76:	4630      	mov	r0, r6
 8002e78:	4639      	mov	r1, r7
 8002e7a:	4b86      	ldr	r3, [pc, #536]	; (8003094 <FUNC_Transmission+0x1264>)
 8002e7c:	f04f 0901 	mov.w	r9, #1
 8002e80:	f005 ffc2 	bl	8008e08 <__aeabi_dcmpgt>
 8002e84:	b900      	cbnz	r0, 8002e88 <FUNC_Transmission+0x1058>
 8002e86:	4681      	mov	r9, r0
 8002e88:	f884 9712 	strb.w	r9, [r4, #1810]	; 0x712
 8002e8c:	fa5f f089 	uxtb.w	r0, r9
 8002e90:	f005 fcb4 	bl	80087fc <__aeabi_ui2d>
 8002e94:	f8df 81f8 	ldr.w	r8, [pc, #504]	; 8003090 <FUNC_Transmission+0x1260>
 8002e98:	f508 63ab 	add.w	r3, r8, #1368	; 0x558
 8002e9c:	e9c4 0128 	strd	r0, r1, [r4, #160]	; 0xa0
 8002ea0:	e9d3 2300 	ldrd	r2, r3, [r3]
 8002ea4:	4630      	mov	r0, r6
 8002ea6:	4639      	mov	r1, r7
 8002ea8:	f005 fb6a 	bl	8008580 <__aeabi_dsub>
 8002eac:	4606      	mov	r6, r0
 8002eae:	460f      	mov	r7, r1
 8002eb0:	e9c4 672a 	strd	r6, r7, [r4, #168]	; 0xa8
 8002eb4:	2200      	movs	r2, #0
 8002eb6:	4b78      	ldr	r3, [pc, #480]	; (8003098 <FUNC_Transmission+0x1268>)
 8002eb8:	f04f 0901 	mov.w	r9, #1
 8002ebc:	f005 ff86 	bl	8008dcc <__aeabi_dcmplt>
 8002ec0:	b900      	cbnz	r0, 8002ec4 <FUNC_Transmission+0x1094>
 8002ec2:	4681      	mov	r9, r0
 8002ec4:	4a75      	ldr	r2, [pc, #468]	; (800309c <FUNC_Transmission+0x126c>)
 8002ec6:	f888 9713 	strb.w	r9, [r8, #1811]	; 0x713
 8002eca:	230e      	movs	r3, #14
 8002ecc:	9300      	str	r3, [sp, #0]
 8002ece:	4630      	mov	r0, r6
 8002ed0:	f1a2 0378 	sub.w	r3, r2, #120	; 0x78
 8002ed4:	4639      	mov	r1, r7
 8002ed6:	f000 fb17 	bl	8003508 <look1_binlxpw>
 8002eda:	4606      	mov	r6, r0
 8002edc:	460f      	mov	r7, r1
 8002ede:	e9c4 672c 	strd	r6, r7, [r4, #176]	; 0xb0
 8002ee2:	f894 0713 	ldrb.w	r0, [r4, #1811]	; 0x713
 8002ee6:	f005 fc89 	bl	80087fc <__aeabi_ui2d>
 8002eea:	4602      	mov	r2, r0
 8002eec:	460b      	mov	r3, r1
 8002eee:	4630      	mov	r0, r6
 8002ef0:	4639      	mov	r1, r7
 8002ef2:	f005 fcf9 	bl	80088e8 <__aeabi_dmul>
 8002ef6:	4b6a      	ldr	r3, [pc, #424]	; (80030a0 <FUNC_Transmission+0x1270>)
 8002ef8:	4680      	mov	r8, r0
 8002efa:	4689      	mov	r9, r1
 8002efc:	e9c4 892e 	strd	r8, r9, [r4, #184]	; 0xb8
 8002f00:	e9d3 0100 	ldrd	r0, r1, [r3]
 8002f04:	2200      	movs	r2, #0
 8002f06:	4b67      	ldr	r3, [pc, #412]	; (80030a4 <FUNC_Transmission+0x1274>)
 8002f08:	f04f 0b01 	mov.w	fp, #1
 8002f0c:	f005 ff7c 	bl	8008e08 <__aeabi_dcmpgt>
 8002f10:	b900      	cbnz	r0, 8002f14 <FUNC_Transmission+0x10e4>
 8002f12:	4683      	mov	fp, r0
 8002f14:	f01b 0fff 	tst.w	fp, #255	; 0xff
 8002f18:	bf08      	it	eq
 8002f1a:	495e      	ldreq	r1, [pc, #376]	; (8003094 <FUNC_Transmission+0x1264>)
 8002f1c:	4b5c      	ldr	r3, [pc, #368]	; (8003090 <FUNC_Transmission+0x1260>)
 8002f1e:	f88a b714 	strb.w	fp, [sl, #1812]	; 0x714
 8002f22:	bf18      	it	ne
 8002f24:	f04f 4180 	movne.w	r1, #1073741824	; 0x40000000
 8002f28:	2000      	movs	r0, #0
 8002f2a:	e9c3 0130 	strd	r0, r1, [r3, #192]	; 0xc0
 8002f2e:	4640      	mov	r0, r8
 8002f30:	e9d4 2330 	ldrd	r2, r3, [r4, #192]	; 0xc0
 8002f34:	4649      	mov	r1, r9
 8002f36:	f005 fcd7 	bl	80088e8 <__aeabi_dmul>
 8002f3a:	e9d4 892a 	ldrd	r8, r9, [r4, #168]	; 0xa8
 8002f3e:	e9c4 0132 	strd	r0, r1, [r4, #200]	; 0xc8
 8002f42:	e9c4 0134 	strd	r0, r1, [r4, #208]	; 0xd0
 8002f46:	2200      	movs	r2, #0
 8002f48:	4640      	mov	r0, r8
 8002f4a:	4649      	mov	r1, r9
 8002f4c:	2300      	movs	r3, #0
 8002f4e:	f04f 0a01 	mov.w	sl, #1
 8002f52:	f005 ff59 	bl	8008e08 <__aeabi_dcmpgt>
 8002f56:	b900      	cbnz	r0, 8002f5a <FUNC_Transmission+0x112a>
 8002f58:	4682      	mov	sl, r0
 8002f5a:	f884 a715 	strb.w	sl, [r4, #1813]	; 0x715
 8002f5e:	fa5f f08a 	uxtb.w	r0, sl
 8002f62:	f005 fc4b 	bl	80087fc <__aeabi_ui2d>
 8002f66:	4602      	mov	r2, r0
 8002f68:	460b      	mov	r3, r1
 8002f6a:	4630      	mov	r0, r6
 8002f6c:	4639      	mov	r1, r7
 8002f6e:	f005 fcbb 	bl	80088e8 <__aeabi_dmul>
 8002f72:	2200      	movs	r2, #0
 8002f74:	e9c4 0136 	strd	r0, r1, [r4, #216]	; 0xd8
 8002f78:	e9c4 0138 	strd	r0, r1, [r4, #224]	; 0xe0
 8002f7c:	4b4a      	ldr	r3, [pc, #296]	; (80030a8 <FUNC_Transmission+0x1278>)
 8002f7e:	4640      	mov	r0, r8
 8002f80:	4649      	mov	r1, r9
 8002f82:	f04f 0601 	mov.w	r6, #1
 8002f86:	f005 ff21 	bl	8008dcc <__aeabi_dcmplt>
 8002f8a:	b900      	cbnz	r0, 8002f8e <FUNC_Transmission+0x115e>
 8002f8c:	4606      	mov	r6, r0
 8002f8e:	f884 6716 	strb.w	r6, [r4, #1814]	; 0x716
 8002f92:	b2f0      	uxtb	r0, r6
 8002f94:	f005 fc32 	bl	80087fc <__aeabi_ui2d>
 8002f98:	2301      	movs	r3, #1
 8002f9a:	f884 3717 	strb.w	r3, [r4, #1815]	; 0x717
 8002f9e:	f894 377f 	ldrb.w	r3, [r4, #1919]	; 0x77f
 8002fa2:	f885 3135 	strb.w	r3, [r5, #309]	; 0x135
 8002fa6:	f894 36d6 	ldrb.w	r3, [r4, #1750]	; 0x6d6
 8002faa:	f885 3136 	strb.w	r3, [r5, #310]	; 0x136
 8002fae:	f894 36da 	ldrb.w	r3, [r4, #1754]	; 0x6da
 8002fb2:	f885 3137 	strb.w	r3, [r5, #311]	; 0x137
 8002fb6:	ed84 8b3c 	vstr	d8, [r4, #240]	; 0xf0
 8002fba:	4b3c      	ldr	r3, [pc, #240]	; (80030ac <FUNC_Transmission+0x127c>)
 8002fbc:	f894 26e6 	ldrb.w	r2, [r4, #1766]	; 0x6e6
 8002fc0:	f885 20c2 	strb.w	r2, [r5, #194]	; 0xc2
 8002fc4:	ed84 8b3e 	vstr	d8, [r4, #248]	; 0xf8
 8002fc8:	ed84 8b40 	vstr	d8, [r4, #256]	; 0x100
 8002fcc:	e9c4 013a 	strd	r0, r1, [r4, #232]	; 0xe8
 8002fd0:	f103 0113 	add.w	r1, r3, #19
 8002fd4:	f813 0f01 	ldrb.w	r0, [r3, #1]!
 8002fd8:	f803 0c01 	strb.w	r0, [r3, #-1]
 8002fdc:	428b      	cmp	r3, r1
 8002fde:	d1f9      	bne.n	8002fd4 <FUNC_Transmission+0x11a4>
 8002fe0:	f894 36e1 	ldrb.w	r3, [r4, #1761]	; 0x6e1
 8002fe4:	f885 3138 	strb.w	r3, [r5, #312]	; 0x138
 8002fe8:	4b31      	ldr	r3, [pc, #196]	; (80030b0 <FUNC_Transmission+0x1280>)
 8002fea:	f894 16f6 	ldrb.w	r1, [r4, #1782]	; 0x6f6
 8002fee:	f885 10d6 	strb.w	r1, [r5, #214]	; 0xd6
 8002ff2:	e873 6702 	ldrd	r6, r7, [r3], #-8
 8002ff6:	e9c5 6700 	strd	r6, r7, [r5]
 8002ffa:	e9d3 6700 	ldrd	r6, r7, [r3]
 8002ffe:	f885 10d7 	strb.w	r1, [r5, #215]	; 0xd7
 8003002:	f894 3685 	ldrb.w	r3, [r4, #1669]	; 0x685
 8003006:	f894 170f 	ldrb.w	r1, [r4, #1807]	; 0x70f
 800300a:	f885 2139 	strb.w	r2, [r5, #313]	; 0x139
 800300e:	f885 10da 	strb.w	r1, [r5, #218]	; 0xda
 8003012:	f894 2711 	ldrb.w	r2, [r4, #1809]	; 0x711
 8003016:	f894 16f8 	ldrb.w	r1, [r4, #1784]	; 0x6f8
 800301a:	f885 30bc 	strb.w	r3, [r5, #188]	; 0xbc
 800301e:	f885 30bd 	strb.w	r3, [r5, #189]	; 0xbd
 8003022:	e9c5 6702 	strd	r6, r7, [r5, #8]
 8003026:	f894 370d 	ldrb.w	r3, [r4, #1805]	; 0x70d
 800302a:	f885 20d8 	strb.w	r2, [r5, #216]	; 0xd8
 800302e:	f885 113a 	strb.w	r1, [r5, #314]	; 0x13a
 8003032:	f894 2707 	ldrb.w	r2, [r4, #1799]	; 0x707
 8003036:	f885 10db 	strb.w	r1, [r5, #219]	; 0xdb
 800303a:	f885 313c 	strb.w	r3, [r5, #316]	; 0x13c
 800303e:	f894 1710 	ldrb.w	r1, [r4, #1808]	; 0x710
 8003042:	f894 3684 	ldrb.w	r3, [r4, #1668]	; 0x684
 8003046:	f885 20d9 	strb.w	r2, [r5, #217]	; 0xd9
 800304a:	f885 10dc 	strb.w	r1, [r5, #220]	; 0xdc
 800304e:	f885 213b 	strb.w	r2, [r5, #315]	; 0x13b
 8003052:	f885 30be 	strb.w	r3, [r5, #190]	; 0xbe
 8003056:	4c0e      	ldr	r4, [pc, #56]	; (8003090 <FUNC_Transmission+0x1260>)
 8003058:	f994 36c8 	ldrsb.w	r3, [r4, #1736]	; 0x6c8
 800305c:	1e9a      	subs	r2, r3, #2
 800305e:	4253      	negs	r3, r2
 8003060:	4153      	adcs	r3, r2
 8003062:	f884 36cd 	strb.w	r3, [r4, #1741]	; 0x6cd
 8003066:	2b00      	cmp	r3, #0
 8003068:	f000 8106 	beq.w	8003278 <FUNC_Transmission+0x1448>
 800306c:	f504 639a 	add.w	r3, r4, #1232	; 0x4d0
 8003070:	e9d3 6700 	ldrd	r6, r7, [r3]
 8003074:	f04f 0a00 	mov.w	sl, #0
 8003078:	f04f 0b00 	mov.w	fp, #0
 800307c:	4630      	mov	r0, r6
 800307e:	4639      	mov	r1, r7
 8003080:	4652      	mov	r2, sl
 8003082:	465b      	mov	r3, fp
 8003084:	f005 fec0 	bl	8008e08 <__aeabi_dcmpgt>
 8003088:	b1a0      	cbz	r0, 80030b4 <FUNC_Transmission+0x1284>
 800308a:	e9c4 6742 	strd	r6, r7, [r4, #264]	; 0x108
 800308e:	e013      	b.n	80030b8 <FUNC_Transmission+0x1288>
 8003090:	200008a0 	.word	0x200008a0
 8003094:	3ff00000 	.word	0x3ff00000
 8003098:	bfe00000 	.word	0xbfe00000
 800309c:	08009318 	.word	0x08009318
 80030a0:	20000df8 	.word	0x20000df8
 80030a4:	40340000 	.word	0x40340000
 80030a8:	c0340000 	.word	0xc0340000
 80030ac:	200010f3 	.word	0x200010f3
 80030b0:	20000d88 	.word	0x20000d88
 80030b4:	e9c4 ab42 	strd	sl, fp, [r4, #264]	; 0x108
 80030b8:	e9d4 6742 	ldrd	r6, r7, [r4, #264]	; 0x108
 80030bc:	2200      	movs	r2, #0
 80030be:	4630      	mov	r0, r6
 80030c0:	4639      	mov	r1, r7
 80030c2:	4b9d      	ldr	r3, [pc, #628]	; (8003338 <FUNC_Transmission+0x1508>)
 80030c4:	f04f 0501 	mov.w	r5, #1
 80030c8:	f005 fe9e 	bl	8008e08 <__aeabi_dcmpgt>
 80030cc:	b900      	cbnz	r0, 80030d0 <FUNC_Transmission+0x12a0>
 80030ce:	4605      	mov	r5, r0
 80030d0:	f884 5718 	strb.w	r5, [r4, #1816]	; 0x718
 80030d4:	b2e8      	uxtb	r0, r5
 80030d6:	f005 fb91 	bl	80087fc <__aeabi_ui2d>
 80030da:	f8df 826c 	ldr.w	r8, [pc, #620]	; 8003348 <FUNC_Transmission+0x1518>
 80030de:	f508 65ab 	add.w	r5, r8, #1368	; 0x558
 80030e2:	e9c4 0144 	strd	r0, r1, [r4, #272]	; 0x110
 80030e6:	e9d5 2300 	ldrd	r2, r3, [r5]
 80030ea:	4630      	mov	r0, r6
 80030ec:	4639      	mov	r1, r7
 80030ee:	f005 fa47 	bl	8008580 <__aeabi_dsub>
 80030f2:	4606      	mov	r6, r0
 80030f4:	460f      	mov	r7, r1
 80030f6:	e9c4 6746 	strd	r6, r7, [r4, #280]	; 0x118
 80030fa:	2200      	movs	r2, #0
 80030fc:	4b8f      	ldr	r3, [pc, #572]	; (800333c <FUNC_Transmission+0x150c>)
 80030fe:	f04f 0901 	mov.w	r9, #1
 8003102:	f005 fe63 	bl	8008dcc <__aeabi_dcmplt>
 8003106:	b900      	cbnz	r0, 800310a <FUNC_Transmission+0x12da>
 8003108:	4681      	mov	r9, r0
 800310a:	4a8d      	ldr	r2, [pc, #564]	; (8003340 <FUNC_Transmission+0x1510>)
 800310c:	f888 9719 	strb.w	r9, [r8, #1817]	; 0x719
 8003110:	230e      	movs	r3, #14
 8003112:	9300      	str	r3, [sp, #0]
 8003114:	4630      	mov	r0, r6
 8003116:	f1a2 0378 	sub.w	r3, r2, #120	; 0x78
 800311a:	4639      	mov	r1, r7
 800311c:	f000 f9f4 	bl	8003508 <look1_binlxpw>
 8003120:	4606      	mov	r6, r0
 8003122:	460f      	mov	r7, r1
 8003124:	e9c4 6748 	strd	r6, r7, [r4, #288]	; 0x120
 8003128:	f894 0719 	ldrb.w	r0, [r4, #1817]	; 0x719
 800312c:	f005 fb66 	bl	80087fc <__aeabi_ui2d>
 8003130:	4602      	mov	r2, r0
 8003132:	460b      	mov	r3, r1
 8003134:	4630      	mov	r0, r6
 8003136:	4639      	mov	r1, r7
 8003138:	f005 fbd6 	bl	80088e8 <__aeabi_dmul>
 800313c:	4680      	mov	r8, r0
 800313e:	4689      	mov	r9, r1
 8003140:	f04f 0c01 	mov.w	ip, #1
 8003144:	e9c4 894a 	strd	r8, r9, [r4, #296]	; 0x128
 8003148:	e9d5 0100 	ldrd	r0, r1, [r5]
 800314c:	2200      	movs	r2, #0
 800314e:	4b7d      	ldr	r3, [pc, #500]	; (8003344 <FUNC_Transmission+0x1514>)
 8003150:	f8cd c008 	str.w	ip, [sp, #8]
 8003154:	f005 fe58 	bl	8008e08 <__aeabi_dcmpgt>
 8003158:	f8dd c008 	ldr.w	ip, [sp, #8]
 800315c:	b900      	cbnz	r0, 8003160 <FUNC_Transmission+0x1330>
 800315e:	4684      	mov	ip, r0
 8003160:	f01c 0fff 	tst.w	ip, #255	; 0xff
 8003164:	bf08      	it	eq
 8003166:	4974      	ldreq	r1, [pc, #464]	; (8003338 <FUNC_Transmission+0x1508>)
 8003168:	4b77      	ldr	r3, [pc, #476]	; (8003348 <FUNC_Transmission+0x1518>)
 800316a:	f884 c71a 	strb.w	ip, [r4, #1818]	; 0x71a
 800316e:	bf18      	it	ne
 8003170:	f04f 4180 	movne.w	r1, #1073741824	; 0x40000000
 8003174:	2000      	movs	r0, #0
 8003176:	e9c3 014c 	strd	r0, r1, [r3, #304]	; 0x130
 800317a:	4640      	mov	r0, r8
 800317c:	e9d4 234c 	ldrd	r2, r3, [r4, #304]	; 0x130
 8003180:	4649      	mov	r1, r9
 8003182:	f005 fbb1 	bl	80088e8 <__aeabi_dmul>
 8003186:	e9d4 8946 	ldrd	r8, r9, [r4, #280]	; 0x118
 800318a:	e9c4 014e 	strd	r0, r1, [r4, #312]	; 0x138
 800318e:	e9c4 0150 	strd	r0, r1, [r4, #320]	; 0x140
 8003192:	2200      	movs	r2, #0
 8003194:	4640      	mov	r0, r8
 8003196:	4649      	mov	r1, r9
 8003198:	2300      	movs	r3, #0
 800319a:	f04f 0501 	mov.w	r5, #1
 800319e:	f005 fe33 	bl	8008e08 <__aeabi_dcmpgt>
 80031a2:	b900      	cbnz	r0, 80031a6 <FUNC_Transmission+0x1376>
 80031a4:	4605      	mov	r5, r0
 80031a6:	f884 571b 	strb.w	r5, [r4, #1819]	; 0x71b
 80031aa:	b2e8      	uxtb	r0, r5
 80031ac:	f005 fb26 	bl	80087fc <__aeabi_ui2d>
 80031b0:	4602      	mov	r2, r0
 80031b2:	460b      	mov	r3, r1
 80031b4:	4630      	mov	r0, r6
 80031b6:	4639      	mov	r1, r7
 80031b8:	f005 fb96 	bl	80088e8 <__aeabi_dmul>
 80031bc:	2200      	movs	r2, #0
 80031be:	e9c4 0152 	strd	r0, r1, [r4, #328]	; 0x148
 80031c2:	e9c4 0154 	strd	r0, r1, [r4, #336]	; 0x150
 80031c6:	4b61      	ldr	r3, [pc, #388]	; (800334c <FUNC_Transmission+0x151c>)
 80031c8:	4640      	mov	r0, r8
 80031ca:	4649      	mov	r1, r9
 80031cc:	f04f 0501 	mov.w	r5, #1
 80031d0:	f005 fdfc 	bl	8008dcc <__aeabi_dcmplt>
 80031d4:	b900      	cbnz	r0, 80031d8 <FUNC_Transmission+0x13a8>
 80031d6:	4605      	mov	r5, r0
 80031d8:	f884 571c 	strb.w	r5, [r4, #1820]	; 0x71c
 80031dc:	b2e8      	uxtb	r0, r5
 80031de:	f005 fb0d 	bl	80087fc <__aeabi_ui2d>
 80031e2:	4b5b      	ldr	r3, [pc, #364]	; (8003350 <FUNC_Transmission+0x1520>)
 80031e4:	e9d3 6700 	ldrd	r6, r7, [r3]
 80031e8:	e9c4 0156 	strd	r0, r1, [r4, #344]	; 0x158
 80031ec:	2200      	movs	r2, #0
 80031ee:	4630      	mov	r0, r6
 80031f0:	4639      	mov	r1, r7
 80031f2:	4b58      	ldr	r3, [pc, #352]	; (8003354 <FUNC_Transmission+0x1524>)
 80031f4:	f04f 0801 	mov.w	r8, #1
 80031f8:	f005 fde8 	bl	8008dcc <__aeabi_dcmplt>
 80031fc:	b900      	cbnz	r0, 8003200 <FUNC_Transmission+0x13d0>
 80031fe:	4680      	mov	r8, r0
 8003200:	4b55      	ldr	r3, [pc, #340]	; (8003358 <FUNC_Transmission+0x1528>)
 8003202:	f884 871d 	strb.w	r8, [r4, #1821]	; 0x71d
 8003206:	e9d3 0100 	ldrd	r0, r1, [r3]
 800320a:	2200      	movs	r2, #0
 800320c:	2300      	movs	r3, #0
 800320e:	f005 fdd3 	bl	8008db8 <__aeabi_dcmpeq>
 8003212:	fa5f f588 	uxtb.w	r5, r8
 8003216:	2800      	cmp	r0, #0
 8003218:	bf0c      	ite	eq
 800321a:	4628      	moveq	r0, r5
 800321c:	2000      	movne	r0, #0
 800321e:	f884 071e 	strb.w	r0, [r4, #1822]	; 0x71e
 8003222:	f005 faeb 	bl	80087fc <__aeabi_ui2d>
 8003226:	2200      	movs	r2, #0
 8003228:	e9c4 0158 	strd	r0, r1, [r4, #352]	; 0x160
 800322c:	2300      	movs	r3, #0
 800322e:	4630      	mov	r0, r6
 8003230:	4639      	mov	r1, r7
 8003232:	f04f 0501 	mov.w	r5, #1
 8003236:	f005 fddd 	bl	8008df4 <__aeabi_dcmpge>
 800323a:	b900      	cbnz	r0, 800323e <FUNC_Transmission+0x140e>
 800323c:	4605      	mov	r5, r0
 800323e:	b2e8      	uxtb	r0, r5
 8003240:	f884 571f 	strb.w	r5, [r4, #1823]	; 0x71f
 8003244:	b148      	cbz	r0, 800325a <FUNC_Transmission+0x142a>
 8003246:	4b45      	ldr	r3, [pc, #276]	; (800335c <FUNC_Transmission+0x152c>)
 8003248:	2200      	movs	r2, #0
 800324a:	e9d3 0100 	ldrd	r0, r1, [r3]
 800324e:	2300      	movs	r3, #0
 8003250:	f005 fdb2 	bl	8008db8 <__aeabi_dcmpeq>
 8003254:	fab0 f080 	clz	r0, r0
 8003258:	0940      	lsrs	r0, r0, #5
 800325a:	b2c0      	uxtb	r0, r0
 800325c:	f884 0720 	strb.w	r0, [r4, #1824]	; 0x720
 8003260:	f005 facc 	bl	80087fc <__aeabi_ui2d>
 8003264:	e9c4 ab5c 	strd	sl, fp, [r4, #368]	; 0x170
 8003268:	e9c4 015a 	strd	r0, r1, [r4, #360]	; 0x168
 800326c:	e9c4 ab5e 	strd	sl, fp, [r4, #376]	; 0x178
 8003270:	e9c4 ab60 	strd	sl, fp, [r4, #384]	; 0x180
 8003274:	e9c4 ab62 	strd	sl, fp, [r4, #392]	; 0x188
 8003278:	f994 36c8 	ldrsb.w	r3, [r4, #1736]	; 0x6c8
 800327c:	4a32      	ldr	r2, [pc, #200]	; (8003348 <FUNC_Transmission+0x1518>)
 800327e:	2b02      	cmp	r3, #2
 8003280:	d008      	beq.n	8003294 <FUNC_Transmission+0x1464>
 8003282:	2b03      	cmp	r3, #3
 8003284:	d00b      	beq.n	800329e <FUNC_Transmission+0x146e>
 8003286:	e9d2 0122 	ldrd	r0, r1, [r2, #136]	; 0x88
 800328a:	2b01      	cmp	r3, #1
 800328c:	e9c2 0100 	strd	r0, r1, [r2]
 8003290:	d10a      	bne.n	80032a8 <FUNC_Transmission+0x1478>
 8003292:	e00f      	b.n	80032b4 <FUNC_Transmission+0x1484>
 8003294:	e9d2 0158 	ldrd	r0, r1, [r2, #352]	; 0x160
 8003298:	e9c2 0100 	strd	r0, r1, [r2]
 800329c:	e00f      	b.n	80032be <FUNC_Transmission+0x148e>
 800329e:	e9d2 0174 	ldrd	r0, r1, [r2, #464]	; 0x1d0
 80032a2:	e9c2 0100 	strd	r0, r1, [r2]
 80032a6:	e00f      	b.n	80032c8 <FUNC_Transmission+0x1498>
 80032a8:	2b02      	cmp	r3, #2
 80032aa:	d008      	beq.n	80032be <FUNC_Transmission+0x148e>
 80032ac:	2b03      	cmp	r3, #3
 80032ae:	d00b      	beq.n	80032c8 <FUNC_Transmission+0x1498>
 80032b0:	2b01      	cmp	r3, #1
 80032b2:	d10e      	bne.n	80032d2 <FUNC_Transmission+0x14a2>
 80032b4:	e9d4 2340 	ldrd	r2, r3, [r4, #256]	; 0x100
 80032b8:	e9c4 2302 	strd	r2, r3, [r4, #8]
 80032bc:	e013      	b.n	80032e6 <FUNC_Transmission+0x14b6>
 80032be:	e9d4 2362 	ldrd	r2, r3, [r4, #392]	; 0x188
 80032c2:	e9c4 2302 	strd	r2, r3, [r4, #8]
 80032c6:	e013      	b.n	80032f0 <FUNC_Transmission+0x14c0>
 80032c8:	e9d4 2392 	ldrd	r2, r3, [r4, #584]	; 0x248
 80032cc:	e9c4 2302 	strd	r2, r3, [r4, #8]
 80032d0:	e013      	b.n	80032fa <FUNC_Transmission+0x14ca>
 80032d2:	e9d2 0140 	ldrd	r0, r1, [r2, #256]	; 0x100
 80032d6:	2b02      	cmp	r3, #2
 80032d8:	e9c2 0102 	strd	r0, r1, [r2, #8]
 80032dc:	d008      	beq.n	80032f0 <FUNC_Transmission+0x14c0>
 80032de:	2b03      	cmp	r3, #3
 80032e0:	d00b      	beq.n	80032fa <FUNC_Transmission+0x14ca>
 80032e2:	2b01      	cmp	r3, #1
 80032e4:	d10e      	bne.n	8003304 <FUNC_Transmission+0x14d4>
 80032e6:	e9d4 2314 	ldrd	r2, r3, [r4, #80]	; 0x50
 80032ea:	e9c4 2304 	strd	r2, r3, [r4, #16]
 80032ee:	e013      	b.n	8003318 <FUNC_Transmission+0x14e8>
 80032f0:	e9d4 235a 	ldrd	r2, r3, [r4, #360]	; 0x168
 80032f4:	e9c4 2304 	strd	r2, r3, [r4, #16]
 80032f8:	e013      	b.n	8003322 <FUNC_Transmission+0x14f2>
 80032fa:	e9d4 2364 	ldrd	r2, r3, [r4, #400]	; 0x190
 80032fe:	e9c4 2304 	strd	r2, r3, [r4, #16]
 8003302:	e013      	b.n	800332c <FUNC_Transmission+0x14fc>
 8003304:	e9d2 0114 	ldrd	r0, r1, [r2, #80]	; 0x50
 8003308:	2b02      	cmp	r3, #2
 800330a:	e9c2 0104 	strd	r0, r1, [r2, #16]
 800330e:	d008      	beq.n	8003322 <FUNC_Transmission+0x14f2>
 8003310:	2b03      	cmp	r3, #3
 8003312:	d00b      	beq.n	800332c <FUNC_Transmission+0x14fc>
 8003314:	2b01      	cmp	r3, #1
 8003316:	d123      	bne.n	8003360 <FUNC_Transmission+0x1530>
 8003318:	e9d4 2320 	ldrd	r2, r3, [r4, #128]	; 0x80
 800331c:	e9c4 2306 	strd	r2, r3, [r4, #24]
 8003320:	e029      	b.n	8003376 <FUNC_Transmission+0x1546>
 8003322:	e9d4 235c 	ldrd	r2, r3, [r4, #368]	; 0x170
 8003326:	e9c4 2306 	strd	r2, r3, [r4, #24]
 800332a:	e029      	b.n	8003380 <FUNC_Transmission+0x1550>
 800332c:	e9d4 2372 	ldrd	r2, r3, [r4, #456]	; 0x1c8
 8003330:	e9c4 2306 	strd	r2, r3, [r4, #24]
 8003334:	e029      	b.n	800338a <FUNC_Transmission+0x155a>
 8003336:	bf00      	nop
 8003338:	3ff00000 	.word	0x3ff00000
 800333c:	bfe00000 	.word	0xbfe00000
 8003340:	08009318 	.word	0x08009318
 8003344:	40340000 	.word	0x40340000
 8003348:	200008a0 	.word	0x200008a0
 800334c:	c0340000 	.word	0xc0340000
 8003350:	20000d28 	.word	0x20000d28
 8003354:	40080000 	.word	0x40080000
 8003358:	20000d80 	.word	0x20000d80
 800335c:	20000d88 	.word	0x20000d88
 8003360:	e9d4 0120 	ldrd	r0, r1, [r4, #128]	; 0x80
 8003364:	2b02      	cmp	r3, #2
 8003366:	4a66      	ldr	r2, [pc, #408]	; (8003500 <FUNC_Transmission+0x16d0>)
 8003368:	e9c4 0106 	strd	r0, r1, [r4, #24]
 800336c:	d008      	beq.n	8003380 <FUNC_Transmission+0x1550>
 800336e:	2b03      	cmp	r3, #3
 8003370:	d00b      	beq.n	800338a <FUNC_Transmission+0x155a>
 8003372:	2b01      	cmp	r3, #1
 8003374:	d10e      	bne.n	8003394 <FUNC_Transmission+0x1564>
 8003376:	e9d4 2328 	ldrd	r2, r3, [r4, #160]	; 0xa0
 800337a:	e9c4 2308 	strd	r2, r3, [r4, #32]
 800337e:	e013      	b.n	80033a8 <FUNC_Transmission+0x1578>
 8003380:	e9d4 2344 	ldrd	r2, r3, [r4, #272]	; 0x110
 8003384:	e9c4 2308 	strd	r2, r3, [r4, #32]
 8003388:	e013      	b.n	80033b2 <FUNC_Transmission+0x1582>
 800338a:	e9d4 237a 	ldrd	r2, r3, [r4, #488]	; 0x1e8
 800338e:	e9c4 2308 	strd	r2, r3, [r4, #32]
 8003392:	e013      	b.n	80033bc <FUNC_Transmission+0x158c>
 8003394:	e9d2 0128 	ldrd	r0, r1, [r2, #160]	; 0xa0
 8003398:	2b02      	cmp	r3, #2
 800339a:	e9c2 0108 	strd	r0, r1, [r2, #32]
 800339e:	d008      	beq.n	80033b2 <FUNC_Transmission+0x1582>
 80033a0:	2b03      	cmp	r3, #3
 80033a2:	d00b      	beq.n	80033bc <FUNC_Transmission+0x158c>
 80033a4:	2b01      	cmp	r3, #1
 80033a6:	d10e      	bne.n	80033c6 <FUNC_Transmission+0x1596>
 80033a8:	e9d4 233a 	ldrd	r2, r3, [r4, #232]	; 0xe8
 80033ac:	e9c4 230a 	strd	r2, r3, [r4, #40]	; 0x28
 80033b0:	e013      	b.n	80033da <FUNC_Transmission+0x15aa>
 80033b2:	e9d4 2356 	ldrd	r2, r3, [r4, #344]	; 0x158
 80033b6:	e9c4 230a 	strd	r2, r3, [r4, #40]	; 0x28
 80033ba:	e013      	b.n	80033e4 <FUNC_Transmission+0x15b4>
 80033bc:	e9d4 238c 	ldrd	r2, r3, [r4, #560]	; 0x230
 80033c0:	e9c4 230a 	strd	r2, r3, [r4, #40]	; 0x28
 80033c4:	e013      	b.n	80033ee <FUNC_Transmission+0x15be>
 80033c6:	e9d2 013a 	ldrd	r0, r1, [r2, #232]	; 0xe8
 80033ca:	2b02      	cmp	r3, #2
 80033cc:	e9c2 010a 	strd	r0, r1, [r2, #40]	; 0x28
 80033d0:	d008      	beq.n	80033e4 <FUNC_Transmission+0x15b4>
 80033d2:	2b03      	cmp	r3, #3
 80033d4:	d00b      	beq.n	80033ee <FUNC_Transmission+0x15be>
 80033d6:	2b01      	cmp	r3, #1
 80033d8:	d10e      	bne.n	80033f8 <FUNC_Transmission+0x15c8>
 80033da:	e9d4 2338 	ldrd	r2, r3, [r4, #224]	; 0xe0
 80033de:	e9c4 230c 	strd	r2, r3, [r4, #48]	; 0x30
 80033e2:	e014      	b.n	800340e <FUNC_Transmission+0x15de>
 80033e4:	e9d4 2354 	ldrd	r2, r3, [r4, #336]	; 0x150
 80033e8:	e9c4 230c 	strd	r2, r3, [r4, #48]	; 0x30
 80033ec:	e014      	b.n	8003418 <FUNC_Transmission+0x15e8>
 80033ee:	e9d4 238a 	ldrd	r2, r3, [r4, #552]	; 0x228
 80033f2:	e9c4 230c 	strd	r2, r3, [r4, #48]	; 0x30
 80033f6:	e014      	b.n	8003422 <FUNC_Transmission+0x15f2>
 80033f8:	e9d4 0138 	ldrd	r0, r1, [r4, #224]	; 0xe0
 80033fc:	2b02      	cmp	r3, #2
 80033fe:	4a40      	ldr	r2, [pc, #256]	; (8003500 <FUNC_Transmission+0x16d0>)
 8003400:	e9c4 010c 	strd	r0, r1, [r4, #48]	; 0x30
 8003404:	d008      	beq.n	8003418 <FUNC_Transmission+0x15e8>
 8003406:	2b03      	cmp	r3, #3
 8003408:	d00b      	beq.n	8003422 <FUNC_Transmission+0x15f2>
 800340a:	2b01      	cmp	r3, #1
 800340c:	d10e      	bne.n	800342c <FUNC_Transmission+0x15fc>
 800340e:	e9d4 2334 	ldrd	r2, r3, [r4, #208]	; 0xd0
 8003412:	e9c4 230e 	strd	r2, r3, [r4, #56]	; 0x38
 8003416:	e013      	b.n	8003440 <FUNC_Transmission+0x1610>
 8003418:	e9d4 2350 	ldrd	r2, r3, [r4, #320]	; 0x140
 800341c:	e9c4 230e 	strd	r2, r3, [r4, #56]	; 0x38
 8003420:	e013      	b.n	800344a <FUNC_Transmission+0x161a>
 8003422:	e9d4 2386 	ldrd	r2, r3, [r4, #536]	; 0x218
 8003426:	e9c4 230e 	strd	r2, r3, [r4, #56]	; 0x38
 800342a:	e013      	b.n	8003454 <FUNC_Transmission+0x1624>
 800342c:	e9d2 0134 	ldrd	r0, r1, [r2, #208]	; 0xd0
 8003430:	2b02      	cmp	r3, #2
 8003432:	e9c2 010e 	strd	r0, r1, [r2, #56]	; 0x38
 8003436:	d008      	beq.n	800344a <FUNC_Transmission+0x161a>
 8003438:	2b03      	cmp	r3, #3
 800343a:	d00b      	beq.n	8003454 <FUNC_Transmission+0x1624>
 800343c:	2b01      	cmp	r3, #1
 800343e:	d10e      	bne.n	800345e <FUNC_Transmission+0x162e>
 8003440:	e9d4 233c 	ldrd	r2, r3, [r4, #240]	; 0xf0
 8003444:	e9c4 2310 	strd	r2, r3, [r4, #64]	; 0x40
 8003448:	e013      	b.n	8003472 <FUNC_Transmission+0x1642>
 800344a:	e9d4 235e 	ldrd	r2, r3, [r4, #376]	; 0x178
 800344e:	e9c4 2310 	strd	r2, r3, [r4, #64]	; 0x40
 8003452:	e013      	b.n	800347c <FUNC_Transmission+0x164c>
 8003454:	e9d4 238e 	ldrd	r2, r3, [r4, #568]	; 0x238
 8003458:	e9c4 2310 	strd	r2, r3, [r4, #64]	; 0x40
 800345c:	e013      	b.n	8003486 <FUNC_Transmission+0x1656>
 800345e:	e9d2 013c 	ldrd	r0, r1, [r2, #240]	; 0xf0
 8003462:	2b02      	cmp	r3, #2
 8003464:	e9c2 0110 	strd	r0, r1, [r2, #64]	; 0x40
 8003468:	d008      	beq.n	800347c <FUNC_Transmission+0x164c>
 800346a:	2b03      	cmp	r3, #3
 800346c:	d00b      	beq.n	8003486 <FUNC_Transmission+0x1656>
 800346e:	2b01      	cmp	r3, #1
 8003470:	d10e      	bne.n	8003490 <FUNC_Transmission+0x1660>
 8003472:	e9d4 233e 	ldrd	r2, r3, [r4, #248]	; 0xf8
 8003476:	e9c4 2312 	strd	r2, r3, [r4, #72]	; 0x48
 800347a:	e014      	b.n	80034a6 <FUNC_Transmission+0x1676>
 800347c:	e9d4 2360 	ldrd	r2, r3, [r4, #384]	; 0x180
 8003480:	e9c4 2312 	strd	r2, r3, [r4, #72]	; 0x48
 8003484:	e014      	b.n	80034b0 <FUNC_Transmission+0x1680>
 8003486:	e9d4 2390 	ldrd	r2, r3, [r4, #576]	; 0x240
 800348a:	e9c4 2312 	strd	r2, r3, [r4, #72]	; 0x48
 800348e:	e014      	b.n	80034ba <FUNC_Transmission+0x168a>
 8003490:	4a1b      	ldr	r2, [pc, #108]	; (8003500 <FUNC_Transmission+0x16d0>)
 8003492:	e9d2 013e 	ldrd	r0, r1, [r2, #248]	; 0xf8
 8003496:	2b02      	cmp	r3, #2
 8003498:	e9c2 0112 	strd	r0, r1, [r2, #72]	; 0x48
 800349c:	d008      	beq.n	80034b0 <FUNC_Transmission+0x1680>
 800349e:	2b03      	cmp	r3, #3
 80034a0:	d00b      	beq.n	80034ba <FUNC_Transmission+0x168a>
 80034a2:	2b01      	cmp	r3, #1
 80034a4:	d10e      	bne.n	80034c4 <FUNC_Transmission+0x1694>
 80034a6:	f894 36dd 	ldrb.w	r3, [r4, #1757]	; 0x6dd
 80034aa:	f884 36ce 	strb.w	r3, [r4, #1742]	; 0x6ce
 80034ae:	e013      	b.n	80034d8 <FUNC_Transmission+0x16a8>
 80034b0:	4b14      	ldr	r3, [pc, #80]	; (8003504 <FUNC_Transmission+0x16d4>)
 80034b2:	7c9b      	ldrb	r3, [r3, #18]
 80034b4:	f884 36ce 	strb.w	r3, [r4, #1742]	; 0x6ce
 80034b8:	e011      	b.n	80034de <FUNC_Transmission+0x16ae>
 80034ba:	f894 372e 	ldrb.w	r3, [r4, #1838]	; 0x72e
 80034be:	f884 36ce 	strb.w	r3, [r4, #1742]	; 0x6ce
 80034c2:	e00f      	b.n	80034e4 <FUNC_Transmission+0x16b4>
 80034c4:	f892 16dd 	ldrb.w	r1, [r2, #1757]	; 0x6dd
 80034c8:	f882 16ce 	strb.w	r1, [r2, #1742]	; 0x6ce
 80034cc:	2b02      	cmp	r3, #2
 80034ce:	d006      	beq.n	80034de <FUNC_Transmission+0x16ae>
 80034d0:	2b03      	cmp	r3, #3
 80034d2:	d007      	beq.n	80034e4 <FUNC_Transmission+0x16b4>
 80034d4:	2b01      	cmp	r3, #1
 80034d6:	d10a      	bne.n	80034ee <FUNC_Transmission+0x16be>
 80034d8:	f894 3717 	ldrb.w	r3, [r4, #1815]	; 0x717
 80034dc:	e004      	b.n	80034e8 <FUNC_Transmission+0x16b8>
 80034de:	4b09      	ldr	r3, [pc, #36]	; (8003504 <FUNC_Transmission+0x16d4>)
 80034e0:	7cdb      	ldrb	r3, [r3, #19]
 80034e2:	e001      	b.n	80034e8 <FUNC_Transmission+0x16b8>
 80034e4:	f894 3774 	ldrb.w	r3, [r4, #1908]	; 0x774
 80034e8:	f884 36cf 	strb.w	r3, [r4, #1743]	; 0x6cf
 80034ec:	e003      	b.n	80034f6 <FUNC_Transmission+0x16c6>
 80034ee:	f892 3717 	ldrb.w	r3, [r2, #1815]	; 0x717
 80034f2:	f882 36cf 	strb.w	r3, [r2, #1743]	; 0x6cf
 80034f6:	b009      	add	sp, #36	; 0x24
 80034f8:	ecbd 8b02 	vpop	{d8}
 80034fc:	e8bd 8ff0 	ldmia.w	sp!, {r4, r5, r6, r7, r8, r9, sl, fp, pc}
 8003500:	200008a0 	.word	0x200008a0
 8003504:	08009050 	.word	0x08009050

08003508 <look1_binlxpw>:
 8003508:	e92d 4ff7 	stmdb	sp!, {r0, r1, r2, r4, r5, r6, r7, r8, r9, sl, fp, lr}
 800350c:	e9d2 8900 	ldrd	r8, r9, [r2]
 8003510:	4614      	mov	r4, r2
 8003512:	469b      	mov	fp, r3
 8003514:	4642      	mov	r2, r8
 8003516:	464b      	mov	r3, r9
 8003518:	4606      	mov	r6, r0
 800351a:	460f      	mov	r7, r1
 800351c:	9d0c      	ldr	r5, [sp, #48]	; 0x30
 800351e:	f005 fc5f 	bl	8008de0 <__aeabi_dcmple>
 8003522:	b1c0      	cbz	r0, 8003556 <look1_binlxpw+0x4e>
 8003524:	4630      	mov	r0, r6
 8003526:	4639      	mov	r1, r7
 8003528:	4642      	mov	r2, r8
 800352a:	464b      	mov	r3, r9
 800352c:	f005 f828 	bl	8008580 <__aeabi_dsub>
 8003530:	4642      	mov	r2, r8
 8003532:	4606      	mov	r6, r0
 8003534:	460f      	mov	r7, r1
 8003536:	464b      	mov	r3, r9
 8003538:	e9d4 0102 	ldrd	r0, r1, [r4, #8]
 800353c:	f005 f820 	bl	8008580 <__aeabi_dsub>
 8003540:	4602      	mov	r2, r0
 8003542:	460b      	mov	r3, r1
 8003544:	4630      	mov	r0, r6
 8003546:	4639      	mov	r1, r7
 8003548:	f005 faf8 	bl	8008b3c <__aeabi_ddiv>
 800354c:	f04f 0a00 	mov.w	sl, #0
 8003550:	4604      	mov	r4, r0
 8003552:	460d      	mov	r5, r1
 8003554:	e052      	b.n	80035fc <look1_binlxpw+0xf4>
 8003556:	eb04 0cc5 	add.w	ip, r4, r5, lsl #3
 800355a:	e9dc 8900 	ldrd	r8, r9, [ip]
 800355e:	4630      	mov	r0, r6
 8003560:	4639      	mov	r1, r7
 8003562:	4642      	mov	r2, r8
 8003564:	464b      	mov	r3, r9
 8003566:	f8cd c004 	str.w	ip, [sp, #4]
 800356a:	f005 fc2f 	bl	8008dcc <__aeabi_dcmplt>
 800356e:	f8dd c004 	ldr.w	ip, [sp, #4]
 8003572:	b348      	cbz	r0, 80035c8 <look1_binlxpw+0xc0>
 8003574:	ea4f 0855 	mov.w	r8, r5, lsr #1
 8003578:	f04f 0a00 	mov.w	sl, #0
 800357c:	ebca 0305 	rsb	r3, sl, r5
 8003580:	2b01      	cmp	r3, #1
 8003582:	d910      	bls.n	80035a6 <look1_binlxpw+0x9e>
 8003584:	eb04 03c8 	add.w	r3, r4, r8, lsl #3
 8003588:	4630      	mov	r0, r6
 800358a:	4639      	mov	r1, r7
 800358c:	e9d3 2300 	ldrd	r2, r3, [r3]
 8003590:	f005 fc1c 	bl	8008dcc <__aeabi_dcmplt>
 8003594:	2800      	cmp	r0, #0
 8003596:	bf0c      	ite	eq
 8003598:	46c2      	moveq	sl, r8
 800359a:	4645      	movne	r5, r8
 800359c:	eb0a 0805 	add.w	r8, sl, r5
 80035a0:	ea4f 0858 	mov.w	r8, r8, lsr #1
 80035a4:	e7ea      	b.n	800357c <look1_binlxpw+0x74>
 80035a6:	eb04 04ca 	add.w	r4, r4, sl, lsl #3
 80035aa:	e9d4 8900 	ldrd	r8, r9, [r4]
 80035ae:	4630      	mov	r0, r6
 80035b0:	4639      	mov	r1, r7
 80035b2:	4642      	mov	r2, r8
 80035b4:	464b      	mov	r3, r9
 80035b6:	f004 ffe3 	bl	8008580 <__aeabi_dsub>
 80035ba:	4642      	mov	r2, r8
 80035bc:	4606      	mov	r6, r0
 80035be:	460f      	mov	r7, r1
 80035c0:	464b      	mov	r3, r9
 80035c2:	e9d4 0102 	ldrd	r0, r1, [r4, #8]
 80035c6:	e00f      	b.n	80035e8 <look1_binlxpw+0xe0>
 80035c8:	f105 3aff 	add.w	sl, r5, #4294967295
 80035cc:	e95c 4502 	ldrd	r4, r5, [ip, #-8]
 80035d0:	4630      	mov	r0, r6
 80035d2:	4639      	mov	r1, r7
 80035d4:	4622      	mov	r2, r4
 80035d6:	462b      	mov	r3, r5
 80035d8:	f004 ffd2 	bl	8008580 <__aeabi_dsub>
 80035dc:	4622      	mov	r2, r4
 80035de:	4606      	mov	r6, r0
 80035e0:	460f      	mov	r7, r1
 80035e2:	4640      	mov	r0, r8
 80035e4:	4649      	mov	r1, r9
 80035e6:	462b      	mov	r3, r5
 80035e8:	f004 ffca 	bl	8008580 <__aeabi_dsub>
 80035ec:	4602      	mov	r2, r0
 80035ee:	460b      	mov	r3, r1
 80035f0:	4630      	mov	r0, r6
 80035f2:	4639      	mov	r1, r7
 80035f4:	f005 faa2 	bl	8008b3c <__aeabi_ddiv>
 80035f8:	4604      	mov	r4, r0
 80035fa:	460d      	mov	r5, r1
 80035fc:	f10a 0a01 	add.w	sl, sl, #1
 8003600:	eb0b 0aca 	add.w	sl, fp, sl, lsl #3
 8003604:	e95a 6702 	ldrd	r6, r7, [sl, #-8]
 8003608:	e9da 0100 	ldrd	r0, r1, [sl]
 800360c:	4632      	mov	r2, r6
 800360e:	463b      	mov	r3, r7
 8003610:	f004 ffb6 	bl	8008580 <__aeabi_dsub>
 8003614:	4622      	mov	r2, r4
 8003616:	462b      	mov	r3, r5
 8003618:	f005 f966 	bl	80088e8 <__aeabi_dmul>
 800361c:	4632      	mov	r2, r6
 800361e:	463b      	mov	r3, r7
 8003620:	f004 ffb0 	bl	8008584 <__adddf3>
 8003624:	b003      	add	sp, #12
 8003626:	e8bd 8ff0 	ldmia.w	sp!, {r4, r5, r6, r7, r8, r9, sl, fp, pc}

0800362a <look2_binlxpw>:
 800362a:	e92d 4ff0 	stmdb	sp!, {r4, r5, r6, r7, r8, r9, sl, fp, lr}
 800362e:	b087      	sub	sp, #28
 8003630:	e9cd 2300 	strd	r2, r3, [sp]
 8003634:	f8dd 9040 	ldr.w	r9, [sp, #64]	; 0x40
 8003638:	f8dd 8044 	ldr.w	r8, [sp, #68]	; 0x44
 800363c:	f8dd a04c 	ldr.w	sl, [sp, #76]	; 0x4c
 8003640:	e9d9 4500 	ldrd	r4, r5, [r9]
 8003644:	4622      	mov	r2, r4
 8003646:	462b      	mov	r3, r5
 8003648:	e9cd 0102 	strd	r0, r1, [sp, #8]
 800364c:	f005 fbc8 	bl	8008de0 <__aeabi_dcmple>
 8003650:	b1c0      	cbz	r0, 8003684 <look2_binlxpw+0x5a>
 8003652:	e9dd 0102 	ldrd	r0, r1, [sp, #8]
 8003656:	4622      	mov	r2, r4
 8003658:	462b      	mov	r3, r5
 800365a:	f004 ff91 	bl	8008580 <__aeabi_dsub>
 800365e:	4622      	mov	r2, r4
 8003660:	4606      	mov	r6, r0
 8003662:	460f      	mov	r7, r1
 8003664:	462b      	mov	r3, r5
 8003666:	e9d9 0102 	ldrd	r0, r1, [r9, #8]
 800366a:	f004 ff89 	bl	8008580 <__aeabi_dsub>
 800366e:	4602      	mov	r2, r0
 8003670:	460b      	mov	r3, r1
 8003672:	4630      	mov	r0, r6
 8003674:	4639      	mov	r1, r7
 8003676:	f005 fa61 	bl	8008b3c <__aeabi_ddiv>
 800367a:	f04f 0b00 	mov.w	fp, #0
 800367e:	e9cd 0102 	strd	r0, r1, [sp, #8]
 8003682:	e04e      	b.n	8003722 <look2_binlxpw+0xf8>
 8003684:	f8da 4000 	ldr.w	r4, [sl]
 8003688:	eb09 05c4 	add.w	r5, r9, r4, lsl #3
 800368c:	ed95 7b00 	vldr	d7, [r5]
 8003690:	e9dd 0102 	ldrd	r0, r1, [sp, #8]
 8003694:	ec53 2b17 	vmov	r2, r3, d7
 8003698:	ed8d 7b04 	vstr	d7, [sp, #16]
 800369c:	f005 fb96 	bl	8008dcc <__aeabi_dcmplt>
 80036a0:	b328      	cbz	r0, 80036ee <look2_binlxpw+0xc4>
 80036a2:	0865      	lsrs	r5, r4, #1
 80036a4:	f04f 0b00 	mov.w	fp, #0
 80036a8:	ebcb 0304 	rsb	r3, fp, r4
 80036ac:	2b01      	cmp	r3, #1
 80036ae:	d90f      	bls.n	80036d0 <look2_binlxpw+0xa6>
 80036b0:	eb09 03c5 	add.w	r3, r9, r5, lsl #3
 80036b4:	e9dd 0102 	ldrd	r0, r1, [sp, #8]
 80036b8:	e9d3 2300 	ldrd	r2, r3, [r3]
 80036bc:	f005 fb86 	bl	8008dcc <__aeabi_dcmplt>
 80036c0:	2800      	cmp	r0, #0
 80036c2:	bf0c      	ite	eq
 80036c4:	46ab      	moveq	fp, r5
 80036c6:	462c      	movne	r4, r5
 80036c8:	eb0b 0504 	add.w	r5, fp, r4
 80036cc:	086d      	lsrs	r5, r5, #1
 80036ce:	e7eb      	b.n	80036a8 <look2_binlxpw+0x7e>
 80036d0:	eb09 09cb 	add.w	r9, r9, fp, lsl #3
 80036d4:	e9d9 6700 	ldrd	r6, r7, [r9]
 80036d8:	e9dd 0102 	ldrd	r0, r1, [sp, #8]
 80036dc:	4632      	mov	r2, r6
 80036de:	463b      	mov	r3, r7
 80036e0:	f004 ff4e 	bl	8008580 <__aeabi_dsub>
 80036e4:	4604      	mov	r4, r0
 80036e6:	460d      	mov	r5, r1
 80036e8:	e9d9 0102 	ldrd	r0, r1, [r9, #8]
 80036ec:	e00d      	b.n	800370a <look2_binlxpw+0xe0>
 80036ee:	e955 6702 	ldrd	r6, r7, [r5, #-8]
 80036f2:	e9dd 0102 	ldrd	r0, r1, [sp, #8]
 80036f6:	4632      	mov	r2, r6
 80036f8:	463b      	mov	r3, r7
 80036fa:	f004 ff41 	bl	8008580 <__aeabi_dsub>
 80036fe:	f104 3bff 	add.w	fp, r4, #4294967295
 8003702:	460d      	mov	r5, r1
 8003704:	4604      	mov	r4, r0
 8003706:	e9dd 0104 	ldrd	r0, r1, [sp, #16]
 800370a:	4632      	mov	r2, r6
 800370c:	463b      	mov	r3, r7
 800370e:	f004 ff37 	bl	8008580 <__aeabi_dsub>
 8003712:	4602      	mov	r2, r0
 8003714:	460b      	mov	r3, r1
 8003716:	4620      	mov	r0, r4
 8003718:	4629      	mov	r1, r5
 800371a:	f005 fa0f 	bl	8008b3c <__aeabi_ddiv>
 800371e:	e9cd 0102 	strd	r0, r1, [sp, #8]
 8003722:	e9d8 4500 	ldrd	r4, r5, [r8]
 8003726:	e9dd 0100 	ldrd	r0, r1, [sp]
 800372a:	4622      	mov	r2, r4
 800372c:	462b      	mov	r3, r5
 800372e:	f005 fb57 	bl	8008de0 <__aeabi_dcmple>
 8003732:	b1c0      	cbz	r0, 8003766 <look2_binlxpw+0x13c>
 8003734:	4622      	mov	r2, r4
 8003736:	462b      	mov	r3, r5
 8003738:	e9dd 0100 	ldrd	r0, r1, [sp]
 800373c:	f004 ff20 	bl	8008580 <__aeabi_dsub>
 8003740:	4622      	mov	r2, r4
 8003742:	462b      	mov	r3, r5
 8003744:	4606      	mov	r6, r0
 8003746:	460f      	mov	r7, r1
 8003748:	e9d8 0102 	ldrd	r0, r1, [r8, #8]
 800374c:	f004 ff18 	bl	8008580 <__aeabi_dsub>
 8003750:	4602      	mov	r2, r0
 8003752:	460b      	mov	r3, r1
 8003754:	4630      	mov	r0, r6
 8003756:	4639      	mov	r1, r7
 8003758:	f005 f9f0 	bl	8008b3c <__aeabi_ddiv>
 800375c:	f04f 0a00 	mov.w	sl, #0
 8003760:	4604      	mov	r4, r0
 8003762:	460d      	mov	r5, r1
 8003764:	e054      	b.n	8003810 <look2_binlxpw+0x1e6>
 8003766:	f8da 4004 	ldr.w	r4, [sl, #4]
 800376a:	eb08 05c4 	add.w	r5, r8, r4, lsl #3
 800376e:	e9d5 6700 	ldrd	r6, r7, [r5]
 8003772:	e9dd 0100 	ldrd	r0, r1, [sp]
 8003776:	4632      	mov	r2, r6
 8003778:	463b      	mov	r3, r7
 800377a:	f005 fb27 	bl	8008dcc <__aeabi_dcmplt>
 800377e:	b368      	cbz	r0, 80037dc <look2_binlxpw+0x1b2>
 8003780:	0865      	lsrs	r5, r4, #1
 8003782:	f04f 0a00 	mov.w	sl, #0
 8003786:	ebca 0304 	rsb	r3, sl, r4
 800378a:	2b01      	cmp	r3, #1
 800378c:	d90f      	bls.n	80037ae <look2_binlxpw+0x184>
 800378e:	eb08 03c5 	add.w	r3, r8, r5, lsl #3
 8003792:	e9dd 0100 	ldrd	r0, r1, [sp]
 8003796:	e9d3 2300 	ldrd	r2, r3, [r3]
 800379a:	f005 fb17 	bl	8008dcc <__aeabi_dcmplt>
 800379e:	2800      	cmp	r0, #0
 80037a0:	bf0c      	ite	eq
 80037a2:	46aa      	moveq	sl, r5
 80037a4:	462c      	movne	r4, r5
 80037a6:	eb0a 0504 	add.w	r5, sl, r4
 80037aa:	086d      	lsrs	r5, r5, #1
 80037ac:	e7eb      	b.n	8003786 <look2_binlxpw+0x15c>
 80037ae:	eb08 08ca 	add.w	r8, r8, sl, lsl #3
 80037b2:	e9d8 6700 	ldrd	r6, r7, [r8]
 80037b6:	e9dd 0100 	ldrd	r0, r1, [sp]
 80037ba:	4632      	mov	r2, r6
 80037bc:	463b      	mov	r3, r7
 80037be:	f004 fedf 	bl	8008580 <__aeabi_dsub>
 80037c2:	4632      	mov	r2, r6
 80037c4:	4604      	mov	r4, r0
 80037c6:	460d      	mov	r5, r1
 80037c8:	463b      	mov	r3, r7
 80037ca:	e9d8 0102 	ldrd	r0, r1, [r8, #8]
 80037ce:	f004 fed7 	bl	8008580 <__aeabi_dsub>
 80037d2:	4602      	mov	r2, r0
 80037d4:	460b      	mov	r3, r1
 80037d6:	4620      	mov	r0, r4
 80037d8:	4629      	mov	r1, r5
 80037da:	e015      	b.n	8003808 <look2_binlxpw+0x1de>
 80037dc:	f104 3aff 	add.w	sl, r4, #4294967295
 80037e0:	e955 4502 	ldrd	r4, r5, [r5, #-8]
 80037e4:	e9dd 0100 	ldrd	r0, r1, [sp]
 80037e8:	4622      	mov	r2, r4
 80037ea:	462b      	mov	r3, r5
 80037ec:	f004 fec8 	bl	8008580 <__aeabi_dsub>
 80037f0:	4622      	mov	r2, r4
 80037f2:	4680      	mov	r8, r0
 80037f4:	4689      	mov	r9, r1
 80037f6:	462b      	mov	r3, r5
 80037f8:	4630      	mov	r0, r6
 80037fa:	4639      	mov	r1, r7
 80037fc:	f004 fec0 	bl	8008580 <__aeabi_dsub>
 8003800:	4602      	mov	r2, r0
 8003802:	460b      	mov	r3, r1
 8003804:	4640      	mov	r0, r8
 8003806:	4649      	mov	r1, r9
 8003808:	f005 f998 	bl	8008b3c <__aeabi_ddiv>
 800380c:	4604      	mov	r4, r0
 800380e:	460d      	mov	r5, r1
 8003810:	9b14      	ldr	r3, [sp, #80]	; 0x50
 8003812:	9a12      	ldr	r2, [sp, #72]	; 0x48
 8003814:	fb03 ba0a 	mla	sl, r3, sl, fp
 8003818:	f10a 0301 	add.w	r3, sl, #1
 800381c:	eb02 03c3 	add.w	r3, r2, r3, lsl #3
 8003820:	e953 6702 	ldrd	r6, r7, [r3, #-8]
 8003824:	e9d3 0100 	ldrd	r0, r1, [r3]
 8003828:	4632      	mov	r2, r6
 800382a:	463b      	mov	r3, r7
 800382c:	f004 fea8 	bl	8008580 <__aeabi_dsub>
 8003830:	e9dd 2302 	ldrd	r2, r3, [sp, #8]
 8003834:	f005 f858 	bl	80088e8 <__aeabi_dmul>
 8003838:	4632      	mov	r2, r6
 800383a:	463b      	mov	r3, r7
 800383c:	f004 fea2 	bl	8008584 <__adddf3>
 8003840:	9b14      	ldr	r3, [sp, #80]	; 0x50
 8003842:	449a      	add	sl, r3
 8003844:	9b12      	ldr	r3, [sp, #72]	; 0x48
 8003846:	f10a 0a01 	add.w	sl, sl, #1
 800384a:	eb03 0aca 	add.w	sl, r3, sl, lsl #3
 800384e:	e95a 8902 	ldrd	r8, r9, [sl, #-8]
 8003852:	4606      	mov	r6, r0
 8003854:	460f      	mov	r7, r1
 8003856:	4642      	mov	r2, r8
 8003858:	464b      	mov	r3, r9
 800385a:	e9da 0100 	ldrd	r0, r1, [sl]
 800385e:	f004 fe8f 	bl	8008580 <__aeabi_dsub>
 8003862:	e9dd 2302 	ldrd	r2, r3, [sp, #8]
 8003866:	f005 f83f 	bl	80088e8 <__aeabi_dmul>
 800386a:	4642      	mov	r2, r8
 800386c:	464b      	mov	r3, r9
 800386e:	f004 fe89 	bl	8008584 <__adddf3>
 8003872:	4632      	mov	r2, r6
 8003874:	463b      	mov	r3, r7
 8003876:	f004 fe83 	bl	8008580 <__aeabi_dsub>
 800387a:	4622      	mov	r2, r4
 800387c:	462b      	mov	r3, r5
 800387e:	f005 f833 	bl	80088e8 <__aeabi_dmul>
 8003882:	4632      	mov	r2, r6
 8003884:	463b      	mov	r3, r7
 8003886:	f004 fe7d 	bl	8008584 <__adddf3>
 800388a:	b007      	add	sp, #28
 800388c:	e8bd 8ff0 	ldmia.w	sp!, {r4, r5, r6, r7, r8, r9, sl, fp, pc}

08003890 <VCU_initialize>:
 8003890:	b510      	push	{r4, lr}
 8003892:	2008      	movs	r0, #8
 8003894:	f000 f838 	bl	8003908 <rt_InitInfAndNaN>
 8003898:	2400      	movs	r4, #0
 800389a:	4b09      	ldr	r3, [pc, #36]	; (80038c0 <VCU_initialize+0x30>)
 800389c:	4809      	ldr	r0, [pc, #36]	; (80038c4 <VCU_initialize+0x34>)
 800389e:	601c      	str	r4, [r3, #0]
 80038a0:	4621      	mov	r1, r4
 80038a2:	f44f 62f1 	mov.w	r2, #1928	; 0x788
 80038a6:	f005 fb20 	bl	8008eea <memset>
 80038aa:	4621      	mov	r1, r4
 80038ac:	4806      	ldr	r0, [pc, #24]	; (80038c8 <VCU_initialize+0x38>)
 80038ae:	f44f 72a8 	mov.w	r2, #336	; 0x150
 80038b2:	f005 fb1a 	bl	8008eea <memset>
 80038b6:	e8bd 4010 	ldmia.w	sp!, {r4, lr}
 80038ba:	f7fe baa5 	b.w	8001e08 <FUNC_Transmission_Init>
 80038be:	bf00      	nop
 80038c0:	20001028 	.word	0x20001028
 80038c4:	200008a0 	.word	0x200008a0
 80038c8:	20001030 	.word	0x20001030

080038cc <rtGetInf>:
 80038cc:	2000      	movs	r0, #0
 80038ce:	4901      	ldr	r1, [pc, #4]	; (80038d4 <rtGetInf+0x8>)
 80038d0:	4770      	bx	lr
 80038d2:	bf00      	nop
 80038d4:	7ff00000 	.word	0x7ff00000

080038d8 <rtGetInfF>:
 80038d8:	f04f 40ff 	mov.w	r0, #2139095040	; 0x7f800000
 80038dc:	4770      	bx	lr
	...

080038e0 <rtGetMinusInf>:
 80038e0:	2000      	movs	r0, #0
 80038e2:	4901      	ldr	r1, [pc, #4]	; (80038e8 <rtGetMinusInf+0x8>)
 80038e4:	4770      	bx	lr
 80038e6:	bf00      	nop
 80038e8:	fff00000 	.word	0xfff00000

080038ec <rtGetMinusInfF>:
 80038ec:	4800      	ldr	r0, [pc, #0]	; (80038f0 <rtGetMinusInfF+0x4>)
 80038ee:	4770      	bx	lr
 80038f0:	ff800000 	.word	0xff800000

080038f4 <rtGetNaN>:
 80038f4:	2000      	movs	r0, #0
 80038f6:	4901      	ldr	r1, [pc, #4]	; (80038fc <rtGetNaN+0x8>)
 80038f8:	4770      	bx	lr
 80038fa:	bf00      	nop
 80038fc:	fff80000 	.word	0xfff80000

08003900 <rtGetNaNF>:
 8003900:	4800      	ldr	r0, [pc, #0]	; (8003904 <rtGetNaNF+0x4>)
 8003902:	4770      	bx	lr
 8003904:	ffc00000 	.word	0xffc00000

08003908 <rt_InitInfAndNaN>:
 8003908:	b508      	push	{r3, lr}
 800390a:	f7ff fff3 	bl	80038f4 <rtGetNaN>
 800390e:	4b0d      	ldr	r3, [pc, #52]	; (8003944 <rt_InitInfAndNaN+0x3c>)
 8003910:	e9c3 0100 	strd	r0, r1, [r3]
 8003914:	f7ff fff4 	bl	8003900 <rtGetNaNF>
 8003918:	4b0b      	ldr	r3, [pc, #44]	; (8003948 <rt_InitInfAndNaN+0x40>)
 800391a:	6018      	str	r0, [r3, #0]
 800391c:	f7ff ffd6 	bl	80038cc <rtGetInf>
 8003920:	4b0a      	ldr	r3, [pc, #40]	; (800394c <rt_InitInfAndNaN+0x44>)
 8003922:	e9c3 0100 	strd	r0, r1, [r3]
 8003926:	f7ff ffd7 	bl	80038d8 <rtGetInfF>
 800392a:	4b09      	ldr	r3, [pc, #36]	; (8003950 <rt_InitInfAndNaN+0x48>)
 800392c:	6018      	str	r0, [r3, #0]
 800392e:	f7ff ffd7 	bl	80038e0 <rtGetMinusInf>
 8003932:	4b08      	ldr	r3, [pc, #32]	; (8003954 <rt_InitInfAndNaN+0x4c>)
 8003934:	e9c3 0100 	strd	r0, r1, [r3]
 8003938:	f7ff ffd8 	bl	80038ec <rtGetMinusInfF>
 800393c:	4b06      	ldr	r3, [pc, #24]	; (8003958 <rt_InitInfAndNaN+0x50>)
 800393e:	6018      	str	r0, [r3, #0]
 8003940:	bd08      	pop	{r3, pc}
 8003942:	bf00      	nop
 8003944:	20001190 	.word	0x20001190
 8003948:	20001180 	.word	0x20001180
 800394c:	20001188 	.word	0x20001188
 8003950:	20001184 	.word	0x20001184
 8003954:	20001198 	.word	0x20001198
 8003958:	200011a0 	.word	0x200011a0

0800395c <rtIsInf>:
 800395c:	4b0b      	ldr	r3, [pc, #44]	; (800398c <rtIsInf+0x30>)
 800395e:	b5d0      	push	{r4, r6, r7, lr}
 8003960:	e9d3 2300 	ldrd	r2, r3, [r3]
 8003964:	4606      	mov	r6, r0
 8003966:	460f      	mov	r7, r1
 8003968:	f005 fa26 	bl	8008db8 <__aeabi_dcmpeq>
 800396c:	b960      	cbnz	r0, 8003988 <rtIsInf+0x2c>
 800396e:	4b08      	ldr	r3, [pc, #32]	; (8003990 <rtIsInf+0x34>)
 8003970:	4630      	mov	r0, r6
 8003972:	4639      	mov	r1, r7
 8003974:	e9d3 2300 	ldrd	r2, r3, [r3]
 8003978:	f04f 0401 	mov.w	r4, #1
 800397c:	f005 fa1c 	bl	8008db8 <__aeabi_dcmpeq>
 8003980:	b900      	cbnz	r0, 8003984 <rtIsInf+0x28>
 8003982:	4604      	mov	r4, r0
 8003984:	b2e0      	uxtb	r0, r4
 8003986:	bdd0      	pop	{r4, r6, r7, pc}
 8003988:	2001      	movs	r0, #1
 800398a:	bdd0      	pop	{r4, r6, r7, pc}
 800398c:	20001188 	.word	0x20001188
 8003990:	20001198 	.word	0x20001198

08003994 <rtIsNaN>:
 8003994:	b510      	push	{r4, lr}
 8003996:	4602      	mov	r2, r0
 8003998:	460b      	mov	r3, r1
 800399a:	f04f 0401 	mov.w	r4, #1
 800399e:	f005 fa0b 	bl	8008db8 <__aeabi_dcmpeq>
 80039a2:	b108      	cbz	r0, 80039a8 <rtIsNaN+0x14>
 80039a4:	f04f 0400 	mov.w	r4, #0
 80039a8:	f004 0001 	and.w	r0, r4, #1
 80039ac:	bd10      	pop	{r4, pc}
	...

080039b0 <XMC_ERU_Enable>:
 80039b0:	4b03      	ldr	r3, [pc, #12]	; (80039c0 <XMC_ERU_Enable+0x10>)
 80039b2:	4298      	cmp	r0, r3
 80039b4:	d103      	bne.n	80039be <XMC_ERU_Enable+0xe>
 80039b6:	f44f 3080 	mov.w	r0, #65536	; 0x10000
 80039ba:	f000 b86d 	b.w	8003a98 <XMC_SCU_RESET_DeassertPeripheralReset>
 80039be:	4770      	bx	lr
 80039c0:	40044000 	.word	0x40044000

080039c4 <XMC_GPIO_Init>:
 80039c4:	f001 03fc 	and.w	r3, r1, #252	; 0xfc
 80039c8:	4403      	add	r3, r0
 80039ca:	b5f0      	push	{r4, r5, r6, r7, lr}
 80039cc:	f001 0403 	and.w	r4, r1, #3
 80039d0:	691e      	ldr	r6, [r3, #16]
 80039d2:	00e4      	lsls	r4, r4, #3
 80039d4:	25f8      	movs	r5, #248	; 0xf8
 80039d6:	40a5      	lsls	r5, r4
 80039d8:	ea26 0505 	bic.w	r5, r6, r5
 80039dc:	611d      	str	r5, [r3, #16]
 80039de:	6f46      	ldr	r6, [r0, #116]	; 0x74
 80039e0:	004f      	lsls	r7, r1, #1
 80039e2:	2503      	movs	r5, #3
 80039e4:	40bd      	lsls	r5, r7
 80039e6:	ea26 0505 	bic.w	r5, r6, r5
 80039ea:	6745      	str	r5, [r0, #116]	; 0x74
 80039ec:	4d16      	ldr	r5, [pc, #88]	; (8003a48 <XMC_GPIO_Init+0x84>)
 80039ee:	42a8      	cmp	r0, r5
 80039f0:	d003      	beq.n	80039fa <XMC_GPIO_Init+0x36>
 80039f2:	f505 7580 	add.w	r5, r5, #256	; 0x100
 80039f6:	42a8      	cmp	r0, r5
 80039f8:	d107      	bne.n	8003a0a <XMC_GPIO_Init+0x46>
 80039fa:	6e05      	ldr	r5, [r0, #96]	; 0x60
 80039fc:	2601      	movs	r6, #1
 80039fe:	fa06 f101 	lsl.w	r1, r6, r1
 8003a02:	ea25 0101 	bic.w	r1, r5, r1
 8003a06:	6601      	str	r1, [r0, #96]	; 0x60
 8003a08:	e018      	b.n	8003a3c <XMC_GPIO_Init+0x78>
 8003a0a:	f992 5000 	ldrsb.w	r5, [r2]
 8003a0e:	2d00      	cmp	r5, #0
 8003a10:	da14      	bge.n	8003a3c <XMC_GPIO_Init+0x78>
 8003a12:	6855      	ldr	r5, [r2, #4]
 8003a14:	408d      	lsls	r5, r1
 8003a16:	6045      	str	r5, [r0, #4]
 8003a18:	08cd      	lsrs	r5, r1, #3
 8003a1a:	eb00 0085 	add.w	r0, r0, r5, lsl #2
 8003a1e:	f001 0107 	and.w	r1, r1, #7
 8003a22:	6c06      	ldr	r6, [r0, #64]	; 0x40
 8003a24:	0089      	lsls	r1, r1, #2
 8003a26:	2507      	movs	r5, #7
 8003a28:	408d      	lsls	r5, r1
 8003a2a:	ea26 0505 	bic.w	r5, r6, r5
 8003a2e:	6405      	str	r5, [r0, #64]	; 0x40
 8003a30:	7a16      	ldrb	r6, [r2, #8]
 8003a32:	6c05      	ldr	r5, [r0, #64]	; 0x40
 8003a34:	fa06 f101 	lsl.w	r1, r6, r1
 8003a38:	4329      	orrs	r1, r5
 8003a3a:	6401      	str	r1, [r0, #64]	; 0x40
 8003a3c:	7812      	ldrb	r2, [r2, #0]
 8003a3e:	6919      	ldr	r1, [r3, #16]
 8003a40:	40a2      	lsls	r2, r4
 8003a42:	430a      	orrs	r2, r1
 8003a44:	611a      	str	r2, [r3, #16]
 8003a46:	bdf0      	pop	{r4, r5, r6, r7, pc}
 8003a48:	48028e00 	.word	0x48028e00

08003a4c <XMC_SCU_lDelay>:
 8003a4c:	b510      	push	{r4, lr}
 8003a4e:	4604      	mov	r4, r0
 8003a50:	f7fc fc30 	bl	80002b4 <SystemCoreClockUpdate>
 8003a54:	4b06      	ldr	r3, [pc, #24]	; (8003a70 <XMC_SCU_lDelay+0x24>)
 8003a56:	4807      	ldr	r0, [pc, #28]	; (8003a74 <XMC_SCU_lDelay+0x28>)
 8003a58:	681b      	ldr	r3, [r3, #0]
 8003a5a:	fbb3 f3f0 	udiv	r3, r3, r0
 8003a5e:	fb03 f004 	mul.w	r0, r3, r4
 8003a62:	2300      	movs	r3, #0
 8003a64:	4283      	cmp	r3, r0
 8003a66:	d002      	beq.n	8003a6e <XMC_SCU_lDelay+0x22>
 8003a68:	bf00      	nop
 8003a6a:	3301      	adds	r3, #1
 8003a6c:	e7fa      	b.n	8003a64 <XMC_SCU_lDelay+0x18>
 8003a6e:	bd10      	pop	{r4, pc}
 8003a70:	2000ffc0 	.word	0x2000ffc0
 8003a74:	000f4240 	.word	0x000f4240

08003a78 <XMC_SCU_INTERRUPT_EnableEvent>:
 8003a78:	4a02      	ldr	r2, [pc, #8]	; (8003a84 <XMC_SCU_INTERRUPT_EnableEvent+0xc>)
 8003a7a:	6893      	ldr	r3, [r2, #8]
 8003a7c:	4318      	orrs	r0, r3
 8003a7e:	6090      	str	r0, [r2, #8]
 8003a80:	4770      	bx	lr
 8003a82:	bf00      	nop
 8003a84:	50004074 	.word	0x50004074

08003a88 <XMC_SCU_INTERRUPT_EnableNmiRequest>:
 8003a88:	4a02      	ldr	r2, [pc, #8]	; (8003a94 <XMC_SCU_INTERRUPT_EnableNmiRequest+0xc>)
 8003a8a:	6953      	ldr	r3, [r2, #20]
 8003a8c:	4318      	orrs	r0, r3
 8003a8e:	6150      	str	r0, [r2, #20]
 8003a90:	4770      	bx	lr
 8003a92:	bf00      	nop
 8003a94:	50004074 	.word	0x50004074

08003a98 <XMC_SCU_RESET_DeassertPeripheralReset>:
 8003a98:	0f02      	lsrs	r2, r0, #28
 8003a9a:	230c      	movs	r3, #12
 8003a9c:	4353      	muls	r3, r2
 8003a9e:	4a02      	ldr	r2, [pc, #8]	; (8003aa8 <XMC_SCU_RESET_DeassertPeripheralReset+0x10>)
 8003aa0:	f020 4070 	bic.w	r0, r0, #4026531840	; 0xf0000000
 8003aa4:	5098      	str	r0, [r3, r2]
 8003aa6:	4770      	bx	lr
 8003aa8:	50004414 	.word	0x50004414

08003aac <XMC_SCU_CLOCK_GetPeripheralClockFrequency>:
 8003aac:	4b03      	ldr	r3, [pc, #12]	; (8003abc <XMC_SCU_CLOCK_GetPeripheralClockFrequency+0x10>)
 8003aae:	4a04      	ldr	r2, [pc, #16]	; (8003ac0 <XMC_SCU_CLOCK_GetPeripheralClockFrequency+0x14>)
 8003ab0:	695b      	ldr	r3, [r3, #20]
 8003ab2:	6810      	ldr	r0, [r2, #0]
 8003ab4:	f003 0301 	and.w	r3, r3, #1
 8003ab8:	40d8      	lsrs	r0, r3
 8003aba:	4770      	bx	lr
 8003abc:	50004600 	.word	0x50004600
 8003ac0:	2000ffc0 	.word	0x2000ffc0

08003ac4 <XMC_SCU_CLOCK_SetSystemClockSource>:
 8003ac4:	4a03      	ldr	r2, [pc, #12]	; (8003ad4 <XMC_SCU_CLOCK_SetSystemClockSource+0x10>)
 8003ac6:	68d3      	ldr	r3, [r2, #12]
 8003ac8:	f423 3380 	bic.w	r3, r3, #65536	; 0x10000
 8003acc:	4318      	orrs	r0, r3
 8003ace:	60d0      	str	r0, [r2, #12]
 8003ad0:	4770      	bx	lr
 8003ad2:	bf00      	nop
 8003ad4:	50004600 	.word	0x50004600

08003ad8 <XMC_SCU_CLOCK_SetUsbClockSource>:
 8003ad8:	4a03      	ldr	r2, [pc, #12]	; (8003ae8 <XMC_SCU_CLOCK_SetUsbClockSource+0x10>)
 8003ada:	6993      	ldr	r3, [r2, #24]
 8003adc:	f423 3380 	bic.w	r3, r3, #65536	; 0x10000
 8003ae0:	4318      	orrs	r0, r3
 8003ae2:	6190      	str	r0, [r2, #24]
 8003ae4:	4770      	bx	lr
 8003ae6:	bf00      	nop
 8003ae8:	50004600 	.word	0x50004600

08003aec <XMC_SCU_CLOCK_SetWdtClockSource>:
 8003aec:	4a03      	ldr	r2, [pc, #12]	; (8003afc <XMC_SCU_CLOCK_SetWdtClockSource+0x10>)
 8003aee:	6a53      	ldr	r3, [r2, #36]	; 0x24
 8003af0:	f423 3340 	bic.w	r3, r3, #196608	; 0x30000
 8003af4:	4318      	orrs	r0, r3
 8003af6:	6250      	str	r0, [r2, #36]	; 0x24
 8003af8:	4770      	bx	lr
 8003afa:	bf00      	nop
 8003afc:	50004600 	.word	0x50004600

08003b00 <XMC_SCU_CLOCK_SetSystemPllClockSource>:
 8003b00:	4a06      	ldr	r2, [pc, #24]	; (8003b1c <XMC_SCU_CLOCK_SetSystemPllClockSource+0x1c>)
 8003b02:	68d3      	ldr	r3, [r2, #12]
 8003b04:	b920      	cbnz	r0, 8003b10 <XMC_SCU_CLOCK_SetSystemPllClockSource+0x10>
 8003b06:	f423 7380 	bic.w	r3, r3, #256	; 0x100
 8003b0a:	f023 0301 	bic.w	r3, r3, #1
 8003b0e:	e003      	b.n	8003b18 <XMC_SCU_CLOCK_SetSystemPllClockSource+0x18>
 8003b10:	f443 7380 	orr.w	r3, r3, #256	; 0x100
 8003b14:	f043 0301 	orr.w	r3, r3, #1
 8003b18:	60d3      	str	r3, [r2, #12]
 8003b1a:	4770      	bx	lr
 8003b1c:	50004710 	.word	0x50004710

08003b20 <XMC_SCU_HIB_SetRtcClockSource>:
 8003b20:	4b05      	ldr	r3, [pc, #20]	; (8003b38 <XMC_SCU_HIB_SetRtcClockSource+0x18>)
 8003b22:	f8d3 30c4 	ldr.w	r3, [r3, #196]	; 0xc4
 8003b26:	071b      	lsls	r3, r3, #28
 8003b28:	d4fa      	bmi.n	8003b20 <XMC_SCU_HIB_SetRtcClockSource>
 8003b2a:	4a04      	ldr	r2, [pc, #16]	; (8003b3c <XMC_SCU_HIB_SetRtcClockSource+0x1c>)
 8003b2c:	68d3      	ldr	r3, [r2, #12]
 8003b2e:	f023 0340 	bic.w	r3, r3, #64	; 0x40
 8003b32:	4318      	orrs	r0, r3
 8003b34:	60d0      	str	r0, [r2, #12]
 8003b36:	4770      	bx	lr
 8003b38:	50004000 	.word	0x50004000
 8003b3c:	50004300 	.word	0x50004300

08003b40 <XMC_SCU_HIB_SetStandbyClockSource>:
 8003b40:	4b05      	ldr	r3, [pc, #20]	; (8003b58 <XMC_SCU_HIB_SetStandbyClockSource+0x18>)
 8003b42:	f8d3 30c4 	ldr.w	r3, [r3, #196]	; 0xc4
 8003b46:	071b      	lsls	r3, r3, #28
 8003b48:	d4fa      	bmi.n	8003b40 <XMC_SCU_HIB_SetStandbyClockSource>
 8003b4a:	4a04      	ldr	r2, [pc, #16]	; (8003b5c <XMC_SCU_HIB_SetStandbyClockSource+0x1c>)
 8003b4c:	68d3      	ldr	r3, [r2, #12]
 8003b4e:	f023 0380 	bic.w	r3, r3, #128	; 0x80
 8003b52:	4318      	orrs	r0, r3
 8003b54:	60d0      	str	r0, [r2, #12]
 8003b56:	4770      	bx	lr
 8003b58:	50004000 	.word	0x50004000
 8003b5c:	50004300 	.word	0x50004300

08003b60 <XMC_SCU_CLOCK_SetSystemClockDivider>:
 8003b60:	4a03      	ldr	r2, [pc, #12]	; (8003b70 <XMC_SCU_CLOCK_SetSystemClockDivider+0x10>)
 8003b62:	68d3      	ldr	r3, [r2, #12]
 8003b64:	3801      	subs	r0, #1
 8003b66:	f023 03ff 	bic.w	r3, r3, #255	; 0xff
 8003b6a:	4303      	orrs	r3, r0
 8003b6c:	60d3      	str	r3, [r2, #12]
 8003b6e:	4770      	bx	lr
 8003b70:	50004600 	.word	0x50004600

08003b74 <XMC_SCU_CLOCK_SetCcuClockDivider>:
 8003b74:	4a03      	ldr	r2, [pc, #12]	; (8003b84 <XMC_SCU_CLOCK_SetCcuClockDivider+0x10>)
 8003b76:	6a13      	ldr	r3, [r2, #32]
 8003b78:	3801      	subs	r0, #1
 8003b7a:	f023 0301 	bic.w	r3, r3, #1
 8003b7e:	4303      	orrs	r3, r0
 8003b80:	6213      	str	r3, [r2, #32]
 8003b82:	4770      	bx	lr
 8003b84:	50004600 	.word	0x50004600

08003b88 <XMC_SCU_CLOCK_SetCpuClockDivider>:
 8003b88:	4a03      	ldr	r2, [pc, #12]	; (8003b98 <XMC_SCU_CLOCK_SetCpuClockDivider+0x10>)
 8003b8a:	6913      	ldr	r3, [r2, #16]
 8003b8c:	3801      	subs	r0, #1
 8003b8e:	f023 0301 	bic.w	r3, r3, #1
 8003b92:	4303      	orrs	r3, r0
 8003b94:	6113      	str	r3, [r2, #16]
 8003b96:	4770      	bx	lr
 8003b98:	50004600 	.word	0x50004600

08003b9c <XMC_SCU_CLOCK_SetPeripheralClockDivider>:
 8003b9c:	4a03      	ldr	r2, [pc, #12]	; (8003bac <XMC_SCU_CLOCK_SetPeripheralClockDivider+0x10>)
 8003b9e:	6953      	ldr	r3, [r2, #20]
 8003ba0:	3801      	subs	r0, #1
 8003ba2:	f023 0301 	bic.w	r3, r3, #1
 8003ba6:	4303      	orrs	r3, r0
 8003ba8:	6153      	str	r3, [r2, #20]
 8003baa:	4770      	bx	lr
 8003bac:	50004600 	.word	0x50004600

08003bb0 <XMC_SCU_CLOCK_SetUsbClockDivider>:
 8003bb0:	4a03      	ldr	r2, [pc, #12]	; (8003bc0 <XMC_SCU_CLOCK_SetUsbClockDivider+0x10>)
 8003bb2:	6993      	ldr	r3, [r2, #24]
 8003bb4:	3801      	subs	r0, #1
 8003bb6:	f023 0307 	bic.w	r3, r3, #7
 8003bba:	4303      	orrs	r3, r0
 8003bbc:	6193      	str	r3, [r2, #24]
 8003bbe:	4770      	bx	lr
 8003bc0:	50004600 	.word	0x50004600

08003bc4 <XMC_SCU_CLOCK_SetEbuClockDivider>:
 8003bc4:	4a03      	ldr	r2, [pc, #12]	; (8003bd4 <XMC_SCU_CLOCK_SetEbuClockDivider+0x10>)
 8003bc6:	69d3      	ldr	r3, [r2, #28]
 8003bc8:	3801      	subs	r0, #1
 8003bca:	f023 033f 	bic.w	r3, r3, #63	; 0x3f
 8003bce:	4303      	orrs	r3, r0
 8003bd0:	61d3      	str	r3, [r2, #28]
 8003bd2:	4770      	bx	lr
 8003bd4:	50004600 	.word	0x50004600

08003bd8 <XMC_SCU_CLOCK_SetWdtClockDivider>:
 8003bd8:	4a03      	ldr	r2, [pc, #12]	; (8003be8 <XMC_SCU_CLOCK_SetWdtClockDivider+0x10>)
 8003bda:	6a53      	ldr	r3, [r2, #36]	; 0x24
 8003bdc:	3801      	subs	r0, #1
 8003bde:	f023 03ff 	bic.w	r3, r3, #255	; 0xff
 8003be2:	4303      	orrs	r3, r0
 8003be4:	6253      	str	r3, [r2, #36]	; 0x24
 8003be6:	4770      	bx	lr
 8003be8:	50004600 	.word	0x50004600

08003bec <XMC_SCU_CLOCK_EnableClock>:
 8003bec:	4b01      	ldr	r3, [pc, #4]	; (8003bf4 <XMC_SCU_CLOCK_EnableClock+0x8>)
 8003bee:	6058      	str	r0, [r3, #4]
 8003bf0:	4770      	bx	lr
 8003bf2:	bf00      	nop
 8003bf4:	50004600 	.word	0x50004600

08003bf8 <XMC_SCU_CLOCK_StartUsbPll>:
 8003bf8:	4b0f      	ldr	r3, [pc, #60]	; (8003c38 <XMC_SCU_CLOCK_StartUsbPll+0x40>)
 8003bfa:	695a      	ldr	r2, [r3, #20]
 8003bfc:	f042 0201 	orr.w	r2, r2, #1
 8003c00:	615a      	str	r2, [r3, #20]
 8003c02:	695a      	ldr	r2, [r3, #20]
 8003c04:	3801      	subs	r0, #1
 8003c06:	3901      	subs	r1, #1
 8003c08:	0600      	lsls	r0, r0, #24
 8003c0a:	f042 0210 	orr.w	r2, r2, #16
 8003c0e:	ea40 2101 	orr.w	r1, r0, r1, lsl #8
 8003c12:	615a      	str	r2, [r3, #20]
 8003c14:	6159      	str	r1, [r3, #20]
 8003c16:	695a      	ldr	r2, [r3, #20]
 8003c18:	f042 0240 	orr.w	r2, r2, #64	; 0x40
 8003c1c:	615a      	str	r2, [r3, #20]
 8003c1e:	695a      	ldr	r2, [r3, #20]
 8003c20:	f022 0210 	bic.w	r2, r2, #16
 8003c24:	615a      	str	r2, [r3, #20]
 8003c26:	695a      	ldr	r2, [r3, #20]
 8003c28:	f442 2280 	orr.w	r2, r2, #262144	; 0x40000
 8003c2c:	615a      	str	r2, [r3, #20]
 8003c2e:	691a      	ldr	r2, [r3, #16]
 8003c30:	0752      	lsls	r2, r2, #29
 8003c32:	d5fc      	bpl.n	8003c2e <XMC_SCU_CLOCK_StartUsbPll+0x36>
 8003c34:	4770      	bx	lr
 8003c36:	bf00      	nop
 8003c38:	50004710 	.word	0x50004710

08003c3c <XMC_SCU_CLOCK_SetBackupClockCalibrationMode>:
 8003c3c:	b510      	push	{r4, lr}
 8003c3e:	4c0b      	ldr	r4, [pc, #44]	; (8003c6c <XMC_SCU_CLOCK_SetBackupClockCalibrationMode+0x30>)
 8003c40:	6863      	ldr	r3, [r4, #4]
 8003c42:	2801      	cmp	r0, #1
 8003c44:	f443 1380 	orr.w	r3, r3, #1048576	; 0x100000
 8003c48:	6063      	str	r3, [r4, #4]
 8003c4a:	d10a      	bne.n	8003c62 <XMC_SCU_CLOCK_SetBackupClockCalibrationMode+0x26>
 8003c4c:	6863      	ldr	r3, [r4, #4]
 8003c4e:	f423 1380 	bic.w	r3, r3, #1048576	; 0x100000
 8003c52:	6063      	str	r3, [r4, #4]
 8003c54:	2064      	movs	r0, #100	; 0x64
 8003c56:	f7ff fef9 	bl	8003a4c <XMC_SCU_lDelay>
 8003c5a:	6863      	ldr	r3, [r4, #4]
 8003c5c:	f443 2300 	orr.w	r3, r3, #524288	; 0x80000
 8003c60:	6063      	str	r3, [r4, #4]
 8003c62:	2064      	movs	r0, #100	; 0x64
 8003c64:	e8bd 4010 	ldmia.w	sp!, {r4, lr}
 8003c68:	f7ff bef0 	b.w	8003a4c <XMC_SCU_lDelay>
 8003c6c:	50004710 	.word	0x50004710

08003c70 <XMC_SCU_HIB_EnableHibernateDomain>:
 8003c70:	4b0a      	ldr	r3, [pc, #40]	; (8003c9c <XMC_SCU_HIB_EnableHibernateDomain+0x2c>)
 8003c72:	681a      	ldr	r2, [r3, #0]
 8003c74:	07d2      	lsls	r2, r2, #31
 8003c76:	d504      	bpl.n	8003c82 <XMC_SCU_HIB_EnableHibernateDomain+0x12>
 8003c78:	4b09      	ldr	r3, [pc, #36]	; (8003ca0 <XMC_SCU_HIB_EnableHibernateDomain+0x30>)
 8003c7a:	681a      	ldr	r2, [r3, #0]
 8003c7c:	0590      	lsls	r0, r2, #22
 8003c7e:	d406      	bmi.n	8003c8e <XMC_SCU_HIB_EnableHibernateDomain+0x1e>
 8003c80:	4770      	bx	lr
 8003c82:	2201      	movs	r2, #1
 8003c84:	605a      	str	r2, [r3, #4]
 8003c86:	681a      	ldr	r2, [r3, #0]
 8003c88:	07d1      	lsls	r1, r2, #31
 8003c8a:	d5fc      	bpl.n	8003c86 <XMC_SCU_HIB_EnableHibernateDomain+0x16>
 8003c8c:	e7f4      	b.n	8003c78 <XMC_SCU_HIB_EnableHibernateDomain+0x8>
 8003c8e:	f44f 7200 	mov.w	r2, #512	; 0x200
 8003c92:	609a      	str	r2, [r3, #8]
 8003c94:	681a      	ldr	r2, [r3, #0]
 8003c96:	0592      	lsls	r2, r2, #22
 8003c98:	d4fc      	bmi.n	8003c94 <XMC_SCU_HIB_EnableHibernateDomain+0x24>
 8003c9a:	4770      	bx	lr
 8003c9c:	50004200 	.word	0x50004200
 8003ca0:	50004400 	.word	0x50004400

08003ca4 <XMC_SCU_CLOCK_IsLowPowerOscillatorStable>:
 8003ca4:	4b03      	ldr	r3, [pc, #12]	; (8003cb4 <XMC_SCU_CLOCK_IsLowPowerOscillatorStable+0x10>)
 8003ca6:	6818      	ldr	r0, [r3, #0]
 8003ca8:	f080 0008 	eor.w	r0, r0, #8
 8003cac:	f3c0 00c0 	ubfx	r0, r0, #3, #1
 8003cb0:	4770      	bx	lr
 8003cb2:	bf00      	nop
 8003cb4:	50004300 	.word	0x50004300

08003cb8 <XMC_SCU_CLOCK_EnableLowPowerOscillator>:
 8003cb8:	4b10      	ldr	r3, [pc, #64]	; (8003cfc <XMC_SCU_CLOCK_EnableLowPowerOscillator+0x44>)
 8003cba:	f44f 0200 	mov.w	r2, #8388608	; 0x800000
 8003cbe:	60da      	str	r2, [r3, #12]
 8003cc0:	4a0f      	ldr	r2, [pc, #60]	; (8003d00 <XMC_SCU_CLOCK_EnableLowPowerOscillator+0x48>)
 8003cc2:	69d1      	ldr	r1, [r2, #28]
 8003cc4:	f021 0130 	bic.w	r1, r1, #48	; 0x30
 8003cc8:	61d1      	str	r1, [r2, #28]
 8003cca:	6859      	ldr	r1, [r3, #4]
 8003ccc:	0208      	lsls	r0, r1, #8
 8003cce:	d5fc      	bpl.n	8003cca <XMC_SCU_CLOCK_EnableLowPowerOscillator+0x12>
 8003cd0:	490a      	ldr	r1, [pc, #40]	; (8003cfc <XMC_SCU_CLOCK_EnableLowPowerOscillator+0x44>)
 8003cd2:	f44f 3000 	mov.w	r0, #131072	; 0x20000
 8003cd6:	60c8      	str	r0, [r1, #12]
 8003cd8:	2108      	movs	r1, #8
 8003cda:	6051      	str	r1, [r2, #4]
 8003cdc:	685a      	ldr	r2, [r3, #4]
 8003cde:	0391      	lsls	r1, r2, #14
 8003ce0:	d5fc      	bpl.n	8003cdc <XMC_SCU_CLOCK_EnableLowPowerOscillator+0x24>
 8003ce2:	4a06      	ldr	r2, [pc, #24]	; (8003cfc <XMC_SCU_CLOCK_EnableLowPowerOscillator+0x44>)
 8003ce4:	f44f 2100 	mov.w	r1, #524288	; 0x80000
 8003ce8:	60d1      	str	r1, [r2, #12]
 8003cea:	4905      	ldr	r1, [pc, #20]	; (8003d00 <XMC_SCU_CLOCK_EnableLowPowerOscillator+0x48>)
 8003cec:	68ca      	ldr	r2, [r1, #12]
 8003cee:	f042 0208 	orr.w	r2, r2, #8
 8003cf2:	60ca      	str	r2, [r1, #12]
 8003cf4:	685a      	ldr	r2, [r3, #4]
 8003cf6:	0312      	lsls	r2, r2, #12
 8003cf8:	d5fc      	bpl.n	8003cf4 <XMC_SCU_CLOCK_EnableLowPowerOscillator+0x3c>
 8003cfa:	4770      	bx	lr
 8003cfc:	50004074 	.word	0x50004074
 8003d00:	50004300 	.word	0x50004300

08003d04 <XMC_SCU_CLOCK_EnableHighPerformanceOscillator>:
 8003d04:	b570      	push	{r4, r5, r6, lr}
 8003d06:	4d0c      	ldr	r5, [pc, #48]	; (8003d38 <XMC_SCU_CLOCK_EnableHighPerformanceOscillator+0x34>)
 8003d08:	4e0c      	ldr	r6, [pc, #48]	; (8003d3c <XMC_SCU_CLOCK_EnableHighPerformanceOscillator+0x38>)
 8003d0a:	686b      	ldr	r3, [r5, #4]
 8003d0c:	f423 3380 	bic.w	r3, r3, #65536	; 0x10000
 8003d10:	606b      	str	r3, [r5, #4]
 8003d12:	6874      	ldr	r4, [r6, #4]
 8003d14:	f002 fb1c 	bl	8006350 <OSCHP_GetFrequency>
 8003d18:	4b09      	ldr	r3, [pc, #36]	; (8003d40 <XMC_SCU_CLOCK_EnableHighPerformanceOscillator+0x3c>)
 8003d1a:	fbb0 f0f3 	udiv	r0, r0, r3
 8003d1e:	f424 2370 	bic.w	r3, r4, #983040	; 0xf0000
 8003d22:	3801      	subs	r0, #1
 8003d24:	f023 0330 	bic.w	r3, r3, #48	; 0x30
 8003d28:	ea43 4300 	orr.w	r3, r3, r0, lsl #16
 8003d2c:	6073      	str	r3, [r6, #4]
 8003d2e:	686b      	ldr	r3, [r5, #4]
 8003d30:	f423 3300 	bic.w	r3, r3, #131072	; 0x20000
 8003d34:	606b      	str	r3, [r5, #4]
 8003d36:	bd70      	pop	{r4, r5, r6, pc}
 8003d38:	50004710 	.word	0x50004710
 8003d3c:	50004700 	.word	0x50004700
 8003d40:	002625a0 	.word	0x002625a0

08003d44 <XMC_SCU_CLOCK_IsHighPerformanceOscillatorStable>:
 8003d44:	4b04      	ldr	r3, [pc, #16]	; (8003d58 <XMC_SCU_CLOCK_IsHighPerformanceOscillatorStable+0x14>)
 8003d46:	6818      	ldr	r0, [r3, #0]
 8003d48:	f400 7060 	and.w	r0, r0, #896	; 0x380
 8003d4c:	f5a0 7360 	sub.w	r3, r0, #896	; 0x380
 8003d50:	4258      	negs	r0, r3
 8003d52:	4158      	adcs	r0, r3
 8003d54:	4770      	bx	lr
 8003d56:	bf00      	nop
 8003d58:	50004710 	.word	0x50004710

08003d5c <XMC_SCU_CLOCK_EnableSystemPll>:
 8003d5c:	4a03      	ldr	r2, [pc, #12]	; (8003d6c <XMC_SCU_CLOCK_EnableSystemPll+0x10>)
 8003d5e:	6853      	ldr	r3, [r2, #4]
 8003d60:	f423 3380 	bic.w	r3, r3, #65536	; 0x10000
 8003d64:	f023 0302 	bic.w	r3, r3, #2
 8003d68:	6053      	str	r3, [r2, #4]
 8003d6a:	4770      	bx	lr
 8003d6c:	50004710 	.word	0x50004710

08003d70 <XMC_SCU_CLOCK_DisableSystemPll>:
 8003d70:	4a03      	ldr	r2, [pc, #12]	; (8003d80 <XMC_SCU_CLOCK_DisableSystemPll+0x10>)
 8003d72:	6853      	ldr	r3, [r2, #4]
 8003d74:	f443 3380 	orr.w	r3, r3, #65536	; 0x10000
 8003d78:	f043 0302 	orr.w	r3, r3, #2
 8003d7c:	6053      	str	r3, [r2, #4]
 8003d7e:	4770      	bx	lr
 8003d80:	50004710 	.word	0x50004710

08003d84 <XMC_SCU_CLOCK_StepSystemPllFrequency>:
 8003d84:	4a05      	ldr	r2, [pc, #20]	; (8003d9c <XMC_SCU_CLOCK_StepSystemPllFrequency+0x18>)
 8003d86:	6893      	ldr	r3, [r2, #8]
 8003d88:	3801      	subs	r0, #1
 8003d8a:	f423 03fe 	bic.w	r3, r3, #8323072	; 0x7f0000
 8003d8e:	ea43 4300 	orr.w	r3, r3, r0, lsl #16
 8003d92:	6093      	str	r3, [r2, #8]
 8003d94:	2032      	movs	r0, #50	; 0x32
 8003d96:	f7ff be59 	b.w	8003a4c <XMC_SCU_lDelay>
 8003d9a:	bf00      	nop
 8003d9c:	50004710 	.word	0x50004710

08003da0 <XMC_SCU_CLOCK_StartSystemPll>:
 8003da0:	e92d 41f0 	stmdb	sp!, {r4, r5, r6, r7, r8, lr}
 8003da4:	460c      	mov	r4, r1
 8003da6:	4605      	mov	r5, r0
 8003da8:	4690      	mov	r8, r2
 8003daa:	461f      	mov	r7, r3
 8003dac:	9e06      	ldr	r6, [sp, #24]
 8003dae:	f7ff fea7 	bl	8003b00 <XMC_SCU_CLOCK_SetSystemPllClockSource>
 8003db2:	2c01      	cmp	r4, #1
 8003db4:	4c31      	ldr	r4, [pc, #196]	; (8003e7c <XMC_SCU_CLOCK_StartSystemPll+0xdc>)
 8003db6:	d152      	bne.n	8003e5e <XMC_SCU_CLOCK_StartSystemPll+0xbe>
 8003db8:	b935      	cbnz	r5, 8003dc8 <XMC_SCU_CLOCK_StartSystemPll+0x28>
 8003dba:	f002 fac9 	bl	8006350 <OSCHP_GetFrequency>
 8003dbe:	4d30      	ldr	r5, [pc, #192]	; (8003e80 <XMC_SCU_CLOCK_StartSystemPll+0xe0>)
 8003dc0:	fbb0 f0f5 	udiv	r0, r0, r5
 8003dc4:	0580      	lsls	r0, r0, #22
 8003dc6:	e001      	b.n	8003dcc <XMC_SCU_CLOCK_StartSystemPll+0x2c>
 8003dc8:	f04f 60c0 	mov.w	r0, #100663296	; 0x6000000
 8003dcc:	6863      	ldr	r3, [r4, #4]
 8003dce:	f043 0301 	orr.w	r3, r3, #1
 8003dd2:	6063      	str	r3, [r4, #4]
 8003dd4:	6863      	ldr	r3, [r4, #4]
 8003dd6:	f043 0310 	orr.w	r3, r3, #16
 8003dda:	6063      	str	r3, [r4, #4]
 8003ddc:	68a1      	ldr	r1, [r4, #8]
 8003dde:	4b29      	ldr	r3, [pc, #164]	; (8003e84 <XMC_SCU_CLOCK_StartSystemPll+0xe4>)
 8003de0:	f108 32ff 	add.w	r2, r8, #4294967295
 8003de4:	400b      	ands	r3, r1
 8003de6:	ea43 6302 	orr.w	r3, r3, r2, lsl #24
 8003dea:	1e7a      	subs	r2, r7, #1
 8003dec:	ea43 2202 	orr.w	r2, r3, r2, lsl #8
 8003df0:	4378      	muls	r0, r7
 8003df2:	2318      	movs	r3, #24
 8003df4:	fbb0 f5f8 	udiv	r5, r0, r8
 8003df8:	fbb5 f3f3 	udiv	r3, r5, r3
 8003dfc:	0d9b      	lsrs	r3, r3, #22
 8003dfe:	3b01      	subs	r3, #1
 8003e00:	ea42 4303 	orr.w	r3, r2, r3, lsl #16
 8003e04:	60a3      	str	r3, [r4, #8]
 8003e06:	6863      	ldr	r3, [r4, #4]
 8003e08:	f043 0340 	orr.w	r3, r3, #64	; 0x40
 8003e0c:	6063      	str	r3, [r4, #4]
 8003e0e:	6863      	ldr	r3, [r4, #4]
 8003e10:	f023 0310 	bic.w	r3, r3, #16
 8003e14:	6063      	str	r3, [r4, #4]
 8003e16:	6863      	ldr	r3, [r4, #4]
 8003e18:	f443 2380 	orr.w	r3, r3, #262144	; 0x40000
 8003e1c:	6063      	str	r3, [r4, #4]
 8003e1e:	6823      	ldr	r3, [r4, #0]
 8003e20:	4a16      	ldr	r2, [pc, #88]	; (8003e7c <XMC_SCU_CLOCK_StartSystemPll+0xdc>)
 8003e22:	0759      	lsls	r1, r3, #29
 8003e24:	d5fb      	bpl.n	8003e1e <XMC_SCU_CLOCK_StartSystemPll+0x7e>
 8003e26:	6853      	ldr	r3, [r2, #4]
 8003e28:	f023 0301 	bic.w	r3, r3, #1
 8003e2c:	6053      	str	r3, [r2, #4]
 8003e2e:	6823      	ldr	r3, [r4, #0]
 8003e30:	07da      	lsls	r2, r3, #31
 8003e32:	d4fc      	bmi.n	8003e2e <XMC_SCU_CLOCK_StartSystemPll+0x8e>
 8003e34:	203c      	movs	r0, #60	; 0x3c
 8003e36:	fbb5 f0f0 	udiv	r0, r5, r0
 8003e3a:	0d80      	lsrs	r0, r0, #22
 8003e3c:	4286      	cmp	r6, r0
 8003e3e:	d201      	bcs.n	8003e44 <XMC_SCU_CLOCK_StartSystemPll+0xa4>
 8003e40:	f7ff ffa0 	bl	8003d84 <XMC_SCU_CLOCK_StepSystemPllFrequency>
 8003e44:	205a      	movs	r0, #90	; 0x5a
 8003e46:	fbb5 f0f0 	udiv	r0, r5, r0
 8003e4a:	0d80      	lsrs	r0, r0, #22
 8003e4c:	4286      	cmp	r6, r0
 8003e4e:	d201      	bcs.n	8003e54 <XMC_SCU_CLOCK_StartSystemPll+0xb4>
 8003e50:	f7ff ff98 	bl	8003d84 <XMC_SCU_CLOCK_StepSystemPllFrequency>
 8003e54:	4630      	mov	r0, r6
 8003e56:	e8bd 41f0 	ldmia.w	sp!, {r4, r5, r6, r7, r8, lr}
 8003e5a:	f7ff bf93 	b.w	8003d84 <XMC_SCU_CLOCK_StepSystemPllFrequency>
 8003e5e:	68a3      	ldr	r3, [r4, #8]
 8003e60:	3e01      	subs	r6, #1
 8003e62:	f023 037f 	bic.w	r3, r3, #127	; 0x7f
 8003e66:	431e      	orrs	r6, r3
 8003e68:	60a6      	str	r6, [r4, #8]
 8003e6a:	6863      	ldr	r3, [r4, #4]
 8003e6c:	f043 0301 	orr.w	r3, r3, #1
 8003e70:	6063      	str	r3, [r4, #4]
 8003e72:	6823      	ldr	r3, [r4, #0]
 8003e74:	07db      	lsls	r3, r3, #31
 8003e76:	d5fc      	bpl.n	8003e72 <XMC_SCU_CLOCK_StartSystemPll+0xd2>
 8003e78:	e8bd 81f0 	ldmia.w	sp!, {r4, r5, r6, r7, r8, pc}
 8003e7c:	50004710 	.word	0x50004710
 8003e80:	000f4240 	.word	0x000f4240
 8003e84:	f08080ff 	.word	0xf08080ff

08003e88 <XMC_SCU_CLOCK_Init>:
 8003e88:	b537      	push	{r0, r1, r2, r4, r5, lr}
 8003e8a:	4604      	mov	r4, r0
 8003e8c:	2000      	movs	r0, #0
 8003e8e:	f7ff fe19 	bl	8003ac4 <XMC_SCU_CLOCK_SetSystemClockSource>
 8003e92:	f7ff feed 	bl	8003c70 <XMC_SCU_HIB_EnableHibernateDomain>
 8003e96:	79e3      	ldrb	r3, [r4, #7]
 8003e98:	b91b      	cbnz	r3, 8003ea2 <XMC_SCU_CLOCK_Init+0x1a>
 8003e9a:	7a60      	ldrb	r0, [r4, #9]
 8003e9c:	f7ff fe50 	bl	8003b40 <XMC_SCU_HIB_SetStandbyClockSource>
 8003ea0:	e006      	b.n	8003eb0 <XMC_SCU_CLOCK_Init+0x28>
 8003ea2:	f7ff ff09 	bl	8003cb8 <XMC_SCU_CLOCK_EnableLowPowerOscillator>
 8003ea6:	f7ff fefd 	bl	8003ca4 <XMC_SCU_CLOCK_IsLowPowerOscillatorStable>
 8003eaa:	2800      	cmp	r0, #0
 8003eac:	d0fb      	beq.n	8003ea6 <XMC_SCU_CLOCK_Init+0x1e>
 8003eae:	e7f4      	b.n	8003e9a <XMC_SCU_CLOCK_Init+0x12>
 8003eb0:	4b1b      	ldr	r3, [pc, #108]	; (8003f20 <XMC_SCU_CLOCK_Init+0x98>)
 8003eb2:	f8d3 30c4 	ldr.w	r3, [r3, #196]	; 0xc4
 8003eb6:	2b00      	cmp	r3, #0
 8003eb8:	d1fa      	bne.n	8003eb0 <XMC_SCU_CLOCK_Init+0x28>
 8003eba:	7a20      	ldrb	r0, [r4, #8]
 8003ebc:	f7ff febe 	bl	8003c3c <XMC_SCU_CLOCK_SetBackupClockCalibrationMode>
 8003ec0:	7c20      	ldrb	r0, [r4, #16]
 8003ec2:	f7ff fe4d 	bl	8003b60 <XMC_SCU_CLOCK_SetSystemClockDivider>
 8003ec6:	7c60      	ldrb	r0, [r4, #17]
 8003ec8:	f7ff fe5e 	bl	8003b88 <XMC_SCU_CLOCK_SetCpuClockDivider>
 8003ecc:	7ca0      	ldrb	r0, [r4, #18]
 8003ece:	f7ff fe51 	bl	8003b74 <XMC_SCU_CLOCK_SetCcuClockDivider>
 8003ed2:	7ce0      	ldrb	r0, [r4, #19]
 8003ed4:	f7ff fe62 	bl	8003b9c <XMC_SCU_CLOCK_SetPeripheralClockDivider>
 8003ed8:	79a3      	ldrb	r3, [r4, #6]
 8003eda:	b923      	cbnz	r3, 8003ee6 <XMC_SCU_CLOCK_Init+0x5e>
 8003edc:	78e3      	ldrb	r3, [r4, #3]
 8003ede:	b94b      	cbnz	r3, 8003ef4 <XMC_SCU_CLOCK_Init+0x6c>
 8003ee0:	f7ff ff46 	bl	8003d70 <XMC_SCU_CLOCK_DisableSystemPll>
 8003ee4:	e010      	b.n	8003f08 <XMC_SCU_CLOCK_Init+0x80>
 8003ee6:	f7ff ff0d 	bl	8003d04 <XMC_SCU_CLOCK_EnableHighPerformanceOscillator>
 8003eea:	f7ff ff2b 	bl	8003d44 <XMC_SCU_CLOCK_IsHighPerformanceOscillatorStable>
 8003eee:	2800      	cmp	r0, #0
 8003ef0:	d0fb      	beq.n	8003eea <XMC_SCU_CLOCK_Init+0x62>
 8003ef2:	e7f3      	b.n	8003edc <XMC_SCU_CLOCK_Init+0x54>
 8003ef4:	f7ff ff32 	bl	8003d5c <XMC_SCU_CLOCK_EnableSystemPll>
 8003ef8:	78a5      	ldrb	r5, [r4, #2]
 8003efa:	88a0      	ldrh	r0, [r4, #4]
 8003efc:	78e1      	ldrb	r1, [r4, #3]
 8003efe:	7862      	ldrb	r2, [r4, #1]
 8003f00:	7823      	ldrb	r3, [r4, #0]
 8003f02:	9500      	str	r5, [sp, #0]
 8003f04:	f7ff ff4c 	bl	8003da0 <XMC_SCU_CLOCK_StartSystemPll>
 8003f08:	68e0      	ldr	r0, [r4, #12]
 8003f0a:	f5b0 3f80 	cmp.w	r0, #65536	; 0x10000
 8003f0e:	d101      	bne.n	8003f14 <XMC_SCU_CLOCK_Init+0x8c>
 8003f10:	f7ff fdd8 	bl	8003ac4 <XMC_SCU_CLOCK_SetSystemClockSource>
 8003f14:	b003      	add	sp, #12
 8003f16:	e8bd 4030 	ldmia.w	sp!, {r4, r5, lr}
 8003f1a:	f7fc b9cb 	b.w	80002b4 <SystemCoreClockUpdate>
 8003f1e:	bf00      	nop
 8003f20:	50004000 	.word	0x50004000

08003f24 <XMC_CAN_NODE_NominalBitTimeConfigureEx>:
 8003f24:	e891 000c 	ldmia.w	r1, {r2, r3}
 8003f28:	b5f0      	push	{r4, r5, r6, r7, lr}
 8003f2a:	fbb2 fef3 	udiv	lr, r2, r3
 8003f2e:	fb03 231e 	mls	r3, r3, lr, r2
 8003f32:	bb1b      	cbnz	r3, 8003f7c <XMC_CAN_NODE_NominalBitTimeConfigureEx+0x58>
 8003f34:	2718      	movs	r7, #24
 8003f36:	1c7a      	adds	r2, r7, #1
 8003f38:	fbbe f4f2 	udiv	r4, lr, r2
 8003f3c:	fb02 e614 	mls	r6, r2, r4, lr
 8003f40:	b9ce      	cbnz	r6, 8003f76 <XMC_CAN_NODE_NominalBitTimeConfigureEx+0x52>
 8003f42:	1e63      	subs	r3, r4, #1
 8003f44:	f5b3 7f00 	cmp.w	r3, #512	; 0x200
 8003f48:	d215      	bcs.n	8003f76 <XMC_CAN_NODE_NominalBitTimeConfigureEx+0x52>
 8003f4a:	2c3f      	cmp	r4, #63	; 0x3f
 8003f4c:	d902      	bls.n	8003f54 <XMC_CAN_NODE_NominalBitTimeConfigureEx+0x30>
 8003f4e:	0763      	lsls	r3, r4, #29
 8003f50:	d111      	bne.n	8003f76 <XMC_CAN_NODE_NominalBitTimeConfigureEx+0x52>
 8003f52:	2601      	movs	r6, #1
 8003f54:	890b      	ldrh	r3, [r1, #8]
 8003f56:	f242 7510 	movw	r5, #10000	; 0x2710
 8003f5a:	437b      	muls	r3, r7
 8003f5c:	fbb3 f3f5 	udiv	r3, r3, r5
 8003f60:	1edd      	subs	r5, r3, #3
 8003f62:	2d0c      	cmp	r5, #12
 8003f64:	d807      	bhi.n	8003f76 <XMC_CAN_NODE_NominalBitTimeConfigureEx+0x52>
 8003f66:	1ad2      	subs	r2, r2, r3
 8003f68:	1ed5      	subs	r5, r2, #3
 8003f6a:	2d04      	cmp	r5, #4
 8003f6c:	d803      	bhi.n	8003f76 <XMC_CAN_NODE_NominalBitTimeConfigureEx+0x52>
 8003f6e:	894d      	ldrh	r5, [r1, #10]
 8003f70:	3a01      	subs	r2, #1
 8003f72:	42aa      	cmp	r2, r5
 8003f74:	d204      	bcs.n	8003f80 <XMC_CAN_NODE_NominalBitTimeConfigureEx+0x5c>
 8003f76:	3f01      	subs	r7, #1
 8003f78:	2f06      	cmp	r7, #6
 8003f7a:	d1dc      	bne.n	8003f36 <XMC_CAN_NODE_NominalBitTimeConfigureEx+0x12>
 8003f7c:	2001      	movs	r0, #1
 8003f7e:	bdf0      	pop	{r4, r5, r6, r7, pc}
 8003f80:	3a01      	subs	r2, #1
 8003f82:	3d01      	subs	r5, #1
 8003f84:	0312      	lsls	r2, r2, #12
 8003f86:	01ad      	lsls	r5, r5, #6
 8003f88:	b2ed      	uxtb	r5, r5
 8003f8a:	f402 42e0 	and.w	r2, r2, #28672	; 0x7000
 8003f8e:	432a      	orrs	r2, r5
 8003f90:	ea42 32c6 	orr.w	r2, r2, r6, lsl #15
 8003f94:	3b01      	subs	r3, #1
 8003f96:	eb06 0646 	add.w	r6, r6, r6, lsl #1
 8003f9a:	40f4      	lsrs	r4, r6
 8003f9c:	021b      	lsls	r3, r3, #8
 8003f9e:	6801      	ldr	r1, [r0, #0]
 8003fa0:	f403 6370 	and.w	r3, r3, #3840	; 0xf00
 8003fa4:	3c01      	subs	r4, #1
 8003fa6:	431a      	orrs	r2, r3
 8003fa8:	f004 043f 	and.w	r4, r4, #63	; 0x3f
 8003fac:	f041 0140 	orr.w	r1, r1, #64	; 0x40
 8003fb0:	4322      	orrs	r2, r4
 8003fb2:	6001      	str	r1, [r0, #0]
 8003fb4:	6102      	str	r2, [r0, #16]
 8003fb6:	6803      	ldr	r3, [r0, #0]
 8003fb8:	f023 0340 	bic.w	r3, r3, #64	; 0x40
 8003fbc:	6003      	str	r3, [r0, #0]
 8003fbe:	2000      	movs	r0, #0
 8003fc0:	bdf0      	pop	{r4, r5, r6, r7, pc}

08003fc2 <XMC_CAN_AllocateMOtoNodeList>:
 8003fc2:	f8d0 31c4 	ldr.w	r3, [r0, #452]	; 0x1c4
 8003fc6:	f413 7f40 	tst.w	r3, #768	; 0x300
 8003fca:	d1fa      	bne.n	8003fc2 <XMC_CAN_AllocateMOtoNodeList>
 8003fcc:	0412      	lsls	r2, r2, #16
 8003fce:	f042 0202 	orr.w	r2, r2, #2
 8003fd2:	3101      	adds	r1, #1
 8003fd4:	ea42 6101 	orr.w	r1, r2, r1, lsl #24
 8003fd8:	f8c0 11c4 	str.w	r1, [r0, #452]	; 0x1c4
 8003fdc:	4770      	bx	lr
	...

08003fe0 <XMC_CAN_Enable>:
 8003fe0:	b510      	push	{r4, lr}
 8003fe2:	4604      	mov	r4, r0
 8003fe4:	4805      	ldr	r0, [pc, #20]	; (8003ffc <XMC_CAN_Enable+0x1c>)
 8003fe6:	f7ff fd57 	bl	8003a98 <XMC_SCU_RESET_DeassertPeripheralReset>
 8003fea:	6823      	ldr	r3, [r4, #0]
 8003fec:	f023 0301 	bic.w	r3, r3, #1
 8003ff0:	6023      	str	r3, [r4, #0]
 8003ff2:	6823      	ldr	r3, [r4, #0]
 8003ff4:	079b      	lsls	r3, r3, #30
 8003ff6:	d4fc      	bmi.n	8003ff2 <XMC_CAN_Enable+0x12>
 8003ff8:	bd10      	pop	{r4, pc}
 8003ffa:	bf00      	nop
 8003ffc:	10000010 	.word	0x10000010

08004000 <XMC_CAN_InitEx>:
 8004000:	b538      	push	{r3, r4, r5, lr}
 8004002:	4605      	mov	r5, r0
 8004004:	4614      	mov	r4, r2
 8004006:	f7ff ffeb 	bl	8003fe0 <XMC_CAN_Enable>
 800400a:	f7ff fd4f 	bl	8003aac <XMC_SCU_CLOCK_GetPeripheralClockFrequency>
 800400e:	fbb0 f2f4 	udiv	r2, r0, r4
 8004012:	f5c2 6280 	rsb	r2, r2, #1024	; 0x400
 8004016:	2a00      	cmp	r2, #0
 8004018:	bf38      	it	cc
 800401a:	2200      	movcc	r2, #0
 800401c:	f240 33ff 	movw	r3, #1023	; 0x3ff
 8004020:	429a      	cmp	r2, r3
 8004022:	bf28      	it	cs
 8004024:	461a      	movcs	r2, r3
 8004026:	68eb      	ldr	r3, [r5, #12]
 8004028:	f423 4343 	bic.w	r3, r3, #49920	; 0xc300
 800402c:	f023 03ff 	bic.w	r3, r3, #255	; 0xff
 8004030:	60eb      	str	r3, [r5, #12]
 8004032:	68eb      	ldr	r3, [r5, #12]
 8004034:	f443 4380 	orr.w	r3, r3, #16384	; 0x4000
 8004038:	4313      	orrs	r3, r2
 800403a:	60eb      	str	r3, [r5, #12]
 800403c:	f5c2 6280 	rsb	r2, r2, #1024	; 0x400
 8004040:	fbb0 f0f2 	udiv	r0, r0, r2
 8004044:	bd38      	pop	{r3, r4, r5, pc}
	...

08004048 <XMC_CAN_MO_UpdateData>:
 8004048:	7e03      	ldrb	r3, [r0, #24]
 800404a:	2b01      	cmp	r3, #1
 800404c:	d114      	bne.n	8004078 <XMC_CAN_MO_UpdateData+0x30>
 800404e:	6803      	ldr	r3, [r0, #0]
 8004050:	2220      	movs	r2, #32
 8004052:	61da      	str	r2, [r3, #28]
 8004054:	6803      	ldr	r3, [r0, #0]
 8004056:	7b01      	ldrb	r1, [r0, #12]
 8004058:	681a      	ldr	r2, [r3, #0]
 800405a:	0609      	lsls	r1, r1, #24
 800405c:	f001 6170 	and.w	r1, r1, #251658240	; 0xf000000
 8004060:	f022 6270 	bic.w	r2, r2, #251658240	; 0xf000000
 8004064:	430a      	orrs	r2, r1
 8004066:	601a      	str	r2, [r3, #0]
 8004068:	6902      	ldr	r2, [r0, #16]
 800406a:	611a      	str	r2, [r3, #16]
 800406c:	6942      	ldr	r2, [r0, #20]
 800406e:	615a      	str	r2, [r3, #20]
 8004070:	4a02      	ldr	r2, [pc, #8]	; (800407c <XMC_CAN_MO_UpdateData+0x34>)
 8004072:	61da      	str	r2, [r3, #28]
 8004074:	2000      	movs	r0, #0
 8004076:	4770      	bx	lr
 8004078:	2003      	movs	r0, #3
 800407a:	4770      	bx	lr
 800407c:	00280040 	.word	0x00280040

08004080 <XMC_CAN_MO_Config>:
 8004080:	6802      	ldr	r2, [r0, #0]
 8004082:	6891      	ldr	r1, [r2, #8]
 8004084:	f102 4338 	add.w	r3, r2, #3087007744	; 0xb8000000
 8004088:	f421 417f 	bic.w	r1, r1, #65280	; 0xff00
 800408c:	b510      	push	{r4, lr}
 800408e:	f5a3 33a8 	sub.w	r3, r3, #86016	; 0x15000
 8004092:	6091      	str	r1, [r2, #8]
 8004094:	6891      	ldr	r1, [r2, #8]
 8004096:	00db      	lsls	r3, r3, #3
 8004098:	f023 03ff 	bic.w	r3, r3, #255	; 0xff
 800409c:	430b      	orrs	r3, r1
 800409e:	6093      	str	r3, [r2, #8]
 80040a0:	7e03      	ldrb	r3, [r0, #24]
 80040a2:	2b01      	cmp	r3, #1
 80040a4:	4604      	mov	r4, r0
 80040a6:	d828      	bhi.n	80040fa <XMC_CAN_MO_Config+0x7a>
 80040a8:	2320      	movs	r3, #32
 80040aa:	61d3      	str	r3, [r2, #28]
 80040ac:	79c3      	ldrb	r3, [r0, #7]
 80040ae:	6842      	ldr	r2, [r0, #4]
 80040b0:	f013 0f20 	tst.w	r3, #32
 80040b4:	bf08      	it	eq
 80040b6:	f002 4160 	andeq.w	r1, r2, #3758096384	; 0xe0000000
 80040ba:	6803      	ldr	r3, [r0, #0]
 80040bc:	bf03      	ittte	eq
 80040be:	ea41 4282 	orreq.w	r2, r1, r2, lsl #18
 80040c2:	619a      	streq	r2, [r3, #24]
 80040c4:	6881      	ldreq	r1, [r0, #8]
 80040c6:	619a      	strne	r2, [r3, #24]
 80040c8:	bf06      	itte	eq
 80040ca:	f001 4260 	andeq.w	r2, r1, #3758096384	; 0xe0000000
 80040ce:	ea42 4281 	orreq.w	r2, r2, r1, lsl #18
 80040d2:	6882      	ldrne	r2, [r0, #8]
 80040d4:	60da      	str	r2, [r3, #12]
 80040d6:	7e02      	ldrb	r2, [r0, #24]
 80040d8:	2a01      	cmp	r2, #1
 80040da:	d108      	bne.n	80040ee <XMC_CAN_MO_Config+0x6e>
 80040dc:	f7ff ffb4 	bl	8004048 <XMC_CAN_MO_UpdateData>
 80040e0:	6823      	ldr	r3, [r4, #0]
 80040e2:	f04f 6200 	mov.w	r2, #134217728	; 0x8000000
 80040e6:	61da      	str	r2, [r3, #28]
 80040e8:	6823      	ldr	r3, [r4, #0]
 80040ea:	4a04      	ldr	r2, [pc, #16]	; (80040fc <XMC_CAN_MO_Config+0x7c>)
 80040ec:	e004      	b.n	80040f8 <XMC_CAN_MO_Config+0x78>
 80040ee:	f44f 6200 	mov.w	r2, #2048	; 0x800
 80040f2:	61da      	str	r2, [r3, #28]
 80040f4:	6803      	ldr	r3, [r0, #0]
 80040f6:	4a02      	ldr	r2, [pc, #8]	; (8004100 <XMC_CAN_MO_Config+0x80>)
 80040f8:	61da      	str	r2, [r3, #28]
 80040fa:	bd10      	pop	{r4, pc}
 80040fc:	062000c0 	.word	0x062000c0
 8004100:	00a00640 	.word	0x00a00640

08004104 <XMC_CAN_MO_Transmit>:
 8004104:	6803      	ldr	r3, [r0, #0]
 8004106:	69d9      	ldr	r1, [r3, #28]
 8004108:	69da      	ldr	r2, [r3, #28]
 800410a:	0689      	lsls	r1, r1, #26
 800410c:	d506      	bpl.n	800411c <XMC_CAN_MO_Transmit+0x18>
 800410e:	05d2      	lsls	r2, r2, #23
 8004110:	d406      	bmi.n	8004120 <XMC_CAN_MO_Transmit+0x1c>
 8004112:	f04f 62e0 	mov.w	r2, #117440512	; 0x7000000
 8004116:	61da      	str	r2, [r3, #28]
 8004118:	2000      	movs	r0, #0
 800411a:	4770      	bx	lr
 800411c:	2004      	movs	r0, #4
 800411e:	4770      	bx	lr
 8004120:	2002      	movs	r0, #2
 8004122:	4770      	bx	lr

08004124 <XMC_CAN_MO_Receive>:
 8004124:	6803      	ldr	r3, [r0, #0]
 8004126:	69da      	ldr	r2, [r3, #28]
 8004128:	69db      	ldr	r3, [r3, #28]
 800412a:	0512      	lsls	r2, r2, #20
 800412c:	d44e      	bmi.n	80041cc <XMC_CAN_MO_Receive+0xa8>
 800412e:	0759      	lsls	r1, r3, #29
 8004130:	d44e      	bmi.n	80041d0 <XMC_CAN_MO_Receive+0xac>
 8004132:	6803      	ldr	r3, [r0, #0]
 8004134:	2208      	movs	r2, #8
 8004136:	61da      	str	r2, [r3, #28]
 8004138:	6803      	ldr	r3, [r0, #0]
 800413a:	79c2      	ldrb	r2, [r0, #7]
 800413c:	6999      	ldr	r1, [r3, #24]
 800413e:	f3c1 7140 	ubfx	r1, r1, #29, #1
 8004142:	b9d9      	cbnz	r1, 800417c <XMC_CAN_MO_Receive+0x58>
 8004144:	f361 1245 	bfi	r2, r1, #5, #1
 8004148:	71c2      	strb	r2, [r0, #7]
 800414a:	699a      	ldr	r2, [r3, #24]
 800414c:	6841      	ldr	r1, [r0, #4]
 800414e:	f3c2 428a 	ubfx	r2, r2, #18, #11
 8004152:	f362 011c 	bfi	r1, r2, #0, #29
 8004156:	6041      	str	r1, [r0, #4]
 8004158:	68d9      	ldr	r1, [r3, #12]
 800415a:	7ac2      	ldrb	r2, [r0, #11]
 800415c:	f3c1 7140 	ubfx	r1, r1, #29, #1
 8004160:	f361 1245 	bfi	r2, r1, #5, #1
 8004164:	72c2      	strb	r2, [r0, #11]
 8004166:	68d9      	ldr	r1, [r3, #12]
 8004168:	f012 0f20 	tst.w	r2, #32
 800416c:	6882      	ldr	r2, [r0, #8]
 800416e:	bf18      	it	ne
 8004170:	f3c1 418a 	ubfxne	r1, r1, #18, #11
 8004174:	f361 021c 	bfi	r2, r1, #0, #29
 8004178:	6082      	str	r2, [r0, #8]
 800417a:	e013      	b.n	80041a4 <XMC_CAN_MO_Receive+0x80>
 800417c:	f042 0220 	orr.w	r2, r2, #32
 8004180:	71c2      	strb	r2, [r0, #7]
 8004182:	6999      	ldr	r1, [r3, #24]
 8004184:	6842      	ldr	r2, [r0, #4]
 8004186:	f361 021c 	bfi	r2, r1, #0, #29
 800418a:	6042      	str	r2, [r0, #4]
 800418c:	68d9      	ldr	r1, [r3, #12]
 800418e:	6882      	ldr	r2, [r0, #8]
 8004190:	f361 021c 	bfi	r2, r1, #0, #29
 8004194:	6082      	str	r2, [r0, #8]
 8004196:	68da      	ldr	r2, [r3, #12]
 8004198:	7ac1      	ldrb	r1, [r0, #11]
 800419a:	f3c2 7240 	ubfx	r2, r2, #29, #1
 800419e:	f362 1145 	bfi	r1, r2, #5, #1
 80041a2:	72c1      	strb	r1, [r0, #11]
 80041a4:	681a      	ldr	r2, [r3, #0]
 80041a6:	f3c2 6203 	ubfx	r2, r2, #24, #4
 80041aa:	7302      	strb	r2, [r0, #12]
 80041ac:	691a      	ldr	r2, [r3, #16]
 80041ae:	6102      	str	r2, [r0, #16]
 80041b0:	695a      	ldr	r2, [r3, #20]
 80041b2:	6142      	str	r2, [r0, #20]
 80041b4:	69da      	ldr	r2, [r3, #28]
 80041b6:	69db      	ldr	r3, [r3, #28]
 80041b8:	0752      	lsls	r2, r2, #29
 80041ba:	f3c3 03c0 	ubfx	r3, r3, #3, #1
 80041be:	d501      	bpl.n	80041c4 <XMC_CAN_MO_Receive+0xa0>
 80041c0:	2b00      	cmp	r3, #0
 80041c2:	d1b6      	bne.n	8004132 <XMC_CAN_MO_Receive+0xe>
 80041c4:	2300      	movs	r3, #0
 80041c6:	7603      	strb	r3, [r0, #24]
 80041c8:	4618      	mov	r0, r3
 80041ca:	4770      	bx	lr
 80041cc:	2003      	movs	r0, #3
 80041ce:	4770      	bx	lr
 80041d0:	2002      	movs	r0, #2
 80041d2:	4770      	bx	lr

080041d4 <XMC_CAN_NODE_EnableEvent>:
 80041d4:	f5b1 0f80 	cmp.w	r1, #4194304	; 0x400000
 80041d8:	bf15      	itete	ne
 80041da:	6803      	ldrne	r3, [r0, #0]
 80041dc:	6983      	ldreq	r3, [r0, #24]
 80041de:	4319      	orrne	r1, r3
 80041e0:	f443 0380 	orreq.w	r3, r3, #4194304	; 0x400000
 80041e4:	bf14      	ite	ne
 80041e6:	6001      	strne	r1, [r0, #0]
 80041e8:	6183      	streq	r3, [r0, #24]
 80041ea:	4770      	bx	lr

080041ec <XMC_CCU4_EnableModule>:
 80041ec:	b510      	push	{r4, lr}
 80041ee:	4604      	mov	r4, r0
 80041f0:	2010      	movs	r0, #16
 80041f2:	f7ff fcfb 	bl	8003bec <XMC_SCU_CLOCK_EnableClock>
 80041f6:	4b0c      	ldr	r3, [pc, #48]	; (8004228 <XMC_CCU4_EnableModule+0x3c>)
 80041f8:	429c      	cmp	r4, r3
 80041fa:	d101      	bne.n	8004200 <XMC_CCU4_EnableModule+0x14>
 80041fc:	2004      	movs	r0, #4
 80041fe:	e00d      	b.n	800421c <XMC_CCU4_EnableModule+0x30>
 8004200:	4b0a      	ldr	r3, [pc, #40]	; (800422c <XMC_CCU4_EnableModule+0x40>)
 8004202:	429c      	cmp	r4, r3
 8004204:	d101      	bne.n	800420a <XMC_CCU4_EnableModule+0x1e>
 8004206:	2008      	movs	r0, #8
 8004208:	e008      	b.n	800421c <XMC_CCU4_EnableModule+0x30>
 800420a:	4b09      	ldr	r3, [pc, #36]	; (8004230 <XMC_CCU4_EnableModule+0x44>)
 800420c:	429c      	cmp	r4, r3
 800420e:	d101      	bne.n	8004214 <XMC_CCU4_EnableModule+0x28>
 8004210:	2010      	movs	r0, #16
 8004212:	e003      	b.n	800421c <XMC_CCU4_EnableModule+0x30>
 8004214:	4b07      	ldr	r3, [pc, #28]	; (8004234 <XMC_CCU4_EnableModule+0x48>)
 8004216:	429c      	cmp	r4, r3
 8004218:	d104      	bne.n	8004224 <XMC_CCU4_EnableModule+0x38>
 800421a:	4807      	ldr	r0, [pc, #28]	; (8004238 <XMC_CCU4_EnableModule+0x4c>)
 800421c:	e8bd 4010 	ldmia.w	sp!, {r4, lr}
 8004220:	f7ff bc3a 	b.w	8003a98 <XMC_SCU_RESET_DeassertPeripheralReset>
 8004224:	bd10      	pop	{r4, pc}
 8004226:	bf00      	nop
 8004228:	4000c000 	.word	0x4000c000
 800422c:	40010000 	.word	0x40010000
 8004230:	40014000 	.word	0x40014000
 8004234:	48004000 	.word	0x48004000
 8004238:	10000001 	.word	0x10000001

0800423c <XMC_CCU4_Init>:
 800423c:	b538      	push	{r3, r4, r5, lr}
 800423e:	4604      	mov	r4, r0
 8004240:	460d      	mov	r5, r1
 8004242:	f7ff ffd3 	bl	80041ec <XMC_CCU4_EnableModule>
 8004246:	f44f 7380 	mov.w	r3, #256	; 0x100
 800424a:	60e3      	str	r3, [r4, #12]
 800424c:	6823      	ldr	r3, [r4, #0]
 800424e:	f423 4340 	bic.w	r3, r3, #49152	; 0xc000
 8004252:	ea43 3185 	orr.w	r1, r3, r5, lsl #14
 8004256:	6021      	str	r1, [r4, #0]
 8004258:	bd38      	pop	{r3, r4, r5, pc}

0800425a <XMC_CCU4_SLICE_CompareInit>:
 800425a:	680b      	ldr	r3, [r1, #0]
 800425c:	6143      	str	r3, [r0, #20]
 800425e:	794b      	ldrb	r3, [r1, #5]
 8004260:	f3c3 1340 	ubfx	r3, r3, #5, #1
 8004264:	051b      	lsls	r3, r3, #20
 8004266:	6043      	str	r3, [r0, #4]
 8004268:	790b      	ldrb	r3, [r1, #4]
 800426a:	f003 030f 	and.w	r3, r3, #15
 800426e:	6243      	str	r3, [r0, #36]	; 0x24
 8004270:	794b      	ldrb	r3, [r1, #5]
 8004272:	f003 030f 	and.w	r3, r3, #15
 8004276:	6203      	str	r3, [r0, #32]
 8004278:	794b      	ldrb	r3, [r1, #5]
 800427a:	f3c3 1300 	ubfx	r3, r3, #4, #1
 800427e:	6183      	str	r3, [r0, #24]
 8004280:	790b      	ldrb	r3, [r1, #4]
 8004282:	091b      	lsrs	r3, r3, #4
 8004284:	62c3      	str	r3, [r0, #44]	; 0x2c
 8004286:	4770      	bx	lr

08004288 <XMC_CCU4_SLICE_SetInterruptNode>:
 8004288:	2909      	cmp	r1, #9
 800428a:	b530      	push	{r4, r5, lr}
 800428c:	bf9c      	itt	ls
 800428e:	4c09      	ldrls	r4, [pc, #36]	; (80042b4 <XMC_CCU4_SLICE_SetInterruptNode+0x2c>)
 8004290:	4d09      	ldrls	r5, [pc, #36]	; (80042b8 <XMC_CCU4_SLICE_SetInterruptNode+0x30>)
 8004292:	f8d0 30a8 	ldr.w	r3, [r0, #168]	; 0xa8
 8004296:	bf99      	ittee	ls
 8004298:	5c64      	ldrbls	r4, [r4, r1]
 800429a:	f835 1011 	ldrhls.w	r1, [r5, r1, lsl #1]
 800429e:	f44f 5140 	movhi.w	r1, #12288	; 0x3000
 80042a2:	240c      	movhi	r4, #12
 80042a4:	ea23 0301 	bic.w	r3, r3, r1
 80042a8:	40a2      	lsls	r2, r4
 80042aa:	431a      	orrs	r2, r3
 80042ac:	f8c0 20a8 	str.w	r2, [r0, #168]	; 0xa8
 80042b0:	bd30      	pop	{r4, r5, pc}
 80042b2:	bf00      	nop
 80042b4:	080093a8 	.word	0x080093a8
 80042b8:	080093b2 	.word	0x080093b2

080042bc <XMC_ERU_ETL_Init>:
 80042bc:	b570      	push	{r4, r5, r6, lr}
 80042be:	4605      	mov	r5, r0
 80042c0:	460c      	mov	r4, r1
 80042c2:	4616      	mov	r6, r2
 80042c4:	f7ff fb74 	bl	80039b0 <XMC_ERU_Enable>
 80042c8:	6828      	ldr	r0, [r5, #0]
 80042ca:	00a2      	lsls	r2, r4, #2
 80042cc:	230f      	movs	r3, #15
 80042ce:	4093      	lsls	r3, r2
 80042d0:	ea20 0103 	bic.w	r1, r0, r3
 80042d4:	6833      	ldr	r3, [r6, #0]
 80042d6:	4093      	lsls	r3, r2
 80042d8:	430b      	orrs	r3, r1
 80042da:	602b      	str	r3, [r5, #0]
 80042dc:	3404      	adds	r4, #4
 80042de:	6873      	ldr	r3, [r6, #4]
 80042e0:	f845 3024 	str.w	r3, [r5, r4, lsl #2]
 80042e4:	bd70      	pop	{r4, r5, r6, pc}

080042e6 <XMC_ERU_OGU_Init>:
 80042e6:	b570      	push	{r4, r5, r6, lr}
 80042e8:	460c      	mov	r4, r1
 80042ea:	4616      	mov	r6, r2
 80042ec:	4605      	mov	r5, r0
 80042ee:	3408      	adds	r4, #8
 80042f0:	f7ff fb5e 	bl	80039b0 <XMC_ERU_Enable>
 80042f4:	6833      	ldr	r3, [r6, #0]
 80042f6:	f845 3024 	str.w	r3, [r5, r4, lsl #2]
 80042fa:	bd70      	pop	{r4, r5, r6, pc}

080042fc <XMC_GPIO_SetHardwareControl>:
 80042fc:	6f43      	ldr	r3, [r0, #116]	; 0x74
 80042fe:	0049      	lsls	r1, r1, #1
 8004300:	b510      	push	{r4, lr}
 8004302:	2403      	movs	r4, #3
 8004304:	408c      	lsls	r4, r1
 8004306:	ea23 0304 	bic.w	r3, r3, r4
 800430a:	6743      	str	r3, [r0, #116]	; 0x74
 800430c:	6f43      	ldr	r3, [r0, #116]	; 0x74
 800430e:	408a      	lsls	r2, r1
 8004310:	4313      	orrs	r3, r2
 8004312:	6743      	str	r3, [r0, #116]	; 0x74
 8004314:	bd10      	pop	{r4, pc}

08004316 <XMC_VADC_GLOBAL_EnableModule>:
 8004316:	2001      	movs	r0, #1
 8004318:	f7ff bbbe 	b.w	8003a98 <XMC_SCU_RESET_DeassertPeripheralReset>

0800431c <XMC_VADC_GLOBAL_Init>:
 800431c:	b538      	push	{r3, r4, r5, lr}
 800431e:	460d      	mov	r5, r1
 8004320:	4604      	mov	r4, r0
 8004322:	f7ff fff8 	bl	8004316 <XMC_VADC_GLOBAL_EnableModule>
 8004326:	696b      	ldr	r3, [r5, #20]
 8004328:	6023      	str	r3, [r4, #0]
 800432a:	686b      	ldr	r3, [r5, #4]
 800432c:	f443 4300 	orr.w	r3, r3, #32768	; 0x8000
 8004330:	f8c4 3080 	str.w	r3, [r4, #128]	; 0x80
 8004334:	68ab      	ldr	r3, [r5, #8]
 8004336:	f8c4 30a0 	str.w	r3, [r4, #160]	; 0xa0
 800433a:	68eb      	ldr	r3, [r5, #12]
 800433c:	f8c4 30a4 	str.w	r3, [r4, #164]	; 0xa4
 8004340:	692b      	ldr	r3, [r5, #16]
 8004342:	f8c4 3280 	str.w	r3, [r4, #640]	; 0x280
 8004346:	682b      	ldr	r3, [r5, #0]
 8004348:	f8c4 30b8 	str.w	r3, [r4, #184]	; 0xb8
 800434c:	bd38      	pop	{r3, r4, r5, pc}
	...

08004350 <XMC_VADC_GLOBAL_InputClassInit>:
 8004350:	3328      	adds	r3, #40	; 0x28
 8004352:	b912      	cbnz	r2, 800435a <XMC_VADC_GLOBAL_InputClassInit+0xa>
 8004354:	f240 721f 	movw	r2, #1823	; 0x71f
 8004358:	e000      	b.n	800435c <XMC_VADC_GLOBAL_InputClassInit+0xc>
 800435a:	4a02      	ldr	r2, [pc, #8]	; (8004364 <XMC_VADC_GLOBAL_InputClassInit+0x14>)
 800435c:	400a      	ands	r2, r1
 800435e:	f840 2023 	str.w	r2, [r0, r3, lsl #2]
 8004362:	4770      	bx	lr
 8004364:	071f0000 	.word	0x071f0000

08004368 <XMC_VADC_GLOBAL_StartupCalibration>:
 8004368:	f8d0 3080 	ldr.w	r3, [r0, #128]	; 0x80
 800436c:	f043 4300 	orr.w	r3, r3, #2147483648	; 0x80000000
 8004370:	f8c0 3080 	str.w	r3, [r0, #128]	; 0x80
 8004374:	2300      	movs	r3, #0
 8004376:	4a09      	ldr	r2, [pc, #36]	; (800439c <XMC_VADC_GLOBAL_StartupCalibration+0x34>)
 8004378:	f852 2023 	ldr.w	r2, [r2, r3, lsl #2]
 800437c:	f8d2 1080 	ldr.w	r1, [r2, #128]	; 0x80
 8004380:	f411 3f40 	tst.w	r1, #196608	; 0x30000
 8004384:	d005      	beq.n	8004392 <XMC_VADC_GLOBAL_StartupCalibration+0x2a>
 8004386:	f8d2 1080 	ldr.w	r1, [r2, #128]	; 0x80
 800438a:	00c9      	lsls	r1, r1, #3
 800438c:	d501      	bpl.n	8004392 <XMC_VADC_GLOBAL_StartupCalibration+0x2a>
 800438e:	bf00      	nop
 8004390:	e7f9      	b.n	8004386 <XMC_VADC_GLOBAL_StartupCalibration+0x1e>
 8004392:	3301      	adds	r3, #1
 8004394:	2b04      	cmp	r3, #4
 8004396:	d1ee      	bne.n	8004376 <XMC_VADC_GLOBAL_StartupCalibration+0xe>
 8004398:	4770      	bx	lr
 800439a:	bf00      	nop
 800439c:	080093c8 	.word	0x080093c8

080043a0 <XMC_VADC_GLOBAL_BackgroundSetReqSrcEventInterruptNode>:
 80043a0:	f8d0 3140 	ldr.w	r3, [r0, #320]	; 0x140
 80043a4:	f023 030f 	bic.w	r3, r3, #15
 80043a8:	f8c0 3140 	str.w	r3, [r0, #320]	; 0x140
 80043ac:	2903      	cmp	r1, #3
 80043ae:	f8d0 3140 	ldr.w	r3, [r0, #320]	; 0x140
 80043b2:	bf88      	it	hi
 80043b4:	3904      	subhi	r1, #4
 80043b6:	4319      	orrs	r1, r3
 80043b8:	f8c0 1140 	str.w	r1, [r0, #320]	; 0x140
 80043bc:	4770      	bx	lr

080043be <XMC_VADC_GROUP_InputClassInit>:
 80043be:	b5f0      	push	{r4, r5, r6, r7, lr}
 80043c0:	b942      	cbnz	r2, 80043d4 <XMC_VADC_GROUP_InputClassInit+0x16>
 80043c2:	f001 051f 	and.w	r5, r1, #31
 80043c6:	261f      	movs	r6, #31
 80043c8:	f3c1 2102 	ubfx	r1, r1, #8, #3
 80043cc:	f44f 6ee0 	mov.w	lr, #1792	; 0x700
 80043d0:	2708      	movs	r7, #8
 80043d2:	e009      	b.n	80043e8 <XMC_VADC_GROUP_InputClassInit+0x2a>
 80043d4:	f3c1 4504 	ubfx	r5, r1, #16, #5
 80043d8:	f44f 16f8 	mov.w	r6, #2031616	; 0x1f0000
 80043dc:	f3c1 6102 	ubfx	r1, r1, #24, #3
 80043e0:	f04f 6ee0 	mov.w	lr, #117440512	; 0x7000000
 80043e4:	2210      	movs	r2, #16
 80043e6:	2718      	movs	r7, #24
 80043e8:	eb00 0383 	add.w	r3, r0, r3, lsl #2
 80043ec:	40b9      	lsls	r1, r7
 80043ee:	f8d3 40a0 	ldr.w	r4, [r3, #160]	; 0xa0
 80043f2:	ea24 040e 	bic.w	r4, r4, lr
 80043f6:	4321      	orrs	r1, r4
 80043f8:	ea21 0106 	bic.w	r1, r1, r6
 80043fc:	4095      	lsls	r5, r2
 80043fe:	4329      	orrs	r1, r5
 8004400:	f8c3 10a0 	str.w	r1, [r3, #160]	; 0xa0
 8004404:	bdf0      	pop	{r4, r5, r6, r7, pc}

08004406 <XMC_VADC_GROUP_Init>:
 8004406:	b5f8      	push	{r3, r4, r5, r6, r7, lr}
 8004408:	2200      	movs	r2, #0
 800440a:	460c      	mov	r4, r1
 800440c:	4605      	mov	r5, r0
 800440e:	4613      	mov	r3, r2
 8004410:	6849      	ldr	r1, [r1, #4]
 8004412:	f7ff ffd4 	bl	80043be <XMC_VADC_GROUP_InputClassInit>
 8004416:	4628      	mov	r0, r5
 8004418:	6861      	ldr	r1, [r4, #4]
 800441a:	2201      	movs	r2, #1
 800441c:	2300      	movs	r3, #0
 800441e:	f7ff ffce 	bl	80043be <XMC_VADC_GROUP_InputClassInit>
 8004422:	4628      	mov	r0, r5
 8004424:	68a1      	ldr	r1, [r4, #8]
 8004426:	2200      	movs	r2, #0
 8004428:	2301      	movs	r3, #1
 800442a:	f7ff ffc8 	bl	80043be <XMC_VADC_GROUP_InputClassInit>
 800442e:	2201      	movs	r2, #1
 8004430:	4613      	mov	r3, r2
 8004432:	4628      	mov	r0, r5
 8004434:	68a1      	ldr	r1, [r4, #8]
 8004436:	f7ff ffc2 	bl	80043be <XMC_VADC_GROUP_InputClassInit>
 800443a:	78a0      	ldrb	r0, [r4, #2]
 800443c:	6923      	ldr	r3, [r4, #16]
 800443e:	f8c5 3080 	str.w	r3, [r5, #128]	; 0x80
 8004442:	f000 061f 	and.w	r6, r0, #31
 8004446:	7820      	ldrb	r0, [r4, #0]
 8004448:	68e3      	ldr	r3, [r4, #12]
 800444a:	78e1      	ldrb	r1, [r4, #3]
 800444c:	f8c5 30b8 	str.w	r3, [r5, #184]	; 0xb8
 8004450:	f000 0007 	and.w	r0, r0, #7
 8004454:	ea40 4006 	orr.w	r0, r0, r6, lsl #16
 8004458:	f8c5 01f0 	str.w	r0, [r5, #496]	; 0x1f0
 800445c:	f8d5 21f0 	ldr.w	r2, [r5, #496]	; 0x1f0
 8004460:	f3c1 1700 	ubfx	r7, r1, #4, #1
 8004464:	f042 4200 	orr.w	r2, r2, #2147483648	; 0x80000000
 8004468:	f3c1 0381 	ubfx	r3, r1, #2, #2
 800446c:	ea42 7207 	orr.w	r2, r2, r7, lsl #28
 8004470:	f3c1 1140 	ubfx	r1, r1, #5, #1
 8004474:	ea42 6383 	orr.w	r3, r2, r3, lsl #26
 8004478:	ea43 7341 	orr.w	r3, r3, r1, lsl #29
 800447c:	f8c5 31f0 	str.w	r3, [r5, #496]	; 0x1f0
 8004480:	bdf8      	pop	{r3, r4, r5, r6, r7, pc}

08004482 <XMC_VADC_GROUP_SetPowerMode>:
 8004482:	f8d0 3080 	ldr.w	r3, [r0, #128]	; 0x80
 8004486:	f023 0303 	bic.w	r3, r3, #3
 800448a:	4319      	orrs	r1, r3
 800448c:	f8c0 1080 	str.w	r1, [r0, #128]	; 0x80
 8004490:	4770      	bx	lr
	...

08004494 <XMC_VADC_GLOBAL_BackgroundInit>:
 8004494:	4a30      	ldr	r2, [pc, #192]	; (8004558 <XMC_VADC_GLOBAL_BackgroundInit+0xc4>)
 8004496:	f8d2 3084 	ldr.w	r3, [r2, #132]	; 0x84
 800449a:	f023 6380 	bic.w	r3, r3, #67108864	; 0x4000000
 800449e:	b5f0      	push	{r4, r5, r6, r7, lr}
 80044a0:	f8c2 3084 	str.w	r3, [r2, #132]	; 0x84
 80044a4:	f8d2 3484 	ldr.w	r3, [r2, #1156]	; 0x484
 80044a8:	f023 6380 	bic.w	r3, r3, #67108864	; 0x4000000
 80044ac:	f8c2 3484 	str.w	r3, [r2, #1156]	; 0x484
 80044b0:	f8d2 3884 	ldr.w	r3, [r2, #2180]	; 0x884
 80044b4:	f023 6380 	bic.w	r3, r3, #67108864	; 0x4000000
 80044b8:	f8c2 3884 	str.w	r3, [r2, #2180]	; 0x884
 80044bc:	f8d2 3c84 	ldr.w	r3, [r2, #3204]	; 0xc84
 80044c0:	f023 6380 	bic.w	r3, r3, #67108864	; 0x4000000
 80044c4:	f8c2 3c84 	str.w	r3, [r2, #3204]	; 0xc84
 80044c8:	780b      	ldrb	r3, [r1, #0]
 80044ca:	f013 0503 	ands.w	r5, r3, #3
 80044ce:	f3c3 0381 	ubfx	r3, r3, #2, #2
 80044d2:	bf0c      	ite	eq
 80044d4:	2700      	moveq	r7, #0
 80044d6:	f44f 6700 	movne.w	r7, #2048	; 0x800
 80044da:	021a      	lsls	r2, r3, #8
 80044dc:	2400      	movs	r4, #0
 80044de:	4b1f      	ldr	r3, [pc, #124]	; (800455c <XMC_VADC_GLOBAL_BackgroundInit+0xc8>)
 80044e0:	f853 6024 	ldr.w	r6, [r3, r4, lsl #2]
 80044e4:	f8d6 3084 	ldr.w	r3, [r6, #132]	; 0x84
 80044e8:	f423 7340 	bic.w	r3, r3, #768	; 0x300
 80044ec:	4313      	orrs	r3, r2
 80044ee:	3401      	adds	r4, #1
 80044f0:	433b      	orrs	r3, r7
 80044f2:	2c04      	cmp	r4, #4
 80044f4:	f8c6 3084 	str.w	r3, [r6, #132]	; 0x84
 80044f8:	d1f1      	bne.n	80044de <XMC_VADC_GLOBAL_BackgroundInit+0x4a>
 80044fa:	684b      	ldr	r3, [r1, #4]
 80044fc:	4a16      	ldr	r2, [pc, #88]	; (8004558 <XMC_VADC_GLOBAL_BackgroundInit+0xc4>)
 80044fe:	f443 0300 	orr.w	r3, r3, #8388608	; 0x800000
 8004502:	f443 4300 	orr.w	r3, r3, #32768	; 0x8000
 8004506:	f8c0 3200 	str.w	r3, [r0, #512]	; 0x200
 800450a:	688b      	ldr	r3, [r1, #8]
 800450c:	f043 0301 	orr.w	r3, r3, #1
 8004510:	f8c0 3204 	str.w	r3, [r0, #516]	; 0x204
 8004514:	2d02      	cmp	r5, #2
 8004516:	bf02      	ittt	eq
 8004518:	f8d0 3204 	ldreq.w	r3, [r0, #516]	; 0x204
 800451c:	f443 3380 	orreq.w	r3, r3, #65536	; 0x10000
 8004520:	f8c0 3204 	streq.w	r3, [r0, #516]	; 0x204
 8004524:	f8d2 3084 	ldr.w	r3, [r2, #132]	; 0x84
 8004528:	f043 6380 	orr.w	r3, r3, #67108864	; 0x4000000
 800452c:	f8c2 3084 	str.w	r3, [r2, #132]	; 0x84
 8004530:	f8d2 3484 	ldr.w	r3, [r2, #1156]	; 0x484
 8004534:	f043 6380 	orr.w	r3, r3, #67108864	; 0x4000000
 8004538:	f8c2 3484 	str.w	r3, [r2, #1156]	; 0x484
 800453c:	f8d2 3884 	ldr.w	r3, [r2, #2180]	; 0x884
 8004540:	f043 6380 	orr.w	r3, r3, #67108864	; 0x4000000
 8004544:	f8c2 3884 	str.w	r3, [r2, #2180]	; 0x884
 8004548:	f8d2 3c84 	ldr.w	r3, [r2, #3204]	; 0xc84
 800454c:	f043 6380 	orr.w	r3, r3, #67108864	; 0x4000000
 8004550:	f8c2 3c84 	str.w	r3, [r2, #3204]	; 0xc84
 8004554:	bdf0      	pop	{r4, r5, r6, r7, pc}
 8004556:	bf00      	nop
 8004558:	40004400 	.word	0x40004400
 800455c:	080093c8 	.word	0x080093c8

08004560 <XMC_VADC_GROUP_ChannelInit>:
 8004560:	b530      	push	{r4, r5, lr}
 8004562:	2301      	movs	r3, #1
 8004564:	f8d0 5088 	ldr.w	r5, [r0, #136]	; 0x88
 8004568:	408b      	lsls	r3, r1
 800456a:	ea25 0403 	bic.w	r4, r5, r3
 800456e:	7a13      	ldrb	r3, [r2, #8]
 8004570:	408b      	lsls	r3, r1
 8004572:	4323      	orrs	r3, r4
 8004574:	f8c0 3088 	str.w	r3, [r0, #136]	; 0x88
 8004578:	f992 3009 	ldrsb.w	r3, [r2, #9]
 800457c:	2b00      	cmp	r3, #0
 800457e:	db19      	blt.n	80045b4 <XMC_VADC_GROUP_ChannelInit+0x54>
 8004580:	2901      	cmp	r1, #1
 8004582:	d107      	bne.n	8004594 <XMC_VADC_GROUP_ChannelInit+0x34>
 8004584:	f8d0 30b0 	ldr.w	r3, [r0, #176]	; 0xb0
 8004588:	f423 53f8 	bic.w	r3, r3, #7936	; 0x1f00
 800458c:	f8c0 30b0 	str.w	r3, [r0, #176]	; 0xb0
 8004590:	2508      	movs	r5, #8
 8004592:	e007      	b.n	80045a4 <XMC_VADC_GROUP_ChannelInit+0x44>
 8004594:	b929      	cbnz	r1, 80045a2 <XMC_VADC_GROUP_ChannelInit+0x42>
 8004596:	f8d0 30b0 	ldr.w	r3, [r0, #176]	; 0xb0
 800459a:	f023 031f 	bic.w	r3, r3, #31
 800459e:	f8c0 30b0 	str.w	r3, [r0, #176]	; 0xb0
 80045a2:	2500      	movs	r5, #0
 80045a4:	f992 3009 	ldrsb.w	r3, [r2, #9]
 80045a8:	f8d0 40b0 	ldr.w	r4, [r0, #176]	; 0xb0
 80045ac:	40ab      	lsls	r3, r5
 80045ae:	4323      	orrs	r3, r4
 80045b0:	f8c0 30b0 	str.w	r3, [r0, #176]	; 0xb0
 80045b4:	f8d0 40c8 	ldr.w	r4, [r0, #200]	; 0xc8
 80045b8:	6853      	ldr	r3, [r2, #4]
 80045ba:	4323      	orrs	r3, r4
 80045bc:	f8c0 30c8 	str.w	r3, [r0, #200]	; 0xc8
 80045c0:	3180      	adds	r1, #128	; 0x80
 80045c2:	6813      	ldr	r3, [r2, #0]
 80045c4:	f840 3021 	str.w	r3, [r0, r1, lsl #2]
 80045c8:	bd30      	pop	{r4, r5, pc}
	...

080045cc <XMC_WDT_Enable>:
 80045cc:	b508      	push	{r3, lr}
 80045ce:	2020      	movs	r0, #32
 80045d0:	f7ff fb0c 	bl	8003bec <XMC_SCU_CLOCK_EnableClock>
 80045d4:	4802      	ldr	r0, [pc, #8]	; (80045e0 <XMC_WDT_Enable+0x14>)
 80045d6:	e8bd 4008 	ldmia.w	sp!, {r3, lr}
 80045da:	f7ff ba5d 	b.w	8003a98 <XMC_SCU_RESET_DeassertPeripheralReset>
 80045de:	bf00      	nop
 80045e0:	20000002 	.word	0x20000002

080045e4 <XMC_WDT_Init>:
 80045e4:	b510      	push	{r4, lr}
 80045e6:	4604      	mov	r4, r0
 80045e8:	f7ff fff0 	bl	80045cc <XMC_WDT_Enable>
 80045ec:	4b03      	ldr	r3, [pc, #12]	; (80045fc <XMC_WDT_Init+0x18>)
 80045ee:	68a2      	ldr	r2, [r4, #8]
 80045f0:	605a      	str	r2, [r3, #4]
 80045f2:	6862      	ldr	r2, [r4, #4]
 80045f4:	611a      	str	r2, [r3, #16]
 80045f6:	6822      	ldr	r2, [r4, #0]
 80045f8:	615a      	str	r2, [r3, #20]
 80045fa:	bd10      	pop	{r4, pc}
 80045fc:	50008000 	.word	0x50008000

08004600 <_sbrk>:
 8004600:	b508      	push	{r3, lr}
 8004602:	4b0c      	ldr	r3, [pc, #48]	; (8004634 <_sbrk+0x34>)
 8004604:	681a      	ldr	r2, [r3, #0]
 8004606:	b90a      	cbnz	r2, 800460c <_sbrk+0xc>
 8004608:	4a0b      	ldr	r2, [pc, #44]	; (8004638 <_sbrk+0x38>)
 800460a:	601a      	str	r2, [r3, #0]
 800460c:	681a      	ldr	r2, [r3, #0]
 800460e:	490b      	ldr	r1, [pc, #44]	; (800463c <_sbrk+0x3c>)
 8004610:	1cc3      	adds	r3, r0, #3
 8004612:	f023 0303 	bic.w	r3, r3, #3
 8004616:	4413      	add	r3, r2
 8004618:	428b      	cmp	r3, r1
 800461a:	d203      	bcs.n	8004624 <_sbrk+0x24>
 800461c:	4905      	ldr	r1, [pc, #20]	; (8004634 <_sbrk+0x34>)
 800461e:	4610      	mov	r0, r2
 8004620:	600b      	str	r3, [r1, #0]
 8004622:	bd08      	pop	{r3, pc}
 8004624:	f004 fc1a 	bl	8008e5c <__errno>
 8004628:	230c      	movs	r3, #12
 800462a:	6003      	str	r3, [r0, #0]
 800462c:	f04f 30ff 	mov.w	r0, #4294967295
 8004630:	bd08      	pop	{r3, pc}
 8004632:	bf00      	nop
 8004634:	20000690 	.word	0x20000690
 8004638:	20001488 	.word	0x20001488
 800463c:	2000ffc0 	.word	0x2000ffc0

08004640 <_init>:
 8004640:	4770      	bx	lr

08004642 <WATCHDOG_lPrewarning_Configure>:
 8004642:	b508      	push	{r3, lr}
 8004644:	2001      	movs	r0, #1
 8004646:	f7ff fa17 	bl	8003a78 <XMC_SCU_INTERRUPT_EnableEvent>
 800464a:	2001      	movs	r0, #1
 800464c:	f7ff fa1c 	bl	8003a88 <XMC_SCU_INTERRUPT_EnableNmiRequest>
 8004650:	2000      	movs	r0, #0
 8004652:	bd08      	pop	{r3, pc}

08004654 <WATCHDOG_Init>:
 8004654:	b538      	push	{r3, r4, r5, lr}
 8004656:	7903      	ldrb	r3, [r0, #4]
 8004658:	4605      	mov	r5, r0
 800465a:	b953      	cbnz	r3, 8004672 <WATCHDOG_Init+0x1e>
 800465c:	f7ff fff1 	bl	8004642 <WATCHDOG_lPrewarning_Configure>
 8004660:	2801      	cmp	r0, #1
 8004662:	4604      	mov	r4, r0
 8004664:	d006      	beq.n	8004674 <WATCHDOG_Init+0x20>
 8004666:	6828      	ldr	r0, [r5, #0]
 8004668:	f7ff ffbc 	bl	80045e4 <XMC_WDT_Init>
 800466c:	2301      	movs	r3, #1
 800466e:	712b      	strb	r3, [r5, #4]
 8004670:	e000      	b.n	8004674 <WATCHDOG_Init+0x20>
 8004672:	2400      	movs	r4, #0
 8004674:	4620      	mov	r0, r4
 8004676:	bd38      	pop	{r3, r4, r5, pc}

08004678 <PWM_lCCU4_ConfigInterrupts>:
 8004678:	f890 3030 	ldrb.w	r3, [r0, #48]	; 0x30
 800467c:	b510      	push	{r4, lr}
 800467e:	4604      	mov	r4, r0
 8004680:	b163      	cbz	r3, 800469c <PWM_lCCU4_ConfigInterrupts+0x24>
 8004682:	6882      	ldr	r2, [r0, #8]
 8004684:	f8d2 30a4 	ldr.w	r3, [r2, #164]	; 0xa4
 8004688:	f043 0301 	orr.w	r3, r3, #1
 800468c:	f8c2 30a4 	str.w	r3, [r2, #164]	; 0xa4
 8004690:	6880      	ldr	r0, [r0, #8]
 8004692:	f894 202a 	ldrb.w	r2, [r4, #42]	; 0x2a
 8004696:	2100      	movs	r1, #0
 8004698:	f7ff fdf6 	bl	8004288 <XMC_CCU4_SLICE_SetInterruptNode>
 800469c:	f894 3031 	ldrb.w	r3, [r4, #49]	; 0x31
 80046a0:	b173      	cbz	r3, 80046c0 <PWM_lCCU4_ConfigInterrupts+0x48>
 80046a2:	68a2      	ldr	r2, [r4, #8]
 80046a4:	f8d2 30a4 	ldr.w	r3, [r2, #164]	; 0xa4
 80046a8:	f043 0304 	orr.w	r3, r3, #4
 80046ac:	f8c2 30a4 	str.w	r3, [r2, #164]	; 0xa4
 80046b0:	68a0      	ldr	r0, [r4, #8]
 80046b2:	f894 202b 	ldrb.w	r2, [r4, #43]	; 0x2b
 80046b6:	2102      	movs	r1, #2
 80046b8:	e8bd 4010 	ldmia.w	sp!, {r4, lr}
 80046bc:	f7ff bde4 	b.w	8004288 <XMC_CCU4_SLICE_SetInterruptNode>
 80046c0:	bd10      	pop	{r4, pc}

080046c2 <PWM_lCCU4_Start>:
 80046c2:	f890 3029 	ldrb.w	r3, [r0, #41]	; 0x29
 80046c6:	f013 0ffb 	tst.w	r3, #251	; 0xfb
 80046ca:	d10b      	bne.n	80046e4 <PWM_lCCU4_Start+0x22>
 80046cc:	f890 102e 	ldrb.w	r1, [r0, #46]	; 0x2e
 80046d0:	6842      	ldr	r2, [r0, #4]
 80046d2:	2301      	movs	r3, #1
 80046d4:	fa03 f101 	lsl.w	r1, r3, r1
 80046d8:	60d1      	str	r1, [r2, #12]
 80046da:	6882      	ldr	r2, [r0, #8]
 80046dc:	60d3      	str	r3, [r2, #12]
 80046de:	2303      	movs	r3, #3
 80046e0:	f880 3029 	strb.w	r3, [r0, #41]	; 0x29
 80046e4:	4770      	bx	lr

080046e6 <PWM_lCCU4_SetDutyCycle>:
 80046e6:	f890 3029 	ldrb.w	r3, [r0, #41]	; 0x29
 80046ea:	2b02      	cmp	r3, #2
 80046ec:	b510      	push	{r4, lr}
 80046ee:	d015      	beq.n	800471c <PWM_lCCU4_SetDutyCycle+0x36>
 80046f0:	f242 7210 	movw	r2, #10000	; 0x2710
 80046f4:	4291      	cmp	r1, r2
 80046f6:	d811      	bhi.n	800471c <PWM_lCCU4_SetDutyCycle+0x36>
 80046f8:	69c4      	ldr	r4, [r0, #28]
 80046fa:	6201      	str	r1, [r0, #32]
 80046fc:	f5c1 531c 	rsb	r3, r1, #9984	; 0x2700
 8004700:	3310      	adds	r3, #16
 8004702:	fb04 3303 	mla	r3, r4, r3, r3
 8004706:	fbb3 f3f2 	udiv	r3, r3, r2
 800470a:	6882      	ldr	r2, [r0, #8]
 800470c:	6183      	str	r3, [r0, #24]
 800470e:	b29b      	uxth	r3, r3
 8004710:	63d3      	str	r3, [r2, #60]	; 0x3c
 8004712:	6843      	ldr	r3, [r0, #4]
 8004714:	6a42      	ldr	r2, [r0, #36]	; 0x24
 8004716:	611a      	str	r2, [r3, #16]
 8004718:	2000      	movs	r0, #0
 800471a:	bd10      	pop	{r4, pc}
 800471c:	2001      	movs	r0, #1
 800471e:	bd10      	pop	{r4, pc}

08004720 <PWM_Start>:
 8004720:	f890 3028 	ldrb.w	r3, [r0, #40]	; 0x28
 8004724:	b90b      	cbnz	r3, 800472a <PWM_Start+0xa>
 8004726:	f7ff bfcc 	b.w	80046c2 <PWM_lCCU4_Start>
 800472a:	4770      	bx	lr

0800472c <PWM_lCCU4_Init>:
 800472c:	b570      	push	{r4, r5, r6, lr}
 800472e:	f890 6029 	ldrb.w	r6, [r0, #41]	; 0x29
 8004732:	2e02      	cmp	r6, #2
 8004734:	4604      	mov	r4, r0
 8004736:	d126      	bne.n	8004786 <PWM_lCCU4_Init+0x5a>
 8004738:	6800      	ldr	r0, [r0, #0]
 800473a:	f000 f87d 	bl	8004838 <GLOBAL_CCU4_Init>
 800473e:	4605      	mov	r5, r0
 8004740:	b9f0      	cbnz	r0, 8004780 <PWM_lCCU4_Init+0x54>
 8004742:	68e1      	ldr	r1, [r4, #12]
 8004744:	68a0      	ldr	r0, [r4, #8]
 8004746:	f7ff fd88 	bl	800425a <XMC_CCU4_SLICE_CompareInit>
 800474a:	68a3      	ldr	r3, [r4, #8]
 800474c:	8ba2      	ldrh	r2, [r4, #28]
 800474e:	635a      	str	r2, [r3, #52]	; 0x34
 8004750:	68a3      	ldr	r3, [r4, #8]
 8004752:	8b22      	ldrh	r2, [r4, #24]
 8004754:	63da      	str	r2, [r3, #60]	; 0x3c
 8004756:	6863      	ldr	r3, [r4, #4]
 8004758:	6a62      	ldr	r2, [r4, #36]	; 0x24
 800475a:	611a      	str	r2, [r3, #16]
 800475c:	4620      	mov	r0, r4
 800475e:	f7ff ff8b 	bl	8004678 <PWM_lCCU4_ConfigInterrupts>
 8004762:	6920      	ldr	r0, [r4, #16]
 8004764:	f894 102c 	ldrb.w	r1, [r4, #44]	; 0x2c
 8004768:	6962      	ldr	r2, [r4, #20]
 800476a:	f7ff f92b 	bl	80039c4 <XMC_GPIO_Init>
 800476e:	f894 302f 	ldrb.w	r3, [r4, #47]	; 0x2f
 8004772:	f884 5029 	strb.w	r5, [r4, #41]	; 0x29
 8004776:	b13b      	cbz	r3, 8004788 <PWM_lCCU4_Init+0x5c>
 8004778:	4620      	mov	r0, r4
 800477a:	f7ff ffd1 	bl	8004720 <PWM_Start>
 800477e:	e003      	b.n	8004788 <PWM_lCCU4_Init+0x5c>
 8004780:	f884 6029 	strb.w	r6, [r4, #41]	; 0x29
 8004784:	e000      	b.n	8004788 <PWM_lCCU4_Init+0x5c>
 8004786:	2501      	movs	r5, #1
 8004788:	4628      	mov	r0, r5
 800478a:	bd70      	pop	{r4, r5, r6, pc}

0800478c <PWM_Init>:
 800478c:	f890 3028 	ldrb.w	r3, [r0, #40]	; 0x28
 8004790:	b90b      	cbnz	r3, 8004796 <PWM_Init+0xa>
 8004792:	f7ff bfcb 	b.w	800472c <PWM_lCCU4_Init>
 8004796:	2001      	movs	r0, #1
 8004798:	4770      	bx	lr

0800479a <PWM_SetDutyCycle>:
 800479a:	f890 3028 	ldrb.w	r3, [r0, #40]	; 0x28
 800479e:	b90b      	cbnz	r3, 80047a4 <PWM_SetDutyCycle+0xa>
 80047a0:	f7ff bfa1 	b.w	80046e6 <PWM_lCCU4_SetDutyCycle>
 80047a4:	2001      	movs	r0, #1
 80047a6:	4770      	bx	lr

080047a8 <INTERRUPT_Init>:
 80047a8:	4b20      	ldr	r3, [pc, #128]	; (800482c <INTERRUPT_Init+0x84>)
 80047aa:	b5f0      	push	{r4, r5, r6, r7, lr}
 80047ac:	68d9      	ldr	r1, [r3, #12]
 80047ae:	7805      	ldrb	r5, [r0, #0]
 80047b0:	7842      	ldrb	r2, [r0, #1]
 80047b2:	7887      	ldrb	r7, [r0, #2]
 80047b4:	f3c1 2102 	ubfx	r1, r1, #8, #3
 80047b8:	f1c1 0e07 	rsb	lr, r1, #7
 80047bc:	f1be 0f06 	cmp.w	lr, #6
 80047c0:	bf28      	it	cs
 80047c2:	f04f 0e06 	movcs.w	lr, #6
 80047c6:	b101      	cbz	r1, 80047ca <INTERRUPT_Init+0x22>
 80047c8:	3901      	subs	r1, #1
 80047ca:	2401      	movs	r4, #1
 80047cc:	fa04 f301 	lsl.w	r3, r4, r1
 80047d0:	3b01      	subs	r3, #1
 80047d2:	fa04 f40e 	lsl.w	r4, r4, lr
 80047d6:	ea03 0607 	and.w	r6, r3, r7
 80047da:	1e63      	subs	r3, r4, #1
 80047dc:	4013      	ands	r3, r2
 80047de:	408b      	lsls	r3, r1
 80047e0:	b26a      	sxtb	r2, r5
 80047e2:	2a00      	cmp	r2, #0
 80047e4:	ea43 0306 	orr.w	r3, r3, r6
 80047e8:	ea4f 0383 	mov.w	r3, r3, lsl #2
 80047ec:	bfaf      	iteee	ge
 80047ee:	f102 4260 	addge.w	r2, r2, #3758096384	; 0xe0000000
 80047f2:	f005 050f 	andlt.w	r5, r5, #15
 80047f6:	4a0e      	ldrlt	r2, [pc, #56]	; (8004830 <INTERRUPT_Init+0x88>)
 80047f8:	b2db      	uxtblt	r3, r3
 80047fa:	bfa5      	ittet	ge
 80047fc:	f502 4261 	addge.w	r2, r2, #57600	; 0xe100
 8004800:	b2db      	uxtbge	r3, r3
 8004802:	5553      	strblt	r3, [r2, r5]
 8004804:	f882 3300 	strbge.w	r3, [r2, #768]	; 0x300
 8004808:	78c3      	ldrb	r3, [r0, #3]
 800480a:	b163      	cbz	r3, 8004826 <INTERRUPT_Init+0x7e>
 800480c:	7802      	ldrb	r2, [r0, #0]
 800480e:	b253      	sxtb	r3, r2
 8004810:	2b00      	cmp	r3, #0
 8004812:	db08      	blt.n	8004826 <INTERRUPT_Init+0x7e>
 8004814:	2101      	movs	r1, #1
 8004816:	f002 021f 	and.w	r2, r2, #31
 800481a:	fa01 f202 	lsl.w	r2, r1, r2
 800481e:	095b      	lsrs	r3, r3, #5
 8004820:	4904      	ldr	r1, [pc, #16]	; (8004834 <INTERRUPT_Init+0x8c>)
 8004822:	f841 2023 	str.w	r2, [r1, r3, lsl #2]
 8004826:	2000      	movs	r0, #0
 8004828:	bdf0      	pop	{r4, r5, r6, r7, pc}
 800482a:	bf00      	nop
 800482c:	e000ed00 	.word	0xe000ed00
 8004830:	e000ed14 	.word	0xe000ed14
 8004834:	e000e100 	.word	0xe000e100

08004838 <GLOBAL_CCU4_Init>:
 8004838:	7b43      	ldrb	r3, [r0, #13]
 800483a:	b510      	push	{r4, lr}
 800483c:	4604      	mov	r4, r0
 800483e:	b94b      	cbnz	r3, 8004854 <GLOBAL_CCU4_Init+0x1c>
 8004840:	6880      	ldr	r0, [r0, #8]
 8004842:	7b21      	ldrb	r1, [r4, #12]
 8004844:	f7ff fcfa 	bl	800423c <XMC_CCU4_Init>
 8004848:	68a3      	ldr	r3, [r4, #8]
 800484a:	f44f 7280 	mov.w	r2, #256	; 0x100
 800484e:	60da      	str	r2, [r3, #12]
 8004850:	2301      	movs	r3, #1
 8004852:	7363      	strb	r3, [r4, #13]
 8004854:	2000      	movs	r0, #0
 8004856:	bd10      	pop	{r4, pc}

08004858 <GLOBAL_CAN_Init>:
 8004858:	7a43      	ldrb	r3, [r0, #9]
 800485a:	b510      	push	{r4, lr}
 800485c:	4604      	mov	r4, r0
 800485e:	b933      	cbnz	r3, 800486e <GLOBAL_CAN_Init+0x16>
 8004860:	6840      	ldr	r0, [r0, #4]
 8004862:	6822      	ldr	r2, [r4, #0]
 8004864:	2101      	movs	r1, #1
 8004866:	f7ff fbcb 	bl	8004000 <XMC_CAN_InitEx>
 800486a:	2301      	movs	r3, #1
 800486c:	7263      	strb	r3, [r4, #9]
 800486e:	2000      	movs	r0, #0
 8004870:	bd10      	pop	{r4, pc}

08004872 <GLOBAL_ADC_Init>:
 8004872:	b5f8      	push	{r3, r4, r5, r6, r7, lr}
 8004874:	7e03      	ldrb	r3, [r0, #24]
 8004876:	2b02      	cmp	r3, #2
 8004878:	4604      	mov	r4, r0
 800487a:	d129      	bne.n	80048d0 <GLOBAL_ADC_Init+0x5e>
 800487c:	6940      	ldr	r0, [r0, #20]
 800487e:	6921      	ldr	r1, [r4, #16]
 8004880:	f7ff fd4c 	bl	800431c <XMC_VADC_GLOBAL_Init>
 8004884:	1f27      	subs	r7, r4, #4
 8004886:	2600      	movs	r6, #0
 8004888:	f857 3f04 	ldr.w	r3, [r7, #4]!
 800488c:	e893 0003 	ldmia.w	r3, {r0, r1}
 8004890:	f7ff fdb9 	bl	8004406 <XMC_VADC_GROUP_Init>
 8004894:	683b      	ldr	r3, [r7, #0]
 8004896:	2103      	movs	r1, #3
 8004898:	6818      	ldr	r0, [r3, #0]
 800489a:	f7ff fdf2 	bl	8004482 <XMC_VADC_GROUP_SetPowerMode>
 800489e:	6839      	ldr	r1, [r7, #0]
 80048a0:	7a0b      	ldrb	r3, [r1, #8]
 80048a2:	b94b      	cbnz	r3, 80048b8 <GLOBAL_ADC_Init+0x46>
 80048a4:	6960      	ldr	r0, [r4, #20]
 80048a6:	f106 0510 	add.w	r5, r6, #16
 80048aa:	f8d0 2080 	ldr.w	r2, [r0, #128]	; 0x80
 80048ae:	2301      	movs	r3, #1
 80048b0:	40ab      	lsls	r3, r5
 80048b2:	4313      	orrs	r3, r2
 80048b4:	f8c0 3080 	str.w	r3, [r0, #128]	; 0x80
 80048b8:	3601      	adds	r6, #1
 80048ba:	2300      	movs	r3, #0
 80048bc:	2e04      	cmp	r6, #4
 80048be:	724b      	strb	r3, [r1, #9]
 80048c0:	461d      	mov	r5, r3
 80048c2:	d1e1      	bne.n	8004888 <GLOBAL_ADC_Init+0x16>
 80048c4:	7e63      	ldrb	r3, [r4, #25]
 80048c6:	b113      	cbz	r3, 80048ce <GLOBAL_ADC_Init+0x5c>
 80048c8:	6960      	ldr	r0, [r4, #20]
 80048ca:	f7ff fd4d 	bl	8004368 <XMC_VADC_GLOBAL_StartupCalibration>
 80048ce:	7625      	strb	r5, [r4, #24]
 80048d0:	7e20      	ldrb	r0, [r4, #24]
 80048d2:	bdf8      	pop	{r3, r4, r5, r6, r7, pc}

080048d4 <prvTaskExitError>:
 80048d4:	b082      	sub	sp, #8
 80048d6:	2300      	movs	r3, #0
 80048d8:	9301      	str	r3, [sp, #4]
 80048da:	4b0d      	ldr	r3, [pc, #52]	; (8004910 <prvTaskExitError+0x3c>)
 80048dc:	681b      	ldr	r3, [r3, #0]
 80048de:	3301      	adds	r3, #1
 80048e0:	d008      	beq.n	80048f4 <prvTaskExitError+0x20>
 80048e2:	f04f 03fc 	mov.w	r3, #252	; 0xfc
 80048e6:	f383 8811 	msr	BASEPRI, r3
 80048ea:	f3bf 8f6f 	isb	sy
 80048ee:	f3bf 8f4f 	dsb	sy
 80048f2:	e7fe      	b.n	80048f2 <prvTaskExitError+0x1e>
 80048f4:	f04f 03fc 	mov.w	r3, #252	; 0xfc
 80048f8:	f383 8811 	msr	BASEPRI, r3
 80048fc:	f3bf 8f6f 	isb	sy
 8004900:	f3bf 8f4f 	dsb	sy
 8004904:	9b01      	ldr	r3, [sp, #4]
 8004906:	2b00      	cmp	r3, #0
 8004908:	d0fc      	beq.n	8004904 <prvTaskExitError+0x30>
 800490a:	b002      	add	sp, #8
 800490c:	4770      	bx	lr
 800490e:	bf00      	nop
 8004910:	20000190 	.word	0x20000190

08004914 <prvPortStartFirstTask>:
 8004914:	4808      	ldr	r0, [pc, #32]	; (8004938 <prvPortStartFirstTask+0x24>)
 8004916:	6800      	ldr	r0, [r0, #0]
 8004918:	6800      	ldr	r0, [r0, #0]
 800491a:	f380 8808 	msr	MSP, r0
 800491e:	f04f 0000 	mov.w	r0, #0
 8004922:	f380 8814 	msr	CONTROL, r0
 8004926:	b662      	cpsie	i
 8004928:	b661      	cpsie	f
 800492a:	f3bf 8f4f 	dsb	sy
 800492e:	f3bf 8f6f 	isb	sy
 8004932:	df00      	svc	0
 8004934:	bf00      	nop
 8004936:	0000      	.short	0x0000
 8004938:	e000ed08 	.word	0xe000ed08

0800493c <vPortEnableVFP>:
 800493c:	f8df 000c 	ldr.w	r0, [pc, #12]	; 800494c <vPortEnableVFP+0x10>
 8004940:	6801      	ldr	r1, [r0, #0]
 8004942:	f441 0170 	orr.w	r1, r1, #15728640	; 0xf00000
 8004946:	6001      	str	r1, [r0, #0]
 8004948:	4770      	bx	lr
 800494a:	0000      	.short	0x0000
 800494c:	e000ed88 	.word	0xe000ed88

08004950 <pxPortInitialiseStack>:
 8004950:	f04f 7380 	mov.w	r3, #16777216	; 0x1000000
 8004954:	f840 3c04 	str.w	r3, [r0, #-4]
 8004958:	4b07      	ldr	r3, [pc, #28]	; (8004978 <pxPortInitialiseStack+0x28>)
 800495a:	f840 3c0c 	str.w	r3, [r0, #-12]
 800495e:	f021 0101 	bic.w	r1, r1, #1
 8004962:	f06f 0302 	mvn.w	r3, #2
 8004966:	f840 1c08 	str.w	r1, [r0, #-8]
 800496a:	f840 2c20 	str.w	r2, [r0, #-32]
 800496e:	f840 3c24 	str.w	r3, [r0, #-36]
 8004972:	3844      	subs	r0, #68	; 0x44
 8004974:	4770      	bx	lr
 8004976:	bf00      	nop
 8004978:	080048d5 	.word	0x080048d5
 800497c:	00000000 	.word	0x00000000

08004980 <SVC_Handler>:
 8004980:	4b07      	ldr	r3, [pc, #28]	; (80049a0 <pxCurrentTCBConst2>)
 8004982:	6819      	ldr	r1, [r3, #0]
 8004984:	6808      	ldr	r0, [r1, #0]
 8004986:	e8b0 4ff0 	ldmia.w	r0!, {r4, r5, r6, r7, r8, r9, sl, fp, lr}
 800498a:	f380 8809 	msr	PSP, r0
 800498e:	f3bf 8f6f 	isb	sy
 8004992:	f04f 0000 	mov.w	r0, #0
 8004996:	f380 8811 	msr	BASEPRI, r0
 800499a:	4770      	bx	lr
 800499c:	f3af 8000 	nop.w

080049a0 <pxCurrentTCBConst2>:
 80049a0:	20000750 	.word	0x20000750
 80049a4:	f3af 8000 	nop.w
 80049a8:	f3af 8000 	nop.w
 80049ac:	f3af 8000 	nop.w

080049b0 <vPortEnterCritical>:
 80049b0:	f04f 03fc 	mov.w	r3, #252	; 0xfc
 80049b4:	f383 8811 	msr	BASEPRI, r3
 80049b8:	f3bf 8f6f 	isb	sy
 80049bc:	f3bf 8f4f 	dsb	sy
 80049c0:	4a0a      	ldr	r2, [pc, #40]	; (80049ec <vPortEnterCritical+0x3c>)
 80049c2:	6813      	ldr	r3, [r2, #0]
 80049c4:	3301      	adds	r3, #1
 80049c6:	2b01      	cmp	r3, #1
 80049c8:	6013      	str	r3, [r2, #0]
 80049ca:	d10d      	bne.n	80049e8 <vPortEnterCritical+0x38>
 80049cc:	4b08      	ldr	r3, [pc, #32]	; (80049f0 <vPortEnterCritical+0x40>)
 80049ce:	681b      	ldr	r3, [r3, #0]
 80049d0:	f013 0fff 	tst.w	r3, #255	; 0xff
 80049d4:	d008      	beq.n	80049e8 <vPortEnterCritical+0x38>
 80049d6:	f04f 03fc 	mov.w	r3, #252	; 0xfc
 80049da:	f383 8811 	msr	BASEPRI, r3
 80049de:	f3bf 8f6f 	isb	sy
 80049e2:	f3bf 8f4f 	dsb	sy
 80049e6:	e7fe      	b.n	80049e6 <vPortEnterCritical+0x36>
 80049e8:	4770      	bx	lr
 80049ea:	bf00      	nop
 80049ec:	20000190 	.word	0x20000190
 80049f0:	e000ed04 	.word	0xe000ed04

080049f4 <vPortExitCritical>:
 80049f4:	4a08      	ldr	r2, [pc, #32]	; (8004a18 <vPortExitCritical+0x24>)
 80049f6:	6813      	ldr	r3, [r2, #0]
 80049f8:	b943      	cbnz	r3, 8004a0c <vPortExitCritical+0x18>
 80049fa:	f04f 03fc 	mov.w	r3, #252	; 0xfc
 80049fe:	f383 8811 	msr	BASEPRI, r3
 8004a02:	f3bf 8f6f 	isb	sy
 8004a06:	f3bf 8f4f 	dsb	sy
 8004a0a:	e7fe      	b.n	8004a0a <vPortExitCritical+0x16>
 8004a0c:	3b01      	subs	r3, #1
 8004a0e:	6013      	str	r3, [r2, #0]
 8004a10:	b90b      	cbnz	r3, 8004a16 <vPortExitCritical+0x22>
 8004a12:	f383 8811 	msr	BASEPRI, r3
 8004a16:	4770      	bx	lr
 8004a18:	20000190 	.word	0x20000190
 8004a1c:	00000000 	.word	0x00000000

08004a20 <PendSV_Handler>:
 8004a20:	f3ef 8009 	mrs	r0, PSP
 8004a24:	f3bf 8f6f 	isb	sy
 8004a28:	4b15      	ldr	r3, [pc, #84]	; (8004a80 <pxCurrentTCBConst>)
 8004a2a:	681a      	ldr	r2, [r3, #0]
 8004a2c:	f01e 0f10 	tst.w	lr, #16
 8004a30:	bf08      	it	eq
 8004a32:	ed20 8a10 	vstmdbeq	r0!, {s16-s31}
 8004a36:	e920 4ff0 	stmdb	r0!, {r4, r5, r6, r7, r8, r9, sl, fp, lr}
 8004a3a:	6010      	str	r0, [r2, #0]
 8004a3c:	e92d 0009 	stmdb	sp!, {r0, r3}
 8004a40:	f04f 00fc 	mov.w	r0, #252	; 0xfc
 8004a44:	f380 8811 	msr	BASEPRI, r0
 8004a48:	f3bf 8f4f 	dsb	sy
 8004a4c:	f3bf 8f6f 	isb	sy
 8004a50:	f000 ffc8 	bl	80059e4 <vTaskSwitchContext>
 8004a54:	f04f 0000 	mov.w	r0, #0
 8004a58:	f380 8811 	msr	BASEPRI, r0
 8004a5c:	bc09      	pop	{r0, r3}
 8004a5e:	6819      	ldr	r1, [r3, #0]
 8004a60:	6808      	ldr	r0, [r1, #0]
 8004a62:	e8b0 4ff0 	ldmia.w	r0!, {r4, r5, r6, r7, r8, r9, sl, fp, lr}
 8004a66:	f01e 0f10 	tst.w	lr, #16
 8004a6a:	bf08      	it	eq
 8004a6c:	ecb0 8a10 	vldmiaeq	r0!, {s16-s31}
 8004a70:	f380 8809 	msr	PSP, r0
 8004a74:	f3bf 8f6f 	isb	sy
 8004a78:	4770      	bx	lr
 8004a7a:	bf00      	nop
 8004a7c:	f3af 8000 	nop.w

08004a80 <pxCurrentTCBConst>:
 8004a80:	20000750 	.word	0x20000750
 8004a84:	f3af 8000 	nop.w
 8004a88:	f3af 8000 	nop.w
 8004a8c:	f3af 8000 	nop.w

08004a90 <SysTick_Handler>:
 8004a90:	b508      	push	{r3, lr}
 8004a92:	f04f 03fc 	mov.w	r3, #252	; 0xfc
 8004a96:	f383 8811 	msr	BASEPRI, r3
 8004a9a:	f3bf 8f6f 	isb	sy
 8004a9e:	f3bf 8f4f 	dsb	sy
 8004aa2:	f000 fe7b 	bl	800579c <xTaskIncrementTick>
 8004aa6:	b118      	cbz	r0, 8004ab0 <SysTick_Handler+0x20>
 8004aa8:	4b03      	ldr	r3, [pc, #12]	; (8004ab8 <SysTick_Handler+0x28>)
 8004aaa:	f04f 5280 	mov.w	r2, #268435456	; 0x10000000
 8004aae:	601a      	str	r2, [r3, #0]
 8004ab0:	2300      	movs	r3, #0
 8004ab2:	f383 8811 	msr	BASEPRI, r3
 8004ab6:	bd08      	pop	{r3, pc}
 8004ab8:	e000ed04 	.word	0xe000ed04

08004abc <vPortSetupTimerInterrupt>:
 8004abc:	4a08      	ldr	r2, [pc, #32]	; (8004ae0 <vPortSetupTimerInterrupt+0x24>)
 8004abe:	4909      	ldr	r1, [pc, #36]	; (8004ae4 <vPortSetupTimerInterrupt+0x28>)
 8004ac0:	2300      	movs	r3, #0
 8004ac2:	6013      	str	r3, [r2, #0]
 8004ac4:	600b      	str	r3, [r1, #0]
 8004ac6:	4b08      	ldr	r3, [pc, #32]	; (8004ae8 <vPortSetupTimerInterrupt+0x2c>)
 8004ac8:	f44f 717a 	mov.w	r1, #1000	; 0x3e8
 8004acc:	681b      	ldr	r3, [r3, #0]
 8004ace:	fbb3 f3f1 	udiv	r3, r3, r1
 8004ad2:	4906      	ldr	r1, [pc, #24]	; (8004aec <vPortSetupTimerInterrupt+0x30>)
 8004ad4:	3b01      	subs	r3, #1
 8004ad6:	600b      	str	r3, [r1, #0]
 8004ad8:	2307      	movs	r3, #7
 8004ada:	6013      	str	r3, [r2, #0]
 8004adc:	4770      	bx	lr
 8004ade:	bf00      	nop
 8004ae0:	e000e010 	.word	0xe000e010
 8004ae4:	e000e018 	.word	0xe000e018
 8004ae8:	2000ffc0 	.word	0x2000ffc0
 8004aec:	e000e014 	.word	0xe000e014

08004af0 <xPortStartScheduler>:
 8004af0:	4b37      	ldr	r3, [pc, #220]	; (8004bd0 <xPortStartScheduler+0xe0>)
 8004af2:	4a38      	ldr	r2, [pc, #224]	; (8004bd4 <xPortStartScheduler+0xe4>)
 8004af4:	b513      	push	{r0, r1, r4, lr}
 8004af6:	6819      	ldr	r1, [r3, #0]
 8004af8:	4291      	cmp	r1, r2
 8004afa:	d108      	bne.n	8004b0e <xPortStartScheduler+0x1e>
 8004afc:	f04f 03fc 	mov.w	r3, #252	; 0xfc
 8004b00:	f383 8811 	msr	BASEPRI, r3
 8004b04:	f3bf 8f6f 	isb	sy
 8004b08:	f3bf 8f4f 	dsb	sy
 8004b0c:	e7fe      	b.n	8004b0c <xPortStartScheduler+0x1c>
 8004b0e:	681a      	ldr	r2, [r3, #0]
 8004b10:	4b31      	ldr	r3, [pc, #196]	; (8004bd8 <xPortStartScheduler+0xe8>)
 8004b12:	429a      	cmp	r2, r3
 8004b14:	d108      	bne.n	8004b28 <xPortStartScheduler+0x38>
 8004b16:	f04f 03fc 	mov.w	r3, #252	; 0xfc
 8004b1a:	f383 8811 	msr	BASEPRI, r3
 8004b1e:	f3bf 8f6f 	isb	sy
 8004b22:	f3bf 8f4f 	dsb	sy
 8004b26:	e7fe      	b.n	8004b26 <xPortStartScheduler+0x36>
 8004b28:	4b2c      	ldr	r3, [pc, #176]	; (8004bdc <xPortStartScheduler+0xec>)
 8004b2a:	781a      	ldrb	r2, [r3, #0]
 8004b2c:	b2d2      	uxtb	r2, r2
 8004b2e:	9201      	str	r2, [sp, #4]
 8004b30:	22ff      	movs	r2, #255	; 0xff
 8004b32:	701a      	strb	r2, [r3, #0]
 8004b34:	781b      	ldrb	r3, [r3, #0]
 8004b36:	4a2a      	ldr	r2, [pc, #168]	; (8004be0 <xPortStartScheduler+0xf0>)
 8004b38:	b2db      	uxtb	r3, r3
 8004b3a:	f88d 3003 	strb.w	r3, [sp, #3]
 8004b3e:	f89d 3003 	ldrb.w	r3, [sp, #3]
 8004b42:	f003 03fc 	and.w	r3, r3, #252	; 0xfc
 8004b46:	7013      	strb	r3, [r2, #0]
 8004b48:	4a26      	ldr	r2, [pc, #152]	; (8004be4 <xPortStartScheduler+0xf4>)
 8004b4a:	2307      	movs	r3, #7
 8004b4c:	6013      	str	r3, [r2, #0]
 8004b4e:	f89d 1003 	ldrb.w	r1, [sp, #3]
 8004b52:	0609      	lsls	r1, r1, #24
 8004b54:	f103 30ff 	add.w	r0, r3, #4294967295
 8004b58:	d507      	bpl.n	8004b6a <xPortStartScheduler+0x7a>
 8004b5a:	f89d 3003 	ldrb.w	r3, [sp, #3]
 8004b5e:	005b      	lsls	r3, r3, #1
 8004b60:	b2db      	uxtb	r3, r3
 8004b62:	f88d 3003 	strb.w	r3, [sp, #3]
 8004b66:	4603      	mov	r3, r0
 8004b68:	e7f1      	b.n	8004b4e <xPortStartScheduler+0x5e>
 8004b6a:	2b01      	cmp	r3, #1
 8004b6c:	6013      	str	r3, [r2, #0]
 8004b6e:	d008      	beq.n	8004b82 <xPortStartScheduler+0x92>
 8004b70:	f04f 03fc 	mov.w	r3, #252	; 0xfc
 8004b74:	f383 8811 	msr	BASEPRI, r3
 8004b78:	f3bf 8f6f 	isb	sy
 8004b7c:	f3bf 8f4f 	dsb	sy
 8004b80:	e7fe      	b.n	8004b80 <xPortStartScheduler+0x90>
 8004b82:	4a18      	ldr	r2, [pc, #96]	; (8004be4 <xPortStartScheduler+0xf4>)
 8004b84:	021b      	lsls	r3, r3, #8
 8004b86:	f403 63e0 	and.w	r3, r3, #1792	; 0x700
 8004b8a:	6013      	str	r3, [r2, #0]
 8004b8c:	9b01      	ldr	r3, [sp, #4]
 8004b8e:	4a13      	ldr	r2, [pc, #76]	; (8004bdc <xPortStartScheduler+0xec>)
 8004b90:	b2db      	uxtb	r3, r3
 8004b92:	7013      	strb	r3, [r2, #0]
 8004b94:	4b14      	ldr	r3, [pc, #80]	; (8004be8 <xPortStartScheduler+0xf8>)
 8004b96:	681a      	ldr	r2, [r3, #0]
 8004b98:	f442 027c 	orr.w	r2, r2, #16515072	; 0xfc0000
 8004b9c:	601a      	str	r2, [r3, #0]
 8004b9e:	681a      	ldr	r2, [r3, #0]
 8004ba0:	f042 427c 	orr.w	r2, r2, #4227858432	; 0xfc000000
 8004ba4:	601a      	str	r2, [r3, #0]
 8004ba6:	f7ff ff89 	bl	8004abc <vPortSetupTimerInterrupt>
 8004baa:	4b10      	ldr	r3, [pc, #64]	; (8004bec <xPortStartScheduler+0xfc>)
 8004bac:	2400      	movs	r4, #0
 8004bae:	601c      	str	r4, [r3, #0]
 8004bb0:	f7ff fec4 	bl	800493c <vPortEnableVFP>
 8004bb4:	4a0e      	ldr	r2, [pc, #56]	; (8004bf0 <xPortStartScheduler+0x100>)
 8004bb6:	6813      	ldr	r3, [r2, #0]
 8004bb8:	f043 4340 	orr.w	r3, r3, #3221225472	; 0xc0000000
 8004bbc:	6013      	str	r3, [r2, #0]
 8004bbe:	f7ff fea9 	bl	8004914 <prvPortStartFirstTask>
 8004bc2:	f000 ff0f 	bl	80059e4 <vTaskSwitchContext>
 8004bc6:	f7ff fe85 	bl	80048d4 <prvTaskExitError>
 8004bca:	4620      	mov	r0, r4
 8004bcc:	b002      	add	sp, #8
 8004bce:	bd10      	pop	{r4, pc}
 8004bd0:	e000ed00 	.word	0xe000ed00
 8004bd4:	410fc271 	.word	0x410fc271
 8004bd8:	410fc270 	.word	0x410fc270
 8004bdc:	e000e400 	.word	0xe000e400
 8004be0:	20000694 	.word	0x20000694
 8004be4:	20000698 	.word	0x20000698
 8004be8:	e000ed20 	.word	0xe000ed20
 8004bec:	20000190 	.word	0x20000190
 8004bf0:	e000ef34 	.word	0xe000ef34

08004bf4 <vPortValidateInterruptPriority>:
 8004bf4:	f3ef 8305 	mrs	r3, IPSR
 8004bf8:	2b0f      	cmp	r3, #15
 8004bfa:	d90e      	bls.n	8004c1a <vPortValidateInterruptPriority+0x26>
 8004bfc:	4a10      	ldr	r2, [pc, #64]	; (8004c40 <vPortValidateInterruptPriority+0x4c>)
 8004bfe:	5c9b      	ldrb	r3, [r3, r2]
 8004c00:	4a10      	ldr	r2, [pc, #64]	; (8004c44 <vPortValidateInterruptPriority+0x50>)
 8004c02:	7812      	ldrb	r2, [r2, #0]
 8004c04:	429a      	cmp	r2, r3
 8004c06:	d908      	bls.n	8004c1a <vPortValidateInterruptPriority+0x26>
 8004c08:	f04f 03fc 	mov.w	r3, #252	; 0xfc
 8004c0c:	f383 8811 	msr	BASEPRI, r3
 8004c10:	f3bf 8f6f 	isb	sy
 8004c14:	f3bf 8f4f 	dsb	sy
 8004c18:	e7fe      	b.n	8004c18 <vPortValidateInterruptPriority+0x24>
 8004c1a:	4b0b      	ldr	r3, [pc, #44]	; (8004c48 <vPortValidateInterruptPriority+0x54>)
 8004c1c:	4a0b      	ldr	r2, [pc, #44]	; (8004c4c <vPortValidateInterruptPriority+0x58>)
 8004c1e:	681b      	ldr	r3, [r3, #0]
 8004c20:	6812      	ldr	r2, [r2, #0]
 8004c22:	f403 63e0 	and.w	r3, r3, #1792	; 0x700
 8004c26:	4293      	cmp	r3, r2
 8004c28:	d908      	bls.n	8004c3c <vPortValidateInterruptPriority+0x48>
 8004c2a:	f04f 03fc 	mov.w	r3, #252	; 0xfc
 8004c2e:	f383 8811 	msr	BASEPRI, r3
 8004c32:	f3bf 8f6f 	isb	sy
 8004c36:	f3bf 8f4f 	dsb	sy
 8004c3a:	e7fe      	b.n	8004c3a <vPortValidateInterruptPriority+0x46>
 8004c3c:	4770      	bx	lr
 8004c3e:	bf00      	nop
 8004c40:	e000e3f0 	.word	0xe000e3f0
 8004c44:	20000694 	.word	0x20000694
 8004c48:	e000ed0c 	.word	0xe000ed0c
 8004c4c:	20000698 	.word	0x20000698

08004c50 <pvPortMalloc>:
 8004c50:	b510      	push	{r4, lr}
 8004c52:	4604      	mov	r4, r0
 8004c54:	f000 fd94 	bl	8005780 <vTaskSuspendAll>
 8004c58:	4620      	mov	r0, r4
 8004c5a:	f004 f92b 	bl	8008eb4 <malloc>
 8004c5e:	4604      	mov	r4, r0
 8004c60:	f000 fe26 	bl	80058b0 <xTaskResumeAll>
 8004c64:	4620      	mov	r0, r4
 8004c66:	bd10      	pop	{r4, pc}

08004c68 <vPortFree>:
 8004c68:	b510      	push	{r4, lr}
 8004c6a:	4604      	mov	r4, r0
 8004c6c:	b140      	cbz	r0, 8004c80 <vPortFree+0x18>
 8004c6e:	f000 fd87 	bl	8005780 <vTaskSuspendAll>
 8004c72:	4620      	mov	r0, r4
 8004c74:	f004 f926 	bl	8008ec4 <free>
 8004c78:	e8bd 4010 	ldmia.w	sp!, {r4, lr}
 8004c7c:	f000 be18 	b.w	80058b0 <xTaskResumeAll>
 8004c80:	bd10      	pop	{r4, pc}

08004c82 <vListInitialise>:
 8004c82:	f100 0308 	add.w	r3, r0, #8
 8004c86:	6043      	str	r3, [r0, #4]
 8004c88:	f04f 32ff 	mov.w	r2, #4294967295
 8004c8c:	60c3      	str	r3, [r0, #12]
 8004c8e:	6103      	str	r3, [r0, #16]
 8004c90:	2300      	movs	r3, #0
 8004c92:	6082      	str	r2, [r0, #8]
 8004c94:	6003      	str	r3, [r0, #0]
 8004c96:	4770      	bx	lr

08004c98 <vListInitialiseItem>:
 8004c98:	2300      	movs	r3, #0
 8004c9a:	6103      	str	r3, [r0, #16]
 8004c9c:	4770      	bx	lr

08004c9e <vListInsertEnd>:
 8004c9e:	6843      	ldr	r3, [r0, #4]
 8004ca0:	604b      	str	r3, [r1, #4]
 8004ca2:	689a      	ldr	r2, [r3, #8]
 8004ca4:	608a      	str	r2, [r1, #8]
 8004ca6:	689a      	ldr	r2, [r3, #8]
 8004ca8:	6051      	str	r1, [r2, #4]
 8004caa:	6099      	str	r1, [r3, #8]
 8004cac:	6803      	ldr	r3, [r0, #0]
 8004cae:	6108      	str	r0, [r1, #16]
 8004cb0:	3301      	adds	r3, #1
 8004cb2:	6003      	str	r3, [r0, #0]
 8004cb4:	4770      	bx	lr

08004cb6 <vListInsert>:
 8004cb6:	680a      	ldr	r2, [r1, #0]
 8004cb8:	1c53      	adds	r3, r2, #1
 8004cba:	b530      	push	{r4, r5, lr}
 8004cbc:	d101      	bne.n	8004cc2 <vListInsert+0xc>
 8004cbe:	6903      	ldr	r3, [r0, #16]
 8004cc0:	e007      	b.n	8004cd2 <vListInsert+0x1c>
 8004cc2:	f100 0308 	add.w	r3, r0, #8
 8004cc6:	685c      	ldr	r4, [r3, #4]
 8004cc8:	6825      	ldr	r5, [r4, #0]
 8004cca:	4295      	cmp	r5, r2
 8004ccc:	d801      	bhi.n	8004cd2 <vListInsert+0x1c>
 8004cce:	4623      	mov	r3, r4
 8004cd0:	e7f9      	b.n	8004cc6 <vListInsert+0x10>
 8004cd2:	685a      	ldr	r2, [r3, #4]
 8004cd4:	604a      	str	r2, [r1, #4]
 8004cd6:	6091      	str	r1, [r2, #8]
 8004cd8:	608b      	str	r3, [r1, #8]
 8004cda:	6059      	str	r1, [r3, #4]
 8004cdc:	6803      	ldr	r3, [r0, #0]
 8004cde:	6108      	str	r0, [r1, #16]
 8004ce0:	3301      	adds	r3, #1
 8004ce2:	6003      	str	r3, [r0, #0]
 8004ce4:	bd30      	pop	{r4, r5, pc}

08004ce6 <uxListRemove>:
 8004ce6:	6841      	ldr	r1, [r0, #4]
 8004ce8:	6882      	ldr	r2, [r0, #8]
 8004cea:	6903      	ldr	r3, [r0, #16]
 8004cec:	608a      	str	r2, [r1, #8]
 8004cee:	6882      	ldr	r2, [r0, #8]
 8004cf0:	6051      	str	r1, [r2, #4]
 8004cf2:	6859      	ldr	r1, [r3, #4]
 8004cf4:	4281      	cmp	r1, r0
 8004cf6:	bf08      	it	eq
 8004cf8:	605a      	streq	r2, [r3, #4]
 8004cfa:	2200      	movs	r2, #0
 8004cfc:	6102      	str	r2, [r0, #16]
 8004cfe:	681a      	ldr	r2, [r3, #0]
 8004d00:	3a01      	subs	r2, #1
 8004d02:	601a      	str	r2, [r3, #0]
 8004d04:	6818      	ldr	r0, [r3, #0]
 8004d06:	4770      	bx	lr

08004d08 <prvIsQueueEmpty>:
 8004d08:	b510      	push	{r4, lr}
 8004d0a:	4604      	mov	r4, r0
 8004d0c:	f7ff fe50 	bl	80049b0 <vPortEnterCritical>
 8004d10:	6ba4      	ldr	r4, [r4, #56]	; 0x38
 8004d12:	f7ff fe6f 	bl	80049f4 <vPortExitCritical>
 8004d16:	fab4 f084 	clz	r0, r4
 8004d1a:	0940      	lsrs	r0, r0, #5
 8004d1c:	bd10      	pop	{r4, pc}

08004d1e <prvCopyDataToQueue>:
 8004d1e:	b570      	push	{r4, r5, r6, lr}
 8004d20:	4615      	mov	r5, r2
 8004d22:	6c02      	ldr	r2, [r0, #64]	; 0x40
 8004d24:	6b86      	ldr	r6, [r0, #56]	; 0x38
 8004d26:	4604      	mov	r4, r0
 8004d28:	b932      	cbnz	r2, 8004d38 <prvCopyDataToQueue+0x1a>
 8004d2a:	6805      	ldr	r5, [r0, #0]
 8004d2c:	bb2d      	cbnz	r5, 8004d7a <prvCopyDataToQueue+0x5c>
 8004d2e:	6880      	ldr	r0, [r0, #8]
 8004d30:	f000 ffe4 	bl	8005cfc <xTaskPriorityDisinherit>
 8004d34:	60a5      	str	r5, [r4, #8]
 8004d36:	e027      	b.n	8004d88 <prvCopyDataToQueue+0x6a>
 8004d38:	b965      	cbnz	r5, 8004d54 <prvCopyDataToQueue+0x36>
 8004d3a:	6840      	ldr	r0, [r0, #4]
 8004d3c:	f004 f8ca 	bl	8008ed4 <memcpy>
 8004d40:	6862      	ldr	r2, [r4, #4]
 8004d42:	6c23      	ldr	r3, [r4, #64]	; 0x40
 8004d44:	4413      	add	r3, r2
 8004d46:	68a2      	ldr	r2, [r4, #8]
 8004d48:	6063      	str	r3, [r4, #4]
 8004d4a:	4293      	cmp	r3, r2
 8004d4c:	d317      	bcc.n	8004d7e <prvCopyDataToQueue+0x60>
 8004d4e:	6823      	ldr	r3, [r4, #0]
 8004d50:	6063      	str	r3, [r4, #4]
 8004d52:	e014      	b.n	8004d7e <prvCopyDataToQueue+0x60>
 8004d54:	68c0      	ldr	r0, [r0, #12]
 8004d56:	f004 f8bd 	bl	8008ed4 <memcpy>
 8004d5a:	6c23      	ldr	r3, [r4, #64]	; 0x40
 8004d5c:	68e2      	ldr	r2, [r4, #12]
 8004d5e:	6821      	ldr	r1, [r4, #0]
 8004d60:	425b      	negs	r3, r3
 8004d62:	441a      	add	r2, r3
 8004d64:	428a      	cmp	r2, r1
 8004d66:	60e2      	str	r2, [r4, #12]
 8004d68:	bf3e      	ittt	cc
 8004d6a:	68a2      	ldrcc	r2, [r4, #8]
 8004d6c:	189b      	addcc	r3, r3, r2
 8004d6e:	60e3      	strcc	r3, [r4, #12]
 8004d70:	2d02      	cmp	r5, #2
 8004d72:	d106      	bne.n	8004d82 <prvCopyDataToQueue+0x64>
 8004d74:	b13e      	cbz	r6, 8004d86 <prvCopyDataToQueue+0x68>
 8004d76:	3e01      	subs	r6, #1
 8004d78:	e003      	b.n	8004d82 <prvCopyDataToQueue+0x64>
 8004d7a:	4610      	mov	r0, r2
 8004d7c:	e004      	b.n	8004d88 <prvCopyDataToQueue+0x6a>
 8004d7e:	4628      	mov	r0, r5
 8004d80:	e002      	b.n	8004d88 <prvCopyDataToQueue+0x6a>
 8004d82:	2000      	movs	r0, #0
 8004d84:	e000      	b.n	8004d88 <prvCopyDataToQueue+0x6a>
 8004d86:	4630      	mov	r0, r6
 8004d88:	3601      	adds	r6, #1
 8004d8a:	63a6      	str	r6, [r4, #56]	; 0x38
 8004d8c:	bd70      	pop	{r4, r5, r6, pc}

08004d8e <prvCopyDataFromQueue>:
 8004d8e:	6c02      	ldr	r2, [r0, #64]	; 0x40
 8004d90:	b510      	push	{r4, lr}
 8004d92:	4603      	mov	r3, r0
 8004d94:	b16a      	cbz	r2, 8004db2 <prvCopyDataFromQueue+0x24>
 8004d96:	68c4      	ldr	r4, [r0, #12]
 8004d98:	4414      	add	r4, r2
 8004d9a:	60c4      	str	r4, [r0, #12]
 8004d9c:	6880      	ldr	r0, [r0, #8]
 8004d9e:	4284      	cmp	r4, r0
 8004da0:	bf24      	itt	cs
 8004da2:	6818      	ldrcs	r0, [r3, #0]
 8004da4:	60d8      	strcs	r0, [r3, #12]
 8004da6:	e8bd 4010 	ldmia.w	sp!, {r4, lr}
 8004daa:	4608      	mov	r0, r1
 8004dac:	68d9      	ldr	r1, [r3, #12]
 8004dae:	f004 b891 	b.w	8008ed4 <memcpy>
 8004db2:	bd10      	pop	{r4, pc}

08004db4 <prvNotifyQueueSetContainer>:
 8004db4:	b573      	push	{r0, r1, r4, r5, r6, lr}
 8004db6:	6c84      	ldr	r4, [r0, #72]	; 0x48
 8004db8:	9001      	str	r0, [sp, #4]
 8004dba:	460a      	mov	r2, r1
 8004dbc:	b944      	cbnz	r4, 8004dd0 <prvNotifyQueueSetContainer+0x1c>
 8004dbe:	f04f 03fc 	mov.w	r3, #252	; 0xfc
 8004dc2:	f383 8811 	msr	BASEPRI, r3
 8004dc6:	f3bf 8f6f 	isb	sy
 8004dca:	f3bf 8f4f 	dsb	sy
 8004dce:	e7fe      	b.n	8004dce <prvNotifyQueueSetContainer+0x1a>
 8004dd0:	6ba1      	ldr	r1, [r4, #56]	; 0x38
 8004dd2:	6be3      	ldr	r3, [r4, #60]	; 0x3c
 8004dd4:	4299      	cmp	r1, r3
 8004dd6:	d308      	bcc.n	8004dea <prvNotifyQueueSetContainer+0x36>
 8004dd8:	f04f 03fc 	mov.w	r3, #252	; 0xfc
 8004ddc:	f383 8811 	msr	BASEPRI, r3
 8004de0:	f3bf 8f6f 	isb	sy
 8004de4:	f3bf 8f4f 	dsb	sy
 8004de8:	e7fe      	b.n	8004de8 <prvNotifyQueueSetContainer+0x34>
 8004dea:	6ba1      	ldr	r1, [r4, #56]	; 0x38
 8004dec:	4299      	cmp	r1, r3
 8004dee:	d218      	bcs.n	8004e22 <prvNotifyQueueSetContainer+0x6e>
 8004df0:	f894 5045 	ldrb.w	r5, [r4, #69]	; 0x45
 8004df4:	4620      	mov	r0, r4
 8004df6:	a901      	add	r1, sp, #4
 8004df8:	f7ff ff91 	bl	8004d1e <prvCopyDataToQueue>
 8004dfc:	b2ed      	uxtb	r5, r5
 8004dfe:	2dff      	cmp	r5, #255	; 0xff
 8004e00:	4606      	mov	r6, r0
 8004e02:	d109      	bne.n	8004e18 <prvNotifyQueueSetContainer+0x64>
 8004e04:	6a63      	ldr	r3, [r4, #36]	; 0x24
 8004e06:	b16b      	cbz	r3, 8004e24 <prvNotifyQueueSetContainer+0x70>
 8004e08:	f104 0024 	add.w	r0, r4, #36	; 0x24
 8004e0c:	f000 fecc 	bl	8005ba8 <xTaskRemoveFromEventList>
 8004e10:	2800      	cmp	r0, #0
 8004e12:	bf18      	it	ne
 8004e14:	2601      	movne	r6, #1
 8004e16:	e005      	b.n	8004e24 <prvNotifyQueueSetContainer+0x70>
 8004e18:	3501      	adds	r5, #1
 8004e1a:	b2ed      	uxtb	r5, r5
 8004e1c:	f884 5045 	strb.w	r5, [r4, #69]	; 0x45
 8004e20:	e000      	b.n	8004e24 <prvNotifyQueueSetContainer+0x70>
 8004e22:	2600      	movs	r6, #0
 8004e24:	4630      	mov	r0, r6
 8004e26:	b002      	add	sp, #8
 8004e28:	bd70      	pop	{r4, r5, r6, pc}

08004e2a <prvUnlockQueue>:
 8004e2a:	b538      	push	{r3, r4, r5, lr}
 8004e2c:	4604      	mov	r4, r0
 8004e2e:	f7ff fdbf 	bl	80049b0 <vPortEnterCritical>
 8004e32:	f894 5045 	ldrb.w	r5, [r4, #69]	; 0x45
 8004e36:	b2ed      	uxtb	r5, r5
 8004e38:	b26b      	sxtb	r3, r5
 8004e3a:	2b00      	cmp	r3, #0
 8004e3c:	dd12      	ble.n	8004e64 <prvUnlockQueue+0x3a>
 8004e3e:	6ca3      	ldr	r3, [r4, #72]	; 0x48
 8004e40:	b13b      	cbz	r3, 8004e52 <prvUnlockQueue+0x28>
 8004e42:	4620      	mov	r0, r4
 8004e44:	2100      	movs	r1, #0
 8004e46:	f7ff ffb5 	bl	8004db4 <prvNotifyQueueSetContainer>
 8004e4a:	b148      	cbz	r0, 8004e60 <prvUnlockQueue+0x36>
 8004e4c:	f000 ff40 	bl	8005cd0 <vTaskMissedYield>
 8004e50:	e006      	b.n	8004e60 <prvUnlockQueue+0x36>
 8004e52:	6a63      	ldr	r3, [r4, #36]	; 0x24
 8004e54:	b133      	cbz	r3, 8004e64 <prvUnlockQueue+0x3a>
 8004e56:	f104 0024 	add.w	r0, r4, #36	; 0x24
 8004e5a:	f000 fea5 	bl	8005ba8 <xTaskRemoveFromEventList>
 8004e5e:	e7f4      	b.n	8004e4a <prvUnlockQueue+0x20>
 8004e60:	3d01      	subs	r5, #1
 8004e62:	e7e8      	b.n	8004e36 <prvUnlockQueue+0xc>
 8004e64:	23ff      	movs	r3, #255	; 0xff
 8004e66:	f884 3045 	strb.w	r3, [r4, #69]	; 0x45
 8004e6a:	f7ff fdc3 	bl	80049f4 <vPortExitCritical>
 8004e6e:	f7ff fd9f 	bl	80049b0 <vPortEnterCritical>
 8004e72:	f894 5044 	ldrb.w	r5, [r4, #68]	; 0x44
 8004e76:	b2ed      	uxtb	r5, r5
 8004e78:	b26b      	sxtb	r3, r5
 8004e7a:	2b00      	cmp	r3, #0
 8004e7c:	dd0a      	ble.n	8004e94 <prvUnlockQueue+0x6a>
 8004e7e:	6923      	ldr	r3, [r4, #16]
 8004e80:	b143      	cbz	r3, 8004e94 <prvUnlockQueue+0x6a>
 8004e82:	f104 0010 	add.w	r0, r4, #16
 8004e86:	f000 fe8f 	bl	8005ba8 <xTaskRemoveFromEventList>
 8004e8a:	b108      	cbz	r0, 8004e90 <prvUnlockQueue+0x66>
 8004e8c:	f000 ff20 	bl	8005cd0 <vTaskMissedYield>
 8004e90:	3d01      	subs	r5, #1
 8004e92:	e7f0      	b.n	8004e76 <prvUnlockQueue+0x4c>
 8004e94:	23ff      	movs	r3, #255	; 0xff
 8004e96:	f884 3044 	strb.w	r3, [r4, #68]	; 0x44
 8004e9a:	e8bd 4038 	ldmia.w	sp!, {r3, r4, r5, lr}
 8004e9e:	f7ff bda9 	b.w	80049f4 <vPortExitCritical>
	...

08004ea4 <xQueueGenericReset>:
 8004ea4:	b538      	push	{r3, r4, r5, lr}
 8004ea6:	460d      	mov	r5, r1
 8004ea8:	4604      	mov	r4, r0
 8004eaa:	b940      	cbnz	r0, 8004ebe <xQueueGenericReset+0x1a>
 8004eac:	f04f 03fc 	mov.w	r3, #252	; 0xfc
 8004eb0:	f383 8811 	msr	BASEPRI, r3
 8004eb4:	f3bf 8f6f 	isb	sy
 8004eb8:	f3bf 8f4f 	dsb	sy
 8004ebc:	e7fe      	b.n	8004ebc <xQueueGenericReset+0x18>
 8004ebe:	f7ff fd77 	bl	80049b0 <vPortEnterCritical>
 8004ec2:	6c20      	ldr	r0, [r4, #64]	; 0x40
 8004ec4:	6be3      	ldr	r3, [r4, #60]	; 0x3c
 8004ec6:	6822      	ldr	r2, [r4, #0]
 8004ec8:	6062      	str	r2, [r4, #4]
 8004eca:	4343      	muls	r3, r0
 8004ecc:	18d1      	adds	r1, r2, r3
 8004ece:	1a1b      	subs	r3, r3, r0
 8004ed0:	4413      	add	r3, r2
 8004ed2:	60a1      	str	r1, [r4, #8]
 8004ed4:	60e3      	str	r3, [r4, #12]
 8004ed6:	2100      	movs	r1, #0
 8004ed8:	23ff      	movs	r3, #255	; 0xff
 8004eda:	63a1      	str	r1, [r4, #56]	; 0x38
 8004edc:	f884 3044 	strb.w	r3, [r4, #68]	; 0x44
 8004ee0:	f884 3045 	strb.w	r3, [r4, #69]	; 0x45
 8004ee4:	b97d      	cbnz	r5, 8004f06 <xQueueGenericReset+0x62>
 8004ee6:	6923      	ldr	r3, [r4, #16]
 8004ee8:	b1ab      	cbz	r3, 8004f16 <xQueueGenericReset+0x72>
 8004eea:	f104 0010 	add.w	r0, r4, #16
 8004eee:	f000 fe5b 	bl	8005ba8 <xTaskRemoveFromEventList>
 8004ef2:	b180      	cbz	r0, 8004f16 <xQueueGenericReset+0x72>
 8004ef4:	4b0a      	ldr	r3, [pc, #40]	; (8004f20 <xQueueGenericReset+0x7c>)
 8004ef6:	f04f 5280 	mov.w	r2, #268435456	; 0x10000000
 8004efa:	601a      	str	r2, [r3, #0]
 8004efc:	f3bf 8f4f 	dsb	sy
 8004f00:	f3bf 8f6f 	isb	sy
 8004f04:	e007      	b.n	8004f16 <xQueueGenericReset+0x72>
 8004f06:	f104 0010 	add.w	r0, r4, #16
 8004f0a:	f7ff feba 	bl	8004c82 <vListInitialise>
 8004f0e:	f104 0024 	add.w	r0, r4, #36	; 0x24
 8004f12:	f7ff feb6 	bl	8004c82 <vListInitialise>
 8004f16:	f7ff fd6d 	bl	80049f4 <vPortExitCritical>
 8004f1a:	2001      	movs	r0, #1
 8004f1c:	bd38      	pop	{r3, r4, r5, pc}
 8004f1e:	bf00      	nop
 8004f20:	e000ed04 	.word	0xe000ed04

08004f24 <xQueueGenericCreate>:
 8004f24:	b5f8      	push	{r3, r4, r5, r6, r7, lr}
 8004f26:	460d      	mov	r5, r1
 8004f28:	4617      	mov	r7, r2
 8004f2a:	4606      	mov	r6, r0
 8004f2c:	b940      	cbnz	r0, 8004f40 <xQueueGenericCreate+0x1c>
 8004f2e:	f04f 03fc 	mov.w	r3, #252	; 0xfc
 8004f32:	f383 8811 	msr	BASEPRI, r3
 8004f36:	f3bf 8f6f 	isb	sy
 8004f3a:	f3bf 8f4f 	dsb	sy
 8004f3e:	e7fe      	b.n	8004f3e <xQueueGenericCreate+0x1a>
 8004f40:	b109      	cbz	r1, 8004f46 <xQueueGenericCreate+0x22>
 8004f42:	4348      	muls	r0, r1
 8004f44:	e000      	b.n	8004f48 <xQueueGenericCreate+0x24>
 8004f46:	4608      	mov	r0, r1
 8004f48:	3054      	adds	r0, #84	; 0x54
 8004f4a:	f7ff fe81 	bl	8004c50 <pvPortMalloc>
 8004f4e:	4604      	mov	r4, r0
 8004f50:	b178      	cbz	r0, 8004f72 <xQueueGenericCreate+0x4e>
 8004f52:	b90d      	cbnz	r5, 8004f58 <xQueueGenericCreate+0x34>
 8004f54:	6020      	str	r0, [r4, #0]
 8004f56:	e002      	b.n	8004f5e <xQueueGenericCreate+0x3a>
 8004f58:	f100 0354 	add.w	r3, r0, #84	; 0x54
 8004f5c:	6003      	str	r3, [r0, #0]
 8004f5e:	63e6      	str	r6, [r4, #60]	; 0x3c
 8004f60:	6425      	str	r5, [r4, #64]	; 0x40
 8004f62:	4620      	mov	r0, r4
 8004f64:	2101      	movs	r1, #1
 8004f66:	f7ff ff9d 	bl	8004ea4 <xQueueGenericReset>
 8004f6a:	2300      	movs	r3, #0
 8004f6c:	f884 7050 	strb.w	r7, [r4, #80]	; 0x50
 8004f70:	64a3      	str	r3, [r4, #72]	; 0x48
 8004f72:	4620      	mov	r0, r4
 8004f74:	bdf8      	pop	{r3, r4, r5, r6, r7, pc}
	...

08004f78 <xQueueGenericSend>:
 8004f78:	e92d 41ff 	stmdb	sp!, {r0, r1, r2, r3, r4, r5, r6, r7, r8, lr}
 8004f7c:	4688      	mov	r8, r1
 8004f7e:	9201      	str	r2, [sp, #4]
 8004f80:	461f      	mov	r7, r3
 8004f82:	4604      	mov	r4, r0
 8004f84:	b940      	cbnz	r0, 8004f98 <xQueueGenericSend+0x20>
 8004f86:	f04f 03fc 	mov.w	r3, #252	; 0xfc
 8004f8a:	f383 8811 	msr	BASEPRI, r3
 8004f8e:	f3bf 8f6f 	isb	sy
 8004f92:	f3bf 8f4f 	dsb	sy
 8004f96:	e7fe      	b.n	8004f96 <xQueueGenericSend+0x1e>
 8004f98:	b951      	cbnz	r1, 8004fb0 <xQueueGenericSend+0x38>
 8004f9a:	6c03      	ldr	r3, [r0, #64]	; 0x40
 8004f9c:	b143      	cbz	r3, 8004fb0 <xQueueGenericSend+0x38>
 8004f9e:	f04f 03fc 	mov.w	r3, #252	; 0xfc
 8004fa2:	f383 8811 	msr	BASEPRI, r3
 8004fa6:	f3bf 8f6f 	isb	sy
 8004faa:	f3bf 8f4f 	dsb	sy
 8004fae:	e7fe      	b.n	8004fae <xQueueGenericSend+0x36>
 8004fb0:	2f02      	cmp	r7, #2
 8004fb2:	d10b      	bne.n	8004fcc <xQueueGenericSend+0x54>
 8004fb4:	6be3      	ldr	r3, [r4, #60]	; 0x3c
 8004fb6:	2b01      	cmp	r3, #1
 8004fb8:	d008      	beq.n	8004fcc <xQueueGenericSend+0x54>
 8004fba:	f04f 03fc 	mov.w	r3, #252	; 0xfc
 8004fbe:	f383 8811 	msr	BASEPRI, r3
 8004fc2:	f3bf 8f6f 	isb	sy
 8004fc6:	f3bf 8f4f 	dsb	sy
 8004fca:	e7fe      	b.n	8004fca <xQueueGenericSend+0x52>
 8004fcc:	f000 fe86 	bl	8005cdc <xTaskGetSchedulerState>
 8004fd0:	b910      	cbnz	r0, 8004fd8 <xQueueGenericSend+0x60>
 8004fd2:	9e01      	ldr	r6, [sp, #4]
 8004fd4:	b10e      	cbz	r6, 8004fda <xQueueGenericSend+0x62>
 8004fd6:	e07a      	b.n	80050ce <xQueueGenericSend+0x156>
 8004fd8:	2600      	movs	r6, #0
 8004fda:	f7ff fce9 	bl	80049b0 <vPortEnterCritical>
 8004fde:	6ba2      	ldr	r2, [r4, #56]	; 0x38
 8004fe0:	6be3      	ldr	r3, [r4, #60]	; 0x3c
 8004fe2:	429a      	cmp	r2, r3
 8004fe4:	d301      	bcc.n	8004fea <xQueueGenericSend+0x72>
 8004fe6:	2f02      	cmp	r7, #2
 8004fe8:	d122      	bne.n	8005030 <xQueueGenericSend+0xb8>
 8004fea:	4620      	mov	r0, r4
 8004fec:	4641      	mov	r1, r8
 8004fee:	463a      	mov	r2, r7
 8004ff0:	6ba5      	ldr	r5, [r4, #56]	; 0x38
 8004ff2:	f7ff fe94 	bl	8004d1e <prvCopyDataToQueue>
 8004ff6:	6ca3      	ldr	r3, [r4, #72]	; 0x48
 8004ff8:	b13b      	cbz	r3, 800500a <xQueueGenericSend+0x92>
 8004ffa:	2f02      	cmp	r7, #2
 8004ffc:	d100      	bne.n	8005000 <xQueueGenericSend+0x88>
 8004ffe:	b99d      	cbnz	r5, 8005028 <xQueueGenericSend+0xb0>
 8005000:	4620      	mov	r0, r4
 8005002:	4639      	mov	r1, r7
 8005004:	f7ff fed6 	bl	8004db4 <prvNotifyQueueSetContainer>
 8005008:	e005      	b.n	8005016 <xQueueGenericSend+0x9e>
 800500a:	6a63      	ldr	r3, [r4, #36]	; 0x24
 800500c:	b11b      	cbz	r3, 8005016 <xQueueGenericSend+0x9e>
 800500e:	f104 0024 	add.w	r0, r4, #36	; 0x24
 8005012:	f000 fdc9 	bl	8005ba8 <xTaskRemoveFromEventList>
 8005016:	b138      	cbz	r0, 8005028 <xQueueGenericSend+0xb0>
 8005018:	4b33      	ldr	r3, [pc, #204]	; (80050e8 <xQueueGenericSend+0x170>)
 800501a:	f04f 5280 	mov.w	r2, #268435456	; 0x10000000
 800501e:	601a      	str	r2, [r3, #0]
 8005020:	f3bf 8f4f 	dsb	sy
 8005024:	f3bf 8f6f 	isb	sy
 8005028:	f7ff fce4 	bl	80049f4 <vPortExitCritical>
 800502c:	2001      	movs	r0, #1
 800502e:	e057      	b.n	80050e0 <xQueueGenericSend+0x168>
 8005030:	9d01      	ldr	r5, [sp, #4]
 8005032:	b915      	cbnz	r5, 800503a <xQueueGenericSend+0xc2>
 8005034:	f7ff fcde 	bl	80049f4 <vPortExitCritical>
 8005038:	e047      	b.n	80050ca <xQueueGenericSend+0x152>
 800503a:	b916      	cbnz	r6, 8005042 <xQueueGenericSend+0xca>
 800503c:	a802      	add	r0, sp, #8
 800503e:	f000 fdf3 	bl	8005c28 <vTaskInternalSetTimeOutState>
 8005042:	f7ff fcd7 	bl	80049f4 <vPortExitCritical>
 8005046:	f000 fb9b 	bl	8005780 <vTaskSuspendAll>
 800504a:	f7ff fcb1 	bl	80049b0 <vPortEnterCritical>
 800504e:	f894 3044 	ldrb.w	r3, [r4, #68]	; 0x44
 8005052:	2bff      	cmp	r3, #255	; 0xff
 8005054:	bf04      	itt	eq
 8005056:	2300      	moveq	r3, #0
 8005058:	f884 3044 	strbeq.w	r3, [r4, #68]	; 0x44
 800505c:	f894 3045 	ldrb.w	r3, [r4, #69]	; 0x45
 8005060:	2bff      	cmp	r3, #255	; 0xff
 8005062:	bf04      	itt	eq
 8005064:	2300      	moveq	r3, #0
 8005066:	f884 3045 	strbeq.w	r3, [r4, #69]	; 0x45
 800506a:	f7ff fcc3 	bl	80049f4 <vPortExitCritical>
 800506e:	a802      	add	r0, sp, #8
 8005070:	a901      	add	r1, sp, #4
 8005072:	f000 fde5 	bl	8005c40 <xTaskCheckForTimeOut>
 8005076:	bb18      	cbnz	r0, 80050c0 <xQueueGenericSend+0x148>
 8005078:	f7ff fc9a 	bl	80049b0 <vPortEnterCritical>
 800507c:	6ba6      	ldr	r6, [r4, #56]	; 0x38
 800507e:	6be5      	ldr	r5, [r4, #60]	; 0x3c
 8005080:	f7ff fcb8 	bl	80049f4 <vPortExitCritical>
 8005084:	42ae      	cmp	r6, r5
 8005086:	d115      	bne.n	80050b4 <xQueueGenericSend+0x13c>
 8005088:	f104 0010 	add.w	r0, r4, #16
 800508c:	9901      	ldr	r1, [sp, #4]
 800508e:	f000 fd51 	bl	8005b34 <vTaskPlaceOnEventList>
 8005092:	4620      	mov	r0, r4
 8005094:	f7ff fec9 	bl	8004e2a <prvUnlockQueue>
 8005098:	f000 fc0a 	bl	80058b0 <xTaskResumeAll>
 800509c:	b108      	cbz	r0, 80050a2 <xQueueGenericSend+0x12a>
 800509e:	2601      	movs	r6, #1
 80050a0:	e79b      	b.n	8004fda <xQueueGenericSend+0x62>
 80050a2:	4b11      	ldr	r3, [pc, #68]	; (80050e8 <xQueueGenericSend+0x170>)
 80050a4:	f04f 5280 	mov.w	r2, #268435456	; 0x10000000
 80050a8:	601a      	str	r2, [r3, #0]
 80050aa:	f3bf 8f4f 	dsb	sy
 80050ae:	f3bf 8f6f 	isb	sy
 80050b2:	e7f4      	b.n	800509e <xQueueGenericSend+0x126>
 80050b4:	4620      	mov	r0, r4
 80050b6:	f7ff feb8 	bl	8004e2a <prvUnlockQueue>
 80050ba:	f000 fbf9 	bl	80058b0 <xTaskResumeAll>
 80050be:	e7ee      	b.n	800509e <xQueueGenericSend+0x126>
 80050c0:	4620      	mov	r0, r4
 80050c2:	f7ff feb2 	bl	8004e2a <prvUnlockQueue>
 80050c6:	f000 fbf3 	bl	80058b0 <xTaskResumeAll>
 80050ca:	2000      	movs	r0, #0
 80050cc:	e008      	b.n	80050e0 <xQueueGenericSend+0x168>
 80050ce:	f04f 03fc 	mov.w	r3, #252	; 0xfc
 80050d2:	f383 8811 	msr	BASEPRI, r3
 80050d6:	f3bf 8f6f 	isb	sy
 80050da:	f3bf 8f4f 	dsb	sy
 80050de:	e7fe      	b.n	80050de <xQueueGenericSend+0x166>
 80050e0:	b004      	add	sp, #16
 80050e2:	e8bd 81f0 	ldmia.w	sp!, {r4, r5, r6, r7, r8, pc}
 80050e6:	bf00      	nop
 80050e8:	e000ed04 	.word	0xe000ed04

080050ec <xQueueGenericSendFromISR>:
 80050ec:	e92d 43f8 	stmdb	sp!, {r3, r4, r5, r6, r7, r8, r9, lr}
 80050f0:	4688      	mov	r8, r1
 80050f2:	4691      	mov	r9, r2
 80050f4:	461f      	mov	r7, r3
 80050f6:	4604      	mov	r4, r0
 80050f8:	b940      	cbnz	r0, 800510c <xQueueGenericSendFromISR+0x20>
 80050fa:	f04f 03fc 	mov.w	r3, #252	; 0xfc
 80050fe:	f383 8811 	msr	BASEPRI, r3
 8005102:	f3bf 8f6f 	isb	sy
 8005106:	f3bf 8f4f 	dsb	sy
 800510a:	e7fe      	b.n	800510a <xQueueGenericSendFromISR+0x1e>
 800510c:	b951      	cbnz	r1, 8005124 <xQueueGenericSendFromISR+0x38>
 800510e:	6c03      	ldr	r3, [r0, #64]	; 0x40
 8005110:	b143      	cbz	r3, 8005124 <xQueueGenericSendFromISR+0x38>
 8005112:	f04f 03fc 	mov.w	r3, #252	; 0xfc
 8005116:	f383 8811 	msr	BASEPRI, r3
 800511a:	f3bf 8f6f 	isb	sy
 800511e:	f3bf 8f4f 	dsb	sy
 8005122:	e7fe      	b.n	8005122 <xQueueGenericSendFromISR+0x36>
 8005124:	2f02      	cmp	r7, #2
 8005126:	d10b      	bne.n	8005140 <xQueueGenericSendFromISR+0x54>
 8005128:	6be3      	ldr	r3, [r4, #60]	; 0x3c
 800512a:	2b01      	cmp	r3, #1
 800512c:	d008      	beq.n	8005140 <xQueueGenericSendFromISR+0x54>
 800512e:	f04f 03fc 	mov.w	r3, #252	; 0xfc
 8005132:	f383 8811 	msr	BASEPRI, r3
 8005136:	f3bf 8f6f 	isb	sy
 800513a:	f3bf 8f4f 	dsb	sy
 800513e:	e7fe      	b.n	800513e <xQueueGenericSendFromISR+0x52>
 8005140:	f7ff fd58 	bl	8004bf4 <vPortValidateInterruptPriority>
 8005144:	f3ef 8611 	mrs	r6, BASEPRI
 8005148:	f04f 03fc 	mov.w	r3, #252	; 0xfc
 800514c:	f383 8811 	msr	BASEPRI, r3
 8005150:	f3bf 8f6f 	isb	sy
 8005154:	f3bf 8f4f 	dsb	sy
 8005158:	6ba2      	ldr	r2, [r4, #56]	; 0x38
 800515a:	6be3      	ldr	r3, [r4, #60]	; 0x3c
 800515c:	429a      	cmp	r2, r3
 800515e:	d301      	bcc.n	8005164 <xQueueGenericSendFromISR+0x78>
 8005160:	2f02      	cmp	r7, #2
 8005162:	d124      	bne.n	80051ae <xQueueGenericSendFromISR+0xc2>
 8005164:	f894 5045 	ldrb.w	r5, [r4, #69]	; 0x45
 8005168:	4620      	mov	r0, r4
 800516a:	b2ed      	uxtb	r5, r5
 800516c:	4641      	mov	r1, r8
 800516e:	463a      	mov	r2, r7
 8005170:	f7ff fdd5 	bl	8004d1e <prvCopyDataToQueue>
 8005174:	2dff      	cmp	r5, #255	; 0xff
 8005176:	d114      	bne.n	80051a2 <xQueueGenericSendFromISR+0xb6>
 8005178:	6ca3      	ldr	r3, [r4, #72]	; 0x48
 800517a:	b15b      	cbz	r3, 8005194 <xQueueGenericSendFromISR+0xa8>
 800517c:	4620      	mov	r0, r4
 800517e:	4639      	mov	r1, r7
 8005180:	f7ff fe18 	bl	8004db4 <prvNotifyQueueSetContainer>
 8005184:	b188      	cbz	r0, 80051aa <xQueueGenericSendFromISR+0xbe>
 8005186:	f1b9 0f00 	cmp.w	r9, #0
 800518a:	d00e      	beq.n	80051aa <xQueueGenericSendFromISR+0xbe>
 800518c:	2001      	movs	r0, #1
 800518e:	f8c9 0000 	str.w	r0, [r9]
 8005192:	e00d      	b.n	80051b0 <xQueueGenericSendFromISR+0xc4>
 8005194:	6a63      	ldr	r3, [r4, #36]	; 0x24
 8005196:	b143      	cbz	r3, 80051aa <xQueueGenericSendFromISR+0xbe>
 8005198:	f104 0024 	add.w	r0, r4, #36	; 0x24
 800519c:	f000 fd04 	bl	8005ba8 <xTaskRemoveFromEventList>
 80051a0:	e7f0      	b.n	8005184 <xQueueGenericSendFromISR+0x98>
 80051a2:	3501      	adds	r5, #1
 80051a4:	b2ed      	uxtb	r5, r5
 80051a6:	f884 5045 	strb.w	r5, [r4, #69]	; 0x45
 80051aa:	2001      	movs	r0, #1
 80051ac:	e000      	b.n	80051b0 <xQueueGenericSendFromISR+0xc4>
 80051ae:	2000      	movs	r0, #0
 80051b0:	f386 8811 	msr	BASEPRI, r6
 80051b4:	e8bd 83f8 	ldmia.w	sp!, {r3, r4, r5, r6, r7, r8, r9, pc}

080051b8 <xQueueReceive>:
 80051b8:	b5f0      	push	{r4, r5, r6, r7, lr}
 80051ba:	b085      	sub	sp, #20
 80051bc:	460f      	mov	r7, r1
 80051be:	9201      	str	r2, [sp, #4]
 80051c0:	4604      	mov	r4, r0
 80051c2:	b940      	cbnz	r0, 80051d6 <xQueueReceive+0x1e>
 80051c4:	f04f 03fc 	mov.w	r3, #252	; 0xfc
 80051c8:	f383 8811 	msr	BASEPRI, r3
 80051cc:	f3bf 8f6f 	isb	sy
 80051d0:	f3bf 8f4f 	dsb	sy
 80051d4:	e7fe      	b.n	80051d4 <xQueueReceive+0x1c>
 80051d6:	b951      	cbnz	r1, 80051ee <xQueueReceive+0x36>
 80051d8:	6c03      	ldr	r3, [r0, #64]	; 0x40
 80051da:	b143      	cbz	r3, 80051ee <xQueueReceive+0x36>
 80051dc:	f04f 03fc 	mov.w	r3, #252	; 0xfc
 80051e0:	f383 8811 	msr	BASEPRI, r3
 80051e4:	f3bf 8f6f 	isb	sy
 80051e8:	f3bf 8f4f 	dsb	sy
 80051ec:	e7fe      	b.n	80051ec <xQueueReceive+0x34>
 80051ee:	f000 fd75 	bl	8005cdc <xTaskGetSchedulerState>
 80051f2:	b910      	cbnz	r0, 80051fa <xQueueReceive+0x42>
 80051f4:	9e01      	ldr	r6, [sp, #4]
 80051f6:	b10e      	cbz	r6, 80051fc <xQueueReceive+0x44>
 80051f8:	e06d      	b.n	80052d6 <xQueueReceive+0x11e>
 80051fa:	2600      	movs	r6, #0
 80051fc:	f7ff fbd8 	bl	80049b0 <vPortEnterCritical>
 8005200:	6ba5      	ldr	r5, [r4, #56]	; 0x38
 8005202:	b1c5      	cbz	r5, 8005236 <xQueueReceive+0x7e>
 8005204:	4620      	mov	r0, r4
 8005206:	4639      	mov	r1, r7
 8005208:	3d01      	subs	r5, #1
 800520a:	f7ff fdc0 	bl	8004d8e <prvCopyDataFromQueue>
 800520e:	63a5      	str	r5, [r4, #56]	; 0x38
 8005210:	6923      	ldr	r3, [r4, #16]
 8005212:	b163      	cbz	r3, 800522e <xQueueReceive+0x76>
 8005214:	f104 0010 	add.w	r0, r4, #16
 8005218:	f000 fcc6 	bl	8005ba8 <xTaskRemoveFromEventList>
 800521c:	b138      	cbz	r0, 800522e <xQueueReceive+0x76>
 800521e:	4b33      	ldr	r3, [pc, #204]	; (80052ec <xQueueReceive+0x134>)
 8005220:	f04f 5280 	mov.w	r2, #268435456	; 0x10000000
 8005224:	601a      	str	r2, [r3, #0]
 8005226:	f3bf 8f4f 	dsb	sy
 800522a:	f3bf 8f6f 	isb	sy
 800522e:	f7ff fbe1 	bl	80049f4 <vPortExitCritical>
 8005232:	2001      	movs	r0, #1
 8005234:	e058      	b.n	80052e8 <xQueueReceive+0x130>
 8005236:	9d01      	ldr	r5, [sp, #4]
 8005238:	b915      	cbnz	r5, 8005240 <xQueueReceive+0x88>
 800523a:	f7ff fbdb 	bl	80049f4 <vPortExitCritical>
 800523e:	e048      	b.n	80052d2 <xQueueReceive+0x11a>
 8005240:	b916      	cbnz	r6, 8005248 <xQueueReceive+0x90>
 8005242:	a802      	add	r0, sp, #8
 8005244:	f000 fcf0 	bl	8005c28 <vTaskInternalSetTimeOutState>
 8005248:	f7ff fbd4 	bl	80049f4 <vPortExitCritical>
 800524c:	f000 fa98 	bl	8005780 <vTaskSuspendAll>
 8005250:	f7ff fbae 	bl	80049b0 <vPortEnterCritical>
 8005254:	f894 3044 	ldrb.w	r3, [r4, #68]	; 0x44
 8005258:	2bff      	cmp	r3, #255	; 0xff
 800525a:	bf04      	itt	eq
 800525c:	2300      	moveq	r3, #0
 800525e:	f884 3044 	strbeq.w	r3, [r4, #68]	; 0x44
 8005262:	f894 3045 	ldrb.w	r3, [r4, #69]	; 0x45
 8005266:	2bff      	cmp	r3, #255	; 0xff
 8005268:	bf04      	itt	eq
 800526a:	2300      	moveq	r3, #0
 800526c:	f884 3045 	strbeq.w	r3, [r4, #69]	; 0x45
 8005270:	f7ff fbc0 	bl	80049f4 <vPortExitCritical>
 8005274:	a802      	add	r0, sp, #8
 8005276:	a901      	add	r1, sp, #4
 8005278:	f000 fce2 	bl	8005c40 <xTaskCheckForTimeOut>
 800527c:	b9f8      	cbnz	r0, 80052be <xQueueReceive+0x106>
 800527e:	4620      	mov	r0, r4
 8005280:	f7ff fd42 	bl	8004d08 <prvIsQueueEmpty>
 8005284:	b1a8      	cbz	r0, 80052b2 <xQueueReceive+0xfa>
 8005286:	f104 0024 	add.w	r0, r4, #36	; 0x24
 800528a:	9901      	ldr	r1, [sp, #4]
 800528c:	f000 fc52 	bl	8005b34 <vTaskPlaceOnEventList>
 8005290:	4620      	mov	r0, r4
 8005292:	f7ff fdca 	bl	8004e2a <prvUnlockQueue>
 8005296:	f000 fb0b 	bl	80058b0 <xTaskResumeAll>
 800529a:	b108      	cbz	r0, 80052a0 <xQueueReceive+0xe8>
 800529c:	2601      	movs	r6, #1
 800529e:	e7ad      	b.n	80051fc <xQueueReceive+0x44>
 80052a0:	4b12      	ldr	r3, [pc, #72]	; (80052ec <xQueueReceive+0x134>)
 80052a2:	f04f 5280 	mov.w	r2, #268435456	; 0x10000000
 80052a6:	601a      	str	r2, [r3, #0]
 80052a8:	f3bf 8f4f 	dsb	sy
 80052ac:	f3bf 8f6f 	isb	sy
 80052b0:	e7f4      	b.n	800529c <xQueueReceive+0xe4>
 80052b2:	4620      	mov	r0, r4
 80052b4:	f7ff fdb9 	bl	8004e2a <prvUnlockQueue>
 80052b8:	f000 fafa 	bl	80058b0 <xTaskResumeAll>
 80052bc:	e7ee      	b.n	800529c <xQueueReceive+0xe4>
 80052be:	4620      	mov	r0, r4
 80052c0:	f7ff fdb3 	bl	8004e2a <prvUnlockQueue>
 80052c4:	f000 faf4 	bl	80058b0 <xTaskResumeAll>
 80052c8:	4620      	mov	r0, r4
 80052ca:	f7ff fd1d 	bl	8004d08 <prvIsQueueEmpty>
 80052ce:	2800      	cmp	r0, #0
 80052d0:	d0e4      	beq.n	800529c <xQueueReceive+0xe4>
 80052d2:	2000      	movs	r0, #0
 80052d4:	e008      	b.n	80052e8 <xQueueReceive+0x130>
 80052d6:	f04f 03fc 	mov.w	r3, #252	; 0xfc
 80052da:	f383 8811 	msr	BASEPRI, r3
 80052de:	f3bf 8f6f 	isb	sy
 80052e2:	f3bf 8f4f 	dsb	sy
 80052e6:	e7fe      	b.n	80052e6 <xQueueReceive+0x12e>
 80052e8:	b005      	add	sp, #20
 80052ea:	bdf0      	pop	{r4, r5, r6, r7, pc}
 80052ec:	e000ed04 	.word	0xe000ed04

080052f0 <vQueueAddToRegistry>:
 80052f0:	b530      	push	{r4, r5, lr}
 80052f2:	2300      	movs	r3, #0
 80052f4:	4a06      	ldr	r2, [pc, #24]	; (8005310 <vQueueAddToRegistry+0x20>)
 80052f6:	f852 5033 	ldr.w	r5, [r2, r3, lsl #3]
 80052fa:	eb02 04c3 	add.w	r4, r2, r3, lsl #3
 80052fe:	b91d      	cbnz	r5, 8005308 <vQueueAddToRegistry+0x18>
 8005300:	f842 1033 	str.w	r1, [r2, r3, lsl #3]
 8005304:	6060      	str	r0, [r4, #4]
 8005306:	bd30      	pop	{r4, r5, pc}
 8005308:	3301      	adds	r3, #1
 800530a:	2b08      	cmp	r3, #8
 800530c:	d1f2      	bne.n	80052f4 <vQueueAddToRegistry+0x4>
 800530e:	bd30      	pop	{r4, r5, pc}
 8005310:	200011a4 	.word	0x200011a4

08005314 <vQueueWaitForMessageRestricted>:
 8005314:	b570      	push	{r4, r5, r6, lr}
 8005316:	4604      	mov	r4, r0
 8005318:	460e      	mov	r6, r1
 800531a:	4615      	mov	r5, r2
 800531c:	f7ff fb48 	bl	80049b0 <vPortEnterCritical>
 8005320:	f894 3044 	ldrb.w	r3, [r4, #68]	; 0x44
 8005324:	2bff      	cmp	r3, #255	; 0xff
 8005326:	bf04      	itt	eq
 8005328:	2300      	moveq	r3, #0
 800532a:	f884 3044 	strbeq.w	r3, [r4, #68]	; 0x44
 800532e:	f894 3045 	ldrb.w	r3, [r4, #69]	; 0x45
 8005332:	2bff      	cmp	r3, #255	; 0xff
 8005334:	bf04      	itt	eq
 8005336:	2300      	moveq	r3, #0
 8005338:	f884 3045 	strbeq.w	r3, [r4, #69]	; 0x45
 800533c:	f7ff fb5a 	bl	80049f4 <vPortExitCritical>
 8005340:	6ba3      	ldr	r3, [r4, #56]	; 0x38
 8005342:	b92b      	cbnz	r3, 8005350 <vQueueWaitForMessageRestricted+0x3c>
 8005344:	f104 0024 	add.w	r0, r4, #36	; 0x24
 8005348:	4631      	mov	r1, r6
 800534a:	462a      	mov	r2, r5
 800534c:	f000 fc0c 	bl	8005b68 <vTaskPlaceOnEventListRestricted>
 8005350:	4620      	mov	r0, r4
 8005352:	e8bd 4070 	ldmia.w	sp!, {r4, r5, r6, lr}
 8005356:	f7ff bd68 	b.w	8004e2a <prvUnlockQueue>
	...

0800535c <prvAddCurrentTaskToDelayedList>:
 800535c:	b5f8      	push	{r3, r4, r5, r6, r7, lr}
 800535e:	4b1d      	ldr	r3, [pc, #116]	; (80053d4 <prvAddCurrentTaskToDelayedList+0x78>)
 8005360:	4d1d      	ldr	r5, [pc, #116]	; (80053d8 <prvAddCurrentTaskToDelayedList+0x7c>)
 8005362:	681e      	ldr	r6, [r3, #0]
 8005364:	682b      	ldr	r3, [r5, #0]
 8005366:	4604      	mov	r4, r0
 8005368:	6828      	ldr	r0, [r5, #0]
 800536a:	2200      	movs	r2, #0
 800536c:	f883 206d 	strb.w	r2, [r3, #109]	; 0x6d
 8005370:	3004      	adds	r0, #4
 8005372:	460f      	mov	r7, r1
 8005374:	f7ff fcb7 	bl	8004ce6 <uxListRemove>
 8005378:	b940      	cbnz	r0, 800538c <prvAddCurrentTaskToDelayedList+0x30>
 800537a:	682b      	ldr	r3, [r5, #0]
 800537c:	4817      	ldr	r0, [pc, #92]	; (80053dc <prvAddCurrentTaskToDelayedList+0x80>)
 800537e:	6ad9      	ldr	r1, [r3, #44]	; 0x2c
 8005380:	6802      	ldr	r2, [r0, #0]
 8005382:	2301      	movs	r3, #1
 8005384:	408b      	lsls	r3, r1
 8005386:	ea22 0303 	bic.w	r3, r2, r3
 800538a:	6003      	str	r3, [r0, #0]
 800538c:	1c63      	adds	r3, r4, #1
 800538e:	d107      	bne.n	80053a0 <prvAddCurrentTaskToDelayedList+0x44>
 8005390:	b137      	cbz	r7, 80053a0 <prvAddCurrentTaskToDelayedList+0x44>
 8005392:	6829      	ldr	r1, [r5, #0]
 8005394:	4812      	ldr	r0, [pc, #72]	; (80053e0 <prvAddCurrentTaskToDelayedList+0x84>)
 8005396:	3104      	adds	r1, #4
 8005398:	e8bd 40f8 	ldmia.w	sp!, {r3, r4, r5, r6, r7, lr}
 800539c:	f7ff bc7f 	b.w	8004c9e <vListInsertEnd>
 80053a0:	4434      	add	r4, r6
 80053a2:	682a      	ldr	r2, [r5, #0]
 80053a4:	4b0c      	ldr	r3, [pc, #48]	; (80053d8 <prvAddCurrentTaskToDelayedList+0x7c>)
 80053a6:	6054      	str	r4, [r2, #4]
 80053a8:	42b4      	cmp	r4, r6
 80053aa:	d207      	bcs.n	80053bc <prvAddCurrentTaskToDelayedList+0x60>
 80053ac:	4a0d      	ldr	r2, [pc, #52]	; (80053e4 <prvAddCurrentTaskToDelayedList+0x88>)
 80053ae:	6810      	ldr	r0, [r2, #0]
 80053b0:	6819      	ldr	r1, [r3, #0]
 80053b2:	e8bd 40f8 	ldmia.w	sp!, {r3, r4, r5, r6, r7, lr}
 80053b6:	3104      	adds	r1, #4
 80053b8:	f7ff bc7d 	b.w	8004cb6 <vListInsert>
 80053bc:	4a0a      	ldr	r2, [pc, #40]	; (80053e8 <prvAddCurrentTaskToDelayedList+0x8c>)
 80053be:	6810      	ldr	r0, [r2, #0]
 80053c0:	6819      	ldr	r1, [r3, #0]
 80053c2:	3104      	adds	r1, #4
 80053c4:	f7ff fc77 	bl	8004cb6 <vListInsert>
 80053c8:	4b08      	ldr	r3, [pc, #32]	; (80053ec <prvAddCurrentTaskToDelayedList+0x90>)
 80053ca:	681a      	ldr	r2, [r3, #0]
 80053cc:	4294      	cmp	r4, r2
 80053ce:	bf38      	it	cc
 80053d0:	601c      	strcc	r4, [r3, #0]
 80053d2:	bdf8      	pop	{r3, r4, r5, r6, r7, pc}
 80053d4:	2000076c 	.word	0x2000076c
 80053d8:	20000750 	.word	0x20000750
 80053dc:	200007ac 	.word	0x200007ac
 80053e0:	20000798 	.word	0x20000798
 80053e4:	20000770 	.word	0x20000770
 80053e8:	200006a0 	.word	0x200006a0
 80053ec:	20000754 	.word	0x20000754

080053f0 <prvTaskIsTaskSuspended>:
 80053f0:	b940      	cbnz	r0, 8005404 <prvTaskIsTaskSuspended+0x14>
 80053f2:	f04f 03fc 	mov.w	r3, #252	; 0xfc
 80053f6:	f383 8811 	msr	BASEPRI, r3
 80053fa:	f3bf 8f6f 	isb	sy
 80053fe:	f3bf 8f4f 	dsb	sy
 8005402:	e7fe      	b.n	8005402 <prvTaskIsTaskSuspended+0x12>
 8005404:	6942      	ldr	r2, [r0, #20]
 8005406:	4b06      	ldr	r3, [pc, #24]	; (8005420 <prvTaskIsTaskSuspended+0x30>)
 8005408:	429a      	cmp	r2, r3
 800540a:	d107      	bne.n	800541c <prvTaskIsTaskSuspended+0x2c>
 800540c:	6a80      	ldr	r0, [r0, #40]	; 0x28
 800540e:	4b05      	ldr	r3, [pc, #20]	; (8005424 <prvTaskIsTaskSuspended+0x34>)
 8005410:	4298      	cmp	r0, r3
 8005412:	d003      	beq.n	800541c <prvTaskIsTaskSuspended+0x2c>
 8005414:	fab0 f080 	clz	r0, r0
 8005418:	0940      	lsrs	r0, r0, #5
 800541a:	4770      	bx	lr
 800541c:	2000      	movs	r0, #0
 800541e:	4770      	bx	lr
 8005420:	20000798 	.word	0x20000798
 8005424:	20000774 	.word	0x20000774

08005428 <prvResetNextTaskUnblockTime>:
 8005428:	4a06      	ldr	r2, [pc, #24]	; (8005444 <prvResetNextTaskUnblockTime+0x1c>)
 800542a:	6813      	ldr	r3, [r2, #0]
 800542c:	6819      	ldr	r1, [r3, #0]
 800542e:	4b06      	ldr	r3, [pc, #24]	; (8005448 <prvResetNextTaskUnblockTime+0x20>)
 8005430:	b911      	cbnz	r1, 8005438 <prvResetNextTaskUnblockTime+0x10>
 8005432:	f04f 32ff 	mov.w	r2, #4294967295
 8005436:	e003      	b.n	8005440 <prvResetNextTaskUnblockTime+0x18>
 8005438:	6812      	ldr	r2, [r2, #0]
 800543a:	68d2      	ldr	r2, [r2, #12]
 800543c:	68d2      	ldr	r2, [r2, #12]
 800543e:	6852      	ldr	r2, [r2, #4]
 8005440:	601a      	str	r2, [r3, #0]
 8005442:	4770      	bx	lr
 8005444:	200006a0 	.word	0x200006a0
 8005448:	20000754 	.word	0x20000754

0800544c <prvIdleTask>:
 800544c:	b508      	push	{r3, lr}
 800544e:	4c14      	ldr	r4, [pc, #80]	; (80054a0 <prvIdleTask+0x54>)
 8005450:	6823      	ldr	r3, [r4, #0]
 8005452:	b1bb      	cbz	r3, 8005484 <prvIdleTask+0x38>
 8005454:	f7ff faac 	bl	80049b0 <vPortEnterCritical>
 8005458:	4b12      	ldr	r3, [pc, #72]	; (80054a4 <prvIdleTask+0x58>)
 800545a:	68db      	ldr	r3, [r3, #12]
 800545c:	68dd      	ldr	r5, [r3, #12]
 800545e:	1d28      	adds	r0, r5, #4
 8005460:	f7ff fc41 	bl	8004ce6 <uxListRemove>
 8005464:	4a10      	ldr	r2, [pc, #64]	; (80054a8 <prvIdleTask+0x5c>)
 8005466:	6813      	ldr	r3, [r2, #0]
 8005468:	3b01      	subs	r3, #1
 800546a:	6013      	str	r3, [r2, #0]
 800546c:	6823      	ldr	r3, [r4, #0]
 800546e:	3b01      	subs	r3, #1
 8005470:	6023      	str	r3, [r4, #0]
 8005472:	f7ff fabf 	bl	80049f4 <vPortExitCritical>
 8005476:	6b28      	ldr	r0, [r5, #48]	; 0x30
 8005478:	f7ff fbf6 	bl	8004c68 <vPortFree>
 800547c:	4628      	mov	r0, r5
 800547e:	f7ff fbf3 	bl	8004c68 <vPortFree>
 8005482:	e7e4      	b.n	800544e <prvIdleTask+0x2>
 8005484:	4b09      	ldr	r3, [pc, #36]	; (80054ac <prvIdleTask+0x60>)
 8005486:	681b      	ldr	r3, [r3, #0]
 8005488:	2b01      	cmp	r3, #1
 800548a:	d9e0      	bls.n	800544e <prvIdleTask+0x2>
 800548c:	4b08      	ldr	r3, [pc, #32]	; (80054b0 <prvIdleTask+0x64>)
 800548e:	f04f 5280 	mov.w	r2, #268435456	; 0x10000000
 8005492:	601a      	str	r2, [r3, #0]
 8005494:	f3bf 8f4f 	dsb	sy
 8005498:	f3bf 8f6f 	isb	sy
 800549c:	e7d7      	b.n	800544e <prvIdleTask+0x2>
 800549e:	bf00      	nop
 80054a0:	20000790 	.word	0x20000790
 80054a4:	200006a8 	.word	0x200006a8
 80054a8:	2000078c 	.word	0x2000078c
 80054ac:	200006d4 	.word	0x200006d4
 80054b0:	e000ed04 	.word	0xe000ed04

080054b4 <xTaskCreate>:
 80054b4:	e92d 4ff8 	stmdb	sp!, {r3, r4, r5, r6, r7, r8, r9, sl, fp, lr}
 80054b8:	0095      	lsls	r5, r2, #2
 80054ba:	4682      	mov	sl, r0
 80054bc:	4628      	mov	r0, r5
 80054be:	460e      	mov	r6, r1
 80054c0:	4699      	mov	r9, r3
 80054c2:	f8dd 802c 	ldr.w	r8, [sp, #44]	; 0x2c
 80054c6:	f7ff fbc3 	bl	8004c50 <pvPortMalloc>
 80054ca:	4607      	mov	r7, r0
 80054cc:	2800      	cmp	r0, #0
 80054ce:	f000 80b4 	beq.w	800563a <xTaskCreate+0x186>
 80054d2:	2070      	movs	r0, #112	; 0x70
 80054d4:	f7ff fbbc 	bl	8004c50 <pvPortMalloc>
 80054d8:	4604      	mov	r4, r0
 80054da:	b188      	cbz	r0, 8005500 <xTaskCreate+0x4c>
 80054dc:	6307      	str	r7, [r0, #48]	; 0x30
 80054de:	462a      	mov	r2, r5
 80054e0:	4638      	mov	r0, r7
 80054e2:	21a5      	movs	r1, #165	; 0xa5
 80054e4:	f1a5 0b04 	sub.w	fp, r5, #4
 80054e8:	f003 fcff 	bl	8008eea <memset>
 80054ec:	6b25      	ldr	r5, [r4, #48]	; 0x30
 80054ee:	44ab      	add	fp, r5
 80054f0:	f02b 0b07 	bic.w	fp, fp, #7
 80054f4:	b1ae      	cbz	r6, 8005522 <xTaskCreate+0x6e>
 80054f6:	1e73      	subs	r3, r6, #1
 80054f8:	f104 0233 	add.w	r2, r4, #51	; 0x33
 80054fc:	360f      	adds	r6, #15
 80054fe:	e005      	b.n	800550c <xTaskCreate+0x58>
 8005500:	4638      	mov	r0, r7
 8005502:	f7ff fbb1 	bl	8004c68 <vPortFree>
 8005506:	e098      	b.n	800563a <xTaskCreate+0x186>
 8005508:	42b3      	cmp	r3, r6
 800550a:	d006      	beq.n	800551a <xTaskCreate+0x66>
 800550c:	f813 1f01 	ldrb.w	r1, [r3, #1]!
 8005510:	f802 1f01 	strb.w	r1, [r2, #1]!
 8005514:	7819      	ldrb	r1, [r3, #0]
 8005516:	2900      	cmp	r1, #0
 8005518:	d1f6      	bne.n	8005508 <xTaskCreate+0x54>
 800551a:	2300      	movs	r3, #0
 800551c:	f884 3043 	strb.w	r3, [r4, #67]	; 0x43
 8005520:	e001      	b.n	8005526 <xTaskCreate+0x72>
 8005522:	f884 6034 	strb.w	r6, [r4, #52]	; 0x34
 8005526:	9e0a      	ldr	r6, [sp, #40]	; 0x28
 8005528:	2e05      	cmp	r6, #5
 800552a:	f04f 0500 	mov.w	r5, #0
 800552e:	bf28      	it	cs
 8005530:	2605      	movcs	r6, #5
 8005532:	1d27      	adds	r7, r4, #4
 8005534:	62e6      	str	r6, [r4, #44]	; 0x2c
 8005536:	64e6      	str	r6, [r4, #76]	; 0x4c
 8005538:	4638      	mov	r0, r7
 800553a:	6525      	str	r5, [r4, #80]	; 0x50
 800553c:	f7ff fbac 	bl	8004c98 <vListInitialiseItem>
 8005540:	f1c6 0606 	rsb	r6, r6, #6
 8005544:	f104 0018 	add.w	r0, r4, #24
 8005548:	f7ff fba6 	bl	8004c98 <vListInitialiseItem>
 800554c:	66a5      	str	r5, [r4, #104]	; 0x68
 800554e:	6124      	str	r4, [r4, #16]
 8005550:	61a6      	str	r6, [r4, #24]
 8005552:	6264      	str	r4, [r4, #36]	; 0x24
 8005554:	6565      	str	r5, [r4, #84]	; 0x54
 8005556:	65a5      	str	r5, [r4, #88]	; 0x58
 8005558:	65e5      	str	r5, [r4, #92]	; 0x5c
 800555a:	6625      	str	r5, [r4, #96]	; 0x60
 800555c:	6665      	str	r5, [r4, #100]	; 0x64
 800555e:	f884 506c 	strb.w	r5, [r4, #108]	; 0x6c
 8005562:	f884 506d 	strb.w	r5, [r4, #109]	; 0x6d
 8005566:	4658      	mov	r0, fp
 8005568:	4651      	mov	r1, sl
 800556a:	464a      	mov	r2, r9
 800556c:	f7ff f9f0 	bl	8004950 <pxPortInitialiseStack>
 8005570:	6020      	str	r0, [r4, #0]
 8005572:	f1b8 0f00 	cmp.w	r8, #0
 8005576:	d001      	beq.n	800557c <xTaskCreate+0xc8>
 8005578:	f8c8 4000 	str.w	r4, [r8]
 800557c:	f7ff fa18 	bl	80049b0 <vPortEnterCritical>
 8005580:	4b30      	ldr	r3, [pc, #192]	; (8005644 <xTaskCreate+0x190>)
 8005582:	4e31      	ldr	r6, [pc, #196]	; (8005648 <xTaskCreate+0x194>)
 8005584:	681a      	ldr	r2, [r3, #0]
 8005586:	f8df 80ec 	ldr.w	r8, [pc, #236]	; 8005674 <xTaskCreate+0x1c0>
 800558a:	3201      	adds	r2, #1
 800558c:	601a      	str	r2, [r3, #0]
 800558e:	6835      	ldr	r5, [r6, #0]
 8005590:	bb15      	cbnz	r5, 80055d8 <xTaskCreate+0x124>
 8005592:	6034      	str	r4, [r6, #0]
 8005594:	681b      	ldr	r3, [r3, #0]
 8005596:	2b01      	cmp	r3, #1
 8005598:	d127      	bne.n	80055ea <xTaskCreate+0x136>
 800559a:	eb08 0005 	add.w	r0, r8, r5
 800559e:	3514      	adds	r5, #20
 80055a0:	f7ff fb6f 	bl	8004c82 <vListInitialise>
 80055a4:	2d78      	cmp	r5, #120	; 0x78
 80055a6:	d1f8      	bne.n	800559a <xTaskCreate+0xe6>
 80055a8:	f8df 90cc 	ldr.w	r9, [pc, #204]	; 8005678 <xTaskCreate+0x1c4>
 80055ac:	4d27      	ldr	r5, [pc, #156]	; (800564c <xTaskCreate+0x198>)
 80055ae:	4648      	mov	r0, r9
 80055b0:	f7ff fb67 	bl	8004c82 <vListInitialise>
 80055b4:	4628      	mov	r0, r5
 80055b6:	f7ff fb64 	bl	8004c82 <vListInitialise>
 80055ba:	4825      	ldr	r0, [pc, #148]	; (8005650 <xTaskCreate+0x19c>)
 80055bc:	f7ff fb61 	bl	8004c82 <vListInitialise>
 80055c0:	4824      	ldr	r0, [pc, #144]	; (8005654 <xTaskCreate+0x1a0>)
 80055c2:	f7ff fb5e 	bl	8004c82 <vListInitialise>
 80055c6:	4824      	ldr	r0, [pc, #144]	; (8005658 <xTaskCreate+0x1a4>)
 80055c8:	f7ff fb5b 	bl	8004c82 <vListInitialise>
 80055cc:	4b23      	ldr	r3, [pc, #140]	; (800565c <xTaskCreate+0x1a8>)
 80055ce:	f8c3 9000 	str.w	r9, [r3]
 80055d2:	4b23      	ldr	r3, [pc, #140]	; (8005660 <xTaskCreate+0x1ac>)
 80055d4:	601d      	str	r5, [r3, #0]
 80055d6:	e008      	b.n	80055ea <xTaskCreate+0x136>
 80055d8:	4b22      	ldr	r3, [pc, #136]	; (8005664 <xTaskCreate+0x1b0>)
 80055da:	681b      	ldr	r3, [r3, #0]
 80055dc:	b92b      	cbnz	r3, 80055ea <xTaskCreate+0x136>
 80055de:	6833      	ldr	r3, [r6, #0]
 80055e0:	6ada      	ldr	r2, [r3, #44]	; 0x2c
 80055e2:	6ae3      	ldr	r3, [r4, #44]	; 0x2c
 80055e4:	429a      	cmp	r2, r3
 80055e6:	bf98      	it	ls
 80055e8:	6034      	strls	r4, [r6, #0]
 80055ea:	4a1f      	ldr	r2, [pc, #124]	; (8005668 <xTaskCreate+0x1b4>)
 80055ec:	491f      	ldr	r1, [pc, #124]	; (800566c <xTaskCreate+0x1b8>)
 80055ee:	6813      	ldr	r3, [r2, #0]
 80055f0:	3301      	adds	r3, #1
 80055f2:	6013      	str	r3, [r2, #0]
 80055f4:	6ae2      	ldr	r2, [r4, #44]	; 0x2c
 80055f6:	6463      	str	r3, [r4, #68]	; 0x44
 80055f8:	2501      	movs	r5, #1
 80055fa:	680b      	ldr	r3, [r1, #0]
 80055fc:	fa05 f002 	lsl.w	r0, r5, r2
 8005600:	4303      	orrs	r3, r0
 8005602:	2014      	movs	r0, #20
 8005604:	600b      	str	r3, [r1, #0]
 8005606:	fb00 8002 	mla	r0, r0, r2, r8
 800560a:	4639      	mov	r1, r7
 800560c:	f7ff fb47 	bl	8004c9e <vListInsertEnd>
 8005610:	f7ff f9f0 	bl	80049f4 <vPortExitCritical>
 8005614:	4b13      	ldr	r3, [pc, #76]	; (8005664 <xTaskCreate+0x1b0>)
 8005616:	681b      	ldr	r3, [r3, #0]
 8005618:	b163      	cbz	r3, 8005634 <xTaskCreate+0x180>
 800561a:	6833      	ldr	r3, [r6, #0]
 800561c:	6ada      	ldr	r2, [r3, #44]	; 0x2c
 800561e:	6ae3      	ldr	r3, [r4, #44]	; 0x2c
 8005620:	429a      	cmp	r2, r3
 8005622:	d207      	bcs.n	8005634 <xTaskCreate+0x180>
 8005624:	4b12      	ldr	r3, [pc, #72]	; (8005670 <xTaskCreate+0x1bc>)
 8005626:	f04f 5280 	mov.w	r2, #268435456	; 0x10000000
 800562a:	601a      	str	r2, [r3, #0]
 800562c:	f3bf 8f4f 	dsb	sy
 8005630:	f3bf 8f6f 	isb	sy
 8005634:	4628      	mov	r0, r5
 8005636:	e8bd 8ff8 	ldmia.w	sp!, {r3, r4, r5, r6, r7, r8, r9, sl, fp, pc}
 800563a:	f04f 30ff 	mov.w	r0, #4294967295
 800563e:	e8bd 8ff8 	ldmia.w	sp!, {r3, r4, r5, r6, r7, r8, r9, sl, fp, pc}
 8005642:	bf00      	nop
 8005644:	2000078c 	.word	0x2000078c
 8005648:	20000750 	.word	0x20000750
 800564c:	200006bc 	.word	0x200006bc
 8005650:	20000774 	.word	0x20000774
 8005654:	200006a8 	.word	0x200006a8
 8005658:	20000798 	.word	0x20000798
 800565c:	200006a0 	.word	0x200006a0
 8005660:	20000770 	.word	0x20000770
 8005664:	200006a4 	.word	0x200006a4
 8005668:	20000788 	.word	0x20000788
 800566c:	200007ac 	.word	0x200007ac
 8005670:	e000ed04 	.word	0xe000ed04
 8005674:	200006d4 	.word	0x200006d4
 8005678:	20000758 	.word	0x20000758

0800567c <vTaskResume>:
 800567c:	b570      	push	{r4, r5, r6, lr}
 800567e:	4604      	mov	r4, r0
 8005680:	b940      	cbnz	r0, 8005694 <vTaskResume+0x18>
 8005682:	f04f 03fc 	mov.w	r3, #252	; 0xfc
 8005686:	f383 8811 	msr	BASEPRI, r3
 800568a:	f3bf 8f6f 	isb	sy
 800568e:	f3bf 8f4f 	dsb	sy
 8005692:	e7fe      	b.n	8005692 <vTaskResume+0x16>
 8005694:	4d16      	ldr	r5, [pc, #88]	; (80056f0 <vTaskResume+0x74>)
 8005696:	682b      	ldr	r3, [r5, #0]
 8005698:	4298      	cmp	r0, r3
 800569a:	d028      	beq.n	80056ee <vTaskResume+0x72>
 800569c:	f7ff f988 	bl	80049b0 <vPortEnterCritical>
 80056a0:	4620      	mov	r0, r4
 80056a2:	f7ff fea5 	bl	80053f0 <prvTaskIsTaskSuspended>
 80056a6:	b1f0      	cbz	r0, 80056e6 <vTaskResume+0x6a>
 80056a8:	1d26      	adds	r6, r4, #4
 80056aa:	4630      	mov	r0, r6
 80056ac:	f7ff fb1b 	bl	8004ce6 <uxListRemove>
 80056b0:	4810      	ldr	r0, [pc, #64]	; (80056f4 <vTaskResume+0x78>)
 80056b2:	6ae1      	ldr	r1, [r4, #44]	; 0x2c
 80056b4:	6802      	ldr	r2, [r0, #0]
 80056b6:	2301      	movs	r3, #1
 80056b8:	408b      	lsls	r3, r1
 80056ba:	4313      	orrs	r3, r2
 80056bc:	6003      	str	r3, [r0, #0]
 80056be:	4b0e      	ldr	r3, [pc, #56]	; (80056f8 <vTaskResume+0x7c>)
 80056c0:	2014      	movs	r0, #20
 80056c2:	fb00 3001 	mla	r0, r0, r1, r3
 80056c6:	4631      	mov	r1, r6
 80056c8:	f7ff fae9 	bl	8004c9e <vListInsertEnd>
 80056cc:	682b      	ldr	r3, [r5, #0]
 80056ce:	6ae2      	ldr	r2, [r4, #44]	; 0x2c
 80056d0:	6adb      	ldr	r3, [r3, #44]	; 0x2c
 80056d2:	429a      	cmp	r2, r3
 80056d4:	d307      	bcc.n	80056e6 <vTaskResume+0x6a>
 80056d6:	4b09      	ldr	r3, [pc, #36]	; (80056fc <vTaskResume+0x80>)
 80056d8:	f04f 5280 	mov.w	r2, #268435456	; 0x10000000
 80056dc:	601a      	str	r2, [r3, #0]
 80056de:	f3bf 8f4f 	dsb	sy
 80056e2:	f3bf 8f6f 	isb	sy
 80056e6:	e8bd 4070 	ldmia.w	sp!, {r4, r5, r6, lr}
 80056ea:	f7ff b983 	b.w	80049f4 <vPortExitCritical>
 80056ee:	bd70      	pop	{r4, r5, r6, pc}
 80056f0:	20000750 	.word	0x20000750
 80056f4:	200007ac 	.word	0x200007ac
 80056f8:	200006d4 	.word	0x200006d4
 80056fc:	e000ed04 	.word	0xe000ed04

08005700 <vTaskStartScheduler>:
 8005700:	b513      	push	{r0, r1, r4, lr}
 8005702:	4b19      	ldr	r3, [pc, #100]	; (8005768 <vTaskStartScheduler+0x68>)
 8005704:	9301      	str	r3, [sp, #4]
 8005706:	2400      	movs	r4, #0
 8005708:	9400      	str	r4, [sp, #0]
 800570a:	4818      	ldr	r0, [pc, #96]	; (800576c <vTaskStartScheduler+0x6c>)
 800570c:	4918      	ldr	r1, [pc, #96]	; (8005770 <vTaskStartScheduler+0x70>)
 800570e:	2282      	movs	r2, #130	; 0x82
 8005710:	4623      	mov	r3, r4
 8005712:	f7ff fecf 	bl	80054b4 <xTaskCreate>
 8005716:	2801      	cmp	r0, #1
 8005718:	d118      	bne.n	800574c <vTaskStartScheduler+0x4c>
 800571a:	f000 fb89 	bl	8005e30 <xTimerCreateTimerTask>
 800571e:	2801      	cmp	r0, #1
 8005720:	d114      	bne.n	800574c <vTaskStartScheduler+0x4c>
 8005722:	f04f 03fc 	mov.w	r3, #252	; 0xfc
 8005726:	f383 8811 	msr	BASEPRI, r3
 800572a:	f3bf 8f6f 	isb	sy
 800572e:	f3bf 8f4f 	dsb	sy
 8005732:	4b10      	ldr	r3, [pc, #64]	; (8005774 <vTaskStartScheduler+0x74>)
 8005734:	f04f 32ff 	mov.w	r2, #4294967295
 8005738:	601a      	str	r2, [r3, #0]
 800573a:	4b0f      	ldr	r3, [pc, #60]	; (8005778 <vTaskStartScheduler+0x78>)
 800573c:	6018      	str	r0, [r3, #0]
 800573e:	4b0f      	ldr	r3, [pc, #60]	; (800577c <vTaskStartScheduler+0x7c>)
 8005740:	601c      	str	r4, [r3, #0]
 8005742:	b002      	add	sp, #8
 8005744:	e8bd 4010 	ldmia.w	sp!, {r4, lr}
 8005748:	f7ff b9d2 	b.w	8004af0 <xPortStartScheduler>
 800574c:	3001      	adds	r0, #1
 800574e:	d108      	bne.n	8005762 <vTaskStartScheduler+0x62>
 8005750:	f04f 03fc 	mov.w	r3, #252	; 0xfc
 8005754:	f383 8811 	msr	BASEPRI, r3
 8005758:	f3bf 8f6f 	isb	sy
 800575c:	f3bf 8f4f 	dsb	sy
 8005760:	e7fe      	b.n	8005760 <vTaskStartScheduler+0x60>
 8005762:	b002      	add	sp, #8
 8005764:	bd10      	pop	{r4, pc}
 8005766:	bf00      	nop
 8005768:	20000794 	.word	0x20000794
 800576c:	0800544d 	.word	0x0800544d
 8005770:	080094a8 	.word	0x080094a8
 8005774:	20000754 	.word	0x20000754
 8005778:	200006a4 	.word	0x200006a4
 800577c:	2000076c 	.word	0x2000076c

08005780 <vTaskSuspendAll>:
 8005780:	4a02      	ldr	r2, [pc, #8]	; (800578c <vTaskSuspendAll+0xc>)
 8005782:	6813      	ldr	r3, [r2, #0]
 8005784:	3301      	adds	r3, #1
 8005786:	6013      	str	r3, [r2, #0]
 8005788:	4770      	bx	lr
 800578a:	bf00      	nop
 800578c:	2000074c 	.word	0x2000074c

08005790 <xTaskGetTickCount>:
 8005790:	4b01      	ldr	r3, [pc, #4]	; (8005798 <xTaskGetTickCount+0x8>)
 8005792:	6818      	ldr	r0, [r3, #0]
 8005794:	4770      	bx	lr
 8005796:	bf00      	nop
 8005798:	2000076c 	.word	0x2000076c

0800579c <xTaskIncrementTick>:
 800579c:	4b39      	ldr	r3, [pc, #228]	; (8005884 <xTaskIncrementTick+0xe8>)
 800579e:	681b      	ldr	r3, [r3, #0]
 80057a0:	e92d 47f0 	stmdb	sp!, {r4, r5, r6, r7, r8, r9, sl, lr}
 80057a4:	2b00      	cmp	r3, #0
 80057a6:	d160      	bne.n	800586a <xTaskIncrementTick+0xce>
 80057a8:	4b37      	ldr	r3, [pc, #220]	; (8005888 <xTaskIncrementTick+0xec>)
 80057aa:	681e      	ldr	r6, [r3, #0]
 80057ac:	3601      	adds	r6, #1
 80057ae:	601e      	str	r6, [r3, #0]
 80057b0:	b9be      	cbnz	r6, 80057e2 <xTaskIncrementTick+0x46>
 80057b2:	4b36      	ldr	r3, [pc, #216]	; (800588c <xTaskIncrementTick+0xf0>)
 80057b4:	681a      	ldr	r2, [r3, #0]
 80057b6:	6812      	ldr	r2, [r2, #0]
 80057b8:	b142      	cbz	r2, 80057cc <xTaskIncrementTick+0x30>
 80057ba:	f04f 03fc 	mov.w	r3, #252	; 0xfc
 80057be:	f383 8811 	msr	BASEPRI, r3
 80057c2:	f3bf 8f6f 	isb	sy
 80057c6:	f3bf 8f4f 	dsb	sy
 80057ca:	e7fe      	b.n	80057ca <xTaskIncrementTick+0x2e>
 80057cc:	4a30      	ldr	r2, [pc, #192]	; (8005890 <xTaskIncrementTick+0xf4>)
 80057ce:	6819      	ldr	r1, [r3, #0]
 80057d0:	6810      	ldr	r0, [r2, #0]
 80057d2:	6018      	str	r0, [r3, #0]
 80057d4:	6011      	str	r1, [r2, #0]
 80057d6:	4a2f      	ldr	r2, [pc, #188]	; (8005894 <xTaskIncrementTick+0xf8>)
 80057d8:	6813      	ldr	r3, [r2, #0]
 80057da:	3301      	adds	r3, #1
 80057dc:	6013      	str	r3, [r2, #0]
 80057de:	f7ff fe23 	bl	8005428 <prvResetNextTaskUnblockTime>
 80057e2:	4f2d      	ldr	r7, [pc, #180]	; (8005898 <xTaskIncrementTick+0xfc>)
 80057e4:	f8df 80c0 	ldr.w	r8, [pc, #192]	; 80058a8 <xTaskIncrementTick+0x10c>
 80057e8:	683b      	ldr	r3, [r7, #0]
 80057ea:	f8df 90c0 	ldr.w	r9, [pc, #192]	; 80058ac <xTaskIncrementTick+0x110>
 80057ee:	429e      	cmp	r6, r3
 80057f0:	f04f 0400 	mov.w	r4, #0
 80057f4:	d32e      	bcc.n	8005854 <xTaskIncrementTick+0xb8>
 80057f6:	4b25      	ldr	r3, [pc, #148]	; (800588c <xTaskIncrementTick+0xf0>)
 80057f8:	681a      	ldr	r2, [r3, #0]
 80057fa:	6812      	ldr	r2, [r2, #0]
 80057fc:	b912      	cbnz	r2, 8005804 <xTaskIncrementTick+0x68>
 80057fe:	f04f 33ff 	mov.w	r3, #4294967295
 8005802:	e005      	b.n	8005810 <xTaskIncrementTick+0x74>
 8005804:	681b      	ldr	r3, [r3, #0]
 8005806:	68db      	ldr	r3, [r3, #12]
 8005808:	68dd      	ldr	r5, [r3, #12]
 800580a:	686b      	ldr	r3, [r5, #4]
 800580c:	429e      	cmp	r6, r3
 800580e:	d201      	bcs.n	8005814 <xTaskIncrementTick+0x78>
 8005810:	603b      	str	r3, [r7, #0]
 8005812:	e01f      	b.n	8005854 <xTaskIncrementTick+0xb8>
 8005814:	f105 0a04 	add.w	sl, r5, #4
 8005818:	4650      	mov	r0, sl
 800581a:	f7ff fa64 	bl	8004ce6 <uxListRemove>
 800581e:	6aab      	ldr	r3, [r5, #40]	; 0x28
 8005820:	b11b      	cbz	r3, 800582a <xTaskIncrementTick+0x8e>
 8005822:	f105 0018 	add.w	r0, r5, #24
 8005826:	f7ff fa5e 	bl	8004ce6 <uxListRemove>
 800582a:	481c      	ldr	r0, [pc, #112]	; (800589c <xTaskIncrementTick+0x100>)
 800582c:	6ae9      	ldr	r1, [r5, #44]	; 0x2c
 800582e:	6802      	ldr	r2, [r0, #0]
 8005830:	2301      	movs	r3, #1
 8005832:	408b      	lsls	r3, r1
 8005834:	4313      	orrs	r3, r2
 8005836:	6003      	str	r3, [r0, #0]
 8005838:	2014      	movs	r0, #20
 800583a:	fb00 8001 	mla	r0, r0, r1, r8
 800583e:	4651      	mov	r1, sl
 8005840:	f7ff fa2d 	bl	8004c9e <vListInsertEnd>
 8005844:	f8d9 3000 	ldr.w	r3, [r9]
 8005848:	6aea      	ldr	r2, [r5, #44]	; 0x2c
 800584a:	6adb      	ldr	r3, [r3, #44]	; 0x2c
 800584c:	429a      	cmp	r2, r3
 800584e:	bf28      	it	cs
 8005850:	2401      	movcs	r4, #1
 8005852:	e7d0      	b.n	80057f6 <xTaskIncrementTick+0x5a>
 8005854:	f8d9 3000 	ldr.w	r3, [r9]
 8005858:	6ada      	ldr	r2, [r3, #44]	; 0x2c
 800585a:	2314      	movs	r3, #20
 800585c:	4353      	muls	r3, r2
 800585e:	f858 3003 	ldr.w	r3, [r8, r3]
 8005862:	2b02      	cmp	r3, #2
 8005864:	bf28      	it	cs
 8005866:	2401      	movcs	r4, #1
 8005868:	e004      	b.n	8005874 <xTaskIncrementTick+0xd8>
 800586a:	4a0d      	ldr	r2, [pc, #52]	; (80058a0 <xTaskIncrementTick+0x104>)
 800586c:	6813      	ldr	r3, [r2, #0]
 800586e:	3301      	adds	r3, #1
 8005870:	6013      	str	r3, [r2, #0]
 8005872:	2400      	movs	r4, #0
 8005874:	4b0b      	ldr	r3, [pc, #44]	; (80058a4 <xTaskIncrementTick+0x108>)
 8005876:	681b      	ldr	r3, [r3, #0]
 8005878:	2b00      	cmp	r3, #0
 800587a:	bf0c      	ite	eq
 800587c:	4620      	moveq	r0, r4
 800587e:	2001      	movne	r0, #1
 8005880:	e8bd 87f0 	ldmia.w	sp!, {r4, r5, r6, r7, r8, r9, sl, pc}
 8005884:	2000074c 	.word	0x2000074c
 8005888:	2000076c 	.word	0x2000076c
 800588c:	200006a0 	.word	0x200006a0
 8005890:	20000770 	.word	0x20000770
 8005894:	2000069c 	.word	0x2000069c
 8005898:	20000754 	.word	0x20000754
 800589c:	200007ac 	.word	0x200007ac
 80058a0:	200006d0 	.word	0x200006d0
 80058a4:	200007b0 	.word	0x200007b0
 80058a8:	200006d4 	.word	0x200006d4
 80058ac:	20000750 	.word	0x20000750

080058b0 <xTaskResumeAll>:
 80058b0:	b570      	push	{r4, r5, r6, lr}
 80058b2:	4c2f      	ldr	r4, [pc, #188]	; (8005970 <xTaskResumeAll+0xc0>)
 80058b4:	6823      	ldr	r3, [r4, #0]
 80058b6:	b943      	cbnz	r3, 80058ca <xTaskResumeAll+0x1a>
 80058b8:	f04f 03fc 	mov.w	r3, #252	; 0xfc
 80058bc:	f383 8811 	msr	BASEPRI, r3
 80058c0:	f3bf 8f6f 	isb	sy
 80058c4:	f3bf 8f4f 	dsb	sy
 80058c8:	e7fe      	b.n	80058c8 <xTaskResumeAll+0x18>
 80058ca:	f7ff f871 	bl	80049b0 <vPortEnterCritical>
 80058ce:	6823      	ldr	r3, [r4, #0]
 80058d0:	3b01      	subs	r3, #1
 80058d2:	6023      	str	r3, [r4, #0]
 80058d4:	6824      	ldr	r4, [r4, #0]
 80058d6:	b10c      	cbz	r4, 80058dc <xTaskResumeAll+0x2c>
 80058d8:	2400      	movs	r4, #0
 80058da:	e045      	b.n	8005968 <xTaskResumeAll+0xb8>
 80058dc:	4b25      	ldr	r3, [pc, #148]	; (8005974 <xTaskResumeAll+0xc4>)
 80058de:	681b      	ldr	r3, [r3, #0]
 80058e0:	2b00      	cmp	r3, #0
 80058e2:	d0f9      	beq.n	80058d8 <xTaskResumeAll+0x28>
 80058e4:	4b24      	ldr	r3, [pc, #144]	; (8005978 <xTaskResumeAll+0xc8>)
 80058e6:	681a      	ldr	r2, [r3, #0]
 80058e8:	b30a      	cbz	r2, 800592e <xTaskResumeAll+0x7e>
 80058ea:	68db      	ldr	r3, [r3, #12]
 80058ec:	68dc      	ldr	r4, [r3, #12]
 80058ee:	1d26      	adds	r6, r4, #4
 80058f0:	f104 0018 	add.w	r0, r4, #24
 80058f4:	f7ff f9f7 	bl	8004ce6 <uxListRemove>
 80058f8:	4630      	mov	r0, r6
 80058fa:	f7ff f9f4 	bl	8004ce6 <uxListRemove>
 80058fe:	491f      	ldr	r1, [pc, #124]	; (800597c <xTaskResumeAll+0xcc>)
 8005900:	6ae2      	ldr	r2, [r4, #44]	; 0x2c
 8005902:	680b      	ldr	r3, [r1, #0]
 8005904:	2501      	movs	r5, #1
 8005906:	fa05 f002 	lsl.w	r0, r5, r2
 800590a:	4303      	orrs	r3, r0
 800590c:	600b      	str	r3, [r1, #0]
 800590e:	4b1c      	ldr	r3, [pc, #112]	; (8005980 <xTaskResumeAll+0xd0>)
 8005910:	2014      	movs	r0, #20
 8005912:	fb00 3002 	mla	r0, r0, r2, r3
 8005916:	4631      	mov	r1, r6
 8005918:	f7ff f9c1 	bl	8004c9e <vListInsertEnd>
 800591c:	4b19      	ldr	r3, [pc, #100]	; (8005984 <xTaskResumeAll+0xd4>)
 800591e:	6ae2      	ldr	r2, [r4, #44]	; 0x2c
 8005920:	681b      	ldr	r3, [r3, #0]
 8005922:	6adb      	ldr	r3, [r3, #44]	; 0x2c
 8005924:	429a      	cmp	r2, r3
 8005926:	bf24      	itt	cs
 8005928:	4b17      	ldrcs	r3, [pc, #92]	; (8005988 <xTaskResumeAll+0xd8>)
 800592a:	601d      	strcs	r5, [r3, #0]
 800592c:	e7da      	b.n	80058e4 <xTaskResumeAll+0x34>
 800592e:	b10c      	cbz	r4, 8005934 <xTaskResumeAll+0x84>
 8005930:	f7ff fd7a 	bl	8005428 <prvResetNextTaskUnblockTime>
 8005934:	4b15      	ldr	r3, [pc, #84]	; (800598c <xTaskResumeAll+0xdc>)
 8005936:	681c      	ldr	r4, [r3, #0]
 8005938:	461d      	mov	r5, r3
 800593a:	b144      	cbz	r4, 800594e <xTaskResumeAll+0x9e>
 800593c:	f7ff ff2e 	bl	800579c <xTaskIncrementTick>
 8005940:	b110      	cbz	r0, 8005948 <xTaskResumeAll+0x98>
 8005942:	4b11      	ldr	r3, [pc, #68]	; (8005988 <xTaskResumeAll+0xd8>)
 8005944:	2201      	movs	r2, #1
 8005946:	601a      	str	r2, [r3, #0]
 8005948:	3c01      	subs	r4, #1
 800594a:	d1f7      	bne.n	800593c <xTaskResumeAll+0x8c>
 800594c:	602c      	str	r4, [r5, #0]
 800594e:	4b0e      	ldr	r3, [pc, #56]	; (8005988 <xTaskResumeAll+0xd8>)
 8005950:	681b      	ldr	r3, [r3, #0]
 8005952:	2b00      	cmp	r3, #0
 8005954:	d0c0      	beq.n	80058d8 <xTaskResumeAll+0x28>
 8005956:	4b0e      	ldr	r3, [pc, #56]	; (8005990 <xTaskResumeAll+0xe0>)
 8005958:	f04f 5280 	mov.w	r2, #268435456	; 0x10000000
 800595c:	601a      	str	r2, [r3, #0]
 800595e:	f3bf 8f4f 	dsb	sy
 8005962:	f3bf 8f6f 	isb	sy
 8005966:	2401      	movs	r4, #1
 8005968:	f7ff f844 	bl	80049f4 <vPortExitCritical>
 800596c:	4620      	mov	r0, r4
 800596e:	bd70      	pop	{r4, r5, r6, pc}
 8005970:	2000074c 	.word	0x2000074c
 8005974:	2000078c 	.word	0x2000078c
 8005978:	20000774 	.word	0x20000774
 800597c:	200007ac 	.word	0x200007ac
 8005980:	200006d4 	.word	0x200006d4
 8005984:	20000750 	.word	0x20000750
 8005988:	200007b0 	.word	0x200007b0
 800598c:	200006d0 	.word	0x200006d0
 8005990:	e000ed04 	.word	0xe000ed04

08005994 <vTaskDelay>:
 8005994:	b538      	push	{r3, r4, r5, lr}
 8005996:	4605      	mov	r5, r0
 8005998:	b940      	cbnz	r0, 80059ac <vTaskDelay+0x18>
 800599a:	4b10      	ldr	r3, [pc, #64]	; (80059dc <vTaskDelay+0x48>)
 800599c:	f04f 5280 	mov.w	r2, #268435456	; 0x10000000
 80059a0:	601a      	str	r2, [r3, #0]
 80059a2:	f3bf 8f4f 	dsb	sy
 80059a6:	f3bf 8f6f 	isb	sy
 80059aa:	bd38      	pop	{r3, r4, r5, pc}
 80059ac:	4b0c      	ldr	r3, [pc, #48]	; (80059e0 <vTaskDelay+0x4c>)
 80059ae:	681c      	ldr	r4, [r3, #0]
 80059b0:	b144      	cbz	r4, 80059c4 <vTaskDelay+0x30>
 80059b2:	f04f 03fc 	mov.w	r3, #252	; 0xfc
 80059b6:	f383 8811 	msr	BASEPRI, r3
 80059ba:	f3bf 8f6f 	isb	sy
 80059be:	f3bf 8f4f 	dsb	sy
 80059c2:	e7fe      	b.n	80059c2 <vTaskDelay+0x2e>
 80059c4:	f7ff fedc 	bl	8005780 <vTaskSuspendAll>
 80059c8:	4628      	mov	r0, r5
 80059ca:	4621      	mov	r1, r4
 80059cc:	f7ff fcc6 	bl	800535c <prvAddCurrentTaskToDelayedList>
 80059d0:	f7ff ff6e 	bl	80058b0 <xTaskResumeAll>
 80059d4:	2800      	cmp	r0, #0
 80059d6:	d0e0      	beq.n	800599a <vTaskDelay+0x6>
 80059d8:	bd38      	pop	{r3, r4, r5, pc}
 80059da:	bf00      	nop
 80059dc:	e000ed04 	.word	0xe000ed04
 80059e0:	2000074c 	.word	0x2000074c

080059e4 <vTaskSwitchContext>:
 80059e4:	4b17      	ldr	r3, [pc, #92]	; (8005a44 <vTaskSwitchContext+0x60>)
 80059e6:	681a      	ldr	r2, [r3, #0]
 80059e8:	4b17      	ldr	r3, [pc, #92]	; (8005a48 <vTaskSwitchContext+0x64>)
 80059ea:	b510      	push	{r4, lr}
 80059ec:	b10a      	cbz	r2, 80059f2 <vTaskSwitchContext+0xe>
 80059ee:	2201      	movs	r2, #1
 80059f0:	e025      	b.n	8005a3e <vTaskSwitchContext+0x5a>
 80059f2:	601a      	str	r2, [r3, #0]
 80059f4:	4b15      	ldr	r3, [pc, #84]	; (8005a4c <vTaskSwitchContext+0x68>)
 80059f6:	681b      	ldr	r3, [r3, #0]
 80059f8:	fab3 f383 	clz	r3, r3
 80059fc:	b2db      	uxtb	r3, r3
 80059fe:	f1c3 031f 	rsb	r3, r3, #31
 8005a02:	2214      	movs	r2, #20
 8005a04:	4912      	ldr	r1, [pc, #72]	; (8005a50 <vTaskSwitchContext+0x6c>)
 8005a06:	435a      	muls	r2, r3
 8005a08:	1888      	adds	r0, r1, r2
 8005a0a:	588c      	ldr	r4, [r1, r2]
 8005a0c:	b944      	cbnz	r4, 8005a20 <vTaskSwitchContext+0x3c>
 8005a0e:	f04f 03fc 	mov.w	r3, #252	; 0xfc
 8005a12:	f383 8811 	msr	BASEPRI, r3
 8005a16:	f3bf 8f6f 	isb	sy
 8005a1a:	f3bf 8f4f 	dsb	sy
 8005a1e:	e7fe      	b.n	8005a1e <vTaskSwitchContext+0x3a>
 8005a20:	6844      	ldr	r4, [r0, #4]
 8005a22:	3208      	adds	r2, #8
 8005a24:	6864      	ldr	r4, [r4, #4]
 8005a26:	6044      	str	r4, [r0, #4]
 8005a28:	440a      	add	r2, r1
 8005a2a:	4294      	cmp	r4, r2
 8005a2c:	bf04      	itt	eq
 8005a2e:	6862      	ldreq	r2, [r4, #4]
 8005a30:	6042      	streq	r2, [r0, #4]
 8005a32:	2214      	movs	r2, #20
 8005a34:	fb02 1303 	mla	r3, r2, r3, r1
 8005a38:	685b      	ldr	r3, [r3, #4]
 8005a3a:	68da      	ldr	r2, [r3, #12]
 8005a3c:	4b05      	ldr	r3, [pc, #20]	; (8005a54 <vTaskSwitchContext+0x70>)
 8005a3e:	601a      	str	r2, [r3, #0]
 8005a40:	bd10      	pop	{r4, pc}
 8005a42:	bf00      	nop
 8005a44:	2000074c 	.word	0x2000074c
 8005a48:	200007b0 	.word	0x200007b0
 8005a4c:	200007ac 	.word	0x200007ac
 8005a50:	200006d4 	.word	0x200006d4
 8005a54:	20000750 	.word	0x20000750

08005a58 <vTaskSuspend>:
 8005a58:	b570      	push	{r4, r5, r6, lr}
 8005a5a:	4604      	mov	r4, r0
 8005a5c:	4e2d      	ldr	r6, [pc, #180]	; (8005b14 <vTaskSuspend+0xbc>)
 8005a5e:	f7fe ffa7 	bl	80049b0 <vPortEnterCritical>
 8005a62:	b904      	cbnz	r4, 8005a66 <vTaskSuspend+0xe>
 8005a64:	6834      	ldr	r4, [r6, #0]
 8005a66:	1d25      	adds	r5, r4, #4
 8005a68:	4628      	mov	r0, r5
 8005a6a:	f7ff f93c 	bl	8004ce6 <uxListRemove>
 8005a6e:	b960      	cbnz	r0, 8005a8a <vTaskSuspend+0x32>
 8005a70:	6ae0      	ldr	r0, [r4, #44]	; 0x2c
 8005a72:	4a29      	ldr	r2, [pc, #164]	; (8005b18 <vTaskSuspend+0xc0>)
 8005a74:	2314      	movs	r3, #20
 8005a76:	4343      	muls	r3, r0
 8005a78:	58d3      	ldr	r3, [r2, r3]
 8005a7a:	b933      	cbnz	r3, 8005a8a <vTaskSuspend+0x32>
 8005a7c:	4927      	ldr	r1, [pc, #156]	; (8005b1c <vTaskSuspend+0xc4>)
 8005a7e:	2301      	movs	r3, #1
 8005a80:	680a      	ldr	r2, [r1, #0]
 8005a82:	4083      	lsls	r3, r0
 8005a84:	ea22 0303 	bic.w	r3, r2, r3
 8005a88:	600b      	str	r3, [r1, #0]
 8005a8a:	6aa3      	ldr	r3, [r4, #40]	; 0x28
 8005a8c:	b11b      	cbz	r3, 8005a96 <vTaskSuspend+0x3e>
 8005a8e:	f104 0018 	add.w	r0, r4, #24
 8005a92:	f7ff f928 	bl	8004ce6 <uxListRemove>
 8005a96:	4629      	mov	r1, r5
 8005a98:	4821      	ldr	r0, [pc, #132]	; (8005b20 <vTaskSuspend+0xc8>)
 8005a9a:	f7ff f900 	bl	8004c9e <vListInsertEnd>
 8005a9e:	f894 306c 	ldrb.w	r3, [r4, #108]	; 0x6c
 8005aa2:	2b01      	cmp	r3, #1
 8005aa4:	bf04      	itt	eq
 8005aa6:	2300      	moveq	r3, #0
 8005aa8:	f884 306c 	strbeq.w	r3, [r4, #108]	; 0x6c
 8005aac:	f7fe ffa2 	bl	80049f4 <vPortExitCritical>
 8005ab0:	4b1c      	ldr	r3, [pc, #112]	; (8005b24 <vTaskSuspend+0xcc>)
 8005ab2:	681a      	ldr	r2, [r3, #0]
 8005ab4:	461d      	mov	r5, r3
 8005ab6:	b12a      	cbz	r2, 8005ac4 <vTaskSuspend+0x6c>
 8005ab8:	f7fe ff7a 	bl	80049b0 <vPortEnterCritical>
 8005abc:	f7ff fcb4 	bl	8005428 <prvResetNextTaskUnblockTime>
 8005ac0:	f7fe ff98 	bl	80049f4 <vPortExitCritical>
 8005ac4:	6833      	ldr	r3, [r6, #0]
 8005ac6:	429c      	cmp	r4, r3
 8005ac8:	d123      	bne.n	8005b12 <vTaskSuspend+0xba>
 8005aca:	682b      	ldr	r3, [r5, #0]
 8005acc:	b1a3      	cbz	r3, 8005af8 <vTaskSuspend+0xa0>
 8005ace:	4b16      	ldr	r3, [pc, #88]	; (8005b28 <vTaskSuspend+0xd0>)
 8005ad0:	681b      	ldr	r3, [r3, #0]
 8005ad2:	b143      	cbz	r3, 8005ae6 <vTaskSuspend+0x8e>
 8005ad4:	f04f 03fc 	mov.w	r3, #252	; 0xfc
 8005ad8:	f383 8811 	msr	BASEPRI, r3
 8005adc:	f3bf 8f6f 	isb	sy
 8005ae0:	f3bf 8f4f 	dsb	sy
 8005ae4:	e7fe      	b.n	8005ae4 <vTaskSuspend+0x8c>
 8005ae6:	4b11      	ldr	r3, [pc, #68]	; (8005b2c <vTaskSuspend+0xd4>)
 8005ae8:	f04f 5280 	mov.w	r2, #268435456	; 0x10000000
 8005aec:	601a      	str	r2, [r3, #0]
 8005aee:	f3bf 8f4f 	dsb	sy
 8005af2:	f3bf 8f6f 	isb	sy
 8005af6:	bd70      	pop	{r4, r5, r6, pc}
 8005af8:	4a09      	ldr	r2, [pc, #36]	; (8005b20 <vTaskSuspend+0xc8>)
 8005afa:	6811      	ldr	r1, [r2, #0]
 8005afc:	4a0c      	ldr	r2, [pc, #48]	; (8005b30 <vTaskSuspend+0xd8>)
 8005afe:	6812      	ldr	r2, [r2, #0]
 8005b00:	4291      	cmp	r1, r2
 8005b02:	d102      	bne.n	8005b0a <vTaskSuspend+0xb2>
 8005b04:	4a03      	ldr	r2, [pc, #12]	; (8005b14 <vTaskSuspend+0xbc>)
 8005b06:	6013      	str	r3, [r2, #0]
 8005b08:	bd70      	pop	{r4, r5, r6, pc}
 8005b0a:	e8bd 4070 	ldmia.w	sp!, {r4, r5, r6, lr}
 8005b0e:	f7ff bf69 	b.w	80059e4 <vTaskSwitchContext>
 8005b12:	bd70      	pop	{r4, r5, r6, pc}
 8005b14:	20000750 	.word	0x20000750
 8005b18:	200006d4 	.word	0x200006d4
 8005b1c:	200007ac 	.word	0x200007ac
 8005b20:	20000798 	.word	0x20000798
 8005b24:	200006a4 	.word	0x200006a4
 8005b28:	2000074c 	.word	0x2000074c
 8005b2c:	e000ed04 	.word	0xe000ed04
 8005b30:	2000078c 	.word	0x2000078c

08005b34 <vTaskPlaceOnEventList>:
 8005b34:	b510      	push	{r4, lr}
 8005b36:	460c      	mov	r4, r1
 8005b38:	b940      	cbnz	r0, 8005b4c <vTaskPlaceOnEventList+0x18>
 8005b3a:	f04f 03fc 	mov.w	r3, #252	; 0xfc
 8005b3e:	f383 8811 	msr	BASEPRI, r3
 8005b42:	f3bf 8f6f 	isb	sy
 8005b46:	f3bf 8f4f 	dsb	sy
 8005b4a:	e7fe      	b.n	8005b4a <vTaskPlaceOnEventList+0x16>
 8005b4c:	4b05      	ldr	r3, [pc, #20]	; (8005b64 <vTaskPlaceOnEventList+0x30>)
 8005b4e:	6819      	ldr	r1, [r3, #0]
 8005b50:	3118      	adds	r1, #24
 8005b52:	f7ff f8b0 	bl	8004cb6 <vListInsert>
 8005b56:	4620      	mov	r0, r4
 8005b58:	2101      	movs	r1, #1
 8005b5a:	e8bd 4010 	ldmia.w	sp!, {r4, lr}
 8005b5e:	f7ff bbfd 	b.w	800535c <prvAddCurrentTaskToDelayedList>
 8005b62:	bf00      	nop
 8005b64:	20000750 	.word	0x20000750

08005b68 <vTaskPlaceOnEventListRestricted>:
 8005b68:	b538      	push	{r3, r4, r5, lr}
 8005b6a:	460d      	mov	r5, r1
 8005b6c:	4614      	mov	r4, r2
 8005b6e:	b940      	cbnz	r0, 8005b82 <vTaskPlaceOnEventListRestricted+0x1a>
 8005b70:	f04f 03fc 	mov.w	r3, #252	; 0xfc
 8005b74:	f383 8811 	msr	BASEPRI, r3
 8005b78:	f3bf 8f6f 	isb	sy
 8005b7c:	f3bf 8f4f 	dsb	sy
 8005b80:	e7fe      	b.n	8005b80 <vTaskPlaceOnEventListRestricted+0x18>
 8005b82:	4b08      	ldr	r3, [pc, #32]	; (8005ba4 <vTaskPlaceOnEventListRestricted+0x3c>)
 8005b84:	6819      	ldr	r1, [r3, #0]
 8005b86:	3118      	adds	r1, #24
 8005b88:	f7ff f889 	bl	8004c9e <vListInsertEnd>
 8005b8c:	2c00      	cmp	r4, #0
 8005b8e:	bf08      	it	eq
 8005b90:	4628      	moveq	r0, r5
 8005b92:	4621      	mov	r1, r4
 8005b94:	bf18      	it	ne
 8005b96:	f04f 30ff 	movne.w	r0, #4294967295
 8005b9a:	e8bd 4038 	ldmia.w	sp!, {r3, r4, r5, lr}
 8005b9e:	f7ff bbdd 	b.w	800535c <prvAddCurrentTaskToDelayedList>
 8005ba2:	bf00      	nop
 8005ba4:	20000750 	.word	0x20000750

08005ba8 <xTaskRemoveFromEventList>:
 8005ba8:	b538      	push	{r3, r4, r5, lr}
 8005baa:	68c3      	ldr	r3, [r0, #12]
 8005bac:	68dc      	ldr	r4, [r3, #12]
 8005bae:	b944      	cbnz	r4, 8005bc2 <xTaskRemoveFromEventList+0x1a>
 8005bb0:	f04f 03fc 	mov.w	r3, #252	; 0xfc
 8005bb4:	f383 8811 	msr	BASEPRI, r3
 8005bb8:	f3bf 8f6f 	isb	sy
 8005bbc:	f3bf 8f4f 	dsb	sy
 8005bc0:	e7fe      	b.n	8005bc0 <xTaskRemoveFromEventList+0x18>
 8005bc2:	f104 0518 	add.w	r5, r4, #24
 8005bc6:	4628      	mov	r0, r5
 8005bc8:	f7ff f88d 	bl	8004ce6 <uxListRemove>
 8005bcc:	4b10      	ldr	r3, [pc, #64]	; (8005c10 <xTaskRemoveFromEventList+0x68>)
 8005bce:	681b      	ldr	r3, [r3, #0]
 8005bd0:	b97b      	cbnz	r3, 8005bf2 <xTaskRemoveFromEventList+0x4a>
 8005bd2:	1d25      	adds	r5, r4, #4
 8005bd4:	4628      	mov	r0, r5
 8005bd6:	f7ff f886 	bl	8004ce6 <uxListRemove>
 8005bda:	480e      	ldr	r0, [pc, #56]	; (8005c14 <xTaskRemoveFromEventList+0x6c>)
 8005bdc:	6ae1      	ldr	r1, [r4, #44]	; 0x2c
 8005bde:	6802      	ldr	r2, [r0, #0]
 8005be0:	2301      	movs	r3, #1
 8005be2:	408b      	lsls	r3, r1
 8005be4:	4313      	orrs	r3, r2
 8005be6:	6003      	str	r3, [r0, #0]
 8005be8:	4b0b      	ldr	r3, [pc, #44]	; (8005c18 <xTaskRemoveFromEventList+0x70>)
 8005bea:	2014      	movs	r0, #20
 8005bec:	fb00 3001 	mla	r0, r0, r1, r3
 8005bf0:	e000      	b.n	8005bf4 <xTaskRemoveFromEventList+0x4c>
 8005bf2:	480a      	ldr	r0, [pc, #40]	; (8005c1c <xTaskRemoveFromEventList+0x74>)
 8005bf4:	4629      	mov	r1, r5
 8005bf6:	f7ff f852 	bl	8004c9e <vListInsertEnd>
 8005bfa:	4b09      	ldr	r3, [pc, #36]	; (8005c20 <xTaskRemoveFromEventList+0x78>)
 8005bfc:	6ae2      	ldr	r2, [r4, #44]	; 0x2c
 8005bfe:	681b      	ldr	r3, [r3, #0]
 8005c00:	6adb      	ldr	r3, [r3, #44]	; 0x2c
 8005c02:	429a      	cmp	r2, r3
 8005c04:	bf83      	ittte	hi
 8005c06:	4b07      	ldrhi	r3, [pc, #28]	; (8005c24 <xTaskRemoveFromEventList+0x7c>)
 8005c08:	2001      	movhi	r0, #1
 8005c0a:	6018      	strhi	r0, [r3, #0]
 8005c0c:	2000      	movls	r0, #0
 8005c0e:	bd38      	pop	{r3, r4, r5, pc}
 8005c10:	2000074c 	.word	0x2000074c
 8005c14:	200007ac 	.word	0x200007ac
 8005c18:	200006d4 	.word	0x200006d4
 8005c1c:	20000774 	.word	0x20000774
 8005c20:	20000750 	.word	0x20000750
 8005c24:	200007b0 	.word	0x200007b0

08005c28 <vTaskInternalSetTimeOutState>:
 8005c28:	4b03      	ldr	r3, [pc, #12]	; (8005c38 <vTaskInternalSetTimeOutState+0x10>)
 8005c2a:	681b      	ldr	r3, [r3, #0]
 8005c2c:	6003      	str	r3, [r0, #0]
 8005c2e:	4b03      	ldr	r3, [pc, #12]	; (8005c3c <vTaskInternalSetTimeOutState+0x14>)
 8005c30:	681b      	ldr	r3, [r3, #0]
 8005c32:	6043      	str	r3, [r0, #4]
 8005c34:	4770      	bx	lr
 8005c36:	bf00      	nop
 8005c38:	2000069c 	.word	0x2000069c
 8005c3c:	2000076c 	.word	0x2000076c

08005c40 <xTaskCheckForTimeOut>:
 8005c40:	b570      	push	{r4, r5, r6, lr}
 8005c42:	460d      	mov	r5, r1
 8005c44:	4606      	mov	r6, r0
 8005c46:	b940      	cbnz	r0, 8005c5a <xTaskCheckForTimeOut+0x1a>
 8005c48:	f04f 03fc 	mov.w	r3, #252	; 0xfc
 8005c4c:	f383 8811 	msr	BASEPRI, r3
 8005c50:	f3bf 8f6f 	isb	sy
 8005c54:	f3bf 8f4f 	dsb	sy
 8005c58:	e7fe      	b.n	8005c58 <xTaskCheckForTimeOut+0x18>
 8005c5a:	b941      	cbnz	r1, 8005c6e <xTaskCheckForTimeOut+0x2e>
 8005c5c:	f04f 03fc 	mov.w	r3, #252	; 0xfc
 8005c60:	f383 8811 	msr	BASEPRI, r3
 8005c64:	f3bf 8f6f 	isb	sy
 8005c68:	f3bf 8f4f 	dsb	sy
 8005c6c:	e7fe      	b.n	8005c6c <xTaskCheckForTimeOut+0x2c>
 8005c6e:	f7fe fe9f 	bl	80049b0 <vPortEnterCritical>
 8005c72:	4b14      	ldr	r3, [pc, #80]	; (8005cc4 <xTaskCheckForTimeOut+0x84>)
 8005c74:	6871      	ldr	r1, [r6, #4]
 8005c76:	681a      	ldr	r2, [r3, #0]
 8005c78:	4b13      	ldr	r3, [pc, #76]	; (8005cc8 <xTaskCheckForTimeOut+0x88>)
 8005c7a:	6818      	ldr	r0, [r3, #0]
 8005c7c:	f890 406d 	ldrb.w	r4, [r0, #109]	; 0x6d
 8005c80:	b124      	cbz	r4, 8005c8c <xTaskCheckForTimeOut+0x4c>
 8005c82:	681b      	ldr	r3, [r3, #0]
 8005c84:	2200      	movs	r2, #0
 8005c86:	f883 206d 	strb.w	r2, [r3, #109]	; 0x6d
 8005c8a:	e015      	b.n	8005cb8 <xTaskCheckForTimeOut+0x78>
 8005c8c:	682b      	ldr	r3, [r5, #0]
 8005c8e:	1c58      	adds	r0, r3, #1
 8005c90:	d013      	beq.n	8005cba <xTaskCheckForTimeOut+0x7a>
 8005c92:	480e      	ldr	r0, [pc, #56]	; (8005ccc <xTaskCheckForTimeOut+0x8c>)
 8005c94:	6804      	ldr	r4, [r0, #0]
 8005c96:	6830      	ldr	r0, [r6, #0]
 8005c98:	4284      	cmp	r4, r0
 8005c9a:	d001      	beq.n	8005ca0 <xTaskCheckForTimeOut+0x60>
 8005c9c:	428a      	cmp	r2, r1
 8005c9e:	d20b      	bcs.n	8005cb8 <xTaskCheckForTimeOut+0x78>
 8005ca0:	1a52      	subs	r2, r2, r1
 8005ca2:	429a      	cmp	r2, r3
 8005ca4:	d206      	bcs.n	8005cb4 <xTaskCheckForTimeOut+0x74>
 8005ca6:	1a9b      	subs	r3, r3, r2
 8005ca8:	602b      	str	r3, [r5, #0]
 8005caa:	4630      	mov	r0, r6
 8005cac:	f7ff ffbc 	bl	8005c28 <vTaskInternalSetTimeOutState>
 8005cb0:	2400      	movs	r4, #0
 8005cb2:	e002      	b.n	8005cba <xTaskCheckForTimeOut+0x7a>
 8005cb4:	2300      	movs	r3, #0
 8005cb6:	602b      	str	r3, [r5, #0]
 8005cb8:	2401      	movs	r4, #1
 8005cba:	f7fe fe9b 	bl	80049f4 <vPortExitCritical>
 8005cbe:	4620      	mov	r0, r4
 8005cc0:	bd70      	pop	{r4, r5, r6, pc}
 8005cc2:	bf00      	nop
 8005cc4:	2000076c 	.word	0x2000076c
 8005cc8:	20000750 	.word	0x20000750
 8005ccc:	2000069c 	.word	0x2000069c

08005cd0 <vTaskMissedYield>:
 8005cd0:	4b01      	ldr	r3, [pc, #4]	; (8005cd8 <vTaskMissedYield+0x8>)
 8005cd2:	2201      	movs	r2, #1
 8005cd4:	601a      	str	r2, [r3, #0]
 8005cd6:	4770      	bx	lr
 8005cd8:	200007b0 	.word	0x200007b0

08005cdc <xTaskGetSchedulerState>:
 8005cdc:	4b05      	ldr	r3, [pc, #20]	; (8005cf4 <xTaskGetSchedulerState+0x18>)
 8005cde:	681b      	ldr	r3, [r3, #0]
 8005ce0:	b133      	cbz	r3, 8005cf0 <xTaskGetSchedulerState+0x14>
 8005ce2:	4b05      	ldr	r3, [pc, #20]	; (8005cf8 <xTaskGetSchedulerState+0x1c>)
 8005ce4:	681b      	ldr	r3, [r3, #0]
 8005ce6:	2b00      	cmp	r3, #0
 8005ce8:	bf0c      	ite	eq
 8005cea:	2002      	moveq	r0, #2
 8005cec:	2000      	movne	r0, #0
 8005cee:	4770      	bx	lr
 8005cf0:	2001      	movs	r0, #1
 8005cf2:	4770      	bx	lr
 8005cf4:	200006a4 	.word	0x200006a4
 8005cf8:	2000074c 	.word	0x2000074c

08005cfc <xTaskPriorityDisinherit>:
 8005cfc:	b570      	push	{r4, r5, r6, lr}
 8005cfe:	4604      	mov	r4, r0
 8005d00:	b908      	cbnz	r0, 8005d06 <xTaskPriorityDisinherit+0xa>
 8005d02:	2000      	movs	r0, #0
 8005d04:	bd70      	pop	{r4, r5, r6, pc}
 8005d06:	4b22      	ldr	r3, [pc, #136]	; (8005d90 <xTaskPriorityDisinherit+0x94>)
 8005d08:	681b      	ldr	r3, [r3, #0]
 8005d0a:	4298      	cmp	r0, r3
 8005d0c:	d008      	beq.n	8005d20 <xTaskPriorityDisinherit+0x24>
 8005d0e:	f04f 03fc 	mov.w	r3, #252	; 0xfc
 8005d12:	f383 8811 	msr	BASEPRI, r3
 8005d16:	f3bf 8f6f 	isb	sy
 8005d1a:	f3bf 8f4f 	dsb	sy
 8005d1e:	e7fe      	b.n	8005d1e <xTaskPriorityDisinherit+0x22>
 8005d20:	6d03      	ldr	r3, [r0, #80]	; 0x50
 8005d22:	b943      	cbnz	r3, 8005d36 <xTaskPriorityDisinherit+0x3a>
 8005d24:	f04f 03fc 	mov.w	r3, #252	; 0xfc
 8005d28:	f383 8811 	msr	BASEPRI, r3
 8005d2c:	f3bf 8f6f 	isb	sy
 8005d30:	f3bf 8f4f 	dsb	sy
 8005d34:	e7fe      	b.n	8005d34 <xTaskPriorityDisinherit+0x38>
 8005d36:	6ac1      	ldr	r1, [r0, #44]	; 0x2c
 8005d38:	6cc2      	ldr	r2, [r0, #76]	; 0x4c
 8005d3a:	3b01      	subs	r3, #1
 8005d3c:	4291      	cmp	r1, r2
 8005d3e:	6503      	str	r3, [r0, #80]	; 0x50
 8005d40:	d0df      	beq.n	8005d02 <xTaskPriorityDisinherit+0x6>
 8005d42:	2b00      	cmp	r3, #0
 8005d44:	d1dd      	bne.n	8005d02 <xTaskPriorityDisinherit+0x6>
 8005d46:	1d05      	adds	r5, r0, #4
 8005d48:	4628      	mov	r0, r5
 8005d4a:	f7fe ffcc 	bl	8004ce6 <uxListRemove>
 8005d4e:	4911      	ldr	r1, [pc, #68]	; (8005d94 <xTaskPriorityDisinherit+0x98>)
 8005d50:	4a11      	ldr	r2, [pc, #68]	; (8005d98 <xTaskPriorityDisinherit+0x9c>)
 8005d52:	b950      	cbnz	r0, 8005d6a <xTaskPriorityDisinherit+0x6e>
 8005d54:	6ae6      	ldr	r6, [r4, #44]	; 0x2c
 8005d56:	2314      	movs	r3, #20
 8005d58:	4373      	muls	r3, r6
 8005d5a:	58cb      	ldr	r3, [r1, r3]
 8005d5c:	b92b      	cbnz	r3, 8005d6a <xTaskPriorityDisinherit+0x6e>
 8005d5e:	6810      	ldr	r0, [r2, #0]
 8005d60:	2301      	movs	r3, #1
 8005d62:	40b3      	lsls	r3, r6
 8005d64:	ea20 0303 	bic.w	r3, r0, r3
 8005d68:	6013      	str	r3, [r2, #0]
 8005d6a:	6ce3      	ldr	r3, [r4, #76]	; 0x4c
 8005d6c:	62e3      	str	r3, [r4, #44]	; 0x2c
 8005d6e:	f1c3 0006 	rsb	r0, r3, #6
 8005d72:	61a0      	str	r0, [r4, #24]
 8005d74:	6810      	ldr	r0, [r2, #0]
 8005d76:	2401      	movs	r4, #1
 8005d78:	fa04 f603 	lsl.w	r6, r4, r3
 8005d7c:	4330      	orrs	r0, r6
 8005d7e:	6010      	str	r0, [r2, #0]
 8005d80:	2014      	movs	r0, #20
 8005d82:	fb00 1003 	mla	r0, r0, r3, r1
 8005d86:	4629      	mov	r1, r5
 8005d88:	f7fe ff89 	bl	8004c9e <vListInsertEnd>
 8005d8c:	4620      	mov	r0, r4
 8005d8e:	bd70      	pop	{r4, r5, r6, pc}
 8005d90:	20000750 	.word	0x20000750
 8005d94:	200006d4 	.word	0x200006d4
 8005d98:	200007ac 	.word	0x200007ac

08005d9c <prvCheckForValidListAndQueue>:
 8005d9c:	b5f8      	push	{r3, r4, r5, r6, r7, lr}
 8005d9e:	4c0f      	ldr	r4, [pc, #60]	; (8005ddc <prvCheckForValidListAndQueue+0x40>)
 8005da0:	f7fe fe06 	bl	80049b0 <vPortEnterCritical>
 8005da4:	6825      	ldr	r5, [r4, #0]
 8005da6:	b9ad      	cbnz	r5, 8005dd4 <prvCheckForValidListAndQueue+0x38>
 8005da8:	4f0d      	ldr	r7, [pc, #52]	; (8005de0 <prvCheckForValidListAndQueue+0x44>)
 8005daa:	4e0e      	ldr	r6, [pc, #56]	; (8005de4 <prvCheckForValidListAndQueue+0x48>)
 8005dac:	4638      	mov	r0, r7
 8005dae:	f7fe ff68 	bl	8004c82 <vListInitialise>
 8005db2:	4630      	mov	r0, r6
 8005db4:	f7fe ff65 	bl	8004c82 <vListInitialise>
 8005db8:	4b0b      	ldr	r3, [pc, #44]	; (8005de8 <prvCheckForValidListAndQueue+0x4c>)
 8005dba:	601f      	str	r7, [r3, #0]
 8005dbc:	4b0b      	ldr	r3, [pc, #44]	; (8005dec <prvCheckForValidListAndQueue+0x50>)
 8005dbe:	2005      	movs	r0, #5
 8005dc0:	2110      	movs	r1, #16
 8005dc2:	462a      	mov	r2, r5
 8005dc4:	601e      	str	r6, [r3, #0]
 8005dc6:	f7ff f8ad 	bl	8004f24 <xQueueGenericCreate>
 8005dca:	6020      	str	r0, [r4, #0]
 8005dcc:	b110      	cbz	r0, 8005dd4 <prvCheckForValidListAndQueue+0x38>
 8005dce:	4908      	ldr	r1, [pc, #32]	; (8005df0 <prvCheckForValidListAndQueue+0x54>)
 8005dd0:	f7ff fa8e 	bl	80052f0 <vQueueAddToRegistry>
 8005dd4:	e8bd 40f8 	ldmia.w	sp!, {r3, r4, r5, r6, r7, lr}
 8005dd8:	f7fe be0c 	b.w	80049f4 <vPortExitCritical>
 8005ddc:	200007e0 	.word	0x200007e0
 8005de0:	200007b8 	.word	0x200007b8
 8005de4:	200007cc 	.word	0x200007cc
 8005de8:	200007b4 	.word	0x200007b4
 8005dec:	200007e8 	.word	0x200007e8
 8005df0:	080094bc 	.word	0x080094bc

08005df4 <prvInsertTimerInActiveList>:
 8005df4:	b510      	push	{r4, lr}
 8005df6:	4604      	mov	r4, r0
 8005df8:	4291      	cmp	r1, r2
 8005dfa:	6041      	str	r1, [r0, #4]
 8005dfc:	6120      	str	r0, [r4, #16]
 8005dfe:	d805      	bhi.n	8005e0c <prvInsertTimerInActiveList+0x18>
 8005e00:	1ad2      	subs	r2, r2, r3
 8005e02:	6983      	ldr	r3, [r0, #24]
 8005e04:	429a      	cmp	r2, r3
 8005e06:	d20c      	bcs.n	8005e22 <prvInsertTimerInActiveList+0x2e>
 8005e08:	4b07      	ldr	r3, [pc, #28]	; (8005e28 <prvInsertTimerInActiveList+0x34>)
 8005e0a:	e004      	b.n	8005e16 <prvInsertTimerInActiveList+0x22>
 8005e0c:	429a      	cmp	r2, r3
 8005e0e:	d201      	bcs.n	8005e14 <prvInsertTimerInActiveList+0x20>
 8005e10:	4299      	cmp	r1, r3
 8005e12:	d206      	bcs.n	8005e22 <prvInsertTimerInActiveList+0x2e>
 8005e14:	4b05      	ldr	r3, [pc, #20]	; (8005e2c <prvInsertTimerInActiveList+0x38>)
 8005e16:	6818      	ldr	r0, [r3, #0]
 8005e18:	1d21      	adds	r1, r4, #4
 8005e1a:	f7fe ff4c 	bl	8004cb6 <vListInsert>
 8005e1e:	2000      	movs	r0, #0
 8005e20:	bd10      	pop	{r4, pc}
 8005e22:	2001      	movs	r0, #1
 8005e24:	bd10      	pop	{r4, pc}
 8005e26:	bf00      	nop
 8005e28:	200007e8 	.word	0x200007e8
 8005e2c:	200007b4 	.word	0x200007b4

08005e30 <xTimerCreateTimerTask>:
 8005e30:	b507      	push	{r0, r1, r2, lr}
 8005e32:	f7ff ffb3 	bl	8005d9c <prvCheckForValidListAndQueue>
 8005e36:	4b0e      	ldr	r3, [pc, #56]	; (8005e70 <xTimerCreateTimerTask+0x40>)
 8005e38:	681b      	ldr	r3, [r3, #0]
 8005e3a:	b943      	cbnz	r3, 8005e4e <xTimerCreateTimerTask+0x1e>
 8005e3c:	f04f 03fc 	mov.w	r3, #252	; 0xfc
 8005e40:	f383 8811 	msr	BASEPRI, r3
 8005e44:	f3bf 8f6f 	isb	sy
 8005e48:	f3bf 8f4f 	dsb	sy
 8005e4c:	e00f      	b.n	8005e6e <xTimerCreateTimerTask+0x3e>
 8005e4e:	2304      	movs	r3, #4
 8005e50:	9300      	str	r3, [sp, #0]
 8005e52:	4b08      	ldr	r3, [pc, #32]	; (8005e74 <xTimerCreateTimerTask+0x44>)
 8005e54:	9301      	str	r3, [sp, #4]
 8005e56:	4808      	ldr	r0, [pc, #32]	; (8005e78 <xTimerCreateTimerTask+0x48>)
 8005e58:	4908      	ldr	r1, [pc, #32]	; (8005e7c <xTimerCreateTimerTask+0x4c>)
 8005e5a:	f44f 7282 	mov.w	r2, #260	; 0x104
 8005e5e:	2300      	movs	r3, #0
 8005e60:	f7ff fb28 	bl	80054b4 <xTaskCreate>
 8005e64:	2800      	cmp	r0, #0
 8005e66:	d0e9      	beq.n	8005e3c <xTimerCreateTimerTask+0xc>
 8005e68:	b003      	add	sp, #12
 8005e6a:	f85d fb04 	ldr.w	pc, [sp], #4
 8005e6e:	e7fe      	b.n	8005e6e <xTimerCreateTimerTask+0x3e>
 8005e70:	200007e0 	.word	0x200007e0
 8005e74:	200007ec 	.word	0x200007ec
 8005e78:	08005fa9 	.word	0x08005fa9
 8005e7c:	080094c1 	.word	0x080094c1

08005e80 <xTimerCreate>:
 8005e80:	e92d 41f0 	stmdb	sp!, {r4, r5, r6, r7, r8, lr}
 8005e84:	4680      	mov	r8, r0
 8005e86:	202c      	movs	r0, #44	; 0x2c
 8005e88:	460d      	mov	r5, r1
 8005e8a:	4616      	mov	r6, r2
 8005e8c:	461f      	mov	r7, r3
 8005e8e:	f7fe fedf 	bl	8004c50 <pvPortMalloc>
 8005e92:	4604      	mov	r4, r0
 8005e94:	b1f0      	cbz	r0, 8005ed4 <xTimerCreate+0x54>
 8005e96:	2300      	movs	r3, #0
 8005e98:	f880 3028 	strb.w	r3, [r0, #40]	; 0x28
 8005e9c:	b945      	cbnz	r5, 8005eb0 <xTimerCreate+0x30>
 8005e9e:	f04f 03fc 	mov.w	r3, #252	; 0xfc
 8005ea2:	f383 8811 	msr	BASEPRI, r3
 8005ea6:	f3bf 8f6f 	isb	sy
 8005eaa:	f3bf 8f4f 	dsb	sy
 8005eae:	e7fe      	b.n	8005eae <xTimerCreate+0x2e>
 8005eb0:	f7ff ff74 	bl	8005d9c <prvCheckForValidListAndQueue>
 8005eb4:	9b06      	ldr	r3, [sp, #24]
 8005eb6:	f8c4 8000 	str.w	r8, [r4]
 8005eba:	61a5      	str	r5, [r4, #24]
 8005ebc:	61e7      	str	r7, [r4, #28]
 8005ebe:	6223      	str	r3, [r4, #32]
 8005ec0:	1d20      	adds	r0, r4, #4
 8005ec2:	f7fe fee9 	bl	8004c98 <vListInitialiseItem>
 8005ec6:	b12e      	cbz	r6, 8005ed4 <xTimerCreate+0x54>
 8005ec8:	f894 3028 	ldrb.w	r3, [r4, #40]	; 0x28
 8005ecc:	f043 0304 	orr.w	r3, r3, #4
 8005ed0:	f884 3028 	strb.w	r3, [r4, #40]	; 0x28
 8005ed4:	4620      	mov	r0, r4
 8005ed6:	e8bd 81f0 	ldmia.w	sp!, {r4, r5, r6, r7, r8, pc}
	...

08005edc <xTimerGenericCommand>:
 8005edc:	b530      	push	{r4, r5, lr}
 8005ede:	4605      	mov	r5, r0
 8005ee0:	b085      	sub	sp, #20
 8005ee2:	b940      	cbnz	r0, 8005ef6 <xTimerGenericCommand+0x1a>
 8005ee4:	f04f 03fc 	mov.w	r3, #252	; 0xfc
 8005ee8:	f383 8811 	msr	BASEPRI, r3
 8005eec:	f3bf 8f6f 	isb	sy
 8005ef0:	f3bf 8f4f 	dsb	sy
 8005ef4:	e7fe      	b.n	8005ef4 <xTimerGenericCommand+0x18>
 8005ef6:	4c0e      	ldr	r4, [pc, #56]	; (8005f30 <xTimerGenericCommand+0x54>)
 8005ef8:	6820      	ldr	r0, [r4, #0]
 8005efa:	b1b8      	cbz	r0, 8005f2c <xTimerGenericCommand+0x50>
 8005efc:	2905      	cmp	r1, #5
 8005efe:	e88d 0026 	stmia.w	sp, {r1, r2, r5}
 8005f02:	dc0e      	bgt.n	8005f22 <xTimerGenericCommand+0x46>
 8005f04:	f7ff feea 	bl	8005cdc <xTaskGetSchedulerState>
 8005f08:	2802      	cmp	r0, #2
 8005f0a:	bf18      	it	ne
 8005f0c:	2200      	movne	r2, #0
 8005f0e:	6820      	ldr	r0, [r4, #0]
 8005f10:	bf08      	it	eq
 8005f12:	9a08      	ldreq	r2, [sp, #32]
 8005f14:	4669      	mov	r1, sp
 8005f16:	bf0c      	ite	eq
 8005f18:	2300      	moveq	r3, #0
 8005f1a:	4613      	movne	r3, r2
 8005f1c:	f7ff f82c 	bl	8004f78 <xQueueGenericSend>
 8005f20:	e004      	b.n	8005f2c <xTimerGenericCommand+0x50>
 8005f22:	461a      	mov	r2, r3
 8005f24:	4669      	mov	r1, sp
 8005f26:	2300      	movs	r3, #0
 8005f28:	f7ff f8e0 	bl	80050ec <xQueueGenericSendFromISR>
 8005f2c:	b005      	add	sp, #20
 8005f2e:	bd30      	pop	{r4, r5, pc}
 8005f30:	200007e0 	.word	0x200007e0

08005f34 <prvSwitchTimerLists>:
 8005f34:	b5f7      	push	{r0, r1, r2, r4, r5, r6, r7, lr}
 8005f36:	4d1a      	ldr	r5, [pc, #104]	; (8005fa0 <prvSwitchTimerLists+0x6c>)
 8005f38:	682b      	ldr	r3, [r5, #0]
 8005f3a:	681a      	ldr	r2, [r3, #0]
 8005f3c:	b352      	cbz	r2, 8005f94 <prvSwitchTimerLists+0x60>
 8005f3e:	68db      	ldr	r3, [r3, #12]
 8005f40:	68dc      	ldr	r4, [r3, #12]
 8005f42:	681e      	ldr	r6, [r3, #0]
 8005f44:	1d27      	adds	r7, r4, #4
 8005f46:	4638      	mov	r0, r7
 8005f48:	f7fe fecd 	bl	8004ce6 <uxListRemove>
 8005f4c:	6a23      	ldr	r3, [r4, #32]
 8005f4e:	4620      	mov	r0, r4
 8005f50:	4798      	blx	r3
 8005f52:	f894 3028 	ldrb.w	r3, [r4, #40]	; 0x28
 8005f56:	075b      	lsls	r3, r3, #29
 8005f58:	d5ed      	bpl.n	8005f36 <prvSwitchTimerLists+0x2>
 8005f5a:	69a3      	ldr	r3, [r4, #24]
 8005f5c:	4433      	add	r3, r6
 8005f5e:	42b3      	cmp	r3, r6
 8005f60:	d906      	bls.n	8005f70 <prvSwitchTimerLists+0x3c>
 8005f62:	6063      	str	r3, [r4, #4]
 8005f64:	6124      	str	r4, [r4, #16]
 8005f66:	6828      	ldr	r0, [r5, #0]
 8005f68:	4639      	mov	r1, r7
 8005f6a:	f7fe fea4 	bl	8004cb6 <vListInsert>
 8005f6e:	e7e2      	b.n	8005f36 <prvSwitchTimerLists+0x2>
 8005f70:	2100      	movs	r1, #0
 8005f72:	9100      	str	r1, [sp, #0]
 8005f74:	4620      	mov	r0, r4
 8005f76:	4632      	mov	r2, r6
 8005f78:	460b      	mov	r3, r1
 8005f7a:	f7ff ffaf 	bl	8005edc <xTimerGenericCommand>
 8005f7e:	2800      	cmp	r0, #0
 8005f80:	d1d9      	bne.n	8005f36 <prvSwitchTimerLists+0x2>
 8005f82:	f04f 03fc 	mov.w	r3, #252	; 0xfc
 8005f86:	f383 8811 	msr	BASEPRI, r3
 8005f8a:	f3bf 8f6f 	isb	sy
 8005f8e:	f3bf 8f4f 	dsb	sy
 8005f92:	e7fe      	b.n	8005f92 <prvSwitchTimerLists+0x5e>
 8005f94:	4a03      	ldr	r2, [pc, #12]	; (8005fa4 <prvSwitchTimerLists+0x70>)
 8005f96:	6811      	ldr	r1, [r2, #0]
 8005f98:	6029      	str	r1, [r5, #0]
 8005f9a:	6013      	str	r3, [r2, #0]
 8005f9c:	b003      	add	sp, #12
 8005f9e:	bdf0      	pop	{r4, r5, r6, r7, pc}
 8005fa0:	200007b4 	.word	0x200007b4
 8005fa4:	200007e8 	.word	0x200007e8

08005fa8 <prvTimerTask>:
 8005fa8:	e92d 43f0 	stmdb	sp!, {r4, r5, r6, r7, r8, r9, lr}
 8005fac:	b087      	sub	sp, #28
 8005fae:	f8df 91e8 	ldr.w	r9, [pc, #488]	; 8006198 <prvTimerTask+0x1f0>
 8005fb2:	f8d9 3000 	ldr.w	r3, [r9]
 8005fb6:	681d      	ldr	r5, [r3, #0]
 8005fb8:	2d00      	cmp	r5, #0
 8005fba:	f040 80e0 	bne.w	800617e <prvTimerTask+0x1d6>
 8005fbe:	2401      	movs	r4, #1
 8005fc0:	4e71      	ldr	r6, [pc, #452]	; (8006188 <prvTimerTask+0x1e0>)
 8005fc2:	f7ff fbdd 	bl	8005780 <vTaskSuspendAll>
 8005fc6:	f7ff fbe3 	bl	8005790 <xTaskGetTickCount>
 8005fca:	6833      	ldr	r3, [r6, #0]
 8005fcc:	4298      	cmp	r0, r3
 8005fce:	4607      	mov	r7, r0
 8005fd0:	46b0      	mov	r8, r6
 8005fd2:	d203      	bcs.n	8005fdc <prvTimerTask+0x34>
 8005fd4:	f7ff ffae 	bl	8005f34 <prvSwitchTimerLists>
 8005fd8:	2301      	movs	r3, #1
 8005fda:	e000      	b.n	8005fde <prvTimerTask+0x36>
 8005fdc:	2300      	movs	r3, #0
 8005fde:	6037      	str	r7, [r6, #0]
 8005fe0:	2b00      	cmp	r3, #0
 8005fe2:	d148      	bne.n	8006076 <prvTimerTask+0xce>
 8005fe4:	bb7c      	cbnz	r4, 8006046 <prvTimerTask+0x9e>
 8005fe6:	42bd      	cmp	r5, r7
 8005fe8:	d833      	bhi.n	8006052 <prvTimerTask+0xaa>
 8005fea:	f7ff fc61 	bl	80058b0 <xTaskResumeAll>
 8005fee:	f8d9 3000 	ldr.w	r3, [r9]
 8005ff2:	68db      	ldr	r3, [r3, #12]
 8005ff4:	68de      	ldr	r6, [r3, #12]
 8005ff6:	1d30      	adds	r0, r6, #4
 8005ff8:	f7fe fe75 	bl	8004ce6 <uxListRemove>
 8005ffc:	f896 3028 	ldrb.w	r3, [r6, #40]	; 0x28
 8006000:	0758      	lsls	r0, r3, #29
 8006002:	d518      	bpl.n	8006036 <prvTimerTask+0x8e>
 8006004:	69b1      	ldr	r1, [r6, #24]
 8006006:	4630      	mov	r0, r6
 8006008:	4429      	add	r1, r5
 800600a:	463a      	mov	r2, r7
 800600c:	462b      	mov	r3, r5
 800600e:	f7ff fef1 	bl	8005df4 <prvInsertTimerInActiveList>
 8006012:	b1a0      	cbz	r0, 800603e <prvTimerTask+0x96>
 8006014:	9400      	str	r4, [sp, #0]
 8006016:	4630      	mov	r0, r6
 8006018:	4621      	mov	r1, r4
 800601a:	462a      	mov	r2, r5
 800601c:	4623      	mov	r3, r4
 800601e:	f7ff ff5d 	bl	8005edc <xTimerGenericCommand>
 8006022:	b960      	cbnz	r0, 800603e <prvTimerTask+0x96>
 8006024:	f04f 03fc 	mov.w	r3, #252	; 0xfc
 8006028:	f383 8811 	msr	BASEPRI, r3
 800602c:	f3bf 8f6f 	isb	sy
 8006030:	f3bf 8f4f 	dsb	sy
 8006034:	e7fe      	b.n	8006034 <prvTimerTask+0x8c>
 8006036:	f023 0301 	bic.w	r3, r3, #1
 800603a:	f886 3028 	strb.w	r3, [r6, #40]	; 0x28
 800603e:	6a33      	ldr	r3, [r6, #32]
 8006040:	4630      	mov	r0, r6
 8006042:	4798      	blx	r3
 8006044:	e024      	b.n	8006090 <prvTimerTask+0xe8>
 8006046:	4b51      	ldr	r3, [pc, #324]	; (800618c <prvTimerTask+0x1e4>)
 8006048:	681b      	ldr	r3, [r3, #0]
 800604a:	681c      	ldr	r4, [r3, #0]
 800604c:	fab4 f484 	clz	r4, r4
 8006050:	0964      	lsrs	r4, r4, #5
 8006052:	4b4f      	ldr	r3, [pc, #316]	; (8006190 <prvTimerTask+0x1e8>)
 8006054:	1be9      	subs	r1, r5, r7
 8006056:	6818      	ldr	r0, [r3, #0]
 8006058:	4622      	mov	r2, r4
 800605a:	f7ff f95b 	bl	8005314 <vQueueWaitForMessageRestricted>
 800605e:	f7ff fc27 	bl	80058b0 <xTaskResumeAll>
 8006062:	b9a8      	cbnz	r0, 8006090 <prvTimerTask+0xe8>
 8006064:	4b4b      	ldr	r3, [pc, #300]	; (8006194 <prvTimerTask+0x1ec>)
 8006066:	f04f 5280 	mov.w	r2, #268435456	; 0x10000000
 800606a:	601a      	str	r2, [r3, #0]
 800606c:	f3bf 8f4f 	dsb	sy
 8006070:	f3bf 8f6f 	isb	sy
 8006074:	e00c      	b.n	8006090 <prvTimerTask+0xe8>
 8006076:	f7ff fc1b 	bl	80058b0 <xTaskResumeAll>
 800607a:	e009      	b.n	8006090 <prvTimerTask+0xe8>
 800607c:	9b02      	ldr	r3, [sp, #8]
 800607e:	2b00      	cmp	r3, #0
 8006080:	da03      	bge.n	800608a <prvTimerTask+0xe2>
 8006082:	9804      	ldr	r0, [sp, #16]
 8006084:	9905      	ldr	r1, [sp, #20]
 8006086:	9b03      	ldr	r3, [sp, #12]
 8006088:	4798      	blx	r3
 800608a:	9b02      	ldr	r3, [sp, #8]
 800608c:	2b00      	cmp	r3, #0
 800608e:	da08      	bge.n	80060a2 <prvTimerTask+0xfa>
 8006090:	4b3f      	ldr	r3, [pc, #252]	; (8006190 <prvTimerTask+0x1e8>)
 8006092:	a902      	add	r1, sp, #8
 8006094:	6818      	ldr	r0, [r3, #0]
 8006096:	2200      	movs	r2, #0
 8006098:	f7ff f88e 	bl	80051b8 <xQueueReceive>
 800609c:	2800      	cmp	r0, #0
 800609e:	d1ed      	bne.n	800607c <prvTimerTask+0xd4>
 80060a0:	e785      	b.n	8005fae <prvTimerTask+0x6>
 80060a2:	9c04      	ldr	r4, [sp, #16]
 80060a4:	6963      	ldr	r3, [r4, #20]
 80060a6:	b113      	cbz	r3, 80060ae <prvTimerTask+0x106>
 80060a8:	1d20      	adds	r0, r4, #4
 80060aa:	f7fe fe1c 	bl	8004ce6 <uxListRemove>
 80060ae:	f7ff fb6f 	bl	8005790 <xTaskGetTickCount>
 80060b2:	f8d8 3000 	ldr.w	r3, [r8]
 80060b6:	4298      	cmp	r0, r3
 80060b8:	4605      	mov	r5, r0
 80060ba:	d201      	bcs.n	80060c0 <prvTimerTask+0x118>
 80060bc:	f7ff ff3a 	bl	8005f34 <prvSwitchTimerLists>
 80060c0:	9b02      	ldr	r3, [sp, #8]
 80060c2:	f8c8 5000 	str.w	r5, [r8]
 80060c6:	2b09      	cmp	r3, #9
 80060c8:	d8e2      	bhi.n	8006090 <prvTimerTask+0xe8>
 80060ca:	e8df f003 	tbb	[pc, r3]
 80060ce:	0505      	.short	0x0505
 80060d0:	4b322f05 	.word	0x4b322f05
 80060d4:	322f0505 	.word	0x322f0505
 80060d8:	f894 3028 	ldrb.w	r3, [r4, #40]	; 0x28
 80060dc:	69a1      	ldr	r1, [r4, #24]
 80060de:	f043 0301 	orr.w	r3, r3, #1
 80060e2:	f884 3028 	strb.w	r3, [r4, #40]	; 0x28
 80060e6:	9b03      	ldr	r3, [sp, #12]
 80060e8:	4620      	mov	r0, r4
 80060ea:	4419      	add	r1, r3
 80060ec:	462a      	mov	r2, r5
 80060ee:	f7ff fe81 	bl	8005df4 <prvInsertTimerInActiveList>
 80060f2:	2800      	cmp	r0, #0
 80060f4:	d0cc      	beq.n	8006090 <prvTimerTask+0xe8>
 80060f6:	6a23      	ldr	r3, [r4, #32]
 80060f8:	4620      	mov	r0, r4
 80060fa:	4798      	blx	r3
 80060fc:	f894 3028 	ldrb.w	r3, [r4, #40]	; 0x28
 8006100:	0759      	lsls	r1, r3, #29
 8006102:	d5c5      	bpl.n	8006090 <prvTimerTask+0xe8>
 8006104:	69a2      	ldr	r2, [r4, #24]
 8006106:	9b03      	ldr	r3, [sp, #12]
 8006108:	2100      	movs	r1, #0
 800610a:	441a      	add	r2, r3
 800610c:	9100      	str	r1, [sp, #0]
 800610e:	4620      	mov	r0, r4
 8006110:	460b      	mov	r3, r1
 8006112:	f7ff fee3 	bl	8005edc <xTimerGenericCommand>
 8006116:	2800      	cmp	r0, #0
 8006118:	d1ba      	bne.n	8006090 <prvTimerTask+0xe8>
 800611a:	f04f 03fc 	mov.w	r3, #252	; 0xfc
 800611e:	f383 8811 	msr	BASEPRI, r3
 8006122:	f3bf 8f6f 	isb	sy
 8006126:	f3bf 8f4f 	dsb	sy
 800612a:	e7fe      	b.n	800612a <prvTimerTask+0x182>
 800612c:	f894 3028 	ldrb.w	r3, [r4, #40]	; 0x28
 8006130:	e020      	b.n	8006174 <prvTimerTask+0x1cc>
 8006132:	f894 3028 	ldrb.w	r3, [r4, #40]	; 0x28
 8006136:	9903      	ldr	r1, [sp, #12]
 8006138:	61a1      	str	r1, [r4, #24]
 800613a:	f043 0301 	orr.w	r3, r3, #1
 800613e:	f884 3028 	strb.w	r3, [r4, #40]	; 0x28
 8006142:	b941      	cbnz	r1, 8006156 <prvTimerTask+0x1ae>
 8006144:	f04f 03fc 	mov.w	r3, #252	; 0xfc
 8006148:	f383 8811 	msr	BASEPRI, r3
 800614c:	f3bf 8f6f 	isb	sy
 8006150:	f3bf 8f4f 	dsb	sy
 8006154:	e7fe      	b.n	8006154 <prvTimerTask+0x1ac>
 8006156:	4620      	mov	r0, r4
 8006158:	4429      	add	r1, r5
 800615a:	462a      	mov	r2, r5
 800615c:	462b      	mov	r3, r5
 800615e:	f7ff fe49 	bl	8005df4 <prvInsertTimerInActiveList>
 8006162:	e795      	b.n	8006090 <prvTimerTask+0xe8>
 8006164:	f894 3028 	ldrb.w	r3, [r4, #40]	; 0x28
 8006168:	079a      	lsls	r2, r3, #30
 800616a:	d403      	bmi.n	8006174 <prvTimerTask+0x1cc>
 800616c:	4620      	mov	r0, r4
 800616e:	f7fe fd7b 	bl	8004c68 <vPortFree>
 8006172:	e78d      	b.n	8006090 <prvTimerTask+0xe8>
 8006174:	f023 0301 	bic.w	r3, r3, #1
 8006178:	f884 3028 	strb.w	r3, [r4, #40]	; 0x28
 800617c:	e788      	b.n	8006090 <prvTimerTask+0xe8>
 800617e:	68db      	ldr	r3, [r3, #12]
 8006180:	2400      	movs	r4, #0
 8006182:	681d      	ldr	r5, [r3, #0]
 8006184:	e71c      	b.n	8005fc0 <prvTimerTask+0x18>
 8006186:	bf00      	nop
 8006188:	200007e4 	.word	0x200007e4
 800618c:	200007e8 	.word	0x200007e8
 8006190:	200007e0 	.word	0x200007e0
 8006194:	e000ed04 	.word	0xe000ed04
 8006198:	200007b4 	.word	0x200007b4

0800619c <EVENT_GENERATOR_Init>:
 800619c:	7b43      	ldrb	r3, [r0, #13]
 800619e:	b510      	push	{r4, lr}
 80061a0:	4604      	mov	r4, r0
 80061a2:	b94b      	cbnz	r3, 80061b8 <EVENT_GENERATOR_Init+0x1c>
 80061a4:	6800      	ldr	r0, [r0, #0]
 80061a6:	7b21      	ldrb	r1, [r4, #12]
 80061a8:	6862      	ldr	r2, [r4, #4]
 80061aa:	f7fe f89c 	bl	80042e6 <XMC_ERU_OGU_Init>
 80061ae:	68a0      	ldr	r0, [r4, #8]
 80061b0:	f7fd fc6a 	bl	8003a88 <XMC_SCU_INTERRUPT_EnableNmiRequest>
 80061b4:	2301      	movs	r3, #1
 80061b6:	7363      	strb	r3, [r4, #13]
 80061b8:	2000      	movs	r0, #0
 80061ba:	bd10      	pop	{r4, pc}

080061bc <EVENT_DETECTOR_Init>:
 80061bc:	7b03      	ldrb	r3, [r0, #12]
 80061be:	b510      	push	{r4, lr}
 80061c0:	4604      	mov	r4, r0
 80061c2:	b933      	cbnz	r3, 80061d2 <EVENT_DETECTOR_Init+0x16>
 80061c4:	6800      	ldr	r0, [r0, #0]
 80061c6:	7921      	ldrb	r1, [r4, #4]
 80061c8:	68a2      	ldr	r2, [r4, #8]
 80061ca:	f7fe f877 	bl	80042bc <XMC_ERU_ETL_Init>
 80061ce:	2301      	movs	r3, #1
 80061d0:	7323      	strb	r3, [r4, #12]
 80061d2:	2000      	movs	r0, #0
 80061d4:	bd10      	pop	{r4, pc}

080061d6 <DIGITAL_IO_Init>:
 80061d6:	b510      	push	{r4, lr}
 80061d8:	4604      	mov	r4, r0
 80061da:	1d22      	adds	r2, r4, #4
 80061dc:	7c21      	ldrb	r1, [r4, #16]
 80061de:	6800      	ldr	r0, [r0, #0]
 80061e0:	f7fd fbf0 	bl	80039c4 <XMC_GPIO_Init>
 80061e4:	6820      	ldr	r0, [r4, #0]
 80061e6:	7c21      	ldrb	r1, [r4, #16]
 80061e8:	7c62      	ldrb	r2, [r4, #17]
 80061ea:	f7fe f887 	bl	80042fc <XMC_GPIO_SetHardwareControl>
 80061ee:	2000      	movs	r0, #0
 80061f0:	bd10      	pop	{r4, pc}
	...

080061f4 <__HardFault_Handler>:
 80061f4:	4b15      	ldr	r3, [pc, #84]	; (800624c <__HardFault_Handler+0x58>)
 80061f6:	4a16      	ldr	r2, [pc, #88]	; (8006250 <__HardFault_Handler+0x5c>)
 80061f8:	6a99      	ldr	r1, [r3, #40]	; 0x28
 80061fa:	6011      	str	r1, [r2, #0]
 80061fc:	4a15      	ldr	r2, [pc, #84]	; (8006254 <__HardFault_Handler+0x60>)
 80061fe:	6ad9      	ldr	r1, [r3, #44]	; 0x2c
 8006200:	6011      	str	r1, [r2, #0]
 8006202:	4a15      	ldr	r2, [pc, #84]	; (8006258 <__HardFault_Handler+0x64>)
 8006204:	6b19      	ldr	r1, [r3, #48]	; 0x30
 8006206:	6011      	str	r1, [r2, #0]
 8006208:	4a14      	ldr	r2, [pc, #80]	; (800625c <__HardFault_Handler+0x68>)
 800620a:	6bd9      	ldr	r1, [r3, #60]	; 0x3c
 800620c:	6011      	str	r1, [r2, #0]
 800620e:	4a14      	ldr	r2, [pc, #80]	; (8006260 <__HardFault_Handler+0x6c>)
 8006210:	6b59      	ldr	r1, [r3, #52]	; 0x34
 8006212:	6011      	str	r1, [r2, #0]
 8006214:	6b9a      	ldr	r2, [r3, #56]	; 0x38
 8006216:	4b13      	ldr	r3, [pc, #76]	; (8006264 <__HardFault_Handler+0x70>)
 8006218:	601a      	str	r2, [r3, #0]
 800621a:	4b13      	ldr	r3, [pc, #76]	; (8006268 <__HardFault_Handler+0x74>)
 800621c:	6802      	ldr	r2, [r0, #0]
 800621e:	601a      	str	r2, [r3, #0]
 8006220:	4b12      	ldr	r3, [pc, #72]	; (800626c <__HardFault_Handler+0x78>)
 8006222:	6842      	ldr	r2, [r0, #4]
 8006224:	601a      	str	r2, [r3, #0]
 8006226:	4b12      	ldr	r3, [pc, #72]	; (8006270 <__HardFault_Handler+0x7c>)
 8006228:	6882      	ldr	r2, [r0, #8]
 800622a:	601a      	str	r2, [r3, #0]
 800622c:	4b11      	ldr	r3, [pc, #68]	; (8006274 <__HardFault_Handler+0x80>)
 800622e:	68c2      	ldr	r2, [r0, #12]
 8006230:	601a      	str	r2, [r3, #0]
 8006232:	4b11      	ldr	r3, [pc, #68]	; (8006278 <__HardFault_Handler+0x84>)
 8006234:	6902      	ldr	r2, [r0, #16]
 8006236:	601a      	str	r2, [r3, #0]
 8006238:	4b10      	ldr	r3, [pc, #64]	; (800627c <__HardFault_Handler+0x88>)
 800623a:	6942      	ldr	r2, [r0, #20]
 800623c:	601a      	str	r2, [r3, #0]
 800623e:	4b10      	ldr	r3, [pc, #64]	; (8006280 <__HardFault_Handler+0x8c>)
 8006240:	6982      	ldr	r2, [r0, #24]
 8006242:	601a      	str	r2, [r3, #0]
 8006244:	4b0f      	ldr	r3, [pc, #60]	; (8006284 <__HardFault_Handler+0x90>)
 8006246:	69c2      	ldr	r2, [r0, #28]
 8006248:	601a      	str	r2, [r3, #0]
 800624a:	be00      	bkpt	0x0000
 800624c:	e000ed00 	.word	0xe000ed00
 8006250:	200011ec 	.word	0x200011ec
 8006254:	20001210 	.word	0x20001210
 8006258:	20001218 	.word	0x20001218
 800625c:	20001214 	.word	0x20001214
 8006260:	20001204 	.word	0x20001204
 8006264:	200011e4 	.word	0x200011e4
 8006268:	200011fc 	.word	0x200011fc
 800626c:	200011e8 	.word	0x200011e8
 8006270:	2000120c 	.word	0x2000120c
 8006274:	200011f0 	.word	0x200011f0
 8006278:	20001200 	.word	0x20001200
 800627c:	200011f4 	.word	0x200011f4
 8006280:	200011f8 	.word	0x200011f8
 8006284:	20001208 	.word	0x20001208

08006288 <HardFault_Handler>:
 8006288:	f01e 0f04 	tst.w	lr, #4
 800628c:	bf0c      	ite	eq
 800628e:	f3ef 8008 	mrseq	r0, MSP
 8006292:	f3ef 8009 	mrsne	r0, PSP
 8006296:	f7ff bfad 	b.w	80061f4 <__HardFault_Handler>

0800629a <NVIC_EncodePriority.constprop.0>:
 800629a:	2000      	movs	r0, #0
 800629c:	4770      	bx	lr
	...

080062a0 <SystemCoreSetup>:
 80062a0:	b510      	push	{r4, lr}
 80062a2:	4c25      	ldr	r4, [pc, #148]	; (8006338 <SystemCoreSetup+0x98>)
 80062a4:	4b25      	ldr	r3, [pc, #148]	; (800633c <SystemCoreSetup+0x9c>)
 80062a6:	68e2      	ldr	r2, [r4, #12]
 80062a8:	f422 62e0 	bic.w	r2, r2, #1792	; 0x700
 80062ac:	0412      	lsls	r2, r2, #16
 80062ae:	0c12      	lsrs	r2, r2, #16
 80062b0:	4313      	orrs	r3, r2
 80062b2:	60e3      	str	r3, [r4, #12]
 80062b4:	b672      	cpsid	i
 80062b6:	4b22      	ldr	r3, [pc, #136]	; (8006340 <SystemCoreSetup+0xa0>)
 80062b8:	60a3      	str	r3, [r4, #8]
 80062ba:	f3bf 8f4f 	dsb	sy
 80062be:	b662      	cpsie	i
 80062c0:	f8d4 3088 	ldr.w	r3, [r4, #136]	; 0x88
 80062c4:	491f      	ldr	r1, [pc, #124]	; (8006344 <SystemCoreSetup+0xa4>)
 80062c6:	f241 0214 	movw	r2, #4116	; 0x1014
 80062ca:	f443 0370 	orr.w	r3, r3, #15728640	; 0xf00000
 80062ce:	f8c4 3088 	str.w	r3, [r4, #136]	; 0x88
 80062d2:	588b      	ldr	r3, [r1, r2]
 80062d4:	f023 030f 	bic.w	r3, r3, #15
 80062d8:	f043 0303 	orr.w	r3, r3, #3
 80062dc:	508b      	str	r3, [r1, r2]
 80062de:	6963      	ldr	r3, [r4, #20]
 80062e0:	f043 0310 	orr.w	r3, r3, #16
 80062e4:	6163      	str	r3, [r4, #20]
 80062e6:	6963      	ldr	r3, [r4, #20]
 80062e8:	f043 0308 	orr.w	r3, r3, #8
 80062ec:	6163      	str	r3, [r4, #20]
 80062ee:	68e0      	ldr	r0, [r4, #12]
 80062f0:	f3c0 2002 	ubfx	r0, r0, #8, #3
 80062f4:	f7ff ffd1 	bl	800629a <NVIC_EncodePriority.constprop.0>
 80062f8:	0080      	lsls	r0, r0, #2
 80062fa:	b2c0      	uxtb	r0, r0
 80062fc:	7620      	strb	r0, [r4, #24]
 80062fe:	6a63      	ldr	r3, [r4, #36]	; 0x24
 8006300:	f443 3380 	orr.w	r3, r3, #65536	; 0x10000
 8006304:	6263      	str	r3, [r4, #36]	; 0x24
 8006306:	68e0      	ldr	r0, [r4, #12]
 8006308:	f3c0 2002 	ubfx	r0, r0, #8, #3
 800630c:	f7ff ffc5 	bl	800629a <NVIC_EncodePriority.constprop.0>
 8006310:	0080      	lsls	r0, r0, #2
 8006312:	b2c0      	uxtb	r0, r0
 8006314:	7660      	strb	r0, [r4, #25]
 8006316:	6a63      	ldr	r3, [r4, #36]	; 0x24
 8006318:	f443 3300 	orr.w	r3, r3, #131072	; 0x20000
 800631c:	6263      	str	r3, [r4, #36]	; 0x24
 800631e:	68e0      	ldr	r0, [r4, #12]
 8006320:	f3c0 2002 	ubfx	r0, r0, #8, #3
 8006324:	f7ff ffb9 	bl	800629a <NVIC_EncodePriority.constprop.0>
 8006328:	0080      	lsls	r0, r0, #2
 800632a:	b2c0      	uxtb	r0, r0
 800632c:	76a0      	strb	r0, [r4, #26]
 800632e:	6a63      	ldr	r3, [r4, #36]	; 0x24
 8006330:	f443 2380 	orr.w	r3, r3, #262144	; 0x40000
 8006334:	6263      	str	r3, [r4, #36]	; 0x24
 8006336:	bd10      	pop	{r4, pc}
 8006338:	e000ed00 	.word	0xe000ed00
 800633c:	05fa0100 	.word	0x05fa0100
 8006340:	08000000 	.word	0x08000000
 8006344:	58001000 	.word	0x58001000

08006348 <CLOCK_XMC4_Init>:
 8006348:	2301      	movs	r3, #1
 800634a:	7003      	strb	r3, [r0, #0]
 800634c:	2000      	movs	r0, #0
 800634e:	4770      	bx	lr

08006350 <OSCHP_GetFrequency>:
 8006350:	4800      	ldr	r0, [pc, #0]	; (8006354 <OSCHP_GetFrequency+0x4>)
 8006352:	4770      	bx	lr
 8006354:	00b71b00 	.word	0x00b71b00

08006358 <SystemCoreClockSetup>:
 8006358:	b530      	push	{r4, r5, lr}
 800635a:	4d11      	ldr	r5, [pc, #68]	; (80063a0 <SystemCoreClockSetup+0x48>)
 800635c:	cd0f      	ldmia	r5!, {r0, r1, r2, r3}
 800635e:	b087      	sub	sp, #28
 8006360:	ac01      	add	r4, sp, #4
 8006362:	c40f      	stmia	r4!, {r0, r1, r2, r3}
 8006364:	682b      	ldr	r3, [r5, #0]
 8006366:	6023      	str	r3, [r4, #0]
 8006368:	a801      	add	r0, sp, #4
 800636a:	f7fd fd8d 	bl	8003e88 <XMC_SCU_CLOCK_Init>
 800636e:	2000      	movs	r0, #0
 8006370:	f7fd fbd6 	bl	8003b20 <XMC_SCU_HIB_SetRtcClockSource>
 8006374:	2000      	movs	r0, #0
 8006376:	f7fd fbaf 	bl	8003ad8 <XMC_SCU_CLOCK_SetUsbClockSource>
 800637a:	2004      	movs	r0, #4
 800637c:	f7fd fc18 	bl	8003bb0 <XMC_SCU_CLOCK_SetUsbClockDivider>
 8006380:	2120      	movs	r1, #32
 8006382:	2001      	movs	r0, #1
 8006384:	f7fd fc38 	bl	8003bf8 <XMC_SCU_CLOCK_StartUsbPll>
 8006388:	2000      	movs	r0, #0
 800638a:	f7fd fbaf 	bl	8003aec <XMC_SCU_CLOCK_SetWdtClockSource>
 800638e:	2001      	movs	r0, #1
 8006390:	f7fd fc22 	bl	8003bd8 <XMC_SCU_CLOCK_SetWdtClockDivider>
 8006394:	2001      	movs	r0, #1
 8006396:	f7fd fc15 	bl	8003bc4 <XMC_SCU_CLOCK_SetEbuClockDivider>
 800639a:	b007      	add	sp, #28
 800639c:	bd30      	pop	{r4, r5, pc}
 800639e:	bf00      	nop
 80063a0:	0800953c 	.word	0x0800953c

080063a4 <CAN_NODE_MO_Init>:
 80063a4:	b510      	push	{r4, lr}
 80063a6:	4604      	mov	r4, r0
 80063a8:	6800      	ldr	r0, [r0, #0]
 80063aa:	f7fd fe69 	bl	8004080 <XMC_CAN_MO_Config>
 80063ae:	79e3      	ldrb	r3, [r4, #7]
 80063b0:	b163      	cbz	r3, 80063cc <CAN_NODE_MO_Init+0x28>
 80063b2:	6823      	ldr	r3, [r4, #0]
 80063b4:	7961      	ldrb	r1, [r4, #5]
 80063b6:	681a      	ldr	r2, [r3, #0]
 80063b8:	6893      	ldr	r3, [r2, #8]
 80063ba:	f023 0370 	bic.w	r3, r3, #112	; 0x70
 80063be:	ea43 1301 	orr.w	r3, r3, r1, lsl #4
 80063c2:	6093      	str	r3, [r2, #8]
 80063c4:	6813      	ldr	r3, [r2, #0]
 80063c6:	f443 3300 	orr.w	r3, r3, #131072	; 0x20000
 80063ca:	6013      	str	r3, [r2, #0]
 80063cc:	7a23      	ldrb	r3, [r4, #8]
 80063ce:	b15b      	cbz	r3, 80063e8 <CAN_NODE_MO_Init+0x44>
 80063d0:	6823      	ldr	r3, [r4, #0]
 80063d2:	681b      	ldr	r3, [r3, #0]
 80063d4:	689a      	ldr	r2, [r3, #8]
 80063d6:	f022 0107 	bic.w	r1, r2, #7
 80063da:	79a2      	ldrb	r2, [r4, #6]
 80063dc:	430a      	orrs	r2, r1
 80063de:	609a      	str	r2, [r3, #8]
 80063e0:	681a      	ldr	r2, [r3, #0]
 80063e2:	f442 3280 	orr.w	r2, r2, #65536	; 0x10000
 80063e6:	601a      	str	r2, [r3, #0]
 80063e8:	bd10      	pop	{r4, pc}

080063ea <CAN_NODE_MO_Transmit>:
 80063ea:	6800      	ldr	r0, [r0, #0]
 80063ec:	f7fd be8a 	b.w	8004104 <XMC_CAN_MO_Transmit>

080063f0 <CAN_NODE_MO_Receive>:
 80063f0:	6800      	ldr	r0, [r0, #0]
 80063f2:	f7fd be97 	b.w	8004124 <XMC_CAN_MO_Receive>

080063f6 <CAN_NODE_MO_UpdateData>:
 80063f6:	6803      	ldr	r3, [r0, #0]
 80063f8:	680a      	ldr	r2, [r1, #0]
 80063fa:	611a      	str	r2, [r3, #16]
 80063fc:	6803      	ldr	r3, [r0, #0]
 80063fe:	684a      	ldr	r2, [r1, #4]
 8006400:	615a      	str	r2, [r3, #20]
 8006402:	6800      	ldr	r0, [r0, #0]
 8006404:	f7fd be20 	b.w	8004048 <XMC_CAN_MO_UpdateData>

08006408 <CAN_NODE_Init>:
 8006408:	e92d 43f8 	stmdb	sp!, {r3, r4, r5, r6, r7, r8, r9, lr}
 800640c:	f8d0 6090 	ldr.w	r6, [r0, #144]	; 0x90
 8006410:	4604      	mov	r4, r0
 8006412:	6800      	ldr	r0, [r0, #0]
 8006414:	f7fe fa20 	bl	8004858 <GLOBAL_CAN_Init>
 8006418:	4605      	mov	r5, r0
 800641a:	b108      	cbz	r0, 8006420 <CAN_NODE_Init+0x18>
 800641c:	2501      	movs	r5, #1
 800641e:	e088      	b.n	8006532 <CAN_NODE_Init+0x12a>
 8006420:	6860      	ldr	r0, [r4, #4]
 8006422:	68a1      	ldr	r1, [r4, #8]
 8006424:	f7fd fd7e 	bl	8003f24 <XMC_CAN_NODE_NominalBitTimeConfigureEx>
 8006428:	2800      	cmp	r0, #0
 800642a:	d1f7      	bne.n	800641c <CAN_NODE_Init+0x14>
 800642c:	6863      	ldr	r3, [r4, #4]
 800642e:	681a      	ldr	r2, [r3, #0]
 8006430:	f042 0240 	orr.w	r2, r2, #64	; 0x40
 8006434:	601a      	str	r2, [r3, #0]
 8006436:	681a      	ldr	r2, [r3, #0]
 8006438:	f042 0201 	orr.w	r2, r2, #1
 800643c:	601a      	str	r2, [r3, #0]
 800643e:	f894 20a7 	ldrb.w	r2, [r4, #167]	; 0xa7
 8006442:	b122      	cbz	r2, 800644e <CAN_NODE_Init+0x46>
 8006444:	68da      	ldr	r2, [r3, #12]
 8006446:	f442 7280 	orr.w	r2, r2, #256	; 0x100
 800644a:	60da      	str	r2, [r3, #12]
 800644c:	e011      	b.n	8006472 <CAN_NODE_Init+0x6a>
 800644e:	f8d4 3098 	ldr.w	r3, [r4, #152]	; 0x98
 8006452:	f8d4 209c 	ldr.w	r2, [r4, #156]	; 0x9c
 8006456:	7919      	ldrb	r1, [r3, #4]
 8006458:	6818      	ldr	r0, [r3, #0]
 800645a:	f7fd fab3 	bl	80039c4 <XMC_GPIO_Init>
 800645e:	6861      	ldr	r1, [r4, #4]
 8006460:	f894 20a0 	ldrb.w	r2, [r4, #160]	; 0xa0
 8006464:	68cb      	ldr	r3, [r1, #12]
 8006466:	f002 0207 	and.w	r2, r2, #7
 800646a:	f023 0307 	bic.w	r3, r3, #7
 800646e:	4313      	orrs	r3, r2
 8006470:	60cb      	str	r3, [r1, #12]
 8006472:	6860      	ldr	r0, [r4, #4]
 8006474:	f8d4 208c 	ldr.w	r2, [r4, #140]	; 0x8c
 8006478:	6883      	ldr	r3, [r0, #8]
 800647a:	f023 0107 	bic.w	r1, r3, #7
 800647e:	7813      	ldrb	r3, [r2, #0]
 8006480:	430b      	orrs	r3, r1
 8006482:	6083      	str	r3, [r0, #8]
 8006484:	6883      	ldr	r3, [r0, #8]
 8006486:	7851      	ldrb	r1, [r2, #1]
 8006488:	f023 0370 	bic.w	r3, r3, #112	; 0x70
 800648c:	ea43 1301 	orr.w	r3, r3, r1, lsl #4
 8006490:	6083      	str	r3, [r0, #8]
 8006492:	6883      	ldr	r3, [r0, #8]
 8006494:	7891      	ldrb	r1, [r2, #2]
 8006496:	f423 63e0 	bic.w	r3, r3, #1792	; 0x700
 800649a:	ea43 2301 	orr.w	r3, r3, r1, lsl #8
 800649e:	6083      	str	r3, [r0, #8]
 80064a0:	6883      	ldr	r3, [r0, #8]
 80064a2:	78d2      	ldrb	r2, [r2, #3]
 80064a4:	f423 43e0 	bic.w	r3, r3, #28672	; 0x7000
 80064a8:	ea43 3302 	orr.w	r3, r3, r2, lsl #12
 80064ac:	6083      	str	r3, [r0, #8]
 80064ae:	f894 30a4 	ldrb.w	r3, [r4, #164]	; 0xa4
 80064b2:	2b00      	cmp	r3, #0
 80064b4:	f894 30a3 	ldrb.w	r3, [r4, #163]	; 0xa3
 80064b8:	bf0c      	ite	eq
 80064ba:	2100      	moveq	r1, #0
 80064bc:	2102      	movne	r1, #2
 80064be:	b10b      	cbz	r3, 80064c4 <CAN_NODE_Init+0xbc>
 80064c0:	f041 0104 	orr.w	r1, r1, #4
 80064c4:	f894 30a5 	ldrb.w	r3, [r4, #165]	; 0xa5
 80064c8:	b10b      	cbz	r3, 80064ce <CAN_NODE_Init+0xc6>
 80064ca:	f041 0108 	orr.w	r1, r1, #8
 80064ce:	f7fd fe81 	bl	80041d4 <XMC_CAN_NODE_EnableEvent>
 80064d2:	f894 30a6 	ldrb.w	r3, [r4, #166]	; 0xa6
 80064d6:	b123      	cbz	r3, 80064e2 <CAN_NODE_Init+0xda>
 80064d8:	6860      	ldr	r0, [r4, #4]
 80064da:	f44f 0180 	mov.w	r1, #4194304	; 0x400000
 80064de:	f7fd fe79 	bl	80041d4 <XMC_CAN_NODE_EnableEvent>
 80064e2:	f104 0808 	add.w	r8, r4, #8
 80064e6:	2700      	movs	r7, #0
 80064e8:	f894 30a2 	ldrb.w	r3, [r4, #162]	; 0xa2
 80064ec:	429f      	cmp	r7, r3
 80064ee:	d20e      	bcs.n	800650e <CAN_NODE_Init+0x106>
 80064f0:	f858 9f04 	ldr.w	r9, [r8, #4]!
 80064f4:	6823      	ldr	r3, [r4, #0]
 80064f6:	f894 10a1 	ldrb.w	r1, [r4, #161]	; 0xa1
 80064fa:	6858      	ldr	r0, [r3, #4]
 80064fc:	f899 2004 	ldrb.w	r2, [r9, #4]
 8006500:	f7fd fd5f 	bl	8003fc2 <XMC_CAN_AllocateMOtoNodeList>
 8006504:	4648      	mov	r0, r9
 8006506:	f7ff ff4d 	bl	80063a4 <CAN_NODE_MO_Init>
 800650a:	3701      	adds	r7, #1
 800650c:	e7ec      	b.n	80064e8 <CAN_NODE_Init+0xe0>
 800650e:	6863      	ldr	r3, [r4, #4]
 8006510:	681a      	ldr	r2, [r3, #0]
 8006512:	f022 0240 	bic.w	r2, r2, #64	; 0x40
 8006516:	601a      	str	r2, [r3, #0]
 8006518:	681a      	ldr	r2, [r3, #0]
 800651a:	f022 0201 	bic.w	r2, r2, #1
 800651e:	601a      	str	r2, [r3, #0]
 8006520:	f894 30a7 	ldrb.w	r3, [r4, #167]	; 0xa7
 8006524:	b92b      	cbnz	r3, 8006532 <CAN_NODE_Init+0x12a>
 8006526:	6830      	ldr	r0, [r6, #0]
 8006528:	7931      	ldrb	r1, [r6, #4]
 800652a:	f8d4 2094 	ldr.w	r2, [r4, #148]	; 0x94
 800652e:	f7fd fa49 	bl	80039c4 <XMC_GPIO_Init>
 8006532:	4628      	mov	r0, r5
 8006534:	e8bd 83f8 	ldmia.w	sp!, {r3, r4, r5, r6, r7, r8, r9, pc}

08006538 <BUS_IO_Init>:
 8006538:	7c43      	ldrb	r3, [r0, #17]
 800653a:	b570      	push	{r4, r5, r6, lr}
 800653c:	4604      	mov	r4, r0
 800653e:	b993      	cbnz	r3, 8006566 <BUS_IO_Init+0x2e>
 8006540:	7c22      	ldrb	r2, [r4, #16]
 8006542:	1c5d      	adds	r5, r3, #1
 8006544:	b2db      	uxtb	r3, r3
 8006546:	429a      	cmp	r2, r3
 8006548:	d90b      	bls.n	8006562 <BUS_IO_Init+0x2a>
 800654a:	4622      	mov	r2, r4
 800654c:	f852 1b04 	ldr.w	r1, [r2], #4
 8006550:	eb01 06c3 	add.w	r6, r1, r3, lsl #3
 8006554:	f851 0033 	ldr.w	r0, [r1, r3, lsl #3]
 8006558:	7931      	ldrb	r1, [r6, #4]
 800655a:	f7fd fa33 	bl	80039c4 <XMC_GPIO_Init>
 800655e:	462b      	mov	r3, r5
 8006560:	e7ee      	b.n	8006540 <BUS_IO_Init+0x8>
 8006562:	2301      	movs	r3, #1
 8006564:	7463      	strb	r3, [r4, #17]
 8006566:	2000      	movs	r0, #0
 8006568:	bd70      	pop	{r4, r5, r6, pc}

0800656a <BUS_IO_Read>:
 800656a:	b530      	push	{r4, r5, lr}
 800656c:	2300      	movs	r3, #0
 800656e:	4601      	mov	r1, r0
 8006570:	7c04      	ldrb	r4, [r0, #16]
 8006572:	4618      	mov	r0, r3
 8006574:	b2da      	uxtb	r2, r3
 8006576:	42a2      	cmp	r2, r4
 8006578:	d20e      	bcs.n	8006598 <BUS_IO_Read+0x2e>
 800657a:	680a      	ldr	r2, [r1, #0]
 800657c:	eb02 05c3 	add.w	r5, r2, r3, lsl #3
 8006580:	f852 2033 	ldr.w	r2, [r2, r3, lsl #3]
 8006584:	792d      	ldrb	r5, [r5, #4]
 8006586:	6a52      	ldr	r2, [r2, #36]	; 0x24
 8006588:	40ea      	lsrs	r2, r5
 800658a:	f002 0201 	and.w	r2, r2, #1
 800658e:	409a      	lsls	r2, r3
 8006590:	4302      	orrs	r2, r0
 8006592:	b290      	uxth	r0, r2
 8006594:	3301      	adds	r3, #1
 8006596:	e7ed      	b.n	8006574 <BUS_IO_Read+0xa>
 8006598:	bd30      	pop	{r4, r5, pc}

0800659a <BUS_IO_Write>:
 800659a:	6803      	ldr	r3, [r0, #0]
 800659c:	b570      	push	{r4, r5, r6, lr}
 800659e:	3308      	adds	r3, #8
 80065a0:	2400      	movs	r4, #0
 80065a2:	7c02      	ldrb	r2, [r0, #16]
 80065a4:	b2e5      	uxtb	r5, r4
 80065a6:	42aa      	cmp	r2, r5
 80065a8:	d90f      	bls.n	80065ca <BUS_IO_Write+0x30>
 80065aa:	2201      	movs	r2, #1
 80065ac:	fa02 f505 	lsl.w	r5, r2, r5
 80065b0:	f813 6c04 	ldrb.w	r6, [r3, #-4]
 80065b4:	4229      	tst	r1, r5
 80065b6:	bf08      	it	eq
 80065b8:	f44f 3280 	moveq.w	r2, #65536	; 0x10000
 80065bc:	f853 5c08 	ldr.w	r5, [r3, #-8]
 80065c0:	40b2      	lsls	r2, r6
 80065c2:	606a      	str	r2, [r5, #4]
 80065c4:	3401      	adds	r4, #1
 80065c6:	3308      	adds	r3, #8
 80065c8:	e7eb      	b.n	80065a2 <BUS_IO_Write+0x8>
 80065ca:	bd70      	pop	{r4, r5, r6, pc}

080065cc <ANALOG_IO_Init>:
 80065cc:	6843      	ldr	r3, [r0, #4]
 80065ce:	781b      	ldrb	r3, [r3, #0]
 80065d0:	b510      	push	{r4, lr}
 80065d2:	4604      	mov	r4, r0
 80065d4:	b92b      	cbnz	r3, 80065e2 <ANALOG_IO_Init+0x16>
 80065d6:	6803      	ldr	r3, [r0, #0]
 80065d8:	b103      	cbz	r3, 80065dc <ANALOG_IO_Init+0x10>
 80065da:	4798      	blx	r3
 80065dc:	6863      	ldr	r3, [r4, #4]
 80065de:	2201      	movs	r2, #1
 80065e0:	701a      	strb	r2, [r3, #0]
 80065e2:	2000      	movs	r0, #0
 80065e4:	bd10      	pop	{r4, pc}
	...

080065e8 <ADC_MEASUREMENT_Init>:
 80065e8:	b5f8      	push	{r3, r4, r5, r6, r7, lr}
 80065ea:	7e03      	ldrb	r3, [r0, #24]
 80065ec:	2b02      	cmp	r3, #2
 80065ee:	4604      	mov	r4, r0
 80065f0:	f040 8095 	bne.w	800671e <ADC_MEASUREMENT_Init+0x136>
 80065f4:	68c0      	ldr	r0, [r0, #12]
 80065f6:	f7fe f93c 	bl	8004872 <GLOBAL_ADC_Init>
 80065fa:	68e2      	ldr	r2, [r4, #12]
 80065fc:	68a3      	ldr	r3, [r4, #8]
 80065fe:	4605      	mov	r5, r0
 8006600:	6950      	ldr	r0, [r2, #20]
 8006602:	6819      	ldr	r1, [r3, #0]
 8006604:	2200      	movs	r2, #0
 8006606:	4613      	mov	r3, r2
 8006608:	f7fd fea2 	bl	8004350 <XMC_VADC_GLOBAL_InputClassInit>
 800660c:	68e3      	ldr	r3, [r4, #12]
 800660e:	6861      	ldr	r1, [r4, #4]
 8006610:	6958      	ldr	r0, [r3, #20]
 8006612:	f7fd ff3f 	bl	8004494 <XMC_VADC_GLOBAL_BackgroundInit>
 8006616:	2700      	movs	r7, #0
 8006618:	6823      	ldr	r3, [r4, #0]
 800661a:	f853 6027 	ldr.w	r6, [r3, r7, lsl #2]
 800661e:	68b0      	ldr	r0, [r6, #8]
 8006620:	7c71      	ldrb	r1, [r6, #17]
 8006622:	6832      	ldr	r2, [r6, #0]
 8006624:	f7fd ff9c 	bl	8004560 <XMC_VADC_GROUP_ChannelInit>
 8006628:	6833      	ldr	r3, [r6, #0]
 800662a:	6871      	ldr	r1, [r6, #4]
 800662c:	789b      	ldrb	r3, [r3, #2]
 800662e:	68b2      	ldr	r2, [r6, #8]
 8006630:	6809      	ldr	r1, [r1, #0]
 8006632:	f003 030f 	and.w	r3, r3, #15
 8006636:	33a0      	adds	r3, #160	; 0xa0
 8006638:	f842 1023 	str.w	r1, [r2, r3, lsl #2]
 800663c:	68e3      	ldr	r3, [r4, #12]
 800663e:	7c32      	ldrb	r2, [r6, #16]
 8006640:	695b      	ldr	r3, [r3, #20]
 8006642:	7c70      	ldrb	r0, [r6, #17]
 8006644:	eb03 0382 	add.w	r3, r3, r2, lsl #2
 8006648:	2201      	movs	r2, #1
 800664a:	f8d3 1180 	ldr.w	r1, [r3, #384]	; 0x180
 800664e:	4082      	lsls	r2, r0
 8006650:	68f0      	ldr	r0, [r6, #12]
 8006652:	430a      	orrs	r2, r1
 8006654:	f8c3 2180 	str.w	r2, [r3, #384]	; 0x180
 8006658:	b118      	cbz	r0, 8006662 <ADC_MEASUREMENT_Init+0x7a>
 800665a:	f7ff ffb7 	bl	80065cc <ANALOG_IO_Init>
 800665e:	4328      	orrs	r0, r5
 8006660:	b2c5      	uxtb	r5, r0
 8006662:	3701      	adds	r7, #1
 8006664:	2f0b      	cmp	r7, #11
 8006666:	d1d7      	bne.n	8006618 <ADC_MEASUREMENT_Init+0x30>
 8006668:	6863      	ldr	r3, [r4, #4]
 800666a:	7a1b      	ldrb	r3, [r3, #8]
 800666c:	071b      	lsls	r3, r3, #28
 800666e:	d548      	bpl.n	8006702 <ADC_MEASUREMENT_Init+0x11a>
 8006670:	6923      	ldr	r3, [r4, #16]
 8006672:	2b00      	cmp	r3, #0
 8006674:	d045      	beq.n	8006702 <ADC_MEASUREMENT_Init+0x11a>
 8006676:	4a2b      	ldr	r2, [pc, #172]	; (8006724 <ADC_MEASUREMENT_Init+0x13c>)
 8006678:	681e      	ldr	r6, [r3, #0]
 800667a:	68d1      	ldr	r1, [r2, #12]
 800667c:	685a      	ldr	r2, [r3, #4]
 800667e:	689b      	ldr	r3, [r3, #8]
 8006680:	f3c1 2102 	ubfx	r1, r1, #8, #3
 8006684:	f1c1 0c07 	rsb	ip, r1, #7
 8006688:	f1bc 0f06 	cmp.w	ip, #6
 800668c:	b2f7      	uxtb	r7, r6
 800668e:	bf28      	it	cs
 8006690:	f04f 0c06 	movcs.w	ip, #6
 8006694:	b109      	cbz	r1, 800669a <ADC_MEASUREMENT_Init+0xb2>
 8006696:	1e48      	subs	r0, r1, #1
 8006698:	e000      	b.n	800669c <ADC_MEASUREMENT_Init+0xb4>
 800669a:	4608      	mov	r0, r1
 800669c:	2101      	movs	r1, #1
 800669e:	fa01 fe00 	lsl.w	lr, r1, r0
 80066a2:	f10e 3eff 	add.w	lr, lr, #4294967295
 80066a6:	fa01 f10c 	lsl.w	r1, r1, ip
 80066aa:	ea0e 0e03 	and.w	lr, lr, r3
 80066ae:	1e4b      	subs	r3, r1, #1
 80066b0:	4013      	ands	r3, r2
 80066b2:	4083      	lsls	r3, r0
 80066b4:	b27a      	sxtb	r2, r7
 80066b6:	2a00      	cmp	r2, #0
 80066b8:	ea4e 0303 	orr.w	r3, lr, r3
 80066bc:	ea4f 0383 	mov.w	r3, r3, lsl #2
 80066c0:	bfad      	iteet	ge
 80066c2:	f102 4260 	addge.w	r2, r2, #3758096384	; 0xe0000000
 80066c6:	4a18      	ldrlt	r2, [pc, #96]	; (8006728 <ADC_MEASUREMENT_Init+0x140>)
 80066c8:	f006 060f 	andlt.w	r6, r6, #15
 80066cc:	f502 4261 	addge.w	r2, r2, #57600	; 0xe100
 80066d0:	bfb9      	ittee	lt
 80066d2:	b2db      	uxtblt	r3, r3
 80066d4:	5593      	strblt	r3, [r2, r6]
 80066d6:	b2db      	uxtbge	r3, r3
 80066d8:	f882 3300 	strbge.w	r3, [r2, #768]	; 0x300
 80066dc:	68e3      	ldr	r3, [r4, #12]
 80066de:	7e61      	ldrb	r1, [r4, #25]
 80066e0:	6958      	ldr	r0, [r3, #20]
 80066e2:	f7fd fe5d 	bl	80043a0 <XMC_VADC_GLOBAL_BackgroundSetReqSrcEventInterruptNode>
 80066e6:	6923      	ldr	r3, [r4, #16]
 80066e8:	681a      	ldr	r2, [r3, #0]
 80066ea:	b253      	sxtb	r3, r2
 80066ec:	2b00      	cmp	r3, #0
 80066ee:	db08      	blt.n	8006702 <ADC_MEASUREMENT_Init+0x11a>
 80066f0:	2101      	movs	r1, #1
 80066f2:	f002 021f 	and.w	r2, r2, #31
 80066f6:	fa01 f202 	lsl.w	r2, r1, r2
 80066fa:	095b      	lsrs	r3, r3, #5
 80066fc:	490b      	ldr	r1, [pc, #44]	; (800672c <ADC_MEASUREMENT_Init+0x144>)
 80066fe:	f841 2023 	str.w	r2, [r1, r3, lsl #2]
 8006702:	6963      	ldr	r3, [r4, #20]
 8006704:	b103      	cbz	r3, 8006708 <ADC_MEASUREMENT_Init+0x120>
 8006706:	4798      	blx	r3
 8006708:	7ea3      	ldrb	r3, [r4, #26]
 800670a:	b13b      	cbz	r3, 800671c <ADC_MEASUREMENT_Init+0x134>
 800670c:	68e3      	ldr	r3, [r4, #12]
 800670e:	695a      	ldr	r2, [r3, #20]
 8006710:	f8d2 3204 	ldr.w	r3, [r2, #516]	; 0x204
 8006714:	f443 7300 	orr.w	r3, r3, #512	; 0x200
 8006718:	f8c2 3204 	str.w	r3, [r2, #516]	; 0x204
 800671c:	7625      	strb	r5, [r4, #24]
 800671e:	7e20      	ldrb	r0, [r4, #24]
 8006720:	bdf8      	pop	{r3, r4, r5, r6, r7, pc}
 8006722:	bf00      	nop
 8006724:	e000ed00 	.word	0xe000ed00
 8006728:	e000ed14 	.word	0xe000ed14
 800672c:	e000e100 	.word	0xe000e100

08006730 <ADC_MEASUREMENT_GetResult>:
 8006730:	6803      	ldr	r3, [r0, #0]
 8006732:	6882      	ldr	r2, [r0, #8]
 8006734:	789b      	ldrb	r3, [r3, #2]
 8006736:	f003 030f 	and.w	r3, r3, #15
 800673a:	33c0      	adds	r3, #192	; 0xc0
 800673c:	f852 0023 	ldr.w	r0, [r2, r3, lsl #2]
 8006740:	b280      	uxth	r0, r0
 8006742:	4770      	bx	lr

08006744 <DAVE_Init>:
 8006744:	b508      	push	{r3, lr}
 8006746:	482c      	ldr	r0, [pc, #176]	; (80067f8 <DAVE_Init+0xb4>)
 8006748:	f7ff fdfe 	bl	8006348 <CLOCK_XMC4_Init>
 800674c:	2800      	cmp	r0, #0
 800674e:	d152      	bne.n	80067f6 <DAVE_Init+0xb2>
 8006750:	482a      	ldr	r0, [pc, #168]	; (80067fc <DAVE_Init+0xb8>)
 8006752:	f7ff fe59 	bl	8006408 <CAN_NODE_Init>
 8006756:	2800      	cmp	r0, #0
 8006758:	d14d      	bne.n	80067f6 <DAVE_Init+0xb2>
 800675a:	4829      	ldr	r0, [pc, #164]	; (8006800 <DAVE_Init+0xbc>)
 800675c:	f7ff feec 	bl	8006538 <BUS_IO_Init>
 8006760:	2800      	cmp	r0, #0
 8006762:	d148      	bne.n	80067f6 <DAVE_Init+0xb2>
 8006764:	4827      	ldr	r0, [pc, #156]	; (8006804 <DAVE_Init+0xc0>)
 8006766:	f7fd ff75 	bl	8004654 <WATCHDOG_Init>
 800676a:	2800      	cmp	r0, #0
 800676c:	d143      	bne.n	80067f6 <DAVE_Init+0xb2>
 800676e:	4826      	ldr	r0, [pc, #152]	; (8006808 <DAVE_Init+0xc4>)
 8006770:	f7ff fd31 	bl	80061d6 <DIGITAL_IO_Init>
 8006774:	2800      	cmp	r0, #0
 8006776:	d13e      	bne.n	80067f6 <DAVE_Init+0xb2>
 8006778:	4824      	ldr	r0, [pc, #144]	; (800680c <DAVE_Init+0xc8>)
 800677a:	f7ff fe45 	bl	8006408 <CAN_NODE_Init>
 800677e:	2800      	cmp	r0, #0
 8006780:	d139      	bne.n	80067f6 <DAVE_Init+0xb2>
 8006782:	4823      	ldr	r0, [pc, #140]	; (8006810 <DAVE_Init+0xcc>)
 8006784:	f7fe f802 	bl	800478c <PWM_Init>
 8006788:	2800      	cmp	r0, #0
 800678a:	d134      	bne.n	80067f6 <DAVE_Init+0xb2>
 800678c:	4821      	ldr	r0, [pc, #132]	; (8006814 <DAVE_Init+0xd0>)
 800678e:	f7fd fffd 	bl	800478c <PWM_Init>
 8006792:	bb80      	cbnz	r0, 80067f6 <DAVE_Init+0xb2>
 8006794:	4820      	ldr	r0, [pc, #128]	; (8006818 <DAVE_Init+0xd4>)
 8006796:	f7fd fff9 	bl	800478c <PWM_Init>
 800679a:	bb60      	cbnz	r0, 80067f6 <DAVE_Init+0xb2>
 800679c:	481f      	ldr	r0, [pc, #124]	; (800681c <DAVE_Init+0xd8>)
 800679e:	f7fd fff5 	bl	800478c <PWM_Init>
 80067a2:	bb40      	cbnz	r0, 80067f6 <DAVE_Init+0xb2>
 80067a4:	481e      	ldr	r0, [pc, #120]	; (8006820 <DAVE_Init+0xdc>)
 80067a6:	f7fd fff1 	bl	800478c <PWM_Init>
 80067aa:	bb20      	cbnz	r0, 80067f6 <DAVE_Init+0xb2>
 80067ac:	481d      	ldr	r0, [pc, #116]	; (8006824 <DAVE_Init+0xe0>)
 80067ae:	f7ff ff1b 	bl	80065e8 <ADC_MEASUREMENT_Init>
 80067b2:	bb00      	cbnz	r0, 80067f6 <DAVE_Init+0xb2>
 80067b4:	481c      	ldr	r0, [pc, #112]	; (8006828 <DAVE_Init+0xe4>)
 80067b6:	f7ff fd0e 	bl	80061d6 <DIGITAL_IO_Init>
 80067ba:	b9e0      	cbnz	r0, 80067f6 <DAVE_Init+0xb2>
 80067bc:	481b      	ldr	r0, [pc, #108]	; (800682c <DAVE_Init+0xe8>)
 80067be:	f7ff fd0a 	bl	80061d6 <DIGITAL_IO_Init>
 80067c2:	b9c0      	cbnz	r0, 80067f6 <DAVE_Init+0xb2>
 80067c4:	481a      	ldr	r0, [pc, #104]	; (8006830 <DAVE_Init+0xec>)
 80067c6:	f7ff fcf9 	bl	80061bc <EVENT_DETECTOR_Init>
 80067ca:	b9a0      	cbnz	r0, 80067f6 <DAVE_Init+0xb2>
 80067cc:	4819      	ldr	r0, [pc, #100]	; (8006834 <DAVE_Init+0xf0>)
 80067ce:	f7ff fce5 	bl	800619c <EVENT_GENERATOR_Init>
 80067d2:	b980      	cbnz	r0, 80067f6 <DAVE_Init+0xb2>
 80067d4:	4818      	ldr	r0, [pc, #96]	; (8006838 <DAVE_Init+0xf4>)
 80067d6:	f7fd ffe7 	bl	80047a8 <INTERRUPT_Init>
 80067da:	b960      	cbnz	r0, 80067f6 <DAVE_Init+0xb2>
 80067dc:	4817      	ldr	r0, [pc, #92]	; (800683c <DAVE_Init+0xf8>)
 80067de:	f7ff fcfa 	bl	80061d6 <DIGITAL_IO_Init>
 80067e2:	b940      	cbnz	r0, 80067f6 <DAVE_Init+0xb2>
 80067e4:	4816      	ldr	r0, [pc, #88]	; (8006840 <DAVE_Init+0xfc>)
 80067e6:	f7ff fcf6 	bl	80061d6 <DIGITAL_IO_Init>
 80067ea:	b920      	cbnz	r0, 80067f6 <DAVE_Init+0xb2>
 80067ec:	4815      	ldr	r0, [pc, #84]	; (8006844 <DAVE_Init+0x100>)
 80067ee:	e8bd 4008 	ldmia.w	sp!, {r3, lr}
 80067f2:	f7ff bea1 	b.w	8006538 <BUS_IO_Init>
 80067f6:	bd08      	pop	{r3, pc}
 80067f8:	200007f0 	.word	0x200007f0
 80067fc:	08009624 	.word	0x08009624
 8006800:	20000450 	.word	0x20000450
 8006804:	20000000 	.word	0x20000000
 8006808:	08009528 	.word	0x08009528
 800680c:	080096cc 	.word	0x080096cc
 8006810:	2000007c 	.word	0x2000007c
 8006814:	200000e4 	.word	0x200000e4
 8006818:	200000b0 	.word	0x200000b0
 800681c:	20000014 	.word	0x20000014
 8006820:	20000048 	.word	0x20000048
 8006824:	20000478 	.word	0x20000478
 8006828:	080094ec 	.word	0x080094ec
 800682c:	08009500 	.word	0x08009500
 8006830:	200001a4 	.word	0x200001a4
 8006834:	20000194 	.word	0x20000194
 8006838:	0800943c 	.word	0x0800943c
 800683c:	080094d8 	.word	0x080094d8
 8006840:	08009514 	.word	0x08009514
 8006844:	20000464 	.word	0x20000464

08006848 <CAN_1_ini>:
 8006848:	4b3e      	ldr	r3, [pc, #248]	; (8006944 <CAN_1_ini+0xfc>)
 800684a:	781a      	ldrb	r2, [r3, #0]
 800684c:	4b3e      	ldr	r3, [pc, #248]	; (8006948 <CAN_1_ini+0x100>)
 800684e:	b11a      	cbz	r2, 8006858 <CAN_1_ini+0x10>
 8006850:	681a      	ldr	r2, [r3, #0]
 8006852:	7c19      	ldrb	r1, [r3, #16]
 8006854:	2301      	movs	r3, #1
 8006856:	e003      	b.n	8006860 <CAN_1_ini+0x18>
 8006858:	681a      	ldr	r2, [r3, #0]
 800685a:	7c19      	ldrb	r1, [r3, #16]
 800685c:	f44f 3380 	mov.w	r3, #65536	; 0x10000
 8006860:	408b      	lsls	r3, r1
 8006862:	6053      	str	r3, [r2, #4]
 8006864:	4b39      	ldr	r3, [pc, #228]	; (800694c <CAN_1_ini+0x104>)
 8006866:	4a3a      	ldr	r2, [pc, #232]	; (8006950 <CAN_1_ini+0x108>)
 8006868:	1e59      	subs	r1, r3, #1
 800686a:	6051      	str	r1, [r2, #4]
 800686c:	4939      	ldr	r1, [pc, #228]	; (8006954 <CAN_1_ini+0x10c>)
 800686e:	6091      	str	r1, [r2, #8]
 8006870:	4939      	ldr	r1, [pc, #228]	; (8006958 <CAN_1_ini+0x110>)
 8006872:	6013      	str	r3, [r2, #0]
 8006874:	1ed8      	subs	r0, r3, #3
 8006876:	6008      	str	r0, [r1, #0]
 8006878:	4938      	ldr	r1, [pc, #224]	; (800695c <CAN_1_ini+0x114>)
 800687a:	1f18      	subs	r0, r3, #4
 800687c:	6008      	str	r0, [r1, #0]
 800687e:	1f59      	subs	r1, r3, #5
 8006880:	60d1      	str	r1, [r2, #12]
 8006882:	1e99      	subs	r1, r3, #2
 8006884:	6291      	str	r1, [r2, #40]	; 0x28
 8006886:	1c59      	adds	r1, r3, #1
 8006888:	6391      	str	r1, [r2, #56]	; 0x38
 800688a:	f103 0108 	add.w	r1, r3, #8
 800688e:	6651      	str	r1, [r2, #100]	; 0x64
 8006890:	f103 0109 	add.w	r1, r3, #9
 8006894:	6691      	str	r1, [r2, #104]	; 0x68
 8006896:	f103 010b 	add.w	r1, r3, #11
 800689a:	67d1      	str	r1, [r2, #124]	; 0x7c
 800689c:	4930      	ldr	r1, [pc, #192]	; (8006960 <CAN_1_ini+0x118>)
 800689e:	6791      	str	r1, [r2, #120]	; 0x78
 80068a0:	f103 010a 	add.w	r1, r3, #10
 80068a4:	f8c2 1080 	str.w	r1, [r2, #128]	; 0x80
 80068a8:	f1a3 0122 	sub.w	r1, r3, #34	; 0x22
 80068ac:	f8c2 1088 	str.w	r1, [r2, #136]	; 0x88
 80068b0:	f1a3 0180 	sub.w	r1, r3, #128	; 0x80
 80068b4:	f8c2 108c 	str.w	r1, [r2, #140]	; 0x8c
 80068b8:	f1a3 0121 	sub.w	r1, r3, #33	; 0x21
 80068bc:	f8c2 1090 	str.w	r1, [r2, #144]	; 0x90
 80068c0:	f1a3 0120 	sub.w	r1, r3, #32
 80068c4:	f8c2 1094 	str.w	r1, [r2, #148]	; 0x94
 80068c8:	f1a3 011f 	sub.w	r1, r3, #31
 80068cc:	f8c2 1098 	str.w	r1, [r2, #152]	; 0x98
 80068d0:	f1a3 011e 	sub.w	r1, r3, #30
 80068d4:	f8c2 109c 	str.w	r1, [r2, #156]	; 0x9c
 80068d8:	f103 0124 	add.w	r1, r3, #36	; 0x24
 80068dc:	f8c2 10a0 	str.w	r1, [r2, #160]	; 0xa0
 80068e0:	f1a3 012a 	sub.w	r1, r3, #42	; 0x2a
 80068e4:	f8c2 10a4 	str.w	r1, [r2, #164]	; 0xa4
 80068e8:	f1a3 0129 	sub.w	r1, r3, #41	; 0x29
 80068ec:	f8c2 10a8 	str.w	r1, [r2, #168]	; 0xa8
 80068f0:	f1a3 0128 	sub.w	r1, r3, #40	; 0x28
 80068f4:	f8c2 10ac 	str.w	r1, [r2, #172]	; 0xac
 80068f8:	f1a3 0127 	sub.w	r1, r3, #39	; 0x27
 80068fc:	f8c2 10b0 	str.w	r1, [r2, #176]	; 0xb0
 8006900:	f1a3 0126 	sub.w	r1, r3, #38	; 0x26
 8006904:	f8c2 10b4 	str.w	r1, [r2, #180]	; 0xb4
 8006908:	f1a3 0125 	sub.w	r1, r3, #37	; 0x25
 800690c:	f8c2 10b8 	str.w	r1, [r2, #184]	; 0xb8
 8006910:	f1a3 0124 	sub.w	r1, r3, #36	; 0x24
 8006914:	f1a3 0086 	sub.w	r0, r3, #134	; 0x86
 8006918:	f8c2 10bc 	str.w	r1, [r2, #188]	; 0xbc
 800691c:	f1a3 0123 	sub.w	r1, r3, #35	; 0x23
 8006920:	f8c2 10c0 	str.w	r1, [r2, #192]	; 0xc0
 8006924:	f8c2 00c8 	str.w	r0, [r2, #200]	; 0xc8
 8006928:	f1a3 0188 	sub.w	r1, r3, #136	; 0x88
 800692c:	f1a3 0084 	sub.w	r0, r3, #132	; 0x84
 8006930:	330c      	adds	r3, #12
 8006932:	f8c2 10c4 	str.w	r1, [r2, #196]	; 0xc4
 8006936:	f8c2 00cc 	str.w	r0, [r2, #204]	; 0xcc
 800693a:	f8c2 10d0 	str.w	r1, [r2, #208]	; 0xd0
 800693e:	f8c2 3138 	str.w	r3, [r2, #312]	; 0x138
 8006942:	4770      	bx	lr
 8006944:	20000620 	.word	0x20000620
 8006948:	080094ec 	.word	0x080094ec
 800694c:	20001158 	.word	0x20001158
 8006950:	20001310 	.word	0x20001310
 8006954:	2000082a 	.word	0x2000082a
 8006958:	2000122c 	.word	0x2000122c
 800695c:	20001238 	.word	0x20001238
 8006960:	20000828 	.word	0x20000828

08006964 <CAN_1_Receive>:
 8006964:	b570      	push	{r4, r5, r6, lr}
 8006966:	4d39      	ldr	r5, [pc, #228]	; (8006a4c <CAN_1_Receive+0xe8>)
 8006968:	4c39      	ldr	r4, [pc, #228]	; (8006a50 <CAN_1_Receive+0xec>)
 800696a:	4628      	mov	r0, r5
 800696c:	f7ff fd40 	bl	80063f0 <CAN_NODE_MO_Receive>
 8006970:	682d      	ldr	r5, [r5, #0]
 8006972:	6826      	ldr	r6, [r4, #0]
 8006974:	7c28      	ldrb	r0, [r5, #16]
 8006976:	210b      	movs	r1, #11
 8006978:	f000 fcea 	bl	8007350 <checkRangePlausi>
 800697c:	7030      	strb	r0, [r6, #0]
 800697e:	7c68      	ldrb	r0, [r5, #17]
 8006980:	6866      	ldr	r6, [r4, #4]
 8006982:	210c      	movs	r1, #12
 8006984:	f000 fce4 	bl	8007350 <checkRangePlausi>
 8006988:	7030      	strb	r0, [r6, #0]
 800698a:	8a68      	ldrh	r0, [r5, #18]
 800698c:	68a6      	ldr	r6, [r4, #8]
 800698e:	2106      	movs	r1, #6
 8006990:	f000 fcde 	bl	8007350 <checkRangePlausi>
 8006994:	4b2f      	ldr	r3, [pc, #188]	; (8006a54 <CAN_1_Receive+0xf0>)
 8006996:	8030      	strh	r0, [r6, #0]
 8006998:	681e      	ldr	r6, [r3, #0]
 800699a:	68a3      	ldr	r3, [r4, #8]
 800699c:	2107      	movs	r1, #7
 800699e:	8818      	ldrh	r0, [r3, #0]
 80069a0:	2208      	movs	r2, #8
 80069a2:	f001 fb49 	bl	8008038 <getbits>
 80069a6:	4b2c      	ldr	r3, [pc, #176]	; (8006a58 <CAN_1_Receive+0xf4>)
 80069a8:	7030      	strb	r0, [r6, #0]
 80069aa:	681e      	ldr	r6, [r3, #0]
 80069ac:	68a3      	ldr	r3, [r4, #8]
 80069ae:	2208      	movs	r2, #8
 80069b0:	8818      	ldrh	r0, [r3, #0]
 80069b2:	210f      	movs	r1, #15
 80069b4:	f001 fb40 	bl	8008038 <getbits>
 80069b8:	7030      	strb	r0, [r6, #0]
 80069ba:	7d28      	ldrb	r0, [r5, #20]
 80069bc:	68e6      	ldr	r6, [r4, #12]
 80069be:	2104      	movs	r1, #4
 80069c0:	f000 fcc6 	bl	8007350 <checkRangePlausi>
 80069c4:	7030      	strb	r0, [r6, #0]
 80069c6:	2100      	movs	r1, #0
 80069c8:	2203      	movs	r2, #3
 80069ca:	7d28      	ldrb	r0, [r5, #20]
 80069cc:	6aa6      	ldr	r6, [r4, #40]	; 0x28
 80069ce:	4d23      	ldr	r5, [pc, #140]	; (8006a5c <CAN_1_Receive+0xf8>)
 80069d0:	f001 fb32 	bl	8008038 <getbits>
 80069d4:	7030      	strb	r0, [r6, #0]
 80069d6:	4628      	mov	r0, r5
 80069d8:	f7ff fd0a 	bl	80063f0 <CAN_NODE_MO_Receive>
 80069dc:	682a      	ldr	r2, [r5, #0]
 80069de:	6ba3      	ldr	r3, [r4, #56]	; 0x38
 80069e0:	4d1f      	ldr	r5, [pc, #124]	; (8006a60 <CAN_1_Receive+0xfc>)
 80069e2:	7cd2      	ldrb	r2, [r2, #19]
 80069e4:	701a      	strb	r2, [r3, #0]
 80069e6:	4628      	mov	r0, r5
 80069e8:	f7ff fd02 	bl	80063f0 <CAN_NODE_MO_Receive>
 80069ec:	682d      	ldr	r5, [r5, #0]
 80069ee:	6e66      	ldr	r6, [r4, #100]	; 0x64
 80069f0:	7c28      	ldrb	r0, [r5, #16]
 80069f2:	2201      	movs	r2, #1
 80069f4:	2100      	movs	r1, #0
 80069f6:	f001 fb1f 	bl	8008038 <getbits>
 80069fa:	2112      	movs	r1, #18
 80069fc:	f000 fca8 	bl	8007350 <checkRangePlausi>
 8006a00:	2101      	movs	r1, #1
 8006a02:	7030      	strb	r0, [r6, #0]
 8006a04:	460a      	mov	r2, r1
 8006a06:	7c28      	ldrb	r0, [r5, #16]
 8006a08:	6ea6      	ldr	r6, [r4, #104]	; 0x68
 8006a0a:	f001 fb15 	bl	8008038 <getbits>
 8006a0e:	2111      	movs	r1, #17
 8006a10:	f000 fc9e 	bl	8007350 <checkRangePlausi>
 8006a14:	7030      	strb	r0, [r6, #0]
 8006a16:	6fa3      	ldr	r3, [r4, #120]	; 0x78
 8006a18:	7c6a      	ldrb	r2, [r5, #17]
 8006a1a:	701a      	strb	r2, [r3, #0]
 8006a1c:	7ca8      	ldrb	r0, [r5, #18]
 8006a1e:	6fe6      	ldr	r6, [r4, #124]	; 0x7c
 8006a20:	2114      	movs	r1, #20
 8006a22:	f000 fc95 	bl	8007350 <checkRangePlausi>
 8006a26:	7030      	strb	r0, [r6, #0]
 8006a28:	7ce8      	ldrb	r0, [r5, #19]
 8006a2a:	f8d4 6080 	ldr.w	r6, [r4, #128]	; 0x80
 8006a2e:	4d0d      	ldr	r5, [pc, #52]	; (8006a64 <CAN_1_Receive+0x100>)
 8006a30:	2110      	movs	r1, #16
 8006a32:	f000 fc8d 	bl	8007350 <checkRangePlausi>
 8006a36:	7030      	strb	r0, [r6, #0]
 8006a38:	4628      	mov	r0, r5
 8006a3a:	f7ff fcd9 	bl	80063f0 <CAN_NODE_MO_Receive>
 8006a3e:	682a      	ldr	r2, [r5, #0]
 8006a40:	f8d4 3138 	ldr.w	r3, [r4, #312]	; 0x138
 8006a44:	7c12      	ldrb	r2, [r2, #16]
 8006a46:	701a      	strb	r2, [r3, #0]
 8006a48:	bd70      	pop	{r4, r5, r6, pc}
 8006a4a:	bf00      	nop
 8006a4c:	0800957c 	.word	0x0800957c
 8006a50:	20001310 	.word	0x20001310
 8006a54:	2000122c 	.word	0x2000122c
 8006a58:	20001238 	.word	0x20001238
 8006a5c:	080097bc 	.word	0x080097bc
 8006a60:	080095e8 	.word	0x080095e8
 8006a64:	0800978c 	.word	0x0800978c

08006a68 <CAN_1_Transmit>:
 8006a68:	b5f8      	push	{r3, r4, r5, r6, r7, lr}
 8006a6a:	4c69      	ldr	r4, [pc, #420]	; (8006c10 <CAN_1_Transmit+0x1a8>)
 8006a6c:	4f69      	ldr	r7, [pc, #420]	; (8006c14 <CAN_1_Transmit+0x1ac>)
 8006a6e:	f8d4 3088 	ldr.w	r3, [r4, #136]	; 0x88
 8006a72:	781b      	ldrb	r3, [r3, #0]
 8006a74:	703b      	strb	r3, [r7, #0]
 8006a76:	f8d4 308c 	ldr.w	r3, [r4, #140]	; 0x8c
 8006a7a:	2107      	movs	r1, #7
 8006a7c:	8818      	ldrh	r0, [r3, #0]
 8006a7e:	2208      	movs	r2, #8
 8006a80:	f001 fada 	bl	8008038 <getbits>
 8006a84:	f8d4 308c 	ldr.w	r3, [r4, #140]	; 0x8c
 8006a88:	7078      	strb	r0, [r7, #1]
 8006a8a:	8818      	ldrh	r0, [r3, #0]
 8006a8c:	210f      	movs	r1, #15
 8006a8e:	2208      	movs	r2, #8
 8006a90:	f001 fad2 	bl	8008038 <getbits>
 8006a94:	f8d4 3090 	ldr.w	r3, [r4, #144]	; 0x90
 8006a98:	70b8      	strb	r0, [r7, #2]
 8006a9a:	7818      	ldrb	r0, [r3, #0]
 8006a9c:	2100      	movs	r1, #0
 8006a9e:	2201      	movs	r2, #1
 8006aa0:	f001 faca 	bl	8008038 <getbits>
 8006aa4:	f8d4 3094 	ldr.w	r3, [r4, #148]	; 0x94
 8006aa8:	4606      	mov	r6, r0
 8006aaa:	2100      	movs	r1, #0
 8006aac:	7818      	ldrb	r0, [r3, #0]
 8006aae:	2201      	movs	r2, #1
 8006ab0:	f001 fac2 	bl	8008038 <getbits>
 8006ab4:	f8d4 3098 	ldr.w	r3, [r4, #152]	; 0x98
 8006ab8:	4605      	mov	r5, r0
 8006aba:	2100      	movs	r1, #0
 8006abc:	7818      	ldrb	r0, [r3, #0]
 8006abe:	2201      	movs	r2, #1
 8006ac0:	f001 faba 	bl	8008038 <getbits>
 8006ac4:	f8d4 309c 	ldr.w	r3, [r4, #156]	; 0x9c
 8006ac8:	0180      	lsls	r0, r0, #6
 8006aca:	ea40 1545 	orr.w	r5, r0, r5, lsl #5
 8006ace:	2100      	movs	r1, #0
 8006ad0:	7818      	ldrb	r0, [r3, #0]
 8006ad2:	2201      	movs	r2, #1
 8006ad4:	f001 fab0 	bl	8008038 <getbits>
 8006ad8:	4335      	orrs	r5, r6
 8006ada:	f8d4 30a0 	ldr.w	r3, [r4, #160]	; 0xa0
 8006ade:	b2ed      	uxtb	r5, r5
 8006ae0:	ea45 10c0 	orr.w	r0, r5, r0, lsl #7
 8006ae4:	2201      	movs	r2, #1
 8006ae6:	b2c5      	uxtb	r5, r0
 8006ae8:	2100      	movs	r1, #0
 8006aea:	7818      	ldrb	r0, [r3, #0]
 8006aec:	f001 faa4 	bl	8008038 <getbits>
 8006af0:	ea45 0040 	orr.w	r0, r5, r0, lsl #1
 8006af4:	4d48      	ldr	r5, [pc, #288]	; (8006c18 <CAN_1_Transmit+0x1b0>)
 8006af6:	70f8      	strb	r0, [r7, #3]
 8006af8:	4639      	mov	r1, r7
 8006afa:	4628      	mov	r0, r5
 8006afc:	f7ff fc7b 	bl	80063f6 <CAN_NODE_MO_UpdateData>
 8006b00:	4628      	mov	r0, r5
 8006b02:	f7ff fc72 	bl	80063ea <CAN_NODE_MO_Transmit>
 8006b06:	f8d4 30a4 	ldr.w	r3, [r4, #164]	; 0xa4
 8006b0a:	4d44      	ldr	r5, [pc, #272]	; (8006c1c <CAN_1_Transmit+0x1b4>)
 8006b0c:	781b      	ldrb	r3, [r3, #0]
 8006b0e:	702b      	strb	r3, [r5, #0]
 8006b10:	f8d4 30a8 	ldr.w	r3, [r4, #168]	; 0xa8
 8006b14:	781b      	ldrb	r3, [r3, #0]
 8006b16:	706b      	strb	r3, [r5, #1]
 8006b18:	f8d4 30ac 	ldr.w	r3, [r4, #172]	; 0xac
 8006b1c:	781b      	ldrb	r3, [r3, #0]
 8006b1e:	70ab      	strb	r3, [r5, #2]
 8006b20:	f8d4 30b0 	ldr.w	r3, [r4, #176]	; 0xb0
 8006b24:	2100      	movs	r1, #0
 8006b26:	7818      	ldrb	r0, [r3, #0]
 8006b28:	2201      	movs	r2, #1
 8006b2a:	f001 fa85 	bl	8008038 <getbits>
 8006b2e:	f8d4 30b4 	ldr.w	r3, [r4, #180]	; 0xb4
 8006b32:	4606      	mov	r6, r0
 8006b34:	2100      	movs	r1, #0
 8006b36:	7818      	ldrb	r0, [r3, #0]
 8006b38:	2201      	movs	r2, #1
 8006b3a:	f001 fa7d 	bl	8008038 <getbits>
 8006b3e:	f8d4 30b8 	ldr.w	r3, [r4, #184]	; 0xb8
 8006b42:	2201      	movs	r2, #1
 8006b44:	4607      	mov	r7, r0
 8006b46:	2100      	movs	r1, #0
 8006b48:	7818      	ldrb	r0, [r3, #0]
 8006b4a:	f001 fa75 	bl	8008038 <getbits>
 8006b4e:	0080      	lsls	r0, r0, #2
 8006b50:	ea40 0047 	orr.w	r0, r0, r7, lsl #1
 8006b54:	4306      	orrs	r6, r0
 8006b56:	f8d4 30bc 	ldr.w	r3, [r4, #188]	; 0xbc
 8006b5a:	70ee      	strb	r6, [r5, #3]
 8006b5c:	781b      	ldrb	r3, [r3, #0]
 8006b5e:	712b      	strb	r3, [r5, #4]
 8006b60:	4e2f      	ldr	r6, [pc, #188]	; (8006c20 <CAN_1_Transmit+0x1b8>)
 8006b62:	f8d4 30c0 	ldr.w	r3, [r4, #192]	; 0xc0
 8006b66:	4629      	mov	r1, r5
 8006b68:	781b      	ldrb	r3, [r3, #0]
 8006b6a:	716b      	strb	r3, [r5, #5]
 8006b6c:	4630      	mov	r0, r6
 8006b6e:	f7ff fc42 	bl	80063f6 <CAN_NODE_MO_UpdateData>
 8006b72:	4630      	mov	r0, r6
 8006b74:	f7ff fc39 	bl	80063ea <CAN_NODE_MO_Transmit>
 8006b78:	f8d4 30c4 	ldr.w	r3, [r4, #196]	; 0xc4
 8006b7c:	4d29      	ldr	r5, [pc, #164]	; (8006c24 <CAN_1_Transmit+0x1bc>)
 8006b7e:	8818      	ldrh	r0, [r3, #0]
 8006b80:	2107      	movs	r1, #7
 8006b82:	2208      	movs	r2, #8
 8006b84:	f001 fa58 	bl	8008038 <getbits>
 8006b88:	f8d4 30c4 	ldr.w	r3, [r4, #196]	; 0xc4
 8006b8c:	7028      	strb	r0, [r5, #0]
 8006b8e:	8818      	ldrh	r0, [r3, #0]
 8006b90:	210f      	movs	r1, #15
 8006b92:	2208      	movs	r2, #8
 8006b94:	f001 fa50 	bl	8008038 <getbits>
 8006b98:	f8d4 30c8 	ldr.w	r3, [r4, #200]	; 0xc8
 8006b9c:	7068      	strb	r0, [r5, #1]
 8006b9e:	8818      	ldrh	r0, [r3, #0]
 8006ba0:	2107      	movs	r1, #7
 8006ba2:	2208      	movs	r2, #8
 8006ba4:	f001 fa48 	bl	8008038 <getbits>
 8006ba8:	f8d4 30c8 	ldr.w	r3, [r4, #200]	; 0xc8
 8006bac:	70a8      	strb	r0, [r5, #2]
 8006bae:	8818      	ldrh	r0, [r3, #0]
 8006bb0:	210f      	movs	r1, #15
 8006bb2:	2208      	movs	r2, #8
 8006bb4:	f001 fa40 	bl	8008038 <getbits>
 8006bb8:	f8d4 30cc 	ldr.w	r3, [r4, #204]	; 0xcc
 8006bbc:	70e8      	strb	r0, [r5, #3]
 8006bbe:	8818      	ldrh	r0, [r3, #0]
 8006bc0:	2107      	movs	r1, #7
 8006bc2:	2208      	movs	r2, #8
 8006bc4:	f001 fa38 	bl	8008038 <getbits>
 8006bc8:	f8d4 30cc 	ldr.w	r3, [r4, #204]	; 0xcc
 8006bcc:	7128      	strb	r0, [r5, #4]
 8006bce:	8818      	ldrh	r0, [r3, #0]
 8006bd0:	210f      	movs	r1, #15
 8006bd2:	2208      	movs	r2, #8
 8006bd4:	f001 fa30 	bl	8008038 <getbits>
 8006bd8:	f8d4 30d0 	ldr.w	r3, [r4, #208]	; 0xd0
 8006bdc:	7168      	strb	r0, [r5, #5]
 8006bde:	8818      	ldrh	r0, [r3, #0]
 8006be0:	2107      	movs	r1, #7
 8006be2:	2208      	movs	r2, #8
 8006be4:	f001 fa28 	bl	8008038 <getbits>
 8006be8:	f8d4 30d0 	ldr.w	r3, [r4, #208]	; 0xd0
 8006bec:	71a8      	strb	r0, [r5, #6]
 8006bee:	8818      	ldrh	r0, [r3, #0]
 8006bf0:	4c0d      	ldr	r4, [pc, #52]	; (8006c28 <CAN_1_Transmit+0x1c0>)
 8006bf2:	210f      	movs	r1, #15
 8006bf4:	2208      	movs	r2, #8
 8006bf6:	f001 fa1f 	bl	8008038 <getbits>
 8006bfa:	4629      	mov	r1, r5
 8006bfc:	71e8      	strb	r0, [r5, #7]
 8006bfe:	4620      	mov	r0, r4
 8006c00:	f7ff fbf9 	bl	80063f6 <CAN_NODE_MO_UpdateData>
 8006c04:	4620      	mov	r0, r4
 8006c06:	e8bd 40f8 	ldmia.w	sp!, {r3, r4, r5, r6, r7, lr}
 8006c0a:	f7ff bbee 	b.w	80063ea <CAN_NODE_MO_Transmit>
 8006c0e:	bf00      	nop
 8006c10:	20001310 	.word	0x20001310
 8006c14:	2000082c 	.word	0x2000082c
 8006c18:	080095d0 	.word	0x080095d0
 8006c1c:	2000083c 	.word	0x2000083c
 8006c20:	08009588 	.word	0x08009588
 8006c24:	20000834 	.word	0x20000834
 8006c28:	080097c8 	.word	0x080097c8

08006c2c <CAN_2_ini>:
 8006c2c:	b510      	push	{r4, lr}
 8006c2e:	4b64      	ldr	r3, [pc, #400]	; (8006dc0 <CAN_2_ini+0x194>)
 8006c30:	781a      	ldrb	r2, [r3, #0]
 8006c32:	4b64      	ldr	r3, [pc, #400]	; (8006dc4 <CAN_2_ini+0x198>)
 8006c34:	b11a      	cbz	r2, 8006c3e <CAN_2_ini+0x12>
 8006c36:	681a      	ldr	r2, [r3, #0]
 8006c38:	7c19      	ldrb	r1, [r3, #16]
 8006c3a:	2301      	movs	r3, #1
 8006c3c:	e003      	b.n	8006c46 <CAN_2_ini+0x1a>
 8006c3e:	681a      	ldr	r2, [r3, #0]
 8006c40:	7c19      	ldrb	r1, [r3, #16]
 8006c42:	f44f 3380 	mov.w	r3, #65536	; 0x10000
 8006c46:	408b      	lsls	r3, r1
 8006c48:	6053      	str	r3, [r2, #4]
 8006c4a:	4b5f      	ldr	r3, [pc, #380]	; (8006dc8 <CAN_2_ini+0x19c>)
 8006c4c:	4a5f      	ldr	r2, [pc, #380]	; (8006dcc <CAN_2_ini+0x1a0>)
 8006c4e:	f8c3 20d4 	str.w	r2, [r3, #212]	; 0xd4
 8006c52:	495f      	ldr	r1, [pc, #380]	; (8006dd0 <CAN_2_ini+0x1a4>)
 8006c54:	4a5f      	ldr	r2, [pc, #380]	; (8006dd4 <CAN_2_ini+0x1a8>)
 8006c56:	4860      	ldr	r0, [pc, #384]	; (8006dd8 <CAN_2_ini+0x1ac>)
 8006c58:	600a      	str	r2, [r1, #0]
 8006c5a:	1e51      	subs	r1, r2, #1
 8006c5c:	6001      	str	r1, [r0, #0]
 8006c5e:	485f      	ldr	r0, [pc, #380]	; (8006ddc <CAN_2_ini+0x1b0>)
 8006c60:	f8c3 00d8 	str.w	r0, [r3, #216]	; 0xd8
 8006c64:	485e      	ldr	r0, [pc, #376]	; (8006de0 <CAN_2_ini+0x1b4>)
 8006c66:	1c54      	adds	r4, r2, #1
 8006c68:	6004      	str	r4, [r0, #0]
 8006c6a:	485e      	ldr	r0, [pc, #376]	; (8006de4 <CAN_2_ini+0x1b8>)
 8006c6c:	6001      	str	r1, [r0, #0]
 8006c6e:	f1a2 0119 	sub.w	r1, r2, #25
 8006c72:	f8c3 10dc 	str.w	r1, [r3, #220]	; 0xdc
 8006c76:	495c      	ldr	r1, [pc, #368]	; (8006de8 <CAN_2_ini+0x1bc>)
 8006c78:	f8c3 10e0 	str.w	r1, [r3, #224]	; 0xe0
 8006c7c:	495b      	ldr	r1, [pc, #364]	; (8006dec <CAN_2_ini+0x1c0>)
 8006c7e:	f1a2 001b 	sub.w	r0, r2, #27
 8006c82:	6008      	str	r0, [r1, #0]
 8006c84:	495a      	ldr	r1, [pc, #360]	; (8006df0 <CAN_2_ini+0x1c4>)
 8006c86:	f1a2 0018 	sub.w	r0, r2, #24
 8006c8a:	6008      	str	r0, [r1, #0]
 8006c8c:	f1a2 011a 	sub.w	r1, r2, #26
 8006c90:	f8c3 10e4 	str.w	r1, [r3, #228]	; 0xe4
 8006c94:	f1a2 0116 	sub.w	r1, r2, #22
 8006c98:	f8c3 10e8 	str.w	r1, [r3, #232]	; 0xe8
 8006c9c:	f1a2 0117 	sub.w	r1, r2, #23
 8006ca0:	f8c3 10ec 	str.w	r1, [r3, #236]	; 0xec
 8006ca4:	4953      	ldr	r1, [pc, #332]	; (8006df4 <CAN_2_ini+0x1c8>)
 8006ca6:	f8c3 10f4 	str.w	r1, [r3, #244]	; 0xf4
 8006caa:	4953      	ldr	r1, [pc, #332]	; (8006df8 <CAN_2_ini+0x1cc>)
 8006cac:	f1a2 0010 	sub.w	r0, r2, #16
 8006cb0:	6008      	str	r0, [r1, #0]
 8006cb2:	4952      	ldr	r1, [pc, #328]	; (8006dfc <CAN_2_ini+0x1d0>)
 8006cb4:	f1a2 0014 	sub.w	r0, r2, #20
 8006cb8:	6008      	str	r0, [r1, #0]
 8006cba:	4951      	ldr	r1, [pc, #324]	; (8006e00 <CAN_2_ini+0x1d4>)
 8006cbc:	f8c3 10f8 	str.w	r1, [r3, #248]	; 0xf8
 8006cc0:	4950      	ldr	r1, [pc, #320]	; (8006e04 <CAN_2_ini+0x1d8>)
 8006cc2:	f1a2 0013 	sub.w	r0, r2, #19
 8006cc6:	6008      	str	r0, [r1, #0]
 8006cc8:	494f      	ldr	r1, [pc, #316]	; (8006e08 <CAN_2_ini+0x1dc>)
 8006cca:	f1a2 0012 	sub.w	r0, r2, #18
 8006cce:	6008      	str	r0, [r1, #0]
 8006cd0:	494e      	ldr	r1, [pc, #312]	; (8006e0c <CAN_2_ini+0x1e0>)
 8006cd2:	f8c3 10fc 	str.w	r1, [r3, #252]	; 0xfc
 8006cd6:	494e      	ldr	r1, [pc, #312]	; (8006e10 <CAN_2_ini+0x1e4>)
 8006cd8:	f1a2 0011 	sub.w	r0, r2, #17
 8006cdc:	6008      	str	r0, [r1, #0]
 8006cde:	494d      	ldr	r1, [pc, #308]	; (8006e14 <CAN_2_ini+0x1e8>)
 8006ce0:	f1a2 000f 	sub.w	r0, r2, #15
 8006ce4:	6008      	str	r0, [r1, #0]
 8006ce6:	494c      	ldr	r1, [pc, #304]	; (8006e18 <CAN_2_ini+0x1ec>)
 8006ce8:	f8c3 1100 	str.w	r1, [r3, #256]	; 0x100
 8006cec:	494b      	ldr	r1, [pc, #300]	; (8006e1c <CAN_2_ini+0x1f0>)
 8006cee:	f1a2 000e 	sub.w	r0, r2, #14
 8006cf2:	6008      	str	r0, [r1, #0]
 8006cf4:	494a      	ldr	r1, [pc, #296]	; (8006e20 <CAN_2_ini+0x1f4>)
 8006cf6:	f1a2 000d 	sub.w	r0, r2, #13
 8006cfa:	6008      	str	r0, [r1, #0]
 8006cfc:	f1a2 0184 	sub.w	r1, r2, #132	; 0x84
 8006d00:	f8c3 1104 	str.w	r1, [r3, #260]	; 0x104
 8006d04:	f1a2 0182 	sub.w	r1, r2, #130	; 0x82
 8006d08:	f8c3 1108 	str.w	r1, [r3, #264]	; 0x108
 8006d0c:	4945      	ldr	r1, [pc, #276]	; (8006e24 <CAN_2_ini+0x1f8>)
 8006d0e:	f8c3 1114 	str.w	r1, [r3, #276]	; 0x114
 8006d12:	4945      	ldr	r1, [pc, #276]	; (8006e28 <CAN_2_ini+0x1fc>)
 8006d14:	f8c3 1118 	str.w	r1, [r3, #280]	; 0x118
 8006d18:	4944      	ldr	r1, [pc, #272]	; (8006e2c <CAN_2_ini+0x200>)
 8006d1a:	f8c3 111c 	str.w	r1, [r3, #284]	; 0x11c
 8006d1e:	f102 011e 	add.w	r1, r2, #30
 8006d22:	f8c3 1140 	str.w	r1, [r3, #320]	; 0x140
 8006d26:	f1a2 0121 	sub.w	r1, r2, #33	; 0x21
 8006d2a:	f8c3 1128 	str.w	r1, [r3, #296]	; 0x128
 8006d2e:	f1a2 0120 	sub.w	r1, r2, #32
 8006d32:	f8c3 112c 	str.w	r1, [r3, #300]	; 0x12c
 8006d36:	f1a2 011f 	sub.w	r1, r2, #31
 8006d3a:	f8c3 1130 	str.w	r1, [r3, #304]	; 0x130
 8006d3e:	f1a2 011e 	sub.w	r1, r2, #30
 8006d42:	f8c3 1134 	str.w	r1, [r3, #308]	; 0x134
 8006d46:	f1a2 011d 	sub.w	r1, r2, #29
 8006d4a:	f8c3 113c 	str.w	r1, [r3, #316]	; 0x13c
 8006d4e:	321a      	adds	r2, #26
 8006d50:	4937      	ldr	r1, [pc, #220]	; (8006e30 <CAN_2_ini+0x204>)
 8006d52:	f8c3 1144 	str.w	r1, [r3, #324]	; 0x144
 8006d56:	f8c3 2148 	str.w	r2, [r3, #328]	; 0x148
 8006d5a:	2000      	movs	r0, #0
 8006d5c:	f503 72a8 	add.w	r2, r3, #336	; 0x150
 8006d60:	2100      	movs	r1, #0
 8006d62:	e9c2 0100 	strd	r0, r1, [r2]
 8006d66:	2200      	movs	r2, #0
 8006d68:	f883 2158 	strb.w	r2, [r3, #344]	; 0x158
 8006d6c:	f883 2159 	strb.w	r2, [r3, #345]	; 0x159
 8006d70:	f883 215a 	strb.w	r2, [r3, #346]	; 0x15a
 8006d74:	f883 215b 	strb.w	r2, [r3, #347]	; 0x15b
 8006d78:	f883 215c 	strb.w	r2, [r3, #348]	; 0x15c
 8006d7c:	f883 215d 	strb.w	r2, [r3, #349]	; 0x15d
 8006d80:	f883 215e 	strb.w	r2, [r3, #350]	; 0x15e
 8006d84:	f883 215f 	strb.w	r2, [r3, #351]	; 0x15f
 8006d88:	f883 2160 	strb.w	r2, [r3, #352]	; 0x160
 8006d8c:	f883 2161 	strb.w	r2, [r3, #353]	; 0x161
 8006d90:	f883 2162 	strb.w	r2, [r3, #354]	; 0x162
 8006d94:	f883 2163 	strb.w	r2, [r3, #355]	; 0x163
 8006d98:	f883 2164 	strb.w	r2, [r3, #356]	; 0x164
 8006d9c:	f883 2165 	strb.w	r2, [r3, #357]	; 0x165
 8006da0:	f883 2166 	strb.w	r2, [r3, #358]	; 0x166
 8006da4:	f883 2167 	strb.w	r2, [r3, #359]	; 0x167
 8006da8:	f883 2168 	strb.w	r2, [r3, #360]	; 0x168
 8006dac:	f883 2169 	strb.w	r2, [r3, #361]	; 0x169
 8006db0:	f883 216a 	strb.w	r2, [r3, #362]	; 0x16a
 8006db4:	f883 216b 	strb.w	r2, [r3, #363]	; 0x16b
 8006db8:	f883 216c 	strb.w	r2, [r3, #364]	; 0x16c
 8006dbc:	bd10      	pop	{r4, pc}
 8006dbe:	bf00      	nop
 8006dc0:	20000621 	.word	0x20000621
 8006dc4:	08009500 	.word	0x08009500
 8006dc8:	20001310 	.word	0x20001310
 8006dcc:	2000084a 	.word	0x2000084a
 8006dd0:	20001288 	.word	0x20001288
 8006dd4:	2000115e 	.word	0x2000115e
 8006dd8:	20001284 	.word	0x20001284
 8006ddc:	20000868 	.word	0x20000868
 8006de0:	2000125c 	.word	0x2000125c
 8006de4:	20001270 	.word	0x20001270
 8006de8:	20000848 	.word	0x20000848
 8006dec:	20001268 	.word	0x20001268
 8006df0:	20001274 	.word	0x20001274
 8006df4:	20000846 	.word	0x20000846
 8006df8:	2000126c 	.word	0x2000126c
 8006dfc:	20001278 	.word	0x20001278
 8006e00:	2000084e 	.word	0x2000084e
 8006e04:	2000128c 	.word	0x2000128c
 8006e08:	20001258 	.word	0x20001258
 8006e0c:	2000084c 	.word	0x2000084c
 8006e10:	20001280 	.word	0x20001280
 8006e14:	20001260 	.word	0x20001260
 8006e18:	20000844 	.word	0x20000844
 8006e1c:	2000127c 	.word	0x2000127c
 8006e20:	20001264 	.word	0x20001264
 8006e24:	20001230 	.word	0x20001230
 8006e28:	20001250 	.word	0x20001250
 8006e2c:	20001220 	.word	0x20001220
 8006e30:	20001240 	.word	0x20001240

08006e34 <CAN_2_Receive>:
 8006e34:	b570      	push	{r4, r5, r6, lr}
 8006e36:	4dc4      	ldr	r5, [pc, #784]	; (8007148 <CAN_2_Receive+0x314>)
 8006e38:	4cc4      	ldr	r4, [pc, #784]	; (800714c <CAN_2_Receive+0x318>)
 8006e3a:	4628      	mov	r0, r5
 8006e3c:	f7ff fad8 	bl	80063f0 <CAN_NODE_MO_Receive>
 8006e40:	682d      	ldr	r5, [r5, #0]
 8006e42:	f8d4 60d4 	ldr.w	r6, [r4, #212]	; 0xd4
 8006e46:	8a28      	ldrh	r0, [r5, #16]
 8006e48:	2103      	movs	r1, #3
 8006e4a:	f000 fa81 	bl	8007350 <checkRangePlausi>
 8006e4e:	4bc0      	ldr	r3, [pc, #768]	; (8007150 <CAN_2_Receive+0x31c>)
 8006e50:	8030      	strh	r0, [r6, #0]
 8006e52:	681e      	ldr	r6, [r3, #0]
 8006e54:	f8d4 30d4 	ldr.w	r3, [r4, #212]	; 0xd4
 8006e58:	2107      	movs	r1, #7
 8006e5a:	8818      	ldrh	r0, [r3, #0]
 8006e5c:	2208      	movs	r2, #8
 8006e5e:	f001 f8eb 	bl	8008038 <getbits>
 8006e62:	4bbc      	ldr	r3, [pc, #752]	; (8007154 <CAN_2_Receive+0x320>)
 8006e64:	7030      	strb	r0, [r6, #0]
 8006e66:	681e      	ldr	r6, [r3, #0]
 8006e68:	f8d4 30d4 	ldr.w	r3, [r4, #212]	; 0xd4
 8006e6c:	2208      	movs	r2, #8
 8006e6e:	8818      	ldrh	r0, [r3, #0]
 8006e70:	210f      	movs	r1, #15
 8006e72:	f001 f8e1 	bl	8008038 <getbits>
 8006e76:	7030      	strb	r0, [r6, #0]
 8006e78:	8a68      	ldrh	r0, [r5, #18]
 8006e7a:	f8d4 60d8 	ldr.w	r6, [r4, #216]	; 0xd8
 8006e7e:	2102      	movs	r1, #2
 8006e80:	f000 fa66 	bl	8007350 <checkRangePlausi>
 8006e84:	4bb4      	ldr	r3, [pc, #720]	; (8007158 <CAN_2_Receive+0x324>)
 8006e86:	8030      	strh	r0, [r6, #0]
 8006e88:	681d      	ldr	r5, [r3, #0]
 8006e8a:	f8d4 30d8 	ldr.w	r3, [r4, #216]	; 0xd8
 8006e8e:	2107      	movs	r1, #7
 8006e90:	8818      	ldrh	r0, [r3, #0]
 8006e92:	2208      	movs	r2, #8
 8006e94:	f001 f8d0 	bl	8008038 <getbits>
 8006e98:	4bb0      	ldr	r3, [pc, #704]	; (800715c <CAN_2_Receive+0x328>)
 8006e9a:	7028      	strb	r0, [r5, #0]
 8006e9c:	681d      	ldr	r5, [r3, #0]
 8006e9e:	f8d4 30d8 	ldr.w	r3, [r4, #216]	; 0xd8
 8006ea2:	210f      	movs	r1, #15
 8006ea4:	8818      	ldrh	r0, [r3, #0]
 8006ea6:	2208      	movs	r2, #8
 8006ea8:	f001 f8c6 	bl	8008038 <getbits>
 8006eac:	7028      	strb	r0, [r5, #0]
 8006eae:	4dac      	ldr	r5, [pc, #688]	; (8007160 <CAN_2_Receive+0x32c>)
 8006eb0:	4628      	mov	r0, r5
 8006eb2:	f7ff fa9d 	bl	80063f0 <CAN_NODE_MO_Receive>
 8006eb6:	682d      	ldr	r5, [r5, #0]
 8006eb8:	f8d4 30dc 	ldr.w	r3, [r4, #220]	; 0xdc
 8006ebc:	7c2a      	ldrb	r2, [r5, #16]
 8006ebe:	701a      	strb	r2, [r3, #0]
 8006ec0:	6928      	ldr	r0, [r5, #16]
 8006ec2:	f8d4 60e0 	ldr.w	r6, [r4, #224]	; 0xe0
 8006ec6:	2210      	movs	r2, #16
 8006ec8:	2117      	movs	r1, #23
 8006eca:	f001 f8b5 	bl	8008038 <getbits>
 8006ece:	210d      	movs	r1, #13
 8006ed0:	f000 fa3e 	bl	8007350 <checkRangePlausi>
 8006ed4:	4ba3      	ldr	r3, [pc, #652]	; (8007164 <CAN_2_Receive+0x330>)
 8006ed6:	8030      	strh	r0, [r6, #0]
 8006ed8:	681e      	ldr	r6, [r3, #0]
 8006eda:	f8d4 30e0 	ldr.w	r3, [r4, #224]	; 0xe0
 8006ede:	2107      	movs	r1, #7
 8006ee0:	8818      	ldrh	r0, [r3, #0]
 8006ee2:	2208      	movs	r2, #8
 8006ee4:	f001 f8a8 	bl	8008038 <getbits>
 8006ee8:	4b9f      	ldr	r3, [pc, #636]	; (8007168 <CAN_2_Receive+0x334>)
 8006eea:	7030      	strb	r0, [r6, #0]
 8006eec:	681e      	ldr	r6, [r3, #0]
 8006eee:	f8d4 30e0 	ldr.w	r3, [r4, #224]	; 0xe0
 8006ef2:	210f      	movs	r1, #15
 8006ef4:	8818      	ldrh	r0, [r3, #0]
 8006ef6:	2208      	movs	r2, #8
 8006ef8:	f001 f89e 	bl	8008038 <getbits>
 8006efc:	7030      	strb	r0, [r6, #0]
 8006efe:	f8d4 30e4 	ldr.w	r3, [r4, #228]	; 0xe4
 8006f02:	7cea      	ldrb	r2, [r5, #19]
 8006f04:	701a      	strb	r2, [r3, #0]
 8006f06:	f8d4 30e8 	ldr.w	r3, [r4, #232]	; 0xe8
 8006f0a:	7d2a      	ldrb	r2, [r5, #20]
 8006f0c:	701a      	strb	r2, [r3, #0]
 8006f0e:	7d6a      	ldrb	r2, [r5, #21]
 8006f10:	f8d4 30ec 	ldr.w	r3, [r4, #236]	; 0xec
 8006f14:	4d95      	ldr	r5, [pc, #596]	; (800716c <CAN_2_Receive+0x338>)
 8006f16:	701a      	strb	r2, [r3, #0]
 8006f18:	4628      	mov	r0, r5
 8006f1a:	f7ff fa69 	bl	80063f0 <CAN_NODE_MO_Receive>
 8006f1e:	682b      	ldr	r3, [r5, #0]
 8006f20:	f8d4 60f4 	ldr.w	r6, [r4, #244]	; 0xf4
 8006f24:	8a18      	ldrh	r0, [r3, #16]
 8006f26:	2107      	movs	r1, #7
 8006f28:	f000 fa12 	bl	8007350 <checkRangePlausi>
 8006f2c:	4b90      	ldr	r3, [pc, #576]	; (8007170 <CAN_2_Receive+0x33c>)
 8006f2e:	8030      	strh	r0, [r6, #0]
 8006f30:	681d      	ldr	r5, [r3, #0]
 8006f32:	f8d4 30f4 	ldr.w	r3, [r4, #244]	; 0xf4
 8006f36:	2107      	movs	r1, #7
 8006f38:	8818      	ldrh	r0, [r3, #0]
 8006f3a:	2208      	movs	r2, #8
 8006f3c:	f001 f87c 	bl	8008038 <getbits>
 8006f40:	4b8c      	ldr	r3, [pc, #560]	; (8007174 <CAN_2_Receive+0x340>)
 8006f42:	7028      	strb	r0, [r5, #0]
 8006f44:	681d      	ldr	r5, [r3, #0]
 8006f46:	f8d4 30f4 	ldr.w	r3, [r4, #244]	; 0xf4
 8006f4a:	2208      	movs	r2, #8
 8006f4c:	8818      	ldrh	r0, [r3, #0]
 8006f4e:	210f      	movs	r1, #15
 8006f50:	f001 f872 	bl	8008038 <getbits>
 8006f54:	7028      	strb	r0, [r5, #0]
 8006f56:	4d88      	ldr	r5, [pc, #544]	; (8007178 <CAN_2_Receive+0x344>)
 8006f58:	4628      	mov	r0, r5
 8006f5a:	f7ff fa49 	bl	80063f0 <CAN_NODE_MO_Receive>
 8006f5e:	682b      	ldr	r3, [r5, #0]
 8006f60:	f8d4 60f8 	ldr.w	r6, [r4, #248]	; 0xf8
 8006f64:	8a18      	ldrh	r0, [r3, #16]
 8006f66:	2108      	movs	r1, #8
 8006f68:	f000 f9f2 	bl	8007350 <checkRangePlausi>
 8006f6c:	4b83      	ldr	r3, [pc, #524]	; (800717c <CAN_2_Receive+0x348>)
 8006f6e:	8030      	strh	r0, [r6, #0]
 8006f70:	681d      	ldr	r5, [r3, #0]
 8006f72:	f8d4 30f8 	ldr.w	r3, [r4, #248]	; 0xf8
 8006f76:	2107      	movs	r1, #7
 8006f78:	8818      	ldrh	r0, [r3, #0]
 8006f7a:	2208      	movs	r2, #8
 8006f7c:	f001 f85c 	bl	8008038 <getbits>
 8006f80:	4b7f      	ldr	r3, [pc, #508]	; (8007180 <CAN_2_Receive+0x34c>)
 8006f82:	7028      	strb	r0, [r5, #0]
 8006f84:	681d      	ldr	r5, [r3, #0]
 8006f86:	f8d4 30f8 	ldr.w	r3, [r4, #248]	; 0xf8
 8006f8a:	2208      	movs	r2, #8
 8006f8c:	8818      	ldrh	r0, [r3, #0]
 8006f8e:	210f      	movs	r1, #15
 8006f90:	f001 f852 	bl	8008038 <getbits>
 8006f94:	7028      	strb	r0, [r5, #0]
 8006f96:	4d7b      	ldr	r5, [pc, #492]	; (8007184 <CAN_2_Receive+0x350>)
 8006f98:	4628      	mov	r0, r5
 8006f9a:	f7ff fa29 	bl	80063f0 <CAN_NODE_MO_Receive>
 8006f9e:	682b      	ldr	r3, [r5, #0]
 8006fa0:	f8d4 60fc 	ldr.w	r6, [r4, #252]	; 0xfc
 8006fa4:	8a18      	ldrh	r0, [r3, #16]
 8006fa6:	2109      	movs	r1, #9
 8006fa8:	f000 f9d2 	bl	8007350 <checkRangePlausi>
 8006fac:	4b76      	ldr	r3, [pc, #472]	; (8007188 <CAN_2_Receive+0x354>)
 8006fae:	8030      	strh	r0, [r6, #0]
 8006fb0:	681d      	ldr	r5, [r3, #0]
 8006fb2:	f8d4 30fc 	ldr.w	r3, [r4, #252]	; 0xfc
 8006fb6:	2107      	movs	r1, #7
 8006fb8:	8818      	ldrh	r0, [r3, #0]
 8006fba:	2208      	movs	r2, #8
 8006fbc:	f001 f83c 	bl	8008038 <getbits>
 8006fc0:	4b72      	ldr	r3, [pc, #456]	; (800718c <CAN_2_Receive+0x358>)
 8006fc2:	7028      	strb	r0, [r5, #0]
 8006fc4:	681d      	ldr	r5, [r3, #0]
 8006fc6:	f8d4 30fc 	ldr.w	r3, [r4, #252]	; 0xfc
 8006fca:	2208      	movs	r2, #8
 8006fcc:	8818      	ldrh	r0, [r3, #0]
 8006fce:	210f      	movs	r1, #15
 8006fd0:	f001 f832 	bl	8008038 <getbits>
 8006fd4:	7028      	strb	r0, [r5, #0]
 8006fd6:	4d6e      	ldr	r5, [pc, #440]	; (8007190 <CAN_2_Receive+0x35c>)
 8006fd8:	4628      	mov	r0, r5
 8006fda:	f7ff fa09 	bl	80063f0 <CAN_NODE_MO_Receive>
 8006fde:	682b      	ldr	r3, [r5, #0]
 8006fe0:	f8d4 6100 	ldr.w	r6, [r4, #256]	; 0x100
 8006fe4:	8a18      	ldrh	r0, [r3, #16]
 8006fe6:	210a      	movs	r1, #10
 8006fe8:	f000 f9b2 	bl	8007350 <checkRangePlausi>
 8006fec:	4b69      	ldr	r3, [pc, #420]	; (8007194 <CAN_2_Receive+0x360>)
 8006fee:	8030      	strh	r0, [r6, #0]
 8006ff0:	681d      	ldr	r5, [r3, #0]
 8006ff2:	f8d4 3100 	ldr.w	r3, [r4, #256]	; 0x100
 8006ff6:	2107      	movs	r1, #7
 8006ff8:	8818      	ldrh	r0, [r3, #0]
 8006ffa:	2208      	movs	r2, #8
 8006ffc:	f001 f81c 	bl	8008038 <getbits>
 8007000:	4b65      	ldr	r3, [pc, #404]	; (8007198 <CAN_2_Receive+0x364>)
 8007002:	7028      	strb	r0, [r5, #0]
 8007004:	681d      	ldr	r5, [r3, #0]
 8007006:	f8d4 3100 	ldr.w	r3, [r4, #256]	; 0x100
 800700a:	210f      	movs	r1, #15
 800700c:	8818      	ldrh	r0, [r3, #0]
 800700e:	2208      	movs	r2, #8
 8007010:	f001 f812 	bl	8008038 <getbits>
 8007014:	7028      	strb	r0, [r5, #0]
 8007016:	4d61      	ldr	r5, [pc, #388]	; (800719c <CAN_2_Receive+0x368>)
 8007018:	4628      	mov	r0, r5
 800701a:	f7ff f9e9 	bl	80063f0 <CAN_NODE_MO_Receive>
 800701e:	682d      	ldr	r5, [r5, #0]
 8007020:	2107      	movs	r1, #7
 8007022:	2201      	movs	r2, #1
 8007024:	7de8      	ldrb	r0, [r5, #23]
 8007026:	f001 f807 	bl	8008038 <getbits>
 800702a:	f884 0158 	strb.w	r0, [r4, #344]	; 0x158
 800702e:	2100      	movs	r1, #0
 8007030:	2201      	movs	r2, #1
 8007032:	7c28      	ldrb	r0, [r5, #16]
 8007034:	f001 f800 	bl	8008038 <getbits>
 8007038:	f884 0159 	strb.w	r0, [r4, #345]	; 0x159
 800703c:	2100      	movs	r1, #0
 800703e:	2201      	movs	r2, #1
 8007040:	7c68      	ldrb	r0, [r5, #17]
 8007042:	f000 fff9 	bl	8008038 <getbits>
 8007046:	f884 015a 	strb.w	r0, [r4, #346]	; 0x15a
 800704a:	2100      	movs	r1, #0
 800704c:	2201      	movs	r2, #1
 800704e:	7ca8      	ldrb	r0, [r5, #18]
 8007050:	f000 fff2 	bl	8008038 <getbits>
 8007054:	f884 015b 	strb.w	r0, [r4, #347]	; 0x15b
 8007058:	2100      	movs	r1, #0
 800705a:	2201      	movs	r2, #1
 800705c:	7ce8      	ldrb	r0, [r5, #19]
 800705e:	f000 ffeb 	bl	8008038 <getbits>
 8007062:	f884 015c 	strb.w	r0, [r4, #348]	; 0x15c
 8007066:	2100      	movs	r1, #0
 8007068:	2201      	movs	r2, #1
 800706a:	7d28      	ldrb	r0, [r5, #20]
 800706c:	f000 ffe4 	bl	8008038 <getbits>
 8007070:	f884 015d 	strb.w	r0, [r4, #349]	; 0x15d
 8007074:	2100      	movs	r1, #0
 8007076:	2201      	movs	r2, #1
 8007078:	7d68      	ldrb	r0, [r5, #21]
 800707a:	f000 ffdd 	bl	8008038 <getbits>
 800707e:	f884 015f 	strb.w	r0, [r4, #351]	; 0x15f
 8007082:	2102      	movs	r1, #2
 8007084:	2201      	movs	r2, #1
 8007086:	7d68      	ldrb	r0, [r5, #21]
 8007088:	f000 ffd6 	bl	8008038 <getbits>
 800708c:	f884 015e 	strb.w	r0, [r4, #350]	; 0x15e
 8007090:	2104      	movs	r1, #4
 8007092:	2201      	movs	r2, #1
 8007094:	7d68      	ldrb	r0, [r5, #21]
 8007096:	f000 ffcf 	bl	8008038 <getbits>
 800709a:	f884 0160 	strb.w	r0, [r4, #352]	; 0x160
 800709e:	2106      	movs	r1, #6
 80070a0:	2201      	movs	r2, #1
 80070a2:	7d68      	ldrb	r0, [r5, #21]
 80070a4:	f000 ffc8 	bl	8008038 <getbits>
 80070a8:	f884 0161 	strb.w	r0, [r4, #353]	; 0x161
 80070ac:	2100      	movs	r1, #0
 80070ae:	2201      	movs	r2, #1
 80070b0:	7da8      	ldrb	r0, [r5, #22]
 80070b2:	f000 ffc1 	bl	8008038 <getbits>
 80070b6:	2107      	movs	r1, #7
 80070b8:	f884 0162 	strb.w	r0, [r4, #354]	; 0x162
 80070bc:	460a      	mov	r2, r1
 80070be:	7c28      	ldrb	r0, [r5, #16]
 80070c0:	f000 ffba 	bl	8008038 <getbits>
 80070c4:	2107      	movs	r1, #7
 80070c6:	f884 0163 	strb.w	r0, [r4, #355]	; 0x163
 80070ca:	460a      	mov	r2, r1
 80070cc:	7c68      	ldrb	r0, [r5, #17]
 80070ce:	f000 ffb3 	bl	8008038 <getbits>
 80070d2:	2107      	movs	r1, #7
 80070d4:	f884 0164 	strb.w	r0, [r4, #356]	; 0x164
 80070d8:	460a      	mov	r2, r1
 80070da:	7ca8      	ldrb	r0, [r5, #18]
 80070dc:	f000 ffac 	bl	8008038 <getbits>
 80070e0:	2107      	movs	r1, #7
 80070e2:	f884 0165 	strb.w	r0, [r4, #357]	; 0x165
 80070e6:	460a      	mov	r2, r1
 80070e8:	7ce8      	ldrb	r0, [r5, #19]
 80070ea:	f000 ffa5 	bl	8008038 <getbits>
 80070ee:	2107      	movs	r1, #7
 80070f0:	f884 0166 	strb.w	r0, [r4, #358]	; 0x166
 80070f4:	460a      	mov	r2, r1
 80070f6:	7d28      	ldrb	r0, [r5, #20]
 80070f8:	f000 ff9e 	bl	8008038 <getbits>
 80070fc:	2101      	movs	r1, #1
 80070fe:	f884 0167 	strb.w	r0, [r4, #359]	; 0x167
 8007102:	460a      	mov	r2, r1
 8007104:	7d68      	ldrb	r0, [r5, #21]
 8007106:	f000 ff97 	bl	8008038 <getbits>
 800710a:	f884 0169 	strb.w	r0, [r4, #361]	; 0x169
 800710e:	2103      	movs	r1, #3
 8007110:	2201      	movs	r2, #1
 8007112:	7d68      	ldrb	r0, [r5, #21]
 8007114:	f000 ff90 	bl	8008038 <getbits>
 8007118:	f884 0168 	strb.w	r0, [r4, #360]	; 0x168
 800711c:	2105      	movs	r1, #5
 800711e:	2201      	movs	r2, #1
 8007120:	7d68      	ldrb	r0, [r5, #21]
 8007122:	f000 ff89 	bl	8008038 <getbits>
 8007126:	f884 016a 	strb.w	r0, [r4, #362]	; 0x16a
 800712a:	2107      	movs	r1, #7
 800712c:	2201      	movs	r2, #1
 800712e:	7d68      	ldrb	r0, [r5, #21]
 8007130:	f000 ff82 	bl	8008038 <getbits>
 8007134:	f884 016b 	strb.w	r0, [r4, #363]	; 0x16b
 8007138:	7d68      	ldrb	r0, [r5, #21]
 800713a:	2109      	movs	r1, #9
 800713c:	2201      	movs	r2, #1
 800713e:	f000 ff7b 	bl	8008038 <getbits>
 8007142:	f884 016c 	strb.w	r0, [r4, #364]	; 0x16c
 8007146:	bd70      	pop	{r4, r5, r6, pc}
 8007148:	08009550 	.word	0x08009550
 800714c:	20001310 	.word	0x20001310
 8007150:	20001288 	.word	0x20001288
 8007154:	20001284 	.word	0x20001284
 8007158:	2000125c 	.word	0x2000125c
 800715c:	20001270 	.word	0x20001270
 8007160:	080097b0 	.word	0x080097b0
 8007164:	20001268 	.word	0x20001268
 8007168:	20001274 	.word	0x20001274
 800716c:	08009774 	.word	0x08009774
 8007170:	2000126c 	.word	0x2000126c
 8007174:	20001278 	.word	0x20001278
 8007178:	080095f4 	.word	0x080095f4
 800717c:	2000128c 	.word	0x2000128c
 8007180:	20001258 	.word	0x20001258
 8007184:	0800955c 	.word	0x0800955c
 8007188:	20001280 	.word	0x20001280
 800718c:	20001260 	.word	0x20001260
 8007190:	08009598 	.word	0x08009598
 8007194:	2000127c 	.word	0x2000127c
 8007198:	20001264 	.word	0x20001264
 800719c:	080095b8 	.word	0x080095b8

080071a0 <CAN_2_Transmit>:
 80071a0:	b538      	push	{r3, r4, r5, lr}
 80071a2:	4c45      	ldr	r4, [pc, #276]	; (80072b8 <CAN_2_Transmit+0x118>)
 80071a4:	4d45      	ldr	r5, [pc, #276]	; (80072bc <CAN_2_Transmit+0x11c>)
 80071a6:	f8d4 3104 	ldr.w	r3, [r4, #260]	; 0x104
 80071aa:	2107      	movs	r1, #7
 80071ac:	8818      	ldrh	r0, [r3, #0]
 80071ae:	2208      	movs	r2, #8
 80071b0:	f000 ff42 	bl	8008038 <getbits>
 80071b4:	f8d4 3104 	ldr.w	r3, [r4, #260]	; 0x104
 80071b8:	7028      	strb	r0, [r5, #0]
 80071ba:	8818      	ldrh	r0, [r3, #0]
 80071bc:	210f      	movs	r1, #15
 80071be:	2208      	movs	r2, #8
 80071c0:	f000 ff3a 	bl	8008038 <getbits>
 80071c4:	f8d4 3108 	ldr.w	r3, [r4, #264]	; 0x108
 80071c8:	7068      	strb	r0, [r5, #1]
 80071ca:	8818      	ldrh	r0, [r3, #0]
 80071cc:	2107      	movs	r1, #7
 80071ce:	2208      	movs	r2, #8
 80071d0:	f000 ff32 	bl	8008038 <getbits>
 80071d4:	f8d4 3108 	ldr.w	r3, [r4, #264]	; 0x108
 80071d8:	70a8      	strb	r0, [r5, #2]
 80071da:	2208      	movs	r2, #8
 80071dc:	8818      	ldrh	r0, [r3, #0]
 80071de:	210f      	movs	r1, #15
 80071e0:	f000 ff2a 	bl	8008038 <getbits>
 80071e4:	f8d4 3114 	ldr.w	r3, [r4, #276]	; 0x114
 80071e8:	70e8      	strb	r0, [r5, #3]
 80071ea:	e9d3 0100 	ldrd	r0, r1, [r3]
 80071ee:	f001 fe15 	bl	8008e1c <__aeabi_d2uiz>
 80071f2:	f8d4 3118 	ldr.w	r3, [r4, #280]	; 0x118
 80071f6:	7128      	strb	r0, [r5, #4]
 80071f8:	e9d3 0100 	ldrd	r0, r1, [r3]
 80071fc:	f001 fe0e 	bl	8008e1c <__aeabi_d2uiz>
 8007200:	f8d4 311c 	ldr.w	r3, [r4, #284]	; 0x11c
 8007204:	7168      	strb	r0, [r5, #5]
 8007206:	e9d3 0100 	ldrd	r0, r1, [r3]
 800720a:	f001 fe07 	bl	8008e1c <__aeabi_d2uiz>
 800720e:	4629      	mov	r1, r5
 8007210:	71a8      	strb	r0, [r5, #6]
 8007212:	482b      	ldr	r0, [pc, #172]	; (80072c0 <CAN_2_Transmit+0x120>)
 8007214:	4d2b      	ldr	r5, [pc, #172]	; (80072c4 <CAN_2_Transmit+0x124>)
 8007216:	f7ff f8ee 	bl	80063f6 <CAN_NODE_MO_UpdateData>
 800721a:	4829      	ldr	r0, [pc, #164]	; (80072c0 <CAN_2_Transmit+0x120>)
 800721c:	f7ff f8e5 	bl	80063ea <CAN_NODE_MO_Transmit>
 8007220:	f8d4 3140 	ldr.w	r3, [r4, #320]	; 0x140
 8007224:	781b      	ldrb	r3, [r3, #0]
 8007226:	01db      	lsls	r3, r3, #7
 8007228:	702b      	strb	r3, [r5, #0]
 800722a:	f8d4 3144 	ldr.w	r3, [r4, #324]	; 0x144
 800722e:	e9d3 0100 	ldrd	r0, r1, [r3]
 8007232:	a31f      	add	r3, pc, #124	; (adr r3, 80072b0 <CAN_2_Transmit+0x110>)
 8007234:	e9d3 2300 	ldrd	r2, r3, [r3]
 8007238:	f001 fc80 	bl	8008b3c <__aeabi_ddiv>
 800723c:	f001 fdee 	bl	8008e1c <__aeabi_d2uiz>
 8007240:	f8d4 3128 	ldr.w	r3, [r4, #296]	; 0x128
 8007244:	7068      	strb	r0, [r5, #1]
 8007246:	781b      	ldrb	r3, [r3, #0]
 8007248:	70ab      	strb	r3, [r5, #2]
 800724a:	f8d4 312c 	ldr.w	r3, [r4, #300]	; 0x12c
 800724e:	481e      	ldr	r0, [pc, #120]	; (80072c8 <CAN_2_Transmit+0x128>)
 8007250:	781b      	ldrb	r3, [r3, #0]
 8007252:	70eb      	strb	r3, [r5, #3]
 8007254:	f8d4 3130 	ldr.w	r3, [r4, #304]	; 0x130
 8007258:	781b      	ldrb	r3, [r3, #0]
 800725a:	712b      	strb	r3, [r5, #4]
 800725c:	f8d4 3134 	ldr.w	r3, [r4, #308]	; 0x134
 8007260:	781b      	ldrb	r3, [r3, #0]
 8007262:	716b      	strb	r3, [r5, #5]
 8007264:	f8d4 313c 	ldr.w	r3, [r4, #316]	; 0x13c
 8007268:	781b      	ldrb	r3, [r3, #0]
 800726a:	71ab      	strb	r3, [r5, #6]
 800726c:	f8d4 3148 	ldr.w	r3, [r4, #328]	; 0x148
 8007270:	4629      	mov	r1, r5
 8007272:	781b      	ldrb	r3, [r3, #0]
 8007274:	71eb      	strb	r3, [r5, #7]
 8007276:	f7ff f8be 	bl	80063f6 <CAN_NODE_MO_UpdateData>
 800727a:	4813      	ldr	r0, [pc, #76]	; (80072c8 <CAN_2_Transmit+0x128>)
 800727c:	f7ff f8b5 	bl	80063ea <CAN_NODE_MO_Transmit>
 8007280:	2400      	movs	r4, #0
 8007282:	4b12      	ldr	r3, [pc, #72]	; (80072cc <CAN_2_Transmit+0x12c>)
 8007284:	00e2      	lsls	r2, r4, #3
 8007286:	e9d3 0100 	ldrd	r0, r1, [r3]
 800728a:	3207      	adds	r2, #7
 800728c:	2308      	movs	r3, #8
 800728e:	f000 fedc 	bl	800804a <getbits64>
 8007292:	490f      	ldr	r1, [pc, #60]	; (80072d0 <CAN_2_Transmit+0x130>)
 8007294:	5508      	strb	r0, [r1, r4]
 8007296:	3401      	adds	r4, #1
 8007298:	2c08      	cmp	r4, #8
 800729a:	d1f2      	bne.n	8007282 <CAN_2_Transmit+0xe2>
 800729c:	480d      	ldr	r0, [pc, #52]	; (80072d4 <CAN_2_Transmit+0x134>)
 800729e:	f7ff f8aa 	bl	80063f6 <CAN_NODE_MO_UpdateData>
 80072a2:	480c      	ldr	r0, [pc, #48]	; (80072d4 <CAN_2_Transmit+0x134>)
 80072a4:	e8bd 4038 	ldmia.w	sp!, {r3, r4, r5, lr}
 80072a8:	f7ff b89f 	b.w	80063ea <CAN_NODE_MO_Transmit>
 80072ac:	f3af 8000 	nop.w
 80072b0:	33333333 	.word	0x33333333
 80072b4:	3fe33333 	.word	0x3fe33333
 80072b8:	20001310 	.word	0x20001310
 80072bc:	20000860 	.word	0x20000860
 80072c0:	08009600 	.word	0x08009600
 80072c4:	20000850 	.word	0x20000850
 80072c8:	0800960c 	.word	0x0800960c
 80072cc:	20001460 	.word	0x20001460
 80072d0:	20000858 	.word	0x20000858
 80072d4:	080095dc 	.word	0x080095dc

080072d8 <Watchdog_Start>:
 80072d8:	4a02      	ldr	r2, [pc, #8]	; (80072e4 <Watchdog_Start+0xc>)
 80072da:	6853      	ldr	r3, [r2, #4]
 80072dc:	f043 0301 	orr.w	r3, r3, #1
 80072e0:	6053      	str	r3, [r2, #4]
 80072e2:	4770      	bx	lr
 80072e4:	50008000 	.word	0x50008000

080072e8 <Watchdog_Reset>:
 80072e8:	4b02      	ldr	r3, [pc, #8]	; (80072f4 <Watchdog_Reset+0xc>)
 80072ea:	2201      	movs	r2, #1
 80072ec:	61da      	str	r2, [r3, #28]
 80072ee:	4a02      	ldr	r2, [pc, #8]	; (80072f8 <Watchdog_Reset+0x10>)
 80072f0:	609a      	str	r2, [r3, #8]
 80072f2:	4770      	bx	lr
 80072f4:	50008000 	.word	0x50008000
 80072f8:	abadcafe 	.word	0xabadcafe

080072fc <NMI_Handler>:
 80072fc:	4b10      	ldr	r3, [pc, #64]	; (8007340 <NMI_Handler+0x44>)
 80072fe:	4811      	ldr	r0, [pc, #68]	; (8007344 <NMI_Handler+0x48>)
 8007300:	7c19      	ldrb	r1, [r3, #16]
 8007302:	681a      	ldr	r2, [r3, #0]
 8007304:	f44f 3380 	mov.w	r3, #65536	; 0x10000
 8007308:	408b      	lsls	r3, r1
 800730a:	b510      	push	{r4, lr}
 800730c:	213f      	movs	r1, #63	; 0x3f
 800730e:	6053      	str	r3, [r2, #4]
 8007310:	f000 feac 	bl	800806c <setbitTrue>
 8007314:	2400      	movs	r4, #0
 8007316:	4b0b      	ldr	r3, [pc, #44]	; (8007344 <NMI_Handler+0x48>)
 8007318:	00e2      	lsls	r2, r4, #3
 800731a:	e9d3 0100 	ldrd	r0, r1, [r3]
 800731e:	3207      	adds	r2, #7
 8007320:	2308      	movs	r3, #8
 8007322:	f000 fe92 	bl	800804a <getbits64>
 8007326:	4908      	ldr	r1, [pc, #32]	; (8007348 <NMI_Handler+0x4c>)
 8007328:	5508      	strb	r0, [r1, r4]
 800732a:	3401      	adds	r4, #1
 800732c:	2c08      	cmp	r4, #8
 800732e:	d1f2      	bne.n	8007316 <NMI_Handler+0x1a>
 8007330:	4806      	ldr	r0, [pc, #24]	; (800734c <NMI_Handler+0x50>)
 8007332:	f7ff f860 	bl	80063f6 <CAN_NODE_MO_UpdateData>
 8007336:	4805      	ldr	r0, [pc, #20]	; (800734c <NMI_Handler+0x50>)
 8007338:	e8bd 4010 	ldmia.w	sp!, {r4, lr}
 800733c:	f7ff b855 	b.w	80063ea <CAN_NODE_MO_Transmit>
 8007340:	08009528 	.word	0x08009528
 8007344:	20001460 	.word	0x20001460
 8007348:	2000086a 	.word	0x2000086a
 800734c:	080095dc 	.word	0x080095dc

08007350 <checkRangePlausi>:
 8007350:	b570      	push	{r4, r5, r6, lr}
 8007352:	4a50      	ldr	r2, [pc, #320]	; (8007494 <checkRangePlausi+0x144>)
 8007354:	7812      	ldrb	r2, [r2, #0]
 8007356:	4606      	mov	r6, r0
 8007358:	2a00      	cmp	r2, #0
 800735a:	f000 8098 	beq.w	800748e <checkRangePlausi+0x13e>
 800735e:	1e4d      	subs	r5, r1, #1
 8007360:	2d16      	cmp	r5, #22
 8007362:	f200 8081 	bhi.w	8007468 <checkRangePlausi+0x118>
 8007366:	e8df f005 	tbb	[pc, r5]
 800736a:	0f0c      	.short	0x0f0c
 800736c:	241f1a13 	.word	0x241f1a13
 8007370:	39352e2a 	.word	0x39352e2a
 8007374:	4a46403d 	.word	0x4a46403d
 8007378:	615e5854 	.word	0x615e5854
 800737c:	73696464 	.word	0x73696464
 8007380:	76          	.byte	0x76
 8007381:	00          	.byte	0x00
 8007382:	4b45      	ldr	r3, [pc, #276]	; (8007498 <checkRangePlausi+0x148>)
 8007384:	681b      	ldr	r3, [r3, #0]
 8007386:	e011      	b.n	80073ac <checkRangePlausi+0x5c>
 8007388:	4b44      	ldr	r3, [pc, #272]	; (800749c <checkRangePlausi+0x14c>)
 800738a:	f8d3 30d8 	ldr.w	r3, [r3, #216]	; 0xd8
 800738e:	e002      	b.n	8007396 <checkRangePlausi+0x46>
 8007390:	4b42      	ldr	r3, [pc, #264]	; (800749c <checkRangePlausi+0x14c>)
 8007392:	f8d3 30d4 	ldr.w	r3, [r3, #212]	; 0xd4
 8007396:	881c      	ldrh	r4, [r3, #0]
 8007398:	f44f 43fa 	mov.w	r3, #32000	; 0x7d00
 800739c:	e064      	b.n	8007468 <checkRangePlausi+0x118>
 800739e:	4b3f      	ldr	r3, [pc, #252]	; (800749c <checkRangePlausi+0x14c>)
 80073a0:	68db      	ldr	r3, [r3, #12]
 80073a2:	781c      	ldrb	r4, [r3, #0]
 80073a4:	2318      	movs	r3, #24
 80073a6:	e05f      	b.n	8007468 <checkRangePlausi+0x118>
 80073a8:	4b3b      	ldr	r3, [pc, #236]	; (8007498 <checkRangePlausi+0x148>)
 80073aa:	6a1b      	ldr	r3, [r3, #32]
 80073ac:	781c      	ldrb	r4, [r3, #0]
 80073ae:	2301      	movs	r3, #1
 80073b0:	e05a      	b.n	8007468 <checkRangePlausi+0x118>
 80073b2:	4b3a      	ldr	r3, [pc, #232]	; (800749c <checkRangePlausi+0x14c>)
 80073b4:	689b      	ldr	r3, [r3, #8]
 80073b6:	881c      	ldrh	r4, [r3, #0]
 80073b8:	f242 7310 	movw	r3, #10000	; 0x2710
 80073bc:	e054      	b.n	8007468 <checkRangePlausi+0x118>
 80073be:	4b37      	ldr	r3, [pc, #220]	; (800749c <checkRangePlausi+0x14c>)
 80073c0:	f8d3 30c4 	ldr.w	r3, [r3, #196]	; 0xc4
 80073c4:	e002      	b.n	80073cc <checkRangePlausi+0x7c>
 80073c6:	4b35      	ldr	r3, [pc, #212]	; (800749c <checkRangePlausi+0x14c>)
 80073c8:	f8d3 30c8 	ldr.w	r3, [r3, #200]	; 0xc8
 80073cc:	881c      	ldrh	r4, [r3, #0]
 80073ce:	f44f 6370 	mov.w	r3, #3840	; 0xf00
 80073d2:	e049      	b.n	8007468 <checkRangePlausi+0x118>
 80073d4:	4b31      	ldr	r3, [pc, #196]	; (800749c <checkRangePlausi+0x14c>)
 80073d6:	f8d3 30cc 	ldr.w	r3, [r3, #204]	; 0xcc
 80073da:	e7f7      	b.n	80073cc <checkRangePlausi+0x7c>
 80073dc:	4b2f      	ldr	r3, [pc, #188]	; (800749c <checkRangePlausi+0x14c>)
 80073de:	f8d3 30d0 	ldr.w	r3, [r3, #208]	; 0xd0
 80073e2:	e7f3      	b.n	80073cc <checkRangePlausi+0x7c>
 80073e4:	4b2d      	ldr	r3, [pc, #180]	; (800749c <checkRangePlausi+0x14c>)
 80073e6:	681b      	ldr	r3, [r3, #0]
 80073e8:	e001      	b.n	80073ee <checkRangePlausi+0x9e>
 80073ea:	4b2c      	ldr	r3, [pc, #176]	; (800749c <checkRangePlausi+0x14c>)
 80073ec:	685b      	ldr	r3, [r3, #4]
 80073ee:	781c      	ldrb	r4, [r3, #0]
 80073f0:	f44f 737a 	mov.w	r3, #1000	; 0x3e8
 80073f4:	e038      	b.n	8007468 <checkRangePlausi+0x118>
 80073f6:	4b29      	ldr	r3, [pc, #164]	; (800749c <checkRangePlausi+0x14c>)
 80073f8:	f8d3 308c 	ldr.w	r3, [r3, #140]	; 0x8c
 80073fc:	e7cb      	b.n	8007396 <checkRangePlausi+0x46>
 80073fe:	4b26      	ldr	r3, [pc, #152]	; (8007498 <checkRangePlausi+0x148>)
 8007400:	685b      	ldr	r3, [r3, #4]
 8007402:	e9d3 0100 	ldrd	r0, r1, [r3]
 8007406:	f001 fd09 	bl	8008e1c <__aeabi_d2uiz>
 800740a:	f241 7370 	movw	r3, #6000	; 0x1770
 800740e:	4604      	mov	r4, r0
 8007410:	e02a      	b.n	8007468 <checkRangePlausi+0x118>
 8007412:	4b22      	ldr	r3, [pc, #136]	; (800749c <checkRangePlausi+0x14c>)
 8007414:	6f9b      	ldr	r3, [r3, #120]	; 0x78
 8007416:	781c      	ldrb	r4, [r3, #0]
 8007418:	e7be      	b.n	8007398 <checkRangePlausi+0x48>
 800741a:	4b20      	ldr	r3, [pc, #128]	; (800749c <checkRangePlausi+0x14c>)
 800741c:	f8d3 3080 	ldr.w	r3, [r3, #128]	; 0x80
 8007420:	781c      	ldrb	r4, [r3, #0]
 8007422:	2364      	movs	r3, #100	; 0x64
 8007424:	e020      	b.n	8007468 <checkRangePlausi+0x118>
 8007426:	4b1d      	ldr	r3, [pc, #116]	; (800749c <checkRangePlausi+0x14c>)
 8007428:	6e9b      	ldr	r3, [r3, #104]	; 0x68
 800742a:	e7bf      	b.n	80073ac <checkRangePlausi+0x5c>
 800742c:	4b1b      	ldr	r3, [pc, #108]	; (800749c <checkRangePlausi+0x14c>)
 800742e:	6e5b      	ldr	r3, [r3, #100]	; 0x64
 8007430:	e7bc      	b.n	80073ac <checkRangePlausi+0x5c>
 8007432:	4b1a      	ldr	r3, [pc, #104]	; (800749c <checkRangePlausi+0x14c>)
 8007434:	6b9b      	ldr	r3, [r3, #56]	; 0x38
 8007436:	781c      	ldrb	r4, [r3, #0]
 8007438:	23fa      	movs	r3, #250	; 0xfa
 800743a:	e015      	b.n	8007468 <checkRangePlausi+0x118>
 800743c:	4b16      	ldr	r3, [pc, #88]	; (8007498 <checkRangePlausi+0x148>)
 800743e:	6b1b      	ldr	r3, [r3, #48]	; 0x30
 8007440:	e9d3 0100 	ldrd	r0, r1, [r3]
 8007444:	f001 fcea 	bl	8008e1c <__aeabi_d2uiz>
 8007448:	f644 6320 	movw	r3, #20000	; 0x4e20
 800744c:	4604      	mov	r4, r0
 800744e:	e00b      	b.n	8007468 <checkRangePlausi+0x118>
 8007450:	4b11      	ldr	r3, [pc, #68]	; (8007498 <checkRangePlausi+0x148>)
 8007452:	68db      	ldr	r3, [r3, #12]
 8007454:	e001      	b.n	800745a <checkRangePlausi+0x10a>
 8007456:	4b10      	ldr	r3, [pc, #64]	; (8007498 <checkRangePlausi+0x148>)
 8007458:	6b5b      	ldr	r3, [r3, #52]	; 0x34
 800745a:	e9d3 0100 	ldrd	r0, r1, [r3]
 800745e:	f001 fcdd 	bl	8008e1c <__aeabi_d2uiz>
 8007462:	f241 3388 	movw	r3, #5000	; 0x1388
 8007466:	4604      	mov	r4, r0
 8007468:	429e      	cmp	r6, r3
 800746a:	d809      	bhi.n	8007480 <checkRangePlausi+0x130>
 800746c:	006d      	lsls	r5, r5, #1
 800746e:	4629      	mov	r1, r5
 8007470:	480b      	ldr	r0, [pc, #44]	; (80074a0 <checkRangePlausi+0x150>)
 8007472:	f000 fe09 	bl	8008088 <setbitFalse>
 8007476:	480a      	ldr	r0, [pc, #40]	; (80074a0 <checkRangePlausi+0x150>)
 8007478:	1c69      	adds	r1, r5, #1
 800747a:	f000 fe05 	bl	8008088 <setbitFalse>
 800747e:	e006      	b.n	800748e <checkRangePlausi+0x13e>
 8007480:	0069      	lsls	r1, r5, #1
 8007482:	4807      	ldr	r0, [pc, #28]	; (80074a0 <checkRangePlausi+0x150>)
 8007484:	3101      	adds	r1, #1
 8007486:	f000 fdf1 	bl	800806c <setbitTrue>
 800748a:	4620      	mov	r0, r4
 800748c:	bd70      	pop	{r4, r5, r6, pc}
 800748e:	4630      	mov	r0, r6
 8007490:	bd70      	pop	{r4, r5, r6, pc}
 8007492:	bf00      	nop
 8007494:	20000622 	.word	0x20000622
 8007498:	20001298 	.word	0x20001298
 800749c:	20001310 	.word	0x20001310
 80074a0:	20001460 	.word	0x20001460

080074a4 <IOPort_ini>:
 80074a4:	4a2f      	ldr	r2, [pc, #188]	; (8007564 <IOPort_ini+0xc0>)
 80074a6:	4b30      	ldr	r3, [pc, #192]	; (8007568 <IOPort_ini+0xc4>)
 80074a8:	f102 0108 	add.w	r1, r2, #8
 80074ac:	b510      	push	{r4, lr}
 80074ae:	6059      	str	r1, [r3, #4]
 80074b0:	f102 0128 	add.w	r1, r2, #40	; 0x28
 80074b4:	60d9      	str	r1, [r3, #12]
 80074b6:	f102 0130 	add.w	r1, r2, #48	; 0x30
 80074ba:	6119      	str	r1, [r3, #16]
 80074bc:	f102 0138 	add.w	r1, r2, #56	; 0x38
 80074c0:	6159      	str	r1, [r3, #20]
 80074c2:	f102 0140 	add.w	r1, r2, #64	; 0x40
 80074c6:	6199      	str	r1, [r3, #24]
 80074c8:	f102 0148 	add.w	r1, r2, #72	; 0x48
 80074cc:	61d9      	str	r1, [r3, #28]
 80074ce:	f102 0150 	add.w	r1, r2, #80	; 0x50
 80074d2:	6219      	str	r1, [r3, #32]
 80074d4:	f102 0158 	add.w	r1, r2, #88	; 0x58
 80074d8:	6259      	str	r1, [r3, #36]	; 0x24
 80074da:	f102 0110 	add.w	r1, r2, #16
 80074de:	6299      	str	r1, [r3, #40]	; 0x28
 80074e0:	f102 0118 	add.w	r1, r2, #24
 80074e4:	62d9      	str	r1, [r3, #44]	; 0x2c
 80074e6:	f102 0120 	add.w	r1, r2, #32
 80074ea:	6319      	str	r1, [r3, #48]	; 0x30
 80074ec:	4c1f      	ldr	r4, [pc, #124]	; (800756c <IOPort_ini+0xc8>)
 80074ee:	639c      	str	r4, [r3, #56]	; 0x38
 80074f0:	f1a2 0108 	sub.w	r1, r2, #8
 80074f4:	2000      	movs	r0, #0
 80074f6:	6359      	str	r1, [r3, #52]	; 0x34
 80074f8:	2100      	movs	r1, #0
 80074fa:	e9c4 0100 	strd	r0, r1, [r4]
 80074fe:	4c1c      	ldr	r4, [pc, #112]	; (8007570 <IOPort_ini+0xcc>)
 8007500:	63dc      	str	r4, [r3, #60]	; 0x3c
 8007502:	e9c4 0100 	strd	r0, r1, [r4]
 8007506:	4c1b      	ldr	r4, [pc, #108]	; (8007574 <IOPort_ini+0xd0>)
 8007508:	641c      	str	r4, [r3, #64]	; 0x40
 800750a:	e9c4 0100 	strd	r0, r1, [r4]
 800750e:	4c1a      	ldr	r4, [pc, #104]	; (8007578 <IOPort_ini+0xd4>)
 8007510:	601a      	str	r2, [r3, #0]
 8007512:	e9c4 0100 	strd	r0, r1, [r4]
 8007516:	f502 7187 	add.w	r1, r2, #270	; 0x10e
 800751a:	6499      	str	r1, [r3, #72]	; 0x48
 800751c:	f202 110f 	addw	r1, r2, #271	; 0x10f
 8007520:	64d9      	str	r1, [r3, #76]	; 0x4c
 8007522:	f202 1111 	addw	r1, r2, #273	; 0x111
 8007526:	6519      	str	r1, [r3, #80]	; 0x50
 8007528:	f502 7189 	add.w	r1, r2, #274	; 0x112
 800752c:	6559      	str	r1, [r3, #84]	; 0x54
 800752e:	f202 1113 	addw	r1, r2, #275	; 0x113
 8007532:	6599      	str	r1, [r3, #88]	; 0x58
 8007534:	f102 017c 	add.w	r1, r2, #124	; 0x7c
 8007538:	65d9      	str	r1, [r3, #92]	; 0x5c
 800753a:	f102 017e 	add.w	r1, r2, #126	; 0x7e
 800753e:	6619      	str	r1, [r3, #96]	; 0x60
 8007540:	f502 718a 	add.w	r1, r2, #276	; 0x114
 8007544:	6659      	str	r1, [r3, #100]	; 0x64
 8007546:	f102 0180 	add.w	r1, r2, #128	; 0x80
 800754a:	6699      	str	r1, [r3, #104]	; 0x68
 800754c:	f102 0182 	add.w	r1, r2, #130	; 0x82
 8007550:	327a      	adds	r2, #122	; 0x7a
 8007552:	671a      	str	r2, [r3, #112]	; 0x70
 8007554:	4a09      	ldr	r2, [pc, #36]	; (800757c <IOPort_ini+0xd8>)
 8007556:	645c      	str	r4, [r3, #68]	; 0x44
 8007558:	66d9      	str	r1, [r3, #108]	; 0x6c
 800755a:	2300      	movs	r3, #0
 800755c:	6013      	str	r3, [r2, #0]
 800755e:	4a08      	ldr	r2, [pc, #32]	; (8007580 <IOPort_ini+0xdc>)
 8007560:	8013      	strh	r3, [r2, #0]
 8007562:	bd10      	pop	{r4, pc}
 8007564:	20001068 	.word	0x20001068
 8007568:	20001298 	.word	0x20001298
 800756c:	20001240 	.word	0x20001240
 8007570:	20001230 	.word	0x20001230
 8007574:	20001250 	.word	0x20001250
 8007578:	20001220 	.word	0x20001220
 800757c:	20001290 	.word	0x20001290
 8007580:	20001294 	.word	0x20001294

08007584 <IOPort_readDINS>:
 8007584:	b570      	push	{r4, r5, r6, lr}
 8007586:	480d      	ldr	r0, [pc, #52]	; (80075bc <IOPort_readDINS+0x38>)
 8007588:	4c0d      	ldr	r4, [pc, #52]	; (80075c0 <IOPort_readDINS+0x3c>)
 800758a:	4d0e      	ldr	r5, [pc, #56]	; (80075c4 <IOPort_readDINS+0x40>)
 800758c:	f7fe ffed 	bl	800656a <BUS_IO_Read>
 8007590:	2101      	movs	r1, #1
 8007592:	460a      	mov	r2, r1
 8007594:	682e      	ldr	r6, [r5, #0]
 8007596:	8020      	strh	r0, [r4, #0]
 8007598:	f000 fd4e 	bl	8008038 <getbits>
 800759c:	2101      	movs	r1, #1
 800759e:	f7ff fed7 	bl	8007350 <checkRangePlausi>
 80075a2:	7030      	strb	r0, [r6, #0]
 80075a4:	2100      	movs	r1, #0
 80075a6:	2201      	movs	r2, #1
 80075a8:	8820      	ldrh	r0, [r4, #0]
 80075aa:	6a2d      	ldr	r5, [r5, #32]
 80075ac:	f000 fd44 	bl	8008038 <getbits>
 80075b0:	2105      	movs	r1, #5
 80075b2:	f7ff fecd 	bl	8007350 <checkRangePlausi>
 80075b6:	7028      	strb	r0, [r5, #0]
 80075b8:	bd70      	pop	{r4, r5, r6, pc}
 80075ba:	bf00      	nop
 80075bc:	20000464 	.word	0x20000464
 80075c0:	20001294 	.word	0x20001294
 80075c4:	20001298 	.word	0x20001298

080075c8 <ERU0_3_IRQHandler>:
 80075c8:	4a09      	ldr	r2, [pc, #36]	; (80075f0 <ERU0_3_IRQHandler+0x28>)
 80075ca:	6813      	ldr	r3, [r2, #0]
 80075cc:	7c12      	ldrb	r2, [r2, #16]
 80075ce:	6a5b      	ldr	r3, [r3, #36]	; 0x24
 80075d0:	40d3      	lsrs	r3, r2
 80075d2:	4a08      	ldr	r2, [pc, #32]	; (80075f4 <ERU0_3_IRQHandler+0x2c>)
 80075d4:	f003 0301 	and.w	r3, r3, #1
 80075d8:	7013      	strb	r3, [r2, #0]
 80075da:	4a07      	ldr	r2, [pc, #28]	; (80075f8 <ERU0_3_IRQHandler+0x30>)
 80075dc:	6813      	ldr	r3, [r2, #0]
 80075de:	7c12      	ldrb	r2, [r2, #16]
 80075e0:	6a5b      	ldr	r3, [r3, #36]	; 0x24
 80075e2:	40d3      	lsrs	r3, r2
 80075e4:	4a05      	ldr	r2, [pc, #20]	; (80075fc <ERU0_3_IRQHandler+0x34>)
 80075e6:	f003 0301 	and.w	r3, r3, #1
 80075ea:	7013      	strb	r3, [r2, #0]
 80075ec:	4770      	bx	lr
 80075ee:	bf00      	nop
 80075f0:	08009514 	.word	0x08009514
 80075f4:	20001248 	.word	0x20001248
 80075f8:	080094d8 	.word	0x080094d8
 80075fc:	20001228 	.word	0x20001228

08007600 <ManualControl_setDOUTS>:
 8007600:	4b16      	ldr	r3, [pc, #88]	; (800765c <ManualControl_setDOUTS+0x5c>)
 8007602:	f893 215f 	ldrb.w	r2, [r3, #351]	; 0x15f
 8007606:	b122      	cbz	r2, 8007612 <ManualControl_setDOUTS+0x12>
 8007608:	4a15      	ldr	r2, [pc, #84]	; (8007660 <ManualControl_setDOUTS+0x60>)
 800760a:	f893 1169 	ldrb.w	r1, [r3, #361]	; 0x169
 800760e:	6c92      	ldr	r2, [r2, #72]	; 0x48
 8007610:	7011      	strb	r1, [r2, #0]
 8007612:	f893 215e 	ldrb.w	r2, [r3, #350]	; 0x15e
 8007616:	b12a      	cbz	r2, 8007624 <ManualControl_setDOUTS+0x24>
 8007618:	4a11      	ldr	r2, [pc, #68]	; (8007660 <ManualControl_setDOUTS+0x60>)
 800761a:	4910      	ldr	r1, [pc, #64]	; (800765c <ManualControl_setDOUTS+0x5c>)
 800761c:	6cd2      	ldr	r2, [r2, #76]	; 0x4c
 800761e:	f891 1168 	ldrb.w	r1, [r1, #360]	; 0x168
 8007622:	7011      	strb	r1, [r2, #0]
 8007624:	f893 2160 	ldrb.w	r2, [r3, #352]	; 0x160
 8007628:	b12a      	cbz	r2, 8007636 <ManualControl_setDOUTS+0x36>
 800762a:	4a0d      	ldr	r2, [pc, #52]	; (8007660 <ManualControl_setDOUTS+0x60>)
 800762c:	490b      	ldr	r1, [pc, #44]	; (800765c <ManualControl_setDOUTS+0x5c>)
 800762e:	6d12      	ldr	r2, [r2, #80]	; 0x50
 8007630:	f891 116a 	ldrb.w	r1, [r1, #362]	; 0x16a
 8007634:	7011      	strb	r1, [r2, #0]
 8007636:	f893 2161 	ldrb.w	r2, [r3, #353]	; 0x161
 800763a:	b12a      	cbz	r2, 8007648 <ManualControl_setDOUTS+0x48>
 800763c:	4a08      	ldr	r2, [pc, #32]	; (8007660 <ManualControl_setDOUTS+0x60>)
 800763e:	4907      	ldr	r1, [pc, #28]	; (800765c <ManualControl_setDOUTS+0x5c>)
 8007640:	6d52      	ldr	r2, [r2, #84]	; 0x54
 8007642:	f891 116b 	ldrb.w	r1, [r1, #363]	; 0x16b
 8007646:	7011      	strb	r1, [r2, #0]
 8007648:	f893 3162 	ldrb.w	r3, [r3, #354]	; 0x162
 800764c:	b12b      	cbz	r3, 800765a <ManualControl_setDOUTS+0x5a>
 800764e:	4b04      	ldr	r3, [pc, #16]	; (8007660 <ManualControl_setDOUTS+0x60>)
 8007650:	4a02      	ldr	r2, [pc, #8]	; (800765c <ManualControl_setDOUTS+0x5c>)
 8007652:	6d9b      	ldr	r3, [r3, #88]	; 0x58
 8007654:	f892 216c 	ldrb.w	r2, [r2, #364]	; 0x16c
 8007658:	701a      	strb	r2, [r3, #0]
 800765a:	4770      	bx	lr
 800765c:	20001310 	.word	0x20001310
 8007660:	20001298 	.word	0x20001298

08007664 <IOPort_setDOUTS>:
 8007664:	b508      	push	{r3, lr}
 8007666:	4b10      	ldr	r3, [pc, #64]	; (80076a8 <IOPort_setDOUTS+0x44>)
 8007668:	f893 3158 	ldrb.w	r3, [r3, #344]	; 0x158
 800766c:	b10b      	cbz	r3, 8007672 <IOPort_setDOUTS+0xe>
 800766e:	f7ff ffc7 	bl	8007600 <ManualControl_setDOUTS>
 8007672:	4a0e      	ldr	r2, [pc, #56]	; (80076ac <IOPort_setDOUTS+0x48>)
 8007674:	480e      	ldr	r0, [pc, #56]	; (80076b0 <IOPort_setDOUTS+0x4c>)
 8007676:	6d11      	ldr	r1, [r2, #80]	; 0x50
 8007678:	6cd3      	ldr	r3, [r2, #76]	; 0x4c
 800767a:	7809      	ldrb	r1, [r1, #0]
 800767c:	781b      	ldrb	r3, [r3, #0]
 800767e:	0089      	lsls	r1, r1, #2
 8007680:	ea41 0143 	orr.w	r1, r1, r3, lsl #1
 8007684:	6c93      	ldr	r3, [r2, #72]	; 0x48
 8007686:	781b      	ldrb	r3, [r3, #0]
 8007688:	4319      	orrs	r1, r3
 800768a:	6d53      	ldr	r3, [r2, #84]	; 0x54
 800768c:	781b      	ldrb	r3, [r3, #0]
 800768e:	ea41 01c3 	orr.w	r1, r1, r3, lsl #3
 8007692:	6d93      	ldr	r3, [r2, #88]	; 0x58
 8007694:	781b      	ldrb	r3, [r3, #0]
 8007696:	ea41 1103 	orr.w	r1, r1, r3, lsl #4
 800769a:	4b06      	ldr	r3, [pc, #24]	; (80076b4 <IOPort_setDOUTS+0x50>)
 800769c:	6019      	str	r1, [r3, #0]
 800769e:	b2c9      	uxtb	r1, r1
 80076a0:	e8bd 4008 	ldmia.w	sp!, {r3, lr}
 80076a4:	f7fe bf79 	b.w	800659a <BUS_IO_Write>
 80076a8:	20001310 	.word	0x20001310
 80076ac:	20001298 	.word	0x20001298
 80076b0:	20000450 	.word	0x20000450
 80076b4:	20001290 	.word	0x20001290

080076b8 <ManualControl_setPWMOUTS>:
 80076b8:	4a3e      	ldr	r2, [pc, #248]	; (80077b4 <ManualControl_setPWMOUTS+0xfc>)
 80076ba:	f892 3159 	ldrb.w	r3, [r2, #345]	; 0x159
 80076be:	b1a3      	cbz	r3, 80076ea <ManualControl_setPWMOUTS+0x32>
 80076c0:	4b3d      	ldr	r3, [pc, #244]	; (80077b8 <ManualControl_setPWMOUTS+0x100>)
 80076c2:	ed9f 7a3e 	vldr	s14, [pc, #248]	; 80077bc <ManualControl_setPWMOUTS+0x104>
 80076c6:	6dd9      	ldr	r1, [r3, #92]	; 0x5c
 80076c8:	f892 3163 	ldrb.w	r3, [r2, #355]	; 0x163
 80076cc:	ee07 3a90 	vmov	s15, r3
 80076d0:	eef8 7a67 	vcvt.f32.u32	s15, s15
 80076d4:	eec7 7a87 	vdiv.f32	s15, s15, s14
 80076d8:	ed9f 7a39 	vldr	s14, [pc, #228]	; 80077c0 <ManualControl_setPWMOUTS+0x108>
 80076dc:	ee67 7a87 	vmul.f32	s15, s15, s14
 80076e0:	eefc 7ae7 	vcvt.u32.f32	s15, s15
 80076e4:	ee17 3a90 	vmov	r3, s15
 80076e8:	800b      	strh	r3, [r1, #0]
 80076ea:	f892 315a 	ldrb.w	r3, [r2, #346]	; 0x15a
 80076ee:	b1ab      	cbz	r3, 800771c <ManualControl_setPWMOUTS+0x64>
 80076f0:	4b31      	ldr	r3, [pc, #196]	; (80077b8 <ManualControl_setPWMOUTS+0x100>)
 80076f2:	ed9f 7a32 	vldr	s14, [pc, #200]	; 80077bc <ManualControl_setPWMOUTS+0x104>
 80076f6:	6e19      	ldr	r1, [r3, #96]	; 0x60
 80076f8:	4b2e      	ldr	r3, [pc, #184]	; (80077b4 <ManualControl_setPWMOUTS+0xfc>)
 80076fa:	f893 3164 	ldrb.w	r3, [r3, #356]	; 0x164
 80076fe:	ee07 3a90 	vmov	s15, r3
 8007702:	eef8 7a67 	vcvt.f32.u32	s15, s15
 8007706:	eec7 7a87 	vdiv.f32	s15, s15, s14
 800770a:	ed9f 7a2d 	vldr	s14, [pc, #180]	; 80077c0 <ManualControl_setPWMOUTS+0x108>
 800770e:	ee67 7a87 	vmul.f32	s15, s15, s14
 8007712:	eefc 7ae7 	vcvt.u32.f32	s15, s15
 8007716:	ee17 3a90 	vmov	r3, s15
 800771a:	800b      	strh	r3, [r1, #0]
 800771c:	f892 315b 	ldrb.w	r3, [r2, #347]	; 0x15b
 8007720:	b1ab      	cbz	r3, 800774e <ManualControl_setPWMOUTS+0x96>
 8007722:	4b25      	ldr	r3, [pc, #148]	; (80077b8 <ManualControl_setPWMOUTS+0x100>)
 8007724:	ed9f 7a25 	vldr	s14, [pc, #148]	; 80077bc <ManualControl_setPWMOUTS+0x104>
 8007728:	6e99      	ldr	r1, [r3, #104]	; 0x68
 800772a:	4b22      	ldr	r3, [pc, #136]	; (80077b4 <ManualControl_setPWMOUTS+0xfc>)
 800772c:	f893 3165 	ldrb.w	r3, [r3, #357]	; 0x165
 8007730:	ee07 3a90 	vmov	s15, r3
 8007734:	eef8 7a67 	vcvt.f32.u32	s15, s15
 8007738:	eec7 7a87 	vdiv.f32	s15, s15, s14
 800773c:	ed9f 7a20 	vldr	s14, [pc, #128]	; 80077c0 <ManualControl_setPWMOUTS+0x108>
 8007740:	ee67 7a87 	vmul.f32	s15, s15, s14
 8007744:	eefc 7ae7 	vcvt.u32.f32	s15, s15
 8007748:	ee17 3a90 	vmov	r3, s15
 800774c:	800b      	strh	r3, [r1, #0]
 800774e:	f892 315c 	ldrb.w	r3, [r2, #348]	; 0x15c
 8007752:	b1ab      	cbz	r3, 8007780 <ManualControl_setPWMOUTS+0xc8>
 8007754:	4b18      	ldr	r3, [pc, #96]	; (80077b8 <ManualControl_setPWMOUTS+0x100>)
 8007756:	ed9f 7a19 	vldr	s14, [pc, #100]	; 80077bc <ManualControl_setPWMOUTS+0x104>
 800775a:	6ed9      	ldr	r1, [r3, #108]	; 0x6c
 800775c:	4b15      	ldr	r3, [pc, #84]	; (80077b4 <ManualControl_setPWMOUTS+0xfc>)
 800775e:	f893 3166 	ldrb.w	r3, [r3, #358]	; 0x166
 8007762:	ee07 3a90 	vmov	s15, r3
 8007766:	eef8 7a67 	vcvt.f32.u32	s15, s15
 800776a:	eec7 7a87 	vdiv.f32	s15, s15, s14
 800776e:	ed9f 7a14 	vldr	s14, [pc, #80]	; 80077c0 <ManualControl_setPWMOUTS+0x108>
 8007772:	ee67 7a87 	vmul.f32	s15, s15, s14
 8007776:	eefc 7ae7 	vcvt.u32.f32	s15, s15
 800777a:	ee17 3a90 	vmov	r3, s15
 800777e:	800b      	strh	r3, [r1, #0]
 8007780:	f892 315d 	ldrb.w	r3, [r2, #349]	; 0x15d
 8007784:	b1ab      	cbz	r3, 80077b2 <ManualControl_setPWMOUTS+0xfa>
 8007786:	4b0c      	ldr	r3, [pc, #48]	; (80077b8 <ManualControl_setPWMOUTS+0x100>)
 8007788:	ed9f 7a0c 	vldr	s14, [pc, #48]	; 80077bc <ManualControl_setPWMOUTS+0x104>
 800778c:	6f1a      	ldr	r2, [r3, #112]	; 0x70
 800778e:	4b09      	ldr	r3, [pc, #36]	; (80077b4 <ManualControl_setPWMOUTS+0xfc>)
 8007790:	f893 3167 	ldrb.w	r3, [r3, #359]	; 0x167
 8007794:	ee07 3a90 	vmov	s15, r3
 8007798:	eef8 7a67 	vcvt.f32.u32	s15, s15
 800779c:	eec7 7a87 	vdiv.f32	s15, s15, s14
 80077a0:	ed9f 7a07 	vldr	s14, [pc, #28]	; 80077c0 <ManualControl_setPWMOUTS+0x108>
 80077a4:	ee67 7a87 	vmul.f32	s15, s15, s14
 80077a8:	eefc 7ae7 	vcvt.u32.f32	s15, s15
 80077ac:	ee17 3a90 	vmov	r3, s15
 80077b0:	8013      	strh	r3, [r2, #0]
 80077b2:	4770      	bx	lr
 80077b4:	20001310 	.word	0x20001310
 80077b8:	20001298 	.word	0x20001298
 80077bc:	42c80000 	.word	0x42c80000
 80077c0:	47800000 	.word	0x47800000

080077c4 <IOPort_setPWMOUTS>:
 80077c4:	b510      	push	{r4, lr}
 80077c6:	ed2d 8b02 	vpush	{d8}
 80077ca:	4b32      	ldr	r3, [pc, #200]	; (8007894 <IOPort_setPWMOUTS+0xd0>)
 80077cc:	f893 3158 	ldrb.w	r3, [r3, #344]	; 0x158
 80077d0:	b10b      	cbz	r3, 80077d6 <IOPort_setPWMOUTS+0x12>
 80077d2:	f7ff ff71 	bl	80076b8 <ManualControl_setPWMOUTS>
 80077d6:	4c30      	ldr	r4, [pc, #192]	; (8007898 <IOPort_setPWMOUTS+0xd4>)
 80077d8:	eddf 8a30 	vldr	s17, [pc, #192]	; 800789c <IOPort_setPWMOUTS+0xd8>
 80077dc:	6de3      	ldr	r3, [r4, #92]	; 0x5c
 80077de:	ed9f 8a30 	vldr	s16, [pc, #192]	; 80078a0 <IOPort_setPWMOUTS+0xdc>
 80077e2:	881b      	ldrh	r3, [r3, #0]
 80077e4:	482f      	ldr	r0, [pc, #188]	; (80078a4 <IOPort_setPWMOUTS+0xe0>)
 80077e6:	ee07 3a90 	vmov	s15, r3
 80077ea:	eef8 7a67 	vcvt.f32.u32	s15, s15
 80077ee:	ee67 7aa8 	vmul.f32	s15, s15, s17
 80077f2:	ee67 7a88 	vmul.f32	s15, s15, s16
 80077f6:	eefc 7ae7 	vcvt.u32.f32	s15, s15
 80077fa:	ee17 1a90 	vmov	r1, s15
 80077fe:	f7fc ffcc 	bl	800479a <PWM_SetDutyCycle>
 8007802:	6e23      	ldr	r3, [r4, #96]	; 0x60
 8007804:	4828      	ldr	r0, [pc, #160]	; (80078a8 <IOPort_setPWMOUTS+0xe4>)
 8007806:	881b      	ldrh	r3, [r3, #0]
 8007808:	ee07 3a90 	vmov	s15, r3
 800780c:	eef8 7a67 	vcvt.f32.u32	s15, s15
 8007810:	ee67 7aa8 	vmul.f32	s15, s15, s17
 8007814:	ee67 7a88 	vmul.f32	s15, s15, s16
 8007818:	eefc 7ae7 	vcvt.u32.f32	s15, s15
 800781c:	ee17 1a90 	vmov	r1, s15
 8007820:	f7fc ffbb 	bl	800479a <PWM_SetDutyCycle>
 8007824:	6ea3      	ldr	r3, [r4, #104]	; 0x68
 8007826:	4821      	ldr	r0, [pc, #132]	; (80078ac <IOPort_setPWMOUTS+0xe8>)
 8007828:	881b      	ldrh	r3, [r3, #0]
 800782a:	ee07 3a90 	vmov	s15, r3
 800782e:	eef8 7a67 	vcvt.f32.u32	s15, s15
 8007832:	ee67 7aa8 	vmul.f32	s15, s15, s17
 8007836:	ee67 7a88 	vmul.f32	s15, s15, s16
 800783a:	eefc 7ae7 	vcvt.u32.f32	s15, s15
 800783e:	ee17 1a90 	vmov	r1, s15
 8007842:	f7fc ffaa 	bl	800479a <PWM_SetDutyCycle>
 8007846:	6ee3      	ldr	r3, [r4, #108]	; 0x6c
 8007848:	4819      	ldr	r0, [pc, #100]	; (80078b0 <IOPort_setPWMOUTS+0xec>)
 800784a:	881b      	ldrh	r3, [r3, #0]
 800784c:	ee07 3a90 	vmov	s15, r3
 8007850:	eef8 7a67 	vcvt.f32.u32	s15, s15
 8007854:	ee67 7aa8 	vmul.f32	s15, s15, s17
 8007858:	ee67 7a88 	vmul.f32	s15, s15, s16
 800785c:	eefc 7ae7 	vcvt.u32.f32	s15, s15
 8007860:	ee17 1a90 	vmov	r1, s15
 8007864:	f7fc ff99 	bl	800479a <PWM_SetDutyCycle>
 8007868:	6f23      	ldr	r3, [r4, #112]	; 0x70
 800786a:	4812      	ldr	r0, [pc, #72]	; (80078b4 <IOPort_setPWMOUTS+0xf0>)
 800786c:	881b      	ldrh	r3, [r3, #0]
 800786e:	ee07 3a90 	vmov	s15, r3
 8007872:	eef8 7a67 	vcvt.f32.u32	s15, s15
 8007876:	ee67 7aa8 	vmul.f32	s15, s15, s17
 800787a:	ee67 7a88 	vmul.f32	s15, s15, s16
 800787e:	ecbd 8b02 	vpop	{d8}
 8007882:	eefc 7ae7 	vcvt.u32.f32	s15, s15
 8007886:	e8bd 4010 	ldmia.w	sp!, {r4, lr}
 800788a:	ee17 1a90 	vmov	r1, s15
 800788e:	f7fc bf84 	b.w	800479a <PWM_SetDutyCycle>
 8007892:	bf00      	nop
 8007894:	20001310 	.word	0x20001310
 8007898:	20001298 	.word	0x20001298
 800789c:	37800000 	.word	0x37800000
 80078a0:	461c4000 	.word	0x461c4000
 80078a4:	2000007c 	.word	0x2000007c
 80078a8:	200000e4 	.word	0x200000e4
 80078ac:	200000b0 	.word	0x200000b0
 80078b0:	20000014 	.word	0x20000014
 80078b4:	20000048 	.word	0x20000048

080078b8 <NTC_Calc>:
 80078b8:	b530      	push	{r4, r5, lr}
 80078ba:	b08d      	sub	sp, #52	; 0x34
 80078bc:	4604      	mov	r4, r0
 80078be:	460d      	mov	r5, r1
 80078c0:	2218      	movs	r2, #24
 80078c2:	2100      	movs	r1, #0
 80078c4:	4668      	mov	r0, sp
 80078c6:	f001 fb10 	bl	8008eea <memset>
 80078ca:	2100      	movs	r1, #0
 80078cc:	2218      	movs	r2, #24
 80078ce:	a806      	add	r0, sp, #24
 80078d0:	f001 fb0b 	bl	8008eea <memset>
 80078d4:	208c      	movs	r0, #140	; 0x8c
 80078d6:	f240 111b 	movw	r1, #283	; 0x11b
 80078da:	f240 225a 	movw	r2, #602	; 0x25a
 80078de:	f44f 63a1 	mov.w	r3, #1288	; 0x508
 80078e2:	e88d 000f 	stmia.w	sp, {r0, r1, r2, r3}
 80078e6:	f640 13c4 	movw	r3, #2500	; 0x9c4
 80078ea:	9304      	str	r3, [sp, #16]
 80078ec:	f640 730a 	movw	r3, #3850	; 0xf0a
 80078f0:	9305      	str	r3, [sp, #20]
 80078f2:	4b31      	ldr	r3, [pc, #196]	; (80079b8 <NTC_Calc+0x100>)
 80078f4:	9306      	str	r3, [sp, #24]
 80078f6:	4b31      	ldr	r3, [pc, #196]	; (80079bc <NTC_Calc+0x104>)
 80078f8:	9307      	str	r3, [sp, #28]
 80078fa:	4b31      	ldr	r3, [pc, #196]	; (80079c0 <NTC_Calc+0x108>)
 80078fc:	9308      	str	r3, [sp, #32]
 80078fe:	4b31      	ldr	r3, [pc, #196]	; (80079c4 <NTC_Calc+0x10c>)
 8007900:	9309      	str	r3, [sp, #36]	; 0x24
 8007902:	4b31      	ldr	r3, [pc, #196]	; (80079c8 <NTC_Calc+0x110>)
 8007904:	930a      	str	r3, [sp, #40]	; 0x28
 8007906:	4620      	mov	r0, r4
 8007908:	a327      	add	r3, pc, #156	; (adr r3, 80079a8 <NTC_Calc+0xf0>)
 800790a:	e9d3 2300 	ldrd	r2, r3, [r3]
 800790e:	4629      	mov	r1, r5
 8007910:	f000 ffea 	bl	80088e8 <__aeabi_dmul>
 8007914:	a326      	add	r3, pc, #152	; (adr r3, 80079b0 <NTC_Calc+0xf8>)
 8007916:	e9d3 2300 	ldrd	r2, r3, [r3]
 800791a:	f001 f90f 	bl	8008b3c <__aeabi_ddiv>
 800791e:	f001 fa7d 	bl	8008e1c <__aeabi_d2uiz>
 8007922:	2300      	movs	r3, #0
 8007924:	b280      	uxth	r0, r0
 8007926:	f85d 2023 	ldr.w	r2, [sp, r3, lsl #2]
 800792a:	4282      	cmp	r2, r0
 800792c:	d80b      	bhi.n	8007946 <NTC_Calc+0x8e>
 800792e:	3301      	adds	r3, #1
 8007930:	2b06      	cmp	r3, #6
 8007932:	d1f8      	bne.n	8007926 <NTC_Calc+0x6e>
 8007934:	eddf 7a25 	vldr	s15, [pc, #148]	; 80079cc <NTC_Calc+0x114>
 8007938:	ed9f 7a25 	vldr	s14, [pc, #148]	; 80079d0 <NTC_Calc+0x118>
 800793c:	ed9f 6a25 	vldr	s12, [pc, #148]	; 80079d4 <NTC_Calc+0x11c>
 8007940:	eef3 6a09 	vmov.f32	s13, #57	; 0x39
 8007944:	e01b      	b.n	800797e <NTC_Calc+0xc6>
 8007946:	b193      	cbz	r3, 800796e <NTC_Calc+0xb6>
 8007948:	1e59      	subs	r1, r3, #1
 800794a:	ac0c      	add	r4, sp, #48	; 0x30
 800794c:	eb04 0181 	add.w	r1, r4, r1, lsl #2
 8007950:	ed51 7a0c 	vldr	s15, [r1, #-48]	; 0xffffffd0
 8007954:	ed51 6a06 	vldr	s13, [r1, #-24]	; 0xffffffe8
 8007958:	eeb8 6a67 	vcvt.f32.u32	s12, s15
 800795c:	ee07 2a90 	vmov	s15, r2
 8007960:	eb04 0383 	add.w	r3, r4, r3, lsl #2
 8007964:	eeb8 7a67 	vcvt.f32.u32	s14, s15
 8007968:	ed53 7a06 	vldr	s15, [r3, #-24]	; 0xffffffe8
 800796c:	e007      	b.n	800797e <NTC_Calc+0xc6>
 800796e:	eddf 7a1a 	vldr	s15, [pc, #104]	; 80079d8 <NTC_Calc+0x120>
 8007972:	ed9f 7a1a 	vldr	s14, [pc, #104]	; 80079dc <NTC_Calc+0x124>
 8007976:	eddf 6a1a 	vldr	s13, [pc, #104]	; 80079e0 <NTC_Calc+0x128>
 800797a:	ed9f 6a1a 	vldr	s12, [pc, #104]	; 80079e4 <NTC_Calc+0x12c>
 800797e:	ee37 7a46 	vsub.f32	s14, s14, s12
 8007982:	ee77 7ae6 	vsub.f32	s15, s15, s13
 8007986:	eec7 7a87 	vdiv.f32	s15, s15, s14
 800798a:	ee07 0a10 	vmov	s14, r0
 800798e:	eee7 6ac6 	vfms.f32	s13, s15, s12
 8007992:	eeb8 7ac7 	vcvt.f32.s32	s14, s14
 8007996:	eee7 6a87 	vfma.f32	s13, s15, s14
 800799a:	ee16 0a90 	vmov	r0, s13
 800799e:	f000 ff4f 	bl	8008840 <__aeabi_f2d>
 80079a2:	b00d      	add	sp, #52	; 0x34
 80079a4:	bd30      	pop	{r4, r5, pc}
 80079a6:	bf00      	nop
 80079a8:	00000000 	.word	0x00000000
 80079ac:	40b38800 	.word	0x40b38800
 80079b0:	00000000 	.word	0x00000000
 80079b4:	40affe00 	.word	0x40affe00
 80079b8:	42fa0000 	.word	0x42fa0000
 80079bc:	42c80000 	.word	0x42c80000
 80079c0:	42960000 	.word	0x42960000
 80079c4:	42480000 	.word	0x42480000
 80079c8:	41c80000 	.word	0x41c80000
 80079cc:	00000000 	.word	0x00000000
 80079d0:	4570a000 	.word	0x4570a000
 80079d4:	451c4000 	.word	0x451c4000
 80079d8:	42c80000 	.word	0x42c80000
 80079dc:	438d8000 	.word	0x438d8000
 80079e0:	42fa0000 	.word	0x42fa0000
 80079e4:	430c0000 	.word	0x430c0000

080079e8 <IOPort_readAINS>:
 80079e8:	b538      	push	{r3, r4, r5, lr}
 80079ea:	4c77      	ldr	r4, [pc, #476]	; (8007bc8 <IOPort_readAINS+0x1e0>)
 80079ec:	4877      	ldr	r0, [pc, #476]	; (8007bcc <IOPort_readAINS+0x1e4>)
 80079ee:	6b65      	ldr	r5, [r4, #52]	; 0x34
 80079f0:	f7fe fe9e 	bl	8006730 <ADC_MEASUREMENT_GetResult>
 80079f4:	f000 ff12 	bl	800881c <__aeabi_i2d>
 80079f8:	a36d      	add	r3, pc, #436	; (adr r3, 8007bb0 <IOPort_readAINS+0x1c8>)
 80079fa:	e9d3 2300 	ldrd	r2, r3, [r3]
 80079fe:	f001 f89d 	bl	8008b3c <__aeabi_ddiv>
 8007a02:	2200      	movs	r2, #0
 8007a04:	4b72      	ldr	r3, [pc, #456]	; (8007bd0 <IOPort_readAINS+0x1e8>)
 8007a06:	f000 ff6f 	bl	80088e8 <__aeabi_dmul>
 8007a0a:	2200      	movs	r2, #0
 8007a0c:	4b71      	ldr	r3, [pc, #452]	; (8007bd4 <IOPort_readAINS+0x1ec>)
 8007a0e:	f000 ff6b 	bl	80088e8 <__aeabi_dmul>
 8007a12:	e9c5 0100 	strd	r0, r1, [r5]
 8007a16:	4870      	ldr	r0, [pc, #448]	; (8007bd8 <IOPort_readAINS+0x1f0>)
 8007a18:	6b25      	ldr	r5, [r4, #48]	; 0x30
 8007a1a:	f7fe fe89 	bl	8006730 <ADC_MEASUREMENT_GetResult>
 8007a1e:	f000 fefd 	bl	800881c <__aeabi_i2d>
 8007a22:	a363      	add	r3, pc, #396	; (adr r3, 8007bb0 <IOPort_readAINS+0x1c8>)
 8007a24:	e9d3 2300 	ldrd	r2, r3, [r3]
 8007a28:	f001 f888 	bl	8008b3c <__aeabi_ddiv>
 8007a2c:	a362      	add	r3, pc, #392	; (adr r3, 8007bb8 <IOPort_readAINS+0x1d0>)
 8007a2e:	e9d3 2300 	ldrd	r2, r3, [r3]
 8007a32:	f000 ff59 	bl	80088e8 <__aeabi_dmul>
 8007a36:	2200      	movs	r2, #0
 8007a38:	4b66      	ldr	r3, [pc, #408]	; (8007bd4 <IOPort_readAINS+0x1ec>)
 8007a3a:	f000 ff55 	bl	80088e8 <__aeabi_dmul>
 8007a3e:	e9c5 0100 	strd	r0, r1, [r5]
 8007a42:	4866      	ldr	r0, [pc, #408]	; (8007bdc <IOPort_readAINS+0x1f4>)
 8007a44:	6a65      	ldr	r5, [r4, #36]	; 0x24
 8007a46:	f7fe fe73 	bl	8006730 <ADC_MEASUREMENT_GetResult>
 8007a4a:	f000 fee7 	bl	800881c <__aeabi_i2d>
 8007a4e:	a358      	add	r3, pc, #352	; (adr r3, 8007bb0 <IOPort_readAINS+0x1c8>)
 8007a50:	e9d3 2300 	ldrd	r2, r3, [r3]
 8007a54:	f001 f872 	bl	8008b3c <__aeabi_ddiv>
 8007a58:	2200      	movs	r2, #0
 8007a5a:	4b61      	ldr	r3, [pc, #388]	; (8007be0 <IOPort_readAINS+0x1f8>)
 8007a5c:	f000 ff44 	bl	80088e8 <__aeabi_dmul>
 8007a60:	2200      	movs	r2, #0
 8007a62:	4b5c      	ldr	r3, [pc, #368]	; (8007bd4 <IOPort_readAINS+0x1ec>)
 8007a64:	f000 ff40 	bl	80088e8 <__aeabi_dmul>
 8007a68:	e9c5 0100 	strd	r0, r1, [r5]
 8007a6c:	485d      	ldr	r0, [pc, #372]	; (8007be4 <IOPort_readAINS+0x1fc>)
 8007a6e:	6965      	ldr	r5, [r4, #20]
 8007a70:	f7fe fe5e 	bl	8006730 <ADC_MEASUREMENT_GetResult>
 8007a74:	f000 fed2 	bl	800881c <__aeabi_i2d>
 8007a78:	a34d      	add	r3, pc, #308	; (adr r3, 8007bb0 <IOPort_readAINS+0x1c8>)
 8007a7a:	e9d3 2300 	ldrd	r2, r3, [r3]
 8007a7e:	f001 f85d 	bl	8008b3c <__aeabi_ddiv>
 8007a82:	2200      	movs	r2, #0
 8007a84:	4b52      	ldr	r3, [pc, #328]	; (8007bd0 <IOPort_readAINS+0x1e8>)
 8007a86:	f000 ff2f 	bl	80088e8 <__aeabi_dmul>
 8007a8a:	2200      	movs	r2, #0
 8007a8c:	4b51      	ldr	r3, [pc, #324]	; (8007bd4 <IOPort_readAINS+0x1ec>)
 8007a8e:	f000 ff2b 	bl	80088e8 <__aeabi_dmul>
 8007a92:	e9c5 0100 	strd	r0, r1, [r5]
 8007a96:	4854      	ldr	r0, [pc, #336]	; (8007be8 <IOPort_readAINS+0x200>)
 8007a98:	6925      	ldr	r5, [r4, #16]
 8007a9a:	f7fe fe49 	bl	8006730 <ADC_MEASUREMENT_GetResult>
 8007a9e:	f000 febd 	bl	800881c <__aeabi_i2d>
 8007aa2:	a343      	add	r3, pc, #268	; (adr r3, 8007bb0 <IOPort_readAINS+0x1c8>)
 8007aa4:	e9d3 2300 	ldrd	r2, r3, [r3]
 8007aa8:	f001 f848 	bl	8008b3c <__aeabi_ddiv>
 8007aac:	2200      	movs	r2, #0
 8007aae:	4b48      	ldr	r3, [pc, #288]	; (8007bd0 <IOPort_readAINS+0x1e8>)
 8007ab0:	f000 ff1a 	bl	80088e8 <__aeabi_dmul>
 8007ab4:	2200      	movs	r2, #0
 8007ab6:	4b47      	ldr	r3, [pc, #284]	; (8007bd4 <IOPort_readAINS+0x1ec>)
 8007ab8:	f000 ff16 	bl	80088e8 <__aeabi_dmul>
 8007abc:	e9c5 0100 	strd	r0, r1, [r5]
 8007ac0:	484a      	ldr	r0, [pc, #296]	; (8007bec <IOPort_readAINS+0x204>)
 8007ac2:	68e5      	ldr	r5, [r4, #12]
 8007ac4:	f7fe fe34 	bl	8006730 <ADC_MEASUREMENT_GetResult>
 8007ac8:	f000 fea8 	bl	800881c <__aeabi_i2d>
 8007acc:	a338      	add	r3, pc, #224	; (adr r3, 8007bb0 <IOPort_readAINS+0x1c8>)
 8007ace:	e9d3 2300 	ldrd	r2, r3, [r3]
 8007ad2:	f001 f833 	bl	8008b3c <__aeabi_ddiv>
 8007ad6:	2200      	movs	r2, #0
 8007ad8:	4b3d      	ldr	r3, [pc, #244]	; (8007bd0 <IOPort_readAINS+0x1e8>)
 8007ada:	f000 ff05 	bl	80088e8 <__aeabi_dmul>
 8007ade:	2200      	movs	r2, #0
 8007ae0:	4b3c      	ldr	r3, [pc, #240]	; (8007bd4 <IOPort_readAINS+0x1ec>)
 8007ae2:	f000 ff01 	bl	80088e8 <__aeabi_dmul>
 8007ae6:	e9c5 0100 	strd	r0, r1, [r5]
 8007aea:	4841      	ldr	r0, [pc, #260]	; (8007bf0 <IOPort_readAINS+0x208>)
 8007aec:	6865      	ldr	r5, [r4, #4]
 8007aee:	f7fe fe1f 	bl	8006730 <ADC_MEASUREMENT_GetResult>
 8007af2:	f000 fe93 	bl	800881c <__aeabi_i2d>
 8007af6:	a32e      	add	r3, pc, #184	; (adr r3, 8007bb0 <IOPort_readAINS+0x1c8>)
 8007af8:	e9d3 2300 	ldrd	r2, r3, [r3]
 8007afc:	f001 f81e 	bl	8008b3c <__aeabi_ddiv>
 8007b00:	2200      	movs	r2, #0
 8007b02:	4b33      	ldr	r3, [pc, #204]	; (8007bd0 <IOPort_readAINS+0x1e8>)
 8007b04:	f000 fef0 	bl	80088e8 <__aeabi_dmul>
 8007b08:	2200      	movs	r2, #0
 8007b0a:	4b32      	ldr	r3, [pc, #200]	; (8007bd4 <IOPort_readAINS+0x1ec>)
 8007b0c:	f000 feec 	bl	80088e8 <__aeabi_dmul>
 8007b10:	e9c5 0100 	strd	r0, r1, [r5]
 8007b14:	4837      	ldr	r0, [pc, #220]	; (8007bf4 <IOPort_readAINS+0x20c>)
 8007b16:	6ba5      	ldr	r5, [r4, #56]	; 0x38
 8007b18:	f7fe fe0a 	bl	8006730 <ADC_MEASUREMENT_GetResult>
 8007b1c:	f000 fe6e 	bl	80087fc <__aeabi_ui2d>
 8007b20:	f7ff feca 	bl	80078b8 <NTC_Calc>
 8007b24:	e9c5 0100 	strd	r0, r1, [r5]
 8007b28:	4833      	ldr	r0, [pc, #204]	; (8007bf8 <IOPort_readAINS+0x210>)
 8007b2a:	6be5      	ldr	r5, [r4, #60]	; 0x3c
 8007b2c:	f7fe fe00 	bl	8006730 <ADC_MEASUREMENT_GetResult>
 8007b30:	f000 fe74 	bl	800881c <__aeabi_i2d>
 8007b34:	a31e      	add	r3, pc, #120	; (adr r3, 8007bb0 <IOPort_readAINS+0x1c8>)
 8007b36:	e9d3 2300 	ldrd	r2, r3, [r3]
 8007b3a:	f000 ffff 	bl	8008b3c <__aeabi_ddiv>
 8007b3e:	a320      	add	r3, pc, #128	; (adr r3, 8007bc0 <IOPort_readAINS+0x1d8>)
 8007b40:	e9d3 2300 	ldrd	r2, r3, [r3]
 8007b44:	f000 fed0 	bl	80088e8 <__aeabi_dmul>
 8007b48:	2200      	movs	r2, #0
 8007b4a:	4b22      	ldr	r3, [pc, #136]	; (8007bd4 <IOPort_readAINS+0x1ec>)
 8007b4c:	f000 fecc 	bl	80088e8 <__aeabi_dmul>
 8007b50:	e9c5 0100 	strd	r0, r1, [r5]
 8007b54:	4829      	ldr	r0, [pc, #164]	; (8007bfc <IOPort_readAINS+0x214>)
 8007b56:	6c25      	ldr	r5, [r4, #64]	; 0x40
 8007b58:	f7fe fdea 	bl	8006730 <ADC_MEASUREMENT_GetResult>
 8007b5c:	f000 fe5e 	bl	800881c <__aeabi_i2d>
 8007b60:	a313      	add	r3, pc, #76	; (adr r3, 8007bb0 <IOPort_readAINS+0x1c8>)
 8007b62:	e9d3 2300 	ldrd	r2, r3, [r3]
 8007b66:	f000 ffe9 	bl	8008b3c <__aeabi_ddiv>
 8007b6a:	a315      	add	r3, pc, #84	; (adr r3, 8007bc0 <IOPort_readAINS+0x1d8>)
 8007b6c:	e9d3 2300 	ldrd	r2, r3, [r3]
 8007b70:	f000 feba 	bl	80088e8 <__aeabi_dmul>
 8007b74:	2200      	movs	r2, #0
 8007b76:	4b17      	ldr	r3, [pc, #92]	; (8007bd4 <IOPort_readAINS+0x1ec>)
 8007b78:	f000 feb6 	bl	80088e8 <__aeabi_dmul>
 8007b7c:	e9c5 0100 	strd	r0, r1, [r5]
 8007b80:	481f      	ldr	r0, [pc, #124]	; (8007c00 <IOPort_readAINS+0x218>)
 8007b82:	6c64      	ldr	r4, [r4, #68]	; 0x44
 8007b84:	f7fe fdd4 	bl	8006730 <ADC_MEASUREMENT_GetResult>
 8007b88:	f000 fe48 	bl	800881c <__aeabi_i2d>
 8007b8c:	a308      	add	r3, pc, #32	; (adr r3, 8007bb0 <IOPort_readAINS+0x1c8>)
 8007b8e:	e9d3 2300 	ldrd	r2, r3, [r3]
 8007b92:	f000 ffd3 	bl	8008b3c <__aeabi_ddiv>
 8007b96:	a30a      	add	r3, pc, #40	; (adr r3, 8007bc0 <IOPort_readAINS+0x1d8>)
 8007b98:	e9d3 2300 	ldrd	r2, r3, [r3]
 8007b9c:	f000 fea4 	bl	80088e8 <__aeabi_dmul>
 8007ba0:	2200      	movs	r2, #0
 8007ba2:	4b0c      	ldr	r3, [pc, #48]	; (8007bd4 <IOPort_readAINS+0x1ec>)
 8007ba4:	f000 fea0 	bl	80088e8 <__aeabi_dmul>
 8007ba8:	e9c4 0100 	strd	r0, r1, [r4]
 8007bac:	bd38      	pop	{r3, r4, r5, pc}
 8007bae:	bf00      	nop
 8007bb0:	00000000 	.word	0x00000000
 8007bb4:	40affe00 	.word	0x40affe00
 8007bb8:	9999999a 	.word	0x9999999a
 8007bbc:	402d9999 	.word	0x402d9999
 8007bc0:	66666666 	.word	0x66666666
 8007bc4:	400a6666 	.word	0x400a6666
 8007bc8:	20001298 	.word	0x20001298
 8007bcc:	200005e8 	.word	0x200005e8
 8007bd0:	40140000 	.word	0x40140000
 8007bd4:	408f4000 	.word	0x408f4000
 8007bd8:	2000053c 	.word	0x2000053c
 8007bdc:	200004c8 	.word	0x200004c8
 8007be0:	40280000 	.word	0x40280000
 8007be4:	200005d4 	.word	0x200005d4
 8007be8:	2000051c 	.word	0x2000051c
 8007bec:	200004a8 	.word	0x200004a8
 8007bf0:	200005a8 	.word	0x200005a8
 8007bf4:	20000508 	.word	0x20000508
 8007bf8:	20000494 	.word	0x20000494
 8007bfc:	20000594 	.word	0x20000594
 8007c00:	200004f4 	.word	0x200004f4
 8007c04:	f3af 8000 	nop.w

08007c08 <vCallback_SuspendTransmission>:
 8007c08:	4a04      	ldr	r2, [pc, #16]	; (8007c1c <vCallback_SuspendTransmission+0x14>)
 8007c0a:	2300      	movs	r3, #0
 8007c0c:	7013      	strb	r3, [r2, #0]
 8007c0e:	4a04      	ldr	r2, [pc, #16]	; (8007c20 <vCallback_SuspendTransmission+0x18>)
 8007c10:	7013      	strb	r3, [r2, #0]
 8007c12:	4b04      	ldr	r3, [pc, #16]	; (8007c24 <vCallback_SuspendTransmission+0x1c>)
 8007c14:	2201      	movs	r2, #1
 8007c16:	701a      	strb	r2, [r3, #0]
 8007c18:	4770      	bx	lr
 8007c1a:	bf00      	nop
 8007c1c:	20001228 	.word	0x20001228
 8007c20:	20001248 	.word	0x20001248
 8007c24:	20000884 	.word	0x20000884

08007c28 <Task_Transmit>:
 8007c28:	b508      	push	{r3, lr}
 8007c2a:	f7f8 ffb5 	bl	8000b98 <FUNC_OutputData>
 8007c2e:	f7fe ff1b 	bl	8006a68 <CAN_1_Transmit>
 8007c32:	f7ff fab5 	bl	80071a0 <CAN_2_Transmit>
 8007c36:	f7ff fd15 	bl	8007664 <IOPort_setDOUTS>
 8007c3a:	f7ff fdc3 	bl	80077c4 <IOPort_setPWMOUTS>
 8007c3e:	4b06      	ldr	r3, [pc, #24]	; (8007c58 <Task_Transmit+0x30>)
 8007c40:	2201      	movs	r2, #1
 8007c42:	705a      	strb	r2, [r3, #1]
 8007c44:	4b05      	ldr	r3, [pc, #20]	; (8007c5c <Task_Transmit+0x34>)
 8007c46:	781b      	ldrb	r3, [r3, #0]
 8007c48:	f44f 707a 	mov.w	r0, #1000	; 0x3e8
 8007c4c:	4343      	muls	r3, r0
 8007c4e:	fbb3 f0f0 	udiv	r0, r3, r0
 8007c52:	f7fd fe9f 	bl	8005994 <vTaskDelay>
 8007c56:	e7e8      	b.n	8007c2a <Task_Transmit+0x2>
 8007c58:	2000087a 	.word	0x2000087a
 8007c5c:	20000624 	.word	0x20000624

08007c60 <Task_LowPrioTask>:
 8007c60:	b508      	push	{r3, lr}
 8007c62:	f7fa f841 	bl	8001ce8 <FUNC_PumpAndFans>
 8007c66:	f7f8 fb81 	bl	800036c <FUNC_Brakelight>
 8007c6a:	f7fa f8a5 	bl	8001db8 <FUNC_Safety>
 8007c6e:	4b06      	ldr	r3, [pc, #24]	; (8007c88 <Task_LowPrioTask+0x28>)
 8007c70:	2201      	movs	r2, #1
 8007c72:	701a      	strb	r2, [r3, #0]
 8007c74:	4b05      	ldr	r3, [pc, #20]	; (8007c8c <Task_LowPrioTask+0x2c>)
 8007c76:	781b      	ldrb	r3, [r3, #0]
 8007c78:	f44f 707a 	mov.w	r0, #1000	; 0x3e8
 8007c7c:	4343      	muls	r3, r0
 8007c7e:	fbb3 f0f0 	udiv	r0, r3, r0
 8007c82:	f7fd fe87 	bl	8005994 <vTaskDelay>
 8007c86:	e7ec      	b.n	8007c62 <Task_LowPrioTask+0x2>
 8007c88:	2000087a 	.word	0x2000087a
 8007c8c:	20000623 	.word	0x20000623

08007c90 <Task_OneLoop>:
 8007c90:	b508      	push	{r3, lr}
 8007c92:	f7fe fe67 	bl	8006964 <CAN_1_Receive>
 8007c96:	f7ff f8cd 	bl	8006e34 <CAN_2_Receive>
 8007c9a:	f7ff fc73 	bl	8007584 <IOPort_readDINS>
 8007c9e:	f7ff fea3 	bl	80079e8 <IOPort_readAINS>
 8007ca2:	f7f8 fb91 	bl	80003c8 <FUNC_InputData>
 8007ca6:	f7fa f8c3 	bl	8001e30 <FUNC_Transmission>
 8007caa:	f7fa f81d 	bl	8001ce8 <FUNC_PumpAndFans>
 8007cae:	f7f8 fb5d 	bl	800036c <FUNC_Brakelight>
 8007cb2:	f7f8 ff71 	bl	8000b98 <FUNC_OutputData>
 8007cb6:	f7fa f87f 	bl	8001db8 <FUNC_Safety>
 8007cba:	f7fe fed5 	bl	8006a68 <CAN_1_Transmit>
 8007cbe:	f7ff fa6f 	bl	80071a0 <CAN_2_Transmit>
 8007cc2:	f7ff fccf 	bl	8007664 <IOPort_setDOUTS>
 8007cc6:	f7ff fd7d 	bl	80077c4 <IOPort_setPWMOUTS>
 8007cca:	f7ff fb0d 	bl	80072e8 <Watchdog_Reset>
 8007cce:	e7e0      	b.n	8007c92 <Task_OneLoop+0x2>

08007cd0 <Task_Reveive>:
 8007cd0:	b583      	push	{r0, r1, r7, lr}
 8007cd2:	4a37      	ldr	r2, [pc, #220]	; (8007db0 <Task_Reveive+0xe0>)
 8007cd4:	4c37      	ldr	r4, [pc, #220]	; (8007db4 <Task_Reveive+0xe4>)
 8007cd6:	6813      	ldr	r3, [r2, #0]
 8007cd8:	7c12      	ldrb	r2, [r2, #16]
 8007cda:	6a5b      	ldr	r3, [r3, #36]	; 0x24
 8007cdc:	40d3      	lsrs	r3, r2
 8007cde:	4a36      	ldr	r2, [pc, #216]	; (8007db8 <Task_Reveive+0xe8>)
 8007ce0:	f003 0301 	and.w	r3, r3, #1
 8007ce4:	7013      	strb	r3, [r2, #0]
 8007ce6:	4a35      	ldr	r2, [pc, #212]	; (8007dbc <Task_Reveive+0xec>)
 8007ce8:	6813      	ldr	r3, [r2, #0]
 8007cea:	7c12      	ldrb	r2, [r2, #16]
 8007cec:	6a5b      	ldr	r3, [r3, #36]	; 0x24
 8007cee:	40d3      	lsrs	r3, r2
 8007cf0:	4a33      	ldr	r2, [pc, #204]	; (8007dc0 <Task_Reveive+0xf0>)
 8007cf2:	f003 0301 	and.w	r3, r3, #1
 8007cf6:	7013      	strb	r3, [r2, #0]
 8007cf8:	f7fe fe34 	bl	8006964 <CAN_1_Receive>
 8007cfc:	f7ff f89a 	bl	8006e34 <CAN_2_Receive>
 8007d00:	f7ff fc40 	bl	8007584 <IOPort_readDINS>
 8007d04:	f7ff fe70 	bl	80079e8 <IOPort_readAINS>
 8007d08:	f7f8 fb5e 	bl	80003c8 <FUNC_InputData>
 8007d0c:	7862      	ldrb	r2, [r4, #1]
 8007d0e:	7823      	ldrb	r3, [r4, #0]
 8007d10:	421a      	tst	r2, r3
 8007d12:	d004      	beq.n	8007d1e <Task_Reveive+0x4e>
 8007d14:	f7ff fae8 	bl	80072e8 <Watchdog_Reset>
 8007d18:	2300      	movs	r3, #0
 8007d1a:	7023      	strb	r3, [r4, #0]
 8007d1c:	7063      	strb	r3, [r4, #1]
 8007d1e:	4b29      	ldr	r3, [pc, #164]	; (8007dc4 <Task_Reveive+0xf4>)
 8007d20:	4f29      	ldr	r7, [pc, #164]	; (8007dc8 <Task_Reveive+0xf8>)
 8007d22:	781e      	ldrb	r6, [r3, #0]
 8007d24:	4b29      	ldr	r3, [pc, #164]	; (8007dcc <Task_Reveive+0xfc>)
 8007d26:	781d      	ldrb	r5, [r3, #0]
 8007d28:	6ebb      	ldr	r3, [r7, #104]	; 0x68
 8007d2a:	781c      	ldrb	r4, [r3, #0]
 8007d2c:	6e7b      	ldr	r3, [r7, #100]	; 0x64
 8007d2e:	781b      	ldrb	r3, [r3, #0]
 8007d30:	2b01      	cmp	r3, #1
 8007d32:	bf18      	it	ne
 8007d34:	2c01      	cmpne	r4, #1
 8007d36:	4b26      	ldr	r3, [pc, #152]	; (8007dd0 <Task_Reveive+0x100>)
 8007d38:	f8d3 9034 	ldr.w	r9, [r3, #52]	; 0x34
 8007d3c:	4b25      	ldr	r3, [pc, #148]	; (8007dd4 <Task_Reveive+0x104>)
 8007d3e:	8818      	ldrh	r0, [r3, #0]
 8007d40:	bf0c      	ite	eq
 8007d42:	f04f 0801 	moveq.w	r8, #1
 8007d46:	f04f 0800 	movne.w	r8, #0
 8007d4a:	f000 fd67 	bl	800881c <__aeabi_i2d>
 8007d4e:	4602      	mov	r2, r0
 8007d50:	460b      	mov	r3, r1
 8007d52:	e9d9 0100 	ldrd	r0, r1, [r9]
 8007d56:	f04f 0401 	mov.w	r4, #1
 8007d5a:	f001 f837 	bl	8008dcc <__aeabi_dcmplt>
 8007d5e:	b900      	cbnz	r0, 8007d62 <Task_Reveive+0x92>
 8007d60:	4604      	mov	r4, r0
 8007d62:	f8d7 20b0 	ldr.w	r2, [r7, #176]	; 0xb0
 8007d66:	7812      	ldrb	r2, [r2, #0]
 8007d68:	ea48 0404 	orr.w	r4, r8, r4
 8007d6c:	ea45 0306 	orr.w	r3, r5, r6
 8007d70:	b2e4      	uxtb	r4, r4
 8007d72:	4313      	orrs	r3, r2
 8007d74:	4323      	orrs	r3, r4
 8007d76:	d0ac      	beq.n	8007cd2 <Task_Reveive+0x2>
 8007d78:	b126      	cbz	r6, 8007d84 <Task_Reveive+0xb4>
 8007d7a:	4b17      	ldr	r3, [pc, #92]	; (8007dd8 <Task_Reveive+0x108>)
 8007d7c:	2201      	movs	r2, #1
 8007d7e:	f883 2131 	strb.w	r2, [r3, #305]	; 0x131
 8007d82:	e004      	b.n	8007d8e <Task_Reveive+0xbe>
 8007d84:	b11d      	cbz	r5, 8007d8e <Task_Reveive+0xbe>
 8007d86:	4b14      	ldr	r3, [pc, #80]	; (8007dd8 <Task_Reveive+0x108>)
 8007d88:	2201      	movs	r2, #1
 8007d8a:	f883 2130 	strb.w	r2, [r3, #304]	; 0x130
 8007d8e:	4b13      	ldr	r3, [pc, #76]	; (8007ddc <Task_Reveive+0x10c>)
 8007d90:	681c      	ldr	r4, [r3, #0]
 8007d92:	f7fd fcfd 	bl	8005790 <xTaskGetTickCount>
 8007d96:	2300      	movs	r3, #0
 8007d98:	4602      	mov	r2, r0
 8007d9a:	9300      	str	r3, [sp, #0]
 8007d9c:	4620      	mov	r0, r4
 8007d9e:	2102      	movs	r1, #2
 8007da0:	f7fe f89c 	bl	8005edc <xTimerGenericCommand>
 8007da4:	4b0e      	ldr	r3, [pc, #56]	; (8007de0 <Task_Reveive+0x110>)
 8007da6:	6818      	ldr	r0, [r3, #0]
 8007da8:	f7fd fc68 	bl	800567c <vTaskResume>
 8007dac:	e791      	b.n	8007cd2 <Task_Reveive+0x2>
 8007dae:	bf00      	nop
 8007db0:	08009514 	.word	0x08009514
 8007db4:	2000087a 	.word	0x2000087a
 8007db8:	2000088c 	.word	0x2000088c
 8007dbc:	080094d8 	.word	0x080094d8
 8007dc0:	2000088d 	.word	0x2000088d
 8007dc4:	20001228 	.word	0x20001228
 8007dc8:	20001310 	.word	0x20001310
 8007dcc:	20001248 	.word	0x20001248
 8007dd0:	20001298 	.word	0x20001298
 8007dd4:	20000626 	.word	0x20000626
 8007dd8:	20001030 	.word	0x20001030
 8007ddc:	20000894 	.word	0x20000894
 8007de0:	20000888 	.word	0x20000888

08007de4 <Task_Transmission>:
 8007de4:	b583      	push	{r0, r1, r7, lr}
 8007de6:	4d3e      	ldr	r5, [pc, #248]	; (8007ee0 <Task_Transmission+0xfc>)
 8007de8:	4f3e      	ldr	r7, [pc, #248]	; (8007ee4 <Task_Transmission+0x100>)
 8007dea:	4e3f      	ldr	r6, [pc, #252]	; (8007ee8 <Task_Transmission+0x104>)
 8007dec:	2301      	movs	r3, #1
 8007dee:	702b      	strb	r3, [r5, #0]
 8007df0:	f7f8 fabc 	bl	800036c <FUNC_Brakelight>
 8007df4:	f7f9 ffe0 	bl	8001db8 <FUNC_Safety>
 8007df8:	f7fa f81a 	bl	8001e30 <FUNC_Transmission>
 8007dfc:	f7f8 fecc 	bl	8000b98 <FUNC_OutputData>
 8007e00:	f7fe fe32 	bl	8006a68 <CAN_1_Transmit>
 8007e04:	f7ff f9cc 	bl	80071a0 <CAN_2_Transmit>
 8007e08:	f7ff fc2c 	bl	8007664 <IOPort_setDOUTS>
 8007e0c:	f7ff fcda 	bl	80077c4 <IOPort_setPWMOUTS>
 8007e10:	f7fe fda8 	bl	8006964 <CAN_1_Receive>
 8007e14:	f7ff f80e 	bl	8006e34 <CAN_2_Receive>
 8007e18:	f7ff fde6 	bl	80079e8 <IOPort_readAINS>
 8007e1c:	f7ff fbb2 	bl	8007584 <IOPort_readDINS>
 8007e20:	783a      	ldrb	r2, [r7, #0]
 8007e22:	7833      	ldrb	r3, [r6, #0]
 8007e24:	4313      	orrs	r3, r2
 8007e26:	d012      	beq.n	8007e4e <Task_Transmission+0x6a>
 8007e28:	4930      	ldr	r1, [pc, #192]	; (8007eec <Task_Transmission+0x108>)
 8007e2a:	4a31      	ldr	r2, [pc, #196]	; (8007ef0 <Task_Transmission+0x10c>)
 8007e2c:	680b      	ldr	r3, [r1, #0]
 8007e2e:	7c09      	ldrb	r1, [r1, #16]
 8007e30:	6a5b      	ldr	r3, [r3, #36]	; 0x24
 8007e32:	40cb      	lsrs	r3, r1
 8007e34:	492f      	ldr	r1, [pc, #188]	; (8007ef4 <Task_Transmission+0x110>)
 8007e36:	f003 0301 	and.w	r3, r3, #1
 8007e3a:	f882 3130 	strb.w	r3, [r2, #304]	; 0x130
 8007e3e:	680b      	ldr	r3, [r1, #0]
 8007e40:	7c09      	ldrb	r1, [r1, #16]
 8007e42:	6a5b      	ldr	r3, [r3, #36]	; 0x24
 8007e44:	40cb      	lsrs	r3, r1
 8007e46:	f003 0301 	and.w	r3, r3, #1
 8007e4a:	f882 3131 	strb.w	r3, [r2, #305]	; 0x131
 8007e4e:	f8df 80bc 	ldr.w	r8, [pc, #188]	; 8007f0c <Task_Transmission+0x128>
 8007e52:	f7f8 fab9 	bl	80003c8 <FUNC_InputData>
 8007e56:	f8d8 3068 	ldr.w	r3, [r8, #104]	; 0x68
 8007e5a:	781c      	ldrb	r4, [r3, #0]
 8007e5c:	f8d8 3064 	ldr.w	r3, [r8, #100]	; 0x64
 8007e60:	781b      	ldrb	r3, [r3, #0]
 8007e62:	2b01      	cmp	r3, #1
 8007e64:	bf18      	it	ne
 8007e66:	2c01      	cmpne	r4, #1
 8007e68:	4b23      	ldr	r3, [pc, #140]	; (8007ef8 <Task_Transmission+0x114>)
 8007e6a:	f8d3 a034 	ldr.w	sl, [r3, #52]	; 0x34
 8007e6e:	4b23      	ldr	r3, [pc, #140]	; (8007efc <Task_Transmission+0x118>)
 8007e70:	8818      	ldrh	r0, [r3, #0]
 8007e72:	bf0c      	ite	eq
 8007e74:	f04f 0901 	moveq.w	r9, #1
 8007e78:	f04f 0900 	movne.w	r9, #0
 8007e7c:	f000 fcce 	bl	800881c <__aeabi_i2d>
 8007e80:	4602      	mov	r2, r0
 8007e82:	460b      	mov	r3, r1
 8007e84:	e9da 0100 	ldrd	r0, r1, [sl]
 8007e88:	f04f 0401 	mov.w	r4, #1
 8007e8c:	f000 ff9e 	bl	8008dcc <__aeabi_dcmplt>
 8007e90:	b900      	cbnz	r0, 8007e94 <Task_Transmission+0xb0>
 8007e92:	4604      	mov	r4, r0
 8007e94:	7833      	ldrb	r3, [r6, #0]
 8007e96:	783a      	ldrb	r2, [r7, #0]
 8007e98:	431a      	orrs	r2, r3
 8007e9a:	f8d8 30b0 	ldr.w	r3, [r8, #176]	; 0xb0
 8007e9e:	781b      	ldrb	r3, [r3, #0]
 8007ea0:	ea49 0404 	orr.w	r4, r9, r4
 8007ea4:	b2e4      	uxtb	r4, r4
 8007ea6:	4313      	orrs	r3, r2
 8007ea8:	4323      	orrs	r3, r4
 8007eaa:	d00c      	beq.n	8007ec6 <Task_Transmission+0xe2>
 8007eac:	f7ff fa1c 	bl	80072e8 <Watchdog_Reset>
 8007eb0:	4b13      	ldr	r3, [pc, #76]	; (8007f00 <Task_Transmission+0x11c>)
 8007eb2:	681c      	ldr	r4, [r3, #0]
 8007eb4:	f7fd fc6c 	bl	8005790 <xTaskGetTickCount>
 8007eb8:	2300      	movs	r3, #0
 8007eba:	4602      	mov	r2, r0
 8007ebc:	9300      	str	r3, [sp, #0]
 8007ebe:	4620      	mov	r0, r4
 8007ec0:	2102      	movs	r1, #2
 8007ec2:	f7fe f80b 	bl	8005edc <xTimerGenericCommand>
 8007ec6:	4b0f      	ldr	r3, [pc, #60]	; (8007f04 <Task_Transmission+0x120>)
 8007ec8:	781a      	ldrb	r2, [r3, #0]
 8007eca:	2a00      	cmp	r2, #0
 8007ecc:	d08b      	beq.n	8007de6 <Task_Transmission+0x2>
 8007ece:	2200      	movs	r2, #0
 8007ed0:	701a      	strb	r2, [r3, #0]
 8007ed2:	4b0d      	ldr	r3, [pc, #52]	; (8007f08 <Task_Transmission+0x124>)
 8007ed4:	702a      	strb	r2, [r5, #0]
 8007ed6:	6818      	ldr	r0, [r3, #0]
 8007ed8:	f7fd fdbe 	bl	8005a58 <vTaskSuspend>
 8007edc:	e783      	b.n	8007de6 <Task_Transmission+0x2>
 8007ede:	bf00      	nop
 8007ee0:	20000878 	.word	0x20000878
 8007ee4:	20001248 	.word	0x20001248
 8007ee8:	20001228 	.word	0x20001228
 8007eec:	08009514 	.word	0x08009514
 8007ef0:	20001030 	.word	0x20001030
 8007ef4:	080094d8 	.word	0x080094d8
 8007ef8:	20001298 	.word	0x20001298
 8007efc:	20000626 	.word	0x20000626
 8007f00:	20000894 	.word	0x20000894
 8007f04:	20000884 	.word	0x20000884
 8007f08:	20000888 	.word	0x20000888
 8007f0c:	20001310 	.word	0x20001310

08007f10 <RTOS_Handling_ini>:
 8007f10:	e92d 43f7 	stmdb	sp!, {r0, r1, r2, r4, r5, r6, r7, r8, r9, lr}
 8007f14:	4b32      	ldr	r3, [pc, #200]	; (8007fe0 <RTOS_Handling_ini+0xd0>)
 8007f16:	4e33      	ldr	r6, [pc, #204]	; (8007fe4 <RTOS_Handling_ini+0xd4>)
 8007f18:	4933      	ldr	r1, [pc, #204]	; (8007fe8 <RTOS_Handling_ini+0xd8>)
 8007f1a:	4834      	ldr	r0, [pc, #208]	; (8007fec <RTOS_Handling_ini+0xdc>)
 8007f1c:	4f34      	ldr	r7, [pc, #208]	; (8007ff0 <RTOS_Handling_ini+0xe0>)
 8007f1e:	f8df 8110 	ldr.w	r8, [pc, #272]	; 8008030 <RTOS_Handling_ini+0x120>
 8007f22:	f8df 9110 	ldr.w	r9, [pc, #272]	; 8008034 <RTOS_Handling_ini+0x124>
 8007f26:	4d33      	ldr	r5, [pc, #204]	; (8007ff4 <RTOS_Handling_ini+0xe4>)
 8007f28:	2400      	movs	r4, #0
 8007f2a:	701c      	strb	r4, [r3, #0]
 8007f2c:	4b32      	ldr	r3, [pc, #200]	; (8007ff8 <RTOS_Handling_ini+0xe8>)
 8007f2e:	22c8      	movs	r2, #200	; 0xc8
 8007f30:	701c      	strb	r4, [r3, #0]
 8007f32:	4623      	mov	r3, r4
 8007f34:	9400      	str	r4, [sp, #0]
 8007f36:	9601      	str	r6, [sp, #4]
 8007f38:	f7fd fabc 	bl	80054b4 <xTaskCreate>
 8007f3c:	2301      	movs	r3, #1
 8007f3e:	9300      	str	r3, [sp, #0]
 8007f40:	492e      	ldr	r1, [pc, #184]	; (8007ffc <RTOS_Handling_ini+0xec>)
 8007f42:	9701      	str	r7, [sp, #4]
 8007f44:	22c8      	movs	r2, #200	; 0xc8
 8007f46:	4623      	mov	r3, r4
 8007f48:	482d      	ldr	r0, [pc, #180]	; (8008000 <RTOS_Handling_ini+0xf0>)
 8007f4a:	f7fd fab3 	bl	80054b4 <xTaskCreate>
 8007f4e:	2302      	movs	r3, #2
 8007f50:	9300      	str	r3, [sp, #0]
 8007f52:	492c      	ldr	r1, [pc, #176]	; (8008004 <RTOS_Handling_ini+0xf4>)
 8007f54:	f8cd 8004 	str.w	r8, [sp, #4]
 8007f58:	22c8      	movs	r2, #200	; 0xc8
 8007f5a:	4623      	mov	r3, r4
 8007f5c:	482a      	ldr	r0, [pc, #168]	; (8008008 <RTOS_Handling_ini+0xf8>)
 8007f5e:	f7fd faa9 	bl	80054b4 <xTaskCreate>
 8007f62:	2303      	movs	r3, #3
 8007f64:	9300      	str	r3, [sp, #0]
 8007f66:	4929      	ldr	r1, [pc, #164]	; (800800c <RTOS_Handling_ini+0xfc>)
 8007f68:	f8cd 9004 	str.w	r9, [sp, #4]
 8007f6c:	22c8      	movs	r2, #200	; 0xc8
 8007f6e:	4623      	mov	r3, r4
 8007f70:	4827      	ldr	r0, [pc, #156]	; (8008010 <RTOS_Handling_ini+0x100>)
 8007f72:	f7fd fa9f 	bl	80054b4 <xTaskCreate>
 8007f76:	2304      	movs	r3, #4
 8007f78:	9300      	str	r3, [sp, #0]
 8007f7a:	4926      	ldr	r1, [pc, #152]	; (8008014 <RTOS_Handling_ini+0x104>)
 8007f7c:	9501      	str	r5, [sp, #4]
 8007f7e:	22c8      	movs	r2, #200	; 0xc8
 8007f80:	4623      	mov	r3, r4
 8007f82:	4825      	ldr	r0, [pc, #148]	; (8008018 <RTOS_Handling_ini+0x108>)
 8007f84:	f7fd fa96 	bl	80054b4 <xTaskCreate>
 8007f88:	4b24      	ldr	r3, [pc, #144]	; (800801c <RTOS_Handling_ini+0x10c>)
 8007f8a:	4a25      	ldr	r2, [pc, #148]	; (8008020 <RTOS_Handling_ini+0x110>)
 8007f8c:	881b      	ldrh	r3, [r3, #0]
 8007f8e:	4825      	ldr	r0, [pc, #148]	; (8008024 <RTOS_Handling_ini+0x114>)
 8007f90:	9200      	str	r2, [sp, #0]
 8007f92:	f44f 717a 	mov.w	r1, #1000	; 0x3e8
 8007f96:	4622      	mov	r2, r4
 8007f98:	434b      	muls	r3, r1
 8007f9a:	fbb3 f1f1 	udiv	r1, r3, r1
 8007f9e:	4623      	mov	r3, r4
 8007fa0:	f7fd ff6e 	bl	8005e80 <xTimerCreate>
 8007fa4:	4b20      	ldr	r3, [pc, #128]	; (8008028 <RTOS_Handling_ini+0x118>)
 8007fa6:	6018      	str	r0, [r3, #0]
 8007fa8:	6828      	ldr	r0, [r5, #0]
 8007faa:	f7fd fd55 	bl	8005a58 <vTaskSuspend>
 8007fae:	f8d9 0000 	ldr.w	r0, [r9]
 8007fb2:	f7fd fd51 	bl	8005a58 <vTaskSuspend>
 8007fb6:	4b1d      	ldr	r3, [pc, #116]	; (800802c <RTOS_Handling_ini+0x11c>)
 8007fb8:	781b      	ldrb	r3, [r3, #0]
 8007fba:	b163      	cbz	r3, 8007fd6 <RTOS_Handling_ini+0xc6>
 8007fbc:	f8d8 0000 	ldr.w	r0, [r8]
 8007fc0:	f7fd fd4a 	bl	8005a58 <vTaskSuspend>
 8007fc4:	6838      	ldr	r0, [r7, #0]
 8007fc6:	f7fd fd47 	bl	8005a58 <vTaskSuspend>
 8007fca:	6830      	ldr	r0, [r6, #0]
 8007fcc:	f7fd fd44 	bl	8005a58 <vTaskSuspend>
 8007fd0:	6828      	ldr	r0, [r5, #0]
 8007fd2:	f7fd fb53 	bl	800567c <vTaskResume>
 8007fd6:	b003      	add	sp, #12
 8007fd8:	e8bd 43f0 	ldmia.w	sp!, {r4, r5, r6, r7, r8, r9, lr}
 8007fdc:	f7fd bb90 	b.w	8005700 <vTaskStartScheduler>
 8007fe0:	20001228 	.word	0x20001228
 8007fe4:	2000087c 	.word	0x2000087c
 8007fe8:	080098f0 	.word	0x080098f0
 8007fec:	08007cd1 	.word	0x08007cd1
 8007ff0:	20000880 	.word	0x20000880
 8007ff4:	20000890 	.word	0x20000890
 8007ff8:	20001248 	.word	0x20001248
 8007ffc:	080098fd 	.word	0x080098fd
 8008000:	08007c61 	.word	0x08007c61
 8008004:	0800990e 	.word	0x0800990e
 8008008:	08007c29 	.word	0x08007c29
 800800c:	0800991c 	.word	0x0800991c
 8008010:	08007de5 	.word	0x08007de5
 8008014:	0800992e 	.word	0x0800992e
 8008018:	08007c91 	.word	0x08007c91
 800801c:	20000628 	.word	0x20000628
 8008020:	08007c09 	.word	0x08007c09
 8008024:	0800993f 	.word	0x0800993f
 8008028:	20000894 	.word	0x20000894
 800802c:	20000879 	.word	0x20000879
 8008030:	20000874 	.word	0x20000874
 8008034:	20000888 	.word	0x20000888

08008038 <getbits>:
 8008038:	3101      	adds	r1, #1
 800803a:	1a89      	subs	r1, r1, r2
 800803c:	f04f 33ff 	mov.w	r3, #4294967295
 8008040:	40c8      	lsrs	r0, r1
 8008042:	4093      	lsls	r3, r2
 8008044:	ea20 0003 	bic.w	r0, r0, r3
 8008048:	4770      	bx	lr

0800804a <getbits64>:
 800804a:	3201      	adds	r2, #1
 800804c:	b538      	push	{r3, r4, r5, lr}
 800804e:	1ad2      	subs	r2, r2, r3
 8008050:	461c      	mov	r4, r3
 8008052:	f000 fa79 	bl	8008548 <__aeabi_llsr>
 8008056:	4622      	mov	r2, r4
 8008058:	4605      	mov	r5, r0
 800805a:	f04f 31ff 	mov.w	r1, #4294967295
 800805e:	f04f 30ff 	mov.w	r0, #4294967295
 8008062:	f000 fa7d 	bl	8008560 <__aeabi_llsl>
 8008066:	ea25 0000 	bic.w	r0, r5, r0
 800806a:	bd38      	pop	{r3, r4, r5, pc}

0800806c <setbitTrue>:
 800806c:	460a      	mov	r2, r1
 800806e:	b510      	push	{r4, lr}
 8008070:	2100      	movs	r1, #0
 8008072:	4604      	mov	r4, r0
 8008074:	2001      	movs	r0, #1
 8008076:	f000 fa73 	bl	8008560 <__aeabi_llsl>
 800807a:	e9d4 2300 	ldrd	r2, r3, [r4]
 800807e:	4310      	orrs	r0, r2
 8008080:	4319      	orrs	r1, r3
 8008082:	e9c4 0100 	strd	r0, r1, [r4]
 8008086:	bd10      	pop	{r4, pc}

08008088 <setbitFalse>:
 8008088:	460a      	mov	r2, r1
 800808a:	b510      	push	{r4, lr}
 800808c:	2100      	movs	r1, #0
 800808e:	4604      	mov	r4, r0
 8008090:	2001      	movs	r0, #1
 8008092:	f000 fa65 	bl	8008560 <__aeabi_llsl>
 8008096:	e9d4 2300 	ldrd	r2, r3, [r4]
 800809a:	ea22 0000 	bic.w	r0, r2, r0
 800809e:	ea23 0101 	bic.w	r1, r3, r1
 80080a2:	e9c4 0100 	strd	r0, r1, [r4]
 80080a6:	bd10      	pop	{r4, pc}

080080a8 <main>:
 80080a8:	b508      	push	{r3, lr}
 80080aa:	f7fe fb4b 	bl	8006744 <DAVE_Init>
 80080ae:	f7ff f913 	bl	80072d8 <Watchdog_Start>
 80080b2:	f7fb fbed 	bl	8003890 <VCU_initialize>
 80080b6:	f7fe fbc7 	bl	8006848 <CAN_1_ini>
 80080ba:	f7fe fdb7 	bl	8006c2c <CAN_2_ini>
 80080be:	f7ff f9f1 	bl	80074a4 <IOPort_ini>
 80080c2:	f7ff ff25 	bl	8007f10 <RTOS_Handling_ini>
 80080c6:	2000      	movs	r0, #0
 80080c8:	bd08      	pop	{r3, pc}
 80080ca:	0000      	movs	r0, r0
 80080cc:	0000      	movs	r0, r0
	...

080080d0 <floor>:
 80080d0:	e92d 43f8 	stmdb	sp!, {r3, r4, r5, r6, r7, r8, r9, lr}
 80080d4:	f3c1 580a 	ubfx	r8, r1, #20, #11
 80080d8:	f2a8 35ff 	subw	r5, r8, #1023	; 0x3ff
 80080dc:	2d13      	cmp	r5, #19
 80080de:	4602      	mov	r2, r0
 80080e0:	460b      	mov	r3, r1
 80080e2:	460c      	mov	r4, r1
 80080e4:	4607      	mov	r7, r0
 80080e6:	4689      	mov	r9, r1
 80080e8:	4606      	mov	r6, r0
 80080ea:	dc1d      	bgt.n	8008128 <floor+0x58>
 80080ec:	2d00      	cmp	r5, #0
 80080ee:	db40      	blt.n	8008172 <floor+0xa2>
 80080f0:	f8df 80e8 	ldr.w	r8, [pc, #232]	; 80081dc <floor+0x10c>
 80080f4:	fa48 f805 	asr.w	r8, r8, r5
 80080f8:	ea08 0e01 	and.w	lr, r8, r1
 80080fc:	ea5e 0707 	orrs.w	r7, lr, r7
 8008100:	d017      	beq.n	8008132 <floor+0x62>
 8008102:	a334      	add	r3, pc, #208	; (adr r3, 80081d4 <floor+0x104>)
 8008104:	e9d3 2300 	ldrd	r2, r3, [r3]
 8008108:	f000 fa3c 	bl	8008584 <__adddf3>
 800810c:	2200      	movs	r2, #0
 800810e:	2300      	movs	r3, #0
 8008110:	f000 fe7a 	bl	8008e08 <__aeabi_dcmpgt>
 8008114:	b120      	cbz	r0, 8008120 <floor+0x50>
 8008116:	2c00      	cmp	r4, #0
 8008118:	db3f      	blt.n	800819a <floor+0xca>
 800811a:	ea29 0408 	bic.w	r4, r9, r8
 800811e:	2600      	movs	r6, #0
 8008120:	4621      	mov	r1, r4
 8008122:	4630      	mov	r0, r6
 8008124:	e8bd 83f8 	ldmia.w	sp!, {r3, r4, r5, r6, r7, r8, r9, pc}
 8008128:	2d33      	cmp	r5, #51	; 0x33
 800812a:	dd06      	ble.n	800813a <floor+0x6a>
 800812c:	f5b5 6f80 	cmp.w	r5, #1024	; 0x400
 8008130:	d02f      	beq.n	8008192 <floor+0xc2>
 8008132:	4610      	mov	r0, r2
 8008134:	4619      	mov	r1, r3
 8008136:	e8bd 83f8 	ldmia.w	sp!, {r3, r4, r5, r6, r7, r8, r9, pc}
 800813a:	f2a8 4e13 	subw	lr, r8, #1043	; 0x413
 800813e:	f04f 37ff 	mov.w	r7, #4294967295
 8008142:	fa27 f70e 	lsr.w	r7, r7, lr
 8008146:	4207      	tst	r7, r0
 8008148:	d0f3      	beq.n	8008132 <floor+0x62>
 800814a:	a322      	add	r3, pc, #136	; (adr r3, 80081d4 <floor+0x104>)
 800814c:	e9d3 2300 	ldrd	r2, r3, [r3]
 8008150:	f000 fa18 	bl	8008584 <__adddf3>
 8008154:	2200      	movs	r2, #0
 8008156:	2300      	movs	r3, #0
 8008158:	f000 fe56 	bl	8008e08 <__aeabi_dcmpgt>
 800815c:	2800      	cmp	r0, #0
 800815e:	d0df      	beq.n	8008120 <floor+0x50>
 8008160:	2c00      	cmp	r4, #0
 8008162:	db1f      	blt.n	80081a4 <floor+0xd4>
 8008164:	464c      	mov	r4, r9
 8008166:	ea26 0607 	bic.w	r6, r6, r7
 800816a:	4621      	mov	r1, r4
 800816c:	4630      	mov	r0, r6
 800816e:	e8bd 83f8 	ldmia.w	sp!, {r3, r4, r5, r6, r7, r8, r9, pc}
 8008172:	a318      	add	r3, pc, #96	; (adr r3, 80081d4 <floor+0x104>)
 8008174:	e9d3 2300 	ldrd	r2, r3, [r3]
 8008178:	f000 fa04 	bl	8008584 <__adddf3>
 800817c:	2200      	movs	r2, #0
 800817e:	2300      	movs	r3, #0
 8008180:	f000 fe42 	bl	8008e08 <__aeabi_dcmpgt>
 8008184:	2800      	cmp	r0, #0
 8008186:	d0cb      	beq.n	8008120 <floor+0x50>
 8008188:	2c00      	cmp	r4, #0
 800818a:	db19      	blt.n	80081c0 <floor+0xf0>
 800818c:	2600      	movs	r6, #0
 800818e:	4634      	mov	r4, r6
 8008190:	e7c6      	b.n	8008120 <floor+0x50>
 8008192:	f000 f9f7 	bl	8008584 <__adddf3>
 8008196:	e8bd 83f8 	ldmia.w	sp!, {r3, r4, r5, r6, r7, r8, r9, pc}
 800819a:	f44f 1380 	mov.w	r3, #1048576	; 0x100000
 800819e:	412b      	asrs	r3, r5
 80081a0:	4499      	add	r9, r3
 80081a2:	e7ba      	b.n	800811a <floor+0x4a>
 80081a4:	2d14      	cmp	r5, #20
 80081a6:	d008      	beq.n	80081ba <floor+0xea>
 80081a8:	f5c8 6886 	rsb	r8, r8, #1072	; 0x430
 80081ac:	f108 0803 	add.w	r8, r8, #3
 80081b0:	2301      	movs	r3, #1
 80081b2:	fa03 f308 	lsl.w	r3, r3, r8
 80081b6:	199e      	adds	r6, r3, r6
 80081b8:	d3d4      	bcc.n	8008164 <floor+0x94>
 80081ba:	f109 0901 	add.w	r9, r9, #1
 80081be:	e7d1      	b.n	8008164 <floor+0x94>
 80081c0:	f024 4200 	bic.w	r2, r4, #2147483648	; 0x80000000
 80081c4:	4b02      	ldr	r3, [pc, #8]	; (80081d0 <floor+0x100>)
 80081c6:	433a      	orrs	r2, r7
 80081c8:	bf18      	it	ne
 80081ca:	461c      	movne	r4, r3
 80081cc:	2600      	movs	r6, #0
 80081ce:	e7a7      	b.n	8008120 <floor+0x50>
 80081d0:	bff00000 	.word	0xbff00000
 80081d4:	8800759c 	.word	0x8800759c
 80081d8:	7e37e43c 	.word	0x7e37e43c
 80081dc:	000fffff 	.word	0x000fffff

080081e0 <fmod>:
 80081e0:	e92d 47f0 	stmdb	sp!, {r4, r5, r6, r7, r8, r9, sl, lr}
 80081e4:	f8df a0a8 	ldr.w	sl, [pc, #168]	; 8008290 <fmod+0xb0>
 80081e8:	b08a      	sub	sp, #40	; 0x28
 80081ea:	461f      	mov	r7, r3
 80081ec:	4680      	mov	r8, r0
 80081ee:	4689      	mov	r9, r1
 80081f0:	4616      	mov	r6, r2
 80081f2:	f000 f84f 	bl	8008294 <__ieee754_fmod>
 80081f6:	f99a 3000 	ldrsb.w	r3, [sl]
 80081fa:	3301      	adds	r3, #1
 80081fc:	4604      	mov	r4, r0
 80081fe:	460d      	mov	r5, r1
 8008200:	d004      	beq.n	800820c <fmod+0x2c>
 8008202:	4630      	mov	r0, r6
 8008204:	4639      	mov	r1, r7
 8008206:	f000 f971 	bl	80084ec <__fpclassifyd>
 800820a:	b920      	cbnz	r0, 8008216 <fmod+0x36>
 800820c:	4620      	mov	r0, r4
 800820e:	4629      	mov	r1, r5
 8008210:	b00a      	add	sp, #40	; 0x28
 8008212:	e8bd 87f0 	ldmia.w	sp!, {r4, r5, r6, r7, r8, r9, sl, pc}
 8008216:	4640      	mov	r0, r8
 8008218:	4649      	mov	r1, r9
 800821a:	f000 f967 	bl	80084ec <__fpclassifyd>
 800821e:	2800      	cmp	r0, #0
 8008220:	d0f4      	beq.n	800820c <fmod+0x2c>
 8008222:	4630      	mov	r0, r6
 8008224:	4639      	mov	r1, r7
 8008226:	2200      	movs	r2, #0
 8008228:	2300      	movs	r3, #0
 800822a:	f000 fdc5 	bl	8008db8 <__aeabi_dcmpeq>
 800822e:	2800      	cmp	r0, #0
 8008230:	d0ec      	beq.n	800820c <fmod+0x2c>
 8008232:	4b16      	ldr	r3, [pc, #88]	; (800828c <fmod+0xac>)
 8008234:	f89a 4000 	ldrb.w	r4, [sl]
 8008238:	9301      	str	r3, [sp, #4]
 800823a:	2201      	movs	r2, #1
 800823c:	2300      	movs	r3, #0
 800823e:	e9cd 8902 	strd	r8, r9, [sp, #8]
 8008242:	e9cd 6704 	strd	r6, r7, [sp, #16]
 8008246:	9200      	str	r2, [sp, #0]
 8008248:	9308      	str	r3, [sp, #32]
 800824a:	b194      	cbz	r4, 8008272 <fmod+0x92>
 800824c:	2000      	movs	r0, #0
 800824e:	2100      	movs	r1, #0
 8008250:	4602      	mov	r2, r0
 8008252:	460b      	mov	r3, r1
 8008254:	f000 fc72 	bl	8008b3c <__aeabi_ddiv>
 8008258:	2c02      	cmp	r4, #2
 800825a:	e9cd 0106 	strd	r0, r1, [sp, #24]
 800825e:	d10a      	bne.n	8008276 <fmod+0x96>
 8008260:	f000 fdfc 	bl	8008e5c <__errno>
 8008264:	2321      	movs	r3, #33	; 0x21
 8008266:	6003      	str	r3, [r0, #0]
 8008268:	9b08      	ldr	r3, [sp, #32]
 800826a:	b953      	cbnz	r3, 8008282 <fmod+0xa2>
 800826c:	e9dd 0106 	ldrd	r0, r1, [sp, #24]
 8008270:	e7ce      	b.n	8008210 <fmod+0x30>
 8008272:	e9cd 8906 	strd	r8, r9, [sp, #24]
 8008276:	4668      	mov	r0, sp
 8008278:	f000 f964 	bl	8008544 <matherr>
 800827c:	2800      	cmp	r0, #0
 800827e:	d1f3      	bne.n	8008268 <fmod+0x88>
 8008280:	e7ee      	b.n	8008260 <fmod+0x80>
 8008282:	f000 fdeb 	bl	8008e5c <__errno>
 8008286:	9b08      	ldr	r3, [sp, #32]
 8008288:	6003      	str	r3, [r0, #0]
 800828a:	e7ef      	b.n	800826c <fmod+0x8c>
 800828c:	08009954 	.word	0x08009954
 8008290:	2000062a 	.word	0x2000062a

08008294 <__ieee754_fmod>:
 8008294:	e92d 4ff8 	stmdb	sp!, {r3, r4, r5, r6, r7, r8, r9, sl, fp, lr}
 8008298:	4690      	mov	r8, r2
 800829a:	f023 4200 	bic.w	r2, r3, #2147483648	; 0x80000000
 800829e:	ea52 0408 	orrs.w	r4, r2, r8
 80082a2:	4682      	mov	sl, r0
 80082a4:	468b      	mov	fp, r1
 80082a6:	4699      	mov	r9, r3
 80082a8:	4618      	mov	r0, r3
 80082aa:	4641      	mov	r1, r8
 80082ac:	d01f      	beq.n	80082ee <__ieee754_fmod+0x5a>
 80082ae:	465d      	mov	r5, fp
 80082b0:	f00b 4600 	and.w	r6, fp, #2147483648	; 0x80000000
 80082b4:	4c86      	ldr	r4, [pc, #536]	; (80084d0 <__ieee754_fmod+0x23c>)
 80082b6:	4075      	eors	r5, r6
 80082b8:	42a5      	cmp	r5, r4
 80082ba:	dc18      	bgt.n	80082ee <__ieee754_fmod+0x5a>
 80082bc:	424c      	negs	r4, r1
 80082be:	430c      	orrs	r4, r1
 80082c0:	f8df e220 	ldr.w	lr, [pc, #544]	; 80084e4 <__ieee754_fmod+0x250>
 80082c4:	ea42 74d4 	orr.w	r4, r2, r4, lsr #31
 80082c8:	4574      	cmp	r4, lr
 80082ca:	d810      	bhi.n	80082ee <__ieee754_fmod+0x5a>
 80082cc:	4295      	cmp	r5, r2
 80082ce:	46d4      	mov	ip, sl
 80082d0:	4653      	mov	r3, sl
 80082d2:	4647      	mov	r7, r8
 80082d4:	dc17      	bgt.n	8008306 <__ieee754_fmod+0x72>
 80082d6:	db28      	blt.n	800832a <__ieee754_fmod+0x96>
 80082d8:	45c2      	cmp	sl, r8
 80082da:	d326      	bcc.n	800832a <__ieee754_fmod+0x96>
 80082dc:	d113      	bne.n	8008306 <__ieee754_fmod+0x72>
 80082de:	4b7d      	ldr	r3, [pc, #500]	; (80084d4 <__ieee754_fmod+0x240>)
 80082e0:	0ff6      	lsrs	r6, r6, #31
 80082e2:	eb03 03c6 	add.w	r3, r3, r6, lsl #3
 80082e6:	e9d3 0100 	ldrd	r0, r1, [r3]
 80082ea:	e8bd 8ff8 	ldmia.w	sp!, {r3, r4, r5, r6, r7, r8, r9, sl, fp, pc}
 80082ee:	4642      	mov	r2, r8
 80082f0:	464b      	mov	r3, r9
 80082f2:	4650      	mov	r0, sl
 80082f4:	4659      	mov	r1, fp
 80082f6:	f000 faf7 	bl	80088e8 <__aeabi_dmul>
 80082fa:	4602      	mov	r2, r0
 80082fc:	460b      	mov	r3, r1
 80082fe:	f000 fc1d 	bl	8008b3c <__aeabi_ddiv>
 8008302:	e8bd 8ff8 	ldmia.w	sp!, {r3, r4, r5, r6, r7, r8, r9, sl, fp, pc}
 8008306:	f5b5 1f80 	cmp.w	r5, #1048576	; 0x100000
 800830a:	da12      	bge.n	8008332 <__ieee754_fmod+0x9e>
 800830c:	2d00      	cmp	r5, #0
 800830e:	f040 80a2 	bne.w	8008456 <__ieee754_fmod+0x1c2>
 8008312:	f1bc 0f00 	cmp.w	ip, #0
 8008316:	4664      	mov	r4, ip
 8008318:	f8df 81cc 	ldr.w	r8, [pc, #460]	; 80084e8 <__ieee754_fmod+0x254>
 800831c:	dd0d      	ble.n	800833a <__ieee754_fmod+0xa6>
 800831e:	0064      	lsls	r4, r4, #1
 8008320:	2c00      	cmp	r4, #0
 8008322:	f108 38ff 	add.w	r8, r8, #4294967295
 8008326:	dcfa      	bgt.n	800831e <__ieee754_fmod+0x8a>
 8008328:	e007      	b.n	800833a <__ieee754_fmod+0xa6>
 800832a:	4650      	mov	r0, sl
 800832c:	4659      	mov	r1, fp
 800832e:	e8bd 8ff8 	ldmia.w	sp!, {r3, r4, r5, r6, r7, r8, r9, sl, fp, pc}
 8008332:	ea4f 5825 	mov.w	r8, r5, asr #20
 8008336:	f2a8 38ff 	subw	r8, r8, #1023	; 0x3ff
 800833a:	f5b2 1f80 	cmp.w	r2, #1048576	; 0x100000
 800833e:	da0d      	bge.n	800835c <__ieee754_fmod+0xc8>
 8008340:	2a00      	cmp	r2, #0
 8008342:	f040 80a1 	bne.w	8008488 <__ieee754_fmod+0x1f4>
 8008346:	2900      	cmp	r1, #0
 8008348:	460c      	mov	r4, r1
 800834a:	f8df e19c 	ldr.w	lr, [pc, #412]	; 80084e8 <__ieee754_fmod+0x254>
 800834e:	dd09      	ble.n	8008364 <__ieee754_fmod+0xd0>
 8008350:	0064      	lsls	r4, r4, #1
 8008352:	2c00      	cmp	r4, #0
 8008354:	f10e 3eff 	add.w	lr, lr, #4294967295
 8008358:	dcfa      	bgt.n	8008350 <__ieee754_fmod+0xbc>
 800835a:	e003      	b.n	8008364 <__ieee754_fmod+0xd0>
 800835c:	ea4f 5e22 	mov.w	lr, r2, asr #20
 8008360:	f2ae 3eff 	subw	lr, lr, #1023	; 0x3ff
 8008364:	4c5c      	ldr	r4, [pc, #368]	; (80084d8 <__ieee754_fmod+0x244>)
 8008366:	45a0      	cmp	r8, r4
 8008368:	db58      	blt.n	800841c <__ieee754_fmod+0x188>
 800836a:	f3c5 0413 	ubfx	r4, r5, #0, #20
 800836e:	f444 1480 	orr.w	r4, r4, #1048576	; 0x100000
 8008372:	4d59      	ldr	r5, [pc, #356]	; (80084d8 <__ieee754_fmod+0x244>)
 8008374:	45ae      	cmp	lr, r5
 8008376:	db5f      	blt.n	8008438 <__ieee754_fmod+0x1a4>
 8008378:	f3c0 0113 	ubfx	r1, r0, #0, #20
 800837c:	f441 1180 	orr.w	r1, r1, #1048576	; 0x100000
 8008380:	ebce 0008 	rsb	r0, lr, r8
 8008384:	e007      	b.n	8008396 <__ieee754_fmod+0x102>
 8008386:	ea52 0305 	orrs.w	r3, r2, r5
 800838a:	d012      	beq.n	80083b2 <__ieee754_fmod+0x11e>
 800838c:	0fec      	lsrs	r4, r5, #31
 800838e:	eb04 0442 	add.w	r4, r4, r2, lsl #1
 8008392:	006b      	lsls	r3, r5, #1
 8008394:	3801      	subs	r0, #1
 8008396:	1bdd      	subs	r5, r3, r7
 8008398:	1a62      	subs	r2, r4, r1
 800839a:	b190      	cbz	r0, 80083c2 <__ieee754_fmod+0x12e>
 800839c:	42bb      	cmp	r3, r7
 800839e:	bf38      	it	cc
 80083a0:	f102 32ff 	addcc.w	r2, r2, #4294967295
 80083a4:	2a00      	cmp	r2, #0
 80083a6:	daee      	bge.n	8008386 <__ieee754_fmod+0xf2>
 80083a8:	0fda      	lsrs	r2, r3, #31
 80083aa:	eb02 0444 	add.w	r4, r2, r4, lsl #1
 80083ae:	005b      	lsls	r3, r3, #1
 80083b0:	e7f0      	b.n	8008394 <__ieee754_fmod+0x100>
 80083b2:	4b48      	ldr	r3, [pc, #288]	; (80084d4 <__ieee754_fmod+0x240>)
 80083b4:	0ff6      	lsrs	r6, r6, #31
 80083b6:	eb03 06c6 	add.w	r6, r3, r6, lsl #3
 80083ba:	e9d6 0100 	ldrd	r0, r1, [r6]
 80083be:	e8bd 8ff8 	ldmia.w	sp!, {r3, r4, r5, r6, r7, r8, r9, sl, fp, pc}
 80083c2:	429f      	cmp	r7, r3
 80083c4:	4611      	mov	r1, r2
 80083c6:	bf88      	it	hi
 80083c8:	f102 31ff 	addhi.w	r1, r2, #4294967295
 80083cc:	2900      	cmp	r1, #0
 80083ce:	bfac      	ite	ge
 80083d0:	1bdb      	subge	r3, r3, r7
 80083d2:	4621      	movlt	r1, r4
 80083d4:	ea51 0203 	orrs.w	r2, r1, r3
 80083d8:	d0eb      	beq.n	80083b2 <__ieee754_fmod+0x11e>
 80083da:	4840      	ldr	r0, [pc, #256]	; (80084dc <__ieee754_fmod+0x248>)
 80083dc:	4281      	cmp	r1, r0
 80083de:	dc08      	bgt.n	80083f2 <__ieee754_fmod+0x15e>
 80083e0:	0fda      	lsrs	r2, r3, #31
 80083e2:	eb02 0141 	add.w	r1, r2, r1, lsl #1
 80083e6:	4281      	cmp	r1, r0
 80083e8:	f10e 3eff 	add.w	lr, lr, #4294967295
 80083ec:	ea4f 0343 	mov.w	r3, r3, lsl #1
 80083f0:	ddf6      	ble.n	80083e0 <__ieee754_fmod+0x14c>
 80083f2:	4a39      	ldr	r2, [pc, #228]	; (80084d8 <__ieee754_fmod+0x244>)
 80083f4:	4596      	cmp	lr, r2
 80083f6:	da50      	bge.n	800849a <__ieee754_fmod+0x206>
 80083f8:	4a37      	ldr	r2, [pc, #220]	; (80084d8 <__ieee754_fmod+0x244>)
 80083fa:	ebce 0202 	rsb	r2, lr, r2
 80083fe:	2a14      	cmp	r2, #20
 8008400:	dc55      	bgt.n	80084ae <__ieee754_fmod+0x21a>
 8008402:	f20e 4e1e 	addw	lr, lr, #1054	; 0x41e
 8008406:	40d3      	lsrs	r3, r2
 8008408:	fa01 f00e 	lsl.w	r0, r1, lr
 800840c:	4303      	orrs	r3, r0
 800840e:	fa41 f202 	asr.w	r2, r1, r2
 8008412:	ea42 0106 	orr.w	r1, r2, r6
 8008416:	4618      	mov	r0, r3
 8008418:	e8bd 8ff8 	ldmia.w	sp!, {r3, r4, r5, r6, r7, r8, r9, sl, fp, pc}
 800841c:	4b2e      	ldr	r3, [pc, #184]	; (80084d8 <__ieee754_fmod+0x244>)
 800841e:	ebc8 0303 	rsb	r3, r8, r3
 8008422:	2b1f      	cmp	r3, #31
 8008424:	dc29      	bgt.n	800847a <__ieee754_fmod+0x1e6>
 8008426:	f208 441e 	addw	r4, r8, #1054	; 0x41e
 800842a:	409d      	lsls	r5, r3
 800842c:	fa2c f404 	lsr.w	r4, ip, r4
 8008430:	fa0c f303 	lsl.w	r3, ip, r3
 8008434:	432c      	orrs	r4, r5
 8008436:	e79c      	b.n	8008372 <__ieee754_fmod+0xde>
 8008438:	4827      	ldr	r0, [pc, #156]	; (80084d8 <__ieee754_fmod+0x244>)
 800843a:	ebce 0000 	rsb	r0, lr, r0
 800843e:	281f      	cmp	r0, #31
 8008440:	dc15      	bgt.n	800846e <__ieee754_fmod+0x1da>
 8008442:	f20e 451e 	addw	r5, lr, #1054	; 0x41e
 8008446:	4082      	lsls	r2, r0
 8008448:	fa21 f505 	lsr.w	r5, r1, r5
 800844c:	fa01 f700 	lsl.w	r7, r1, r0
 8008450:	ea42 0105 	orr.w	r1, r2, r5
 8008454:	e794      	b.n	8008380 <__ieee754_fmod+0xec>
 8008456:	02ec      	lsls	r4, r5, #11
 8008458:	2c00      	cmp	r4, #0
 800845a:	f8df 807c 	ldr.w	r8, [pc, #124]	; 80084d8 <__ieee754_fmod+0x244>
 800845e:	f77f af6c 	ble.w	800833a <__ieee754_fmod+0xa6>
 8008462:	0064      	lsls	r4, r4, #1
 8008464:	2c00      	cmp	r4, #0
 8008466:	f108 38ff 	add.w	r8, r8, #4294967295
 800846a:	dcfa      	bgt.n	8008462 <__ieee754_fmod+0x1ce>
 800846c:	e765      	b.n	800833a <__ieee754_fmod+0xa6>
 800846e:	4a1c      	ldr	r2, [pc, #112]	; (80084e0 <__ieee754_fmod+0x24c>)
 8008470:	ebce 0202 	rsb	r2, lr, r2
 8008474:	4091      	lsls	r1, r2
 8008476:	2700      	movs	r7, #0
 8008478:	e782      	b.n	8008380 <__ieee754_fmod+0xec>
 800847a:	4b19      	ldr	r3, [pc, #100]	; (80084e0 <__ieee754_fmod+0x24c>)
 800847c:	ebc8 0303 	rsb	r3, r8, r3
 8008480:	fa0c f403 	lsl.w	r4, ip, r3
 8008484:	2300      	movs	r3, #0
 8008486:	e774      	b.n	8008372 <__ieee754_fmod+0xde>
 8008488:	f8df e04c 	ldr.w	lr, [pc, #76]	; 80084d8 <__ieee754_fmod+0x244>
 800848c:	02d4      	lsls	r4, r2, #11
 800848e:	0064      	lsls	r4, r4, #1
 8008490:	2c00      	cmp	r4, #0
 8008492:	f10e 3eff 	add.w	lr, lr, #4294967295
 8008496:	dcfa      	bgt.n	800848e <__ieee754_fmod+0x1fa>
 8008498:	e764      	b.n	8008364 <__ieee754_fmod+0xd0>
 800849a:	f5a1 1180 	sub.w	r1, r1, #1048576	; 0x100000
 800849e:	430e      	orrs	r6, r1
 80084a0:	f20e 3eff 	addw	lr, lr, #1023	; 0x3ff
 80084a4:	ea46 510e 	orr.w	r1, r6, lr, lsl #20
 80084a8:	4618      	mov	r0, r3
 80084aa:	e8bd 8ff8 	ldmia.w	sp!, {r3, r4, r5, r6, r7, r8, r9, sl, fp, pc}
 80084ae:	2a1f      	cmp	r2, #31
 80084b0:	dc07      	bgt.n	80084c2 <__ieee754_fmod+0x22e>
 80084b2:	f20e 4e1e 	addw	lr, lr, #1054	; 0x41e
 80084b6:	40d3      	lsrs	r3, r2
 80084b8:	fa01 f10e 	lsl.w	r1, r1, lr
 80084bc:	430b      	orrs	r3, r1
 80084be:	4632      	mov	r2, r6
 80084c0:	e7a7      	b.n	8008412 <__ieee754_fmod+0x17e>
 80084c2:	4b07      	ldr	r3, [pc, #28]	; (80084e0 <__ieee754_fmod+0x24c>)
 80084c4:	ebce 0303 	rsb	r3, lr, r3
 80084c8:	fa41 f303 	asr.w	r3, r1, r3
 80084cc:	4632      	mov	r2, r6
 80084ce:	e7a0      	b.n	8008412 <__ieee754_fmod+0x17e>
 80084d0:	7fefffff 	.word	0x7fefffff
 80084d4:	08009960 	.word	0x08009960
 80084d8:	fffffc02 	.word	0xfffffc02
 80084dc:	000fffff 	.word	0x000fffff
 80084e0:	fffffbe2 	.word	0xfffffbe2
 80084e4:	7ff00000 	.word	0x7ff00000
 80084e8:	fffffbed 	.word	0xfffffbed

080084ec <__fpclassifyd>:
 80084ec:	b410      	push	{r4}
 80084ee:	f031 4400 	bics.w	r4, r1, #2147483648	; 0x80000000
 80084f2:	460b      	mov	r3, r1
 80084f4:	d008      	beq.n	8008508 <__fpclassifyd+0x1c>
 80084f6:	4a11      	ldr	r2, [pc, #68]	; (800853c <__fpclassifyd+0x50>)
 80084f8:	f5a1 1180 	sub.w	r1, r1, #1048576	; 0x100000
 80084fc:	4291      	cmp	r1, r2
 80084fe:	d808      	bhi.n	8008512 <__fpclassifyd+0x26>
 8008500:	2004      	movs	r0, #4
 8008502:	f85d 4b04 	ldr.w	r4, [sp], #4
 8008506:	4770      	bx	lr
 8008508:	b918      	cbnz	r0, 8008512 <__fpclassifyd+0x26>
 800850a:	2002      	movs	r0, #2
 800850c:	f85d 4b04 	ldr.w	r4, [sp], #4
 8008510:	4770      	bx	lr
 8008512:	f103 43ff 	add.w	r3, r3, #2139095040	; 0x7f800000
 8008516:	4a09      	ldr	r2, [pc, #36]	; (800853c <__fpclassifyd+0x50>)
 8008518:	f503 03e0 	add.w	r3, r3, #7340032	; 0x700000
 800851c:	4293      	cmp	r3, r2
 800851e:	d9ef      	bls.n	8008500 <__fpclassifyd+0x14>
 8008520:	f5b4 1f80 	cmp.w	r4, #1048576	; 0x100000
 8008524:	d201      	bcs.n	800852a <__fpclassifyd+0x3e>
 8008526:	2003      	movs	r0, #3
 8008528:	e7eb      	b.n	8008502 <__fpclassifyd+0x16>
 800852a:	4b05      	ldr	r3, [pc, #20]	; (8008540 <__fpclassifyd+0x54>)
 800852c:	429c      	cmp	r4, r3
 800852e:	d001      	beq.n	8008534 <__fpclassifyd+0x48>
 8008530:	2000      	movs	r0, #0
 8008532:	e7e6      	b.n	8008502 <__fpclassifyd+0x16>
 8008534:	fab0 f080 	clz	r0, r0
 8008538:	0940      	lsrs	r0, r0, #5
 800853a:	e7e2      	b.n	8008502 <__fpclassifyd+0x16>
 800853c:	7fdfffff 	.word	0x7fdfffff
 8008540:	7ff00000 	.word	0x7ff00000

08008544 <matherr>:
 8008544:	2000      	movs	r0, #0
 8008546:	4770      	bx	lr

08008548 <__aeabi_llsr>:
 8008548:	40d0      	lsrs	r0, r2
 800854a:	1c0b      	adds	r3, r1, #0
 800854c:	40d1      	lsrs	r1, r2
 800854e:	469c      	mov	ip, r3
 8008550:	3a20      	subs	r2, #32
 8008552:	40d3      	lsrs	r3, r2
 8008554:	4318      	orrs	r0, r3
 8008556:	4252      	negs	r2, r2
 8008558:	4663      	mov	r3, ip
 800855a:	4093      	lsls	r3, r2
 800855c:	4318      	orrs	r0, r3
 800855e:	4770      	bx	lr

08008560 <__aeabi_llsl>:
 8008560:	4091      	lsls	r1, r2
 8008562:	1c03      	adds	r3, r0, #0
 8008564:	4090      	lsls	r0, r2
 8008566:	469c      	mov	ip, r3
 8008568:	3a20      	subs	r2, #32
 800856a:	4093      	lsls	r3, r2
 800856c:	4319      	orrs	r1, r3
 800856e:	4252      	negs	r2, r2
 8008570:	4663      	mov	r3, ip
 8008572:	40d3      	lsrs	r3, r2
 8008574:	4319      	orrs	r1, r3
 8008576:	4770      	bx	lr

08008578 <__aeabi_drsub>:
 8008578:	f081 4100 	eor.w	r1, r1, #2147483648	; 0x80000000
 800857c:	e002      	b.n	8008584 <__adddf3>
 800857e:	bf00      	nop

08008580 <__aeabi_dsub>:
 8008580:	f083 4300 	eor.w	r3, r3, #2147483648	; 0x80000000

08008584 <__adddf3>:
 8008584:	b530      	push	{r4, r5, lr}
 8008586:	ea4f 0441 	mov.w	r4, r1, lsl #1
 800858a:	ea4f 0543 	mov.w	r5, r3, lsl #1
 800858e:	ea94 0f05 	teq	r4, r5
 8008592:	bf08      	it	eq
 8008594:	ea90 0f02 	teqeq	r0, r2
 8008598:	bf1f      	itttt	ne
 800859a:	ea54 0c00 	orrsne.w	ip, r4, r0
 800859e:	ea55 0c02 	orrsne.w	ip, r5, r2
 80085a2:	ea7f 5c64 	mvnsne.w	ip, r4, asr #21
 80085a6:	ea7f 5c65 	mvnsne.w	ip, r5, asr #21
 80085aa:	f000 80e2 	beq.w	8008772 <__adddf3+0x1ee>
 80085ae:	ea4f 5454 	mov.w	r4, r4, lsr #21
 80085b2:	ebd4 5555 	rsbs	r5, r4, r5, lsr #21
 80085b6:	bfb8      	it	lt
 80085b8:	426d      	neglt	r5, r5
 80085ba:	dd0c      	ble.n	80085d6 <__adddf3+0x52>
 80085bc:	442c      	add	r4, r5
 80085be:	ea80 0202 	eor.w	r2, r0, r2
 80085c2:	ea81 0303 	eor.w	r3, r1, r3
 80085c6:	ea82 0000 	eor.w	r0, r2, r0
 80085ca:	ea83 0101 	eor.w	r1, r3, r1
 80085ce:	ea80 0202 	eor.w	r2, r0, r2
 80085d2:	ea81 0303 	eor.w	r3, r1, r3
 80085d6:	2d36      	cmp	r5, #54	; 0x36
 80085d8:	bf88      	it	hi
 80085da:	bd30      	pophi	{r4, r5, pc}
 80085dc:	f011 4f00 	tst.w	r1, #2147483648	; 0x80000000
 80085e0:	ea4f 3101 	mov.w	r1, r1, lsl #12
 80085e4:	f44f 1c80 	mov.w	ip, #1048576	; 0x100000
 80085e8:	ea4c 3111 	orr.w	r1, ip, r1, lsr #12
 80085ec:	d002      	beq.n	80085f4 <__adddf3+0x70>
 80085ee:	4240      	negs	r0, r0
 80085f0:	eb61 0141 	sbc.w	r1, r1, r1, lsl #1
 80085f4:	f013 4f00 	tst.w	r3, #2147483648	; 0x80000000
 80085f8:	ea4f 3303 	mov.w	r3, r3, lsl #12
 80085fc:	ea4c 3313 	orr.w	r3, ip, r3, lsr #12
 8008600:	d002      	beq.n	8008608 <__adddf3+0x84>
 8008602:	4252      	negs	r2, r2
 8008604:	eb63 0343 	sbc.w	r3, r3, r3, lsl #1
 8008608:	ea94 0f05 	teq	r4, r5
 800860c:	f000 80a7 	beq.w	800875e <__adddf3+0x1da>
 8008610:	f1a4 0401 	sub.w	r4, r4, #1
 8008614:	f1d5 0e20 	rsbs	lr, r5, #32
 8008618:	db0d      	blt.n	8008636 <__adddf3+0xb2>
 800861a:	fa02 fc0e 	lsl.w	ip, r2, lr
 800861e:	fa22 f205 	lsr.w	r2, r2, r5
 8008622:	1880      	adds	r0, r0, r2
 8008624:	f141 0100 	adc.w	r1, r1, #0
 8008628:	fa03 f20e 	lsl.w	r2, r3, lr
 800862c:	1880      	adds	r0, r0, r2
 800862e:	fa43 f305 	asr.w	r3, r3, r5
 8008632:	4159      	adcs	r1, r3
 8008634:	e00e      	b.n	8008654 <__adddf3+0xd0>
 8008636:	f1a5 0520 	sub.w	r5, r5, #32
 800863a:	f10e 0e20 	add.w	lr, lr, #32
 800863e:	2a01      	cmp	r2, #1
 8008640:	fa03 fc0e 	lsl.w	ip, r3, lr
 8008644:	bf28      	it	cs
 8008646:	f04c 0c02 	orrcs.w	ip, ip, #2
 800864a:	fa43 f305 	asr.w	r3, r3, r5
 800864e:	18c0      	adds	r0, r0, r3
 8008650:	eb51 71e3 	adcs.w	r1, r1, r3, asr #31
 8008654:	f001 4500 	and.w	r5, r1, #2147483648	; 0x80000000
 8008658:	d507      	bpl.n	800866a <__adddf3+0xe6>
 800865a:	f04f 0e00 	mov.w	lr, #0
 800865e:	f1dc 0c00 	rsbs	ip, ip, #0
 8008662:	eb7e 0000 	sbcs.w	r0, lr, r0
 8008666:	eb6e 0101 	sbc.w	r1, lr, r1
 800866a:	f5b1 1f80 	cmp.w	r1, #1048576	; 0x100000
 800866e:	d31b      	bcc.n	80086a8 <__adddf3+0x124>
 8008670:	f5b1 1f00 	cmp.w	r1, #2097152	; 0x200000
 8008674:	d30c      	bcc.n	8008690 <__adddf3+0x10c>
 8008676:	0849      	lsrs	r1, r1, #1
 8008678:	ea5f 0030 	movs.w	r0, r0, rrx
 800867c:	ea4f 0c3c 	mov.w	ip, ip, rrx
 8008680:	f104 0401 	add.w	r4, r4, #1
 8008684:	ea4f 5244 	mov.w	r2, r4, lsl #21
 8008688:	f512 0f80 	cmn.w	r2, #4194304	; 0x400000
 800868c:	f080 809a 	bcs.w	80087c4 <__adddf3+0x240>
 8008690:	f1bc 4f00 	cmp.w	ip, #2147483648	; 0x80000000
 8008694:	bf08      	it	eq
 8008696:	ea5f 0c50 	movseq.w	ip, r0, lsr #1
 800869a:	f150 0000 	adcs.w	r0, r0, #0
 800869e:	eb41 5104 	adc.w	r1, r1, r4, lsl #20
 80086a2:	ea41 0105 	orr.w	r1, r1, r5
 80086a6:	bd30      	pop	{r4, r5, pc}
 80086a8:	ea5f 0c4c 	movs.w	ip, ip, lsl #1
 80086ac:	4140      	adcs	r0, r0
 80086ae:	eb41 0101 	adc.w	r1, r1, r1
 80086b2:	f411 1f80 	tst.w	r1, #1048576	; 0x100000
 80086b6:	f1a4 0401 	sub.w	r4, r4, #1
 80086ba:	d1e9      	bne.n	8008690 <__adddf3+0x10c>
 80086bc:	f091 0f00 	teq	r1, #0
 80086c0:	bf04      	itt	eq
 80086c2:	4601      	moveq	r1, r0
 80086c4:	2000      	moveq	r0, #0
 80086c6:	fab1 f381 	clz	r3, r1
 80086ca:	bf08      	it	eq
 80086cc:	3320      	addeq	r3, #32
 80086ce:	f1a3 030b 	sub.w	r3, r3, #11
 80086d2:	f1b3 0220 	subs.w	r2, r3, #32
 80086d6:	da0c      	bge.n	80086f2 <__adddf3+0x16e>
 80086d8:	320c      	adds	r2, #12
 80086da:	dd08      	ble.n	80086ee <__adddf3+0x16a>
 80086dc:	f102 0c14 	add.w	ip, r2, #20
 80086e0:	f1c2 020c 	rsb	r2, r2, #12
 80086e4:	fa01 f00c 	lsl.w	r0, r1, ip
 80086e8:	fa21 f102 	lsr.w	r1, r1, r2
 80086ec:	e00c      	b.n	8008708 <__adddf3+0x184>
 80086ee:	f102 0214 	add.w	r2, r2, #20
 80086f2:	bfd8      	it	le
 80086f4:	f1c2 0c20 	rsble	ip, r2, #32
 80086f8:	fa01 f102 	lsl.w	r1, r1, r2
 80086fc:	fa20 fc0c 	lsr.w	ip, r0, ip
 8008700:	bfdc      	itt	le
 8008702:	ea41 010c 	orrle.w	r1, r1, ip
 8008706:	4090      	lslle	r0, r2
 8008708:	1ae4      	subs	r4, r4, r3
 800870a:	bfa2      	ittt	ge
 800870c:	eb01 5104 	addge.w	r1, r1, r4, lsl #20
 8008710:	4329      	orrge	r1, r5
 8008712:	bd30      	popge	{r4, r5, pc}
 8008714:	ea6f 0404 	mvn.w	r4, r4
 8008718:	3c1f      	subs	r4, #31
 800871a:	da1c      	bge.n	8008756 <__adddf3+0x1d2>
 800871c:	340c      	adds	r4, #12
 800871e:	dc0e      	bgt.n	800873e <__adddf3+0x1ba>
 8008720:	f104 0414 	add.w	r4, r4, #20
 8008724:	f1c4 0220 	rsb	r2, r4, #32
 8008728:	fa20 f004 	lsr.w	r0, r0, r4
 800872c:	fa01 f302 	lsl.w	r3, r1, r2
 8008730:	ea40 0003 	orr.w	r0, r0, r3
 8008734:	fa21 f304 	lsr.w	r3, r1, r4
 8008738:	ea45 0103 	orr.w	r1, r5, r3
 800873c:	bd30      	pop	{r4, r5, pc}
 800873e:	f1c4 040c 	rsb	r4, r4, #12
 8008742:	f1c4 0220 	rsb	r2, r4, #32
 8008746:	fa20 f002 	lsr.w	r0, r0, r2
 800874a:	fa01 f304 	lsl.w	r3, r1, r4
 800874e:	ea40 0003 	orr.w	r0, r0, r3
 8008752:	4629      	mov	r1, r5
 8008754:	bd30      	pop	{r4, r5, pc}
 8008756:	fa21 f004 	lsr.w	r0, r1, r4
 800875a:	4629      	mov	r1, r5
 800875c:	bd30      	pop	{r4, r5, pc}
 800875e:	f094 0f00 	teq	r4, #0
 8008762:	f483 1380 	eor.w	r3, r3, #1048576	; 0x100000
 8008766:	bf06      	itte	eq
 8008768:	f481 1180 	eoreq.w	r1, r1, #1048576	; 0x100000
 800876c:	3401      	addeq	r4, #1
 800876e:	3d01      	subne	r5, #1
 8008770:	e74e      	b.n	8008610 <__adddf3+0x8c>
 8008772:	ea7f 5c64 	mvns.w	ip, r4, asr #21
 8008776:	bf18      	it	ne
 8008778:	ea7f 5c65 	mvnsne.w	ip, r5, asr #21
 800877c:	d029      	beq.n	80087d2 <__adddf3+0x24e>
 800877e:	ea94 0f05 	teq	r4, r5
 8008782:	bf08      	it	eq
 8008784:	ea90 0f02 	teqeq	r0, r2
 8008788:	d005      	beq.n	8008796 <__adddf3+0x212>
 800878a:	ea54 0c00 	orrs.w	ip, r4, r0
 800878e:	bf04      	itt	eq
 8008790:	4619      	moveq	r1, r3
 8008792:	4610      	moveq	r0, r2
 8008794:	bd30      	pop	{r4, r5, pc}
 8008796:	ea91 0f03 	teq	r1, r3
 800879a:	bf1e      	ittt	ne
 800879c:	2100      	movne	r1, #0
 800879e:	2000      	movne	r0, #0
 80087a0:	bd30      	popne	{r4, r5, pc}
 80087a2:	ea5f 5c54 	movs.w	ip, r4, lsr #21
 80087a6:	d105      	bne.n	80087b4 <__adddf3+0x230>
 80087a8:	0040      	lsls	r0, r0, #1
 80087aa:	4149      	adcs	r1, r1
 80087ac:	bf28      	it	cs
 80087ae:	f041 4100 	orrcs.w	r1, r1, #2147483648	; 0x80000000
 80087b2:	bd30      	pop	{r4, r5, pc}
 80087b4:	f514 0480 	adds.w	r4, r4, #4194304	; 0x400000
 80087b8:	bf3c      	itt	cc
 80087ba:	f501 1180 	addcc.w	r1, r1, #1048576	; 0x100000
 80087be:	bd30      	popcc	{r4, r5, pc}
 80087c0:	f001 4500 	and.w	r5, r1, #2147483648	; 0x80000000
 80087c4:	f045 41fe 	orr.w	r1, r5, #2130706432	; 0x7f000000
 80087c8:	f441 0170 	orr.w	r1, r1, #15728640	; 0xf00000
 80087cc:	f04f 0000 	mov.w	r0, #0
 80087d0:	bd30      	pop	{r4, r5, pc}
 80087d2:	ea7f 5c64 	mvns.w	ip, r4, asr #21
 80087d6:	bf1a      	itte	ne
 80087d8:	4619      	movne	r1, r3
 80087da:	4610      	movne	r0, r2
 80087dc:	ea7f 5c65 	mvnseq.w	ip, r5, asr #21
 80087e0:	bf1c      	itt	ne
 80087e2:	460b      	movne	r3, r1
 80087e4:	4602      	movne	r2, r0
 80087e6:	ea50 3401 	orrs.w	r4, r0, r1, lsl #12
 80087ea:	bf06      	itte	eq
 80087ec:	ea52 3503 	orrseq.w	r5, r2, r3, lsl #12
 80087f0:	ea91 0f03 	teqeq	r1, r3
 80087f4:	f441 2100 	orrne.w	r1, r1, #524288	; 0x80000
 80087f8:	bd30      	pop	{r4, r5, pc}
 80087fa:	bf00      	nop

080087fc <__aeabi_ui2d>:
 80087fc:	f090 0f00 	teq	r0, #0
 8008800:	bf04      	itt	eq
 8008802:	2100      	moveq	r1, #0
 8008804:	4770      	bxeq	lr
 8008806:	b530      	push	{r4, r5, lr}
 8008808:	f44f 6480 	mov.w	r4, #1024	; 0x400
 800880c:	f104 0432 	add.w	r4, r4, #50	; 0x32
 8008810:	f04f 0500 	mov.w	r5, #0
 8008814:	f04f 0100 	mov.w	r1, #0
 8008818:	e750      	b.n	80086bc <__adddf3+0x138>
 800881a:	bf00      	nop

0800881c <__aeabi_i2d>:
 800881c:	f090 0f00 	teq	r0, #0
 8008820:	bf04      	itt	eq
 8008822:	2100      	moveq	r1, #0
 8008824:	4770      	bxeq	lr
 8008826:	b530      	push	{r4, r5, lr}
 8008828:	f44f 6480 	mov.w	r4, #1024	; 0x400
 800882c:	f104 0432 	add.w	r4, r4, #50	; 0x32
 8008830:	f010 4500 	ands.w	r5, r0, #2147483648	; 0x80000000
 8008834:	bf48      	it	mi
 8008836:	4240      	negmi	r0, r0
 8008838:	f04f 0100 	mov.w	r1, #0
 800883c:	e73e      	b.n	80086bc <__adddf3+0x138>
 800883e:	bf00      	nop

08008840 <__aeabi_f2d>:
 8008840:	0042      	lsls	r2, r0, #1
 8008842:	ea4f 01e2 	mov.w	r1, r2, asr #3
 8008846:	ea4f 0131 	mov.w	r1, r1, rrx
 800884a:	ea4f 7002 	mov.w	r0, r2, lsl #28
 800884e:	bf1f      	itttt	ne
 8008850:	f012 437f 	andsne.w	r3, r2, #4278190080	; 0xff000000
 8008854:	f093 4f7f 	teqne	r3, #4278190080	; 0xff000000
 8008858:	f081 5160 	eorne.w	r1, r1, #939524096	; 0x38000000
 800885c:	4770      	bxne	lr
 800885e:	f092 0f00 	teq	r2, #0
 8008862:	bf14      	ite	ne
 8008864:	f093 4f7f 	teqne	r3, #4278190080	; 0xff000000
 8008868:	4770      	bxeq	lr
 800886a:	b530      	push	{r4, r5, lr}
 800886c:	f44f 7460 	mov.w	r4, #896	; 0x380
 8008870:	f001 4500 	and.w	r5, r1, #2147483648	; 0x80000000
 8008874:	f021 4100 	bic.w	r1, r1, #2147483648	; 0x80000000
 8008878:	e720      	b.n	80086bc <__adddf3+0x138>
 800887a:	bf00      	nop

0800887c <__aeabi_ul2d>:
 800887c:	ea50 0201 	orrs.w	r2, r0, r1
 8008880:	bf08      	it	eq
 8008882:	4770      	bxeq	lr
 8008884:	b530      	push	{r4, r5, lr}
 8008886:	f04f 0500 	mov.w	r5, #0
 800888a:	e00a      	b.n	80088a2 <__aeabi_l2d+0x16>

0800888c <__aeabi_l2d>:
 800888c:	ea50 0201 	orrs.w	r2, r0, r1
 8008890:	bf08      	it	eq
 8008892:	4770      	bxeq	lr
 8008894:	b530      	push	{r4, r5, lr}
 8008896:	f011 4500 	ands.w	r5, r1, #2147483648	; 0x80000000
 800889a:	d502      	bpl.n	80088a2 <__aeabi_l2d+0x16>
 800889c:	4240      	negs	r0, r0
 800889e:	eb61 0141 	sbc.w	r1, r1, r1, lsl #1
 80088a2:	f44f 6480 	mov.w	r4, #1024	; 0x400
 80088a6:	f104 0432 	add.w	r4, r4, #50	; 0x32
 80088aa:	ea5f 5c91 	movs.w	ip, r1, lsr #22
 80088ae:	f43f aedc 	beq.w	800866a <__adddf3+0xe6>
 80088b2:	f04f 0203 	mov.w	r2, #3
 80088b6:	ea5f 0cdc 	movs.w	ip, ip, lsr #3
 80088ba:	bf18      	it	ne
 80088bc:	3203      	addne	r2, #3
 80088be:	ea5f 0cdc 	movs.w	ip, ip, lsr #3
 80088c2:	bf18      	it	ne
 80088c4:	3203      	addne	r2, #3
 80088c6:	eb02 02dc 	add.w	r2, r2, ip, lsr #3
 80088ca:	f1c2 0320 	rsb	r3, r2, #32
 80088ce:	fa00 fc03 	lsl.w	ip, r0, r3
 80088d2:	fa20 f002 	lsr.w	r0, r0, r2
 80088d6:	fa01 fe03 	lsl.w	lr, r1, r3
 80088da:	ea40 000e 	orr.w	r0, r0, lr
 80088de:	fa21 f102 	lsr.w	r1, r1, r2
 80088e2:	4414      	add	r4, r2
 80088e4:	e6c1      	b.n	800866a <__adddf3+0xe6>
 80088e6:	bf00      	nop

080088e8 <__aeabi_dmul>:
 80088e8:	b570      	push	{r4, r5, r6, lr}
 80088ea:	f04f 0cff 	mov.w	ip, #255	; 0xff
 80088ee:	f44c 6ce0 	orr.w	ip, ip, #1792	; 0x700
 80088f2:	ea1c 5411 	ands.w	r4, ip, r1, lsr #20
 80088f6:	bf1d      	ittte	ne
 80088f8:	ea1c 5513 	andsne.w	r5, ip, r3, lsr #20
 80088fc:	ea94 0f0c 	teqne	r4, ip
 8008900:	ea95 0f0c 	teqne	r5, ip
 8008904:	f000 f8de 	bleq	8008ac4 <__aeabi_dmul+0x1dc>
 8008908:	442c      	add	r4, r5
 800890a:	ea81 0603 	eor.w	r6, r1, r3
 800890e:	ea21 514c 	bic.w	r1, r1, ip, lsl #21
 8008912:	ea23 534c 	bic.w	r3, r3, ip, lsl #21
 8008916:	ea50 3501 	orrs.w	r5, r0, r1, lsl #12
 800891a:	bf18      	it	ne
 800891c:	ea52 3503 	orrsne.w	r5, r2, r3, lsl #12
 8008920:	f441 1180 	orr.w	r1, r1, #1048576	; 0x100000
 8008924:	f443 1380 	orr.w	r3, r3, #1048576	; 0x100000
 8008928:	d038      	beq.n	800899c <__aeabi_dmul+0xb4>
 800892a:	fba0 ce02 	umull	ip, lr, r0, r2
 800892e:	f04f 0500 	mov.w	r5, #0
 8008932:	fbe1 e502 	umlal	lr, r5, r1, r2
 8008936:	f006 4200 	and.w	r2, r6, #2147483648	; 0x80000000
 800893a:	fbe0 e503 	umlal	lr, r5, r0, r3
 800893e:	f04f 0600 	mov.w	r6, #0
 8008942:	fbe1 5603 	umlal	r5, r6, r1, r3
 8008946:	f09c 0f00 	teq	ip, #0
 800894a:	bf18      	it	ne
 800894c:	f04e 0e01 	orrne.w	lr, lr, #1
 8008950:	f1a4 04ff 	sub.w	r4, r4, #255	; 0xff
 8008954:	f5b6 7f00 	cmp.w	r6, #512	; 0x200
 8008958:	f564 7440 	sbc.w	r4, r4, #768	; 0x300
 800895c:	d204      	bcs.n	8008968 <__aeabi_dmul+0x80>
 800895e:	ea5f 0e4e 	movs.w	lr, lr, lsl #1
 8008962:	416d      	adcs	r5, r5
 8008964:	eb46 0606 	adc.w	r6, r6, r6
 8008968:	ea42 21c6 	orr.w	r1, r2, r6, lsl #11
 800896c:	ea41 5155 	orr.w	r1, r1, r5, lsr #21
 8008970:	ea4f 20c5 	mov.w	r0, r5, lsl #11
 8008974:	ea40 505e 	orr.w	r0, r0, lr, lsr #21
 8008978:	ea4f 2ece 	mov.w	lr, lr, lsl #11
 800897c:	f1b4 0cfd 	subs.w	ip, r4, #253	; 0xfd
 8008980:	bf88      	it	hi
 8008982:	f5bc 6fe0 	cmphi.w	ip, #1792	; 0x700
 8008986:	d81e      	bhi.n	80089c6 <__aeabi_dmul+0xde>
 8008988:	f1be 4f00 	cmp.w	lr, #2147483648	; 0x80000000
 800898c:	bf08      	it	eq
 800898e:	ea5f 0e50 	movseq.w	lr, r0, lsr #1
 8008992:	f150 0000 	adcs.w	r0, r0, #0
 8008996:	eb41 5104 	adc.w	r1, r1, r4, lsl #20
 800899a:	bd70      	pop	{r4, r5, r6, pc}
 800899c:	f006 4600 	and.w	r6, r6, #2147483648	; 0x80000000
 80089a0:	ea46 0101 	orr.w	r1, r6, r1
 80089a4:	ea40 0002 	orr.w	r0, r0, r2
 80089a8:	ea81 0103 	eor.w	r1, r1, r3
 80089ac:	ebb4 045c 	subs.w	r4, r4, ip, lsr #1
 80089b0:	bfc2      	ittt	gt
 80089b2:	ebd4 050c 	rsbsgt	r5, r4, ip
 80089b6:	ea41 5104 	orrgt.w	r1, r1, r4, lsl #20
 80089ba:	bd70      	popgt	{r4, r5, r6, pc}
 80089bc:	f441 1180 	orr.w	r1, r1, #1048576	; 0x100000
 80089c0:	f04f 0e00 	mov.w	lr, #0
 80089c4:	3c01      	subs	r4, #1
 80089c6:	f300 80ab 	bgt.w	8008b20 <__aeabi_dmul+0x238>
 80089ca:	f114 0f36 	cmn.w	r4, #54	; 0x36
 80089ce:	bfde      	ittt	le
 80089d0:	2000      	movle	r0, #0
 80089d2:	f001 4100 	andle.w	r1, r1, #2147483648	; 0x80000000
 80089d6:	bd70      	pople	{r4, r5, r6, pc}
 80089d8:	f1c4 0400 	rsb	r4, r4, #0
 80089dc:	3c20      	subs	r4, #32
 80089de:	da35      	bge.n	8008a4c <__aeabi_dmul+0x164>
 80089e0:	340c      	adds	r4, #12
 80089e2:	dc1b      	bgt.n	8008a1c <__aeabi_dmul+0x134>
 80089e4:	f104 0414 	add.w	r4, r4, #20
 80089e8:	f1c4 0520 	rsb	r5, r4, #32
 80089ec:	fa00 f305 	lsl.w	r3, r0, r5
 80089f0:	fa20 f004 	lsr.w	r0, r0, r4
 80089f4:	fa01 f205 	lsl.w	r2, r1, r5
 80089f8:	ea40 0002 	orr.w	r0, r0, r2
 80089fc:	f001 4200 	and.w	r2, r1, #2147483648	; 0x80000000
 8008a00:	f021 4100 	bic.w	r1, r1, #2147483648	; 0x80000000
 8008a04:	eb10 70d3 	adds.w	r0, r0, r3, lsr #31
 8008a08:	fa21 f604 	lsr.w	r6, r1, r4
 8008a0c:	eb42 0106 	adc.w	r1, r2, r6
 8008a10:	ea5e 0e43 	orrs.w	lr, lr, r3, lsl #1
 8008a14:	bf08      	it	eq
 8008a16:	ea20 70d3 	biceq.w	r0, r0, r3, lsr #31
 8008a1a:	bd70      	pop	{r4, r5, r6, pc}
 8008a1c:	f1c4 040c 	rsb	r4, r4, #12
 8008a20:	f1c4 0520 	rsb	r5, r4, #32
 8008a24:	fa00 f304 	lsl.w	r3, r0, r4
 8008a28:	fa20 f005 	lsr.w	r0, r0, r5
 8008a2c:	fa01 f204 	lsl.w	r2, r1, r4
 8008a30:	ea40 0002 	orr.w	r0, r0, r2
 8008a34:	f001 4100 	and.w	r1, r1, #2147483648	; 0x80000000
 8008a38:	eb10 70d3 	adds.w	r0, r0, r3, lsr #31
 8008a3c:	f141 0100 	adc.w	r1, r1, #0
 8008a40:	ea5e 0e43 	orrs.w	lr, lr, r3, lsl #1
 8008a44:	bf08      	it	eq
 8008a46:	ea20 70d3 	biceq.w	r0, r0, r3, lsr #31
 8008a4a:	bd70      	pop	{r4, r5, r6, pc}
 8008a4c:	f1c4 0520 	rsb	r5, r4, #32
 8008a50:	fa00 f205 	lsl.w	r2, r0, r5
 8008a54:	ea4e 0e02 	orr.w	lr, lr, r2
 8008a58:	fa20 f304 	lsr.w	r3, r0, r4
 8008a5c:	fa01 f205 	lsl.w	r2, r1, r5
 8008a60:	ea43 0302 	orr.w	r3, r3, r2
 8008a64:	fa21 f004 	lsr.w	r0, r1, r4
 8008a68:	f001 4100 	and.w	r1, r1, #2147483648	; 0x80000000
 8008a6c:	fa21 f204 	lsr.w	r2, r1, r4
 8008a70:	ea20 0002 	bic.w	r0, r0, r2
 8008a74:	eb00 70d3 	add.w	r0, r0, r3, lsr #31
 8008a78:	ea5e 0e43 	orrs.w	lr, lr, r3, lsl #1
 8008a7c:	bf08      	it	eq
 8008a7e:	ea20 70d3 	biceq.w	r0, r0, r3, lsr #31
 8008a82:	bd70      	pop	{r4, r5, r6, pc}
 8008a84:	f094 0f00 	teq	r4, #0
 8008a88:	d10f      	bne.n	8008aaa <__aeabi_dmul+0x1c2>
 8008a8a:	f001 4600 	and.w	r6, r1, #2147483648	; 0x80000000
 8008a8e:	0040      	lsls	r0, r0, #1
 8008a90:	eb41 0101 	adc.w	r1, r1, r1
 8008a94:	f411 1f80 	tst.w	r1, #1048576	; 0x100000
 8008a98:	bf08      	it	eq
 8008a9a:	3c01      	subeq	r4, #1
 8008a9c:	d0f7      	beq.n	8008a8e <__aeabi_dmul+0x1a6>
 8008a9e:	ea41 0106 	orr.w	r1, r1, r6
 8008aa2:	f095 0f00 	teq	r5, #0
 8008aa6:	bf18      	it	ne
 8008aa8:	4770      	bxne	lr
 8008aaa:	f003 4600 	and.w	r6, r3, #2147483648	; 0x80000000
 8008aae:	0052      	lsls	r2, r2, #1
 8008ab0:	eb43 0303 	adc.w	r3, r3, r3
 8008ab4:	f413 1f80 	tst.w	r3, #1048576	; 0x100000
 8008ab8:	bf08      	it	eq
 8008aba:	3d01      	subeq	r5, #1
 8008abc:	d0f7      	beq.n	8008aae <__aeabi_dmul+0x1c6>
 8008abe:	ea43 0306 	orr.w	r3, r3, r6
 8008ac2:	4770      	bx	lr
 8008ac4:	ea94 0f0c 	teq	r4, ip
 8008ac8:	ea0c 5513 	and.w	r5, ip, r3, lsr #20
 8008acc:	bf18      	it	ne
 8008ace:	ea95 0f0c 	teqne	r5, ip
 8008ad2:	d00c      	beq.n	8008aee <__aeabi_dmul+0x206>
 8008ad4:	ea50 0641 	orrs.w	r6, r0, r1, lsl #1
 8008ad8:	bf18      	it	ne
 8008ada:	ea52 0643 	orrsne.w	r6, r2, r3, lsl #1
 8008ade:	d1d1      	bne.n	8008a84 <__aeabi_dmul+0x19c>
 8008ae0:	ea81 0103 	eor.w	r1, r1, r3
 8008ae4:	f001 4100 	and.w	r1, r1, #2147483648	; 0x80000000
 8008ae8:	f04f 0000 	mov.w	r0, #0
 8008aec:	bd70      	pop	{r4, r5, r6, pc}
 8008aee:	ea50 0641 	orrs.w	r6, r0, r1, lsl #1
 8008af2:	bf06      	itte	eq
 8008af4:	4610      	moveq	r0, r2
 8008af6:	4619      	moveq	r1, r3
 8008af8:	ea52 0643 	orrsne.w	r6, r2, r3, lsl #1
 8008afc:	d019      	beq.n	8008b32 <__aeabi_dmul+0x24a>
 8008afe:	ea94 0f0c 	teq	r4, ip
 8008b02:	d102      	bne.n	8008b0a <__aeabi_dmul+0x222>
 8008b04:	ea50 3601 	orrs.w	r6, r0, r1, lsl #12
 8008b08:	d113      	bne.n	8008b32 <__aeabi_dmul+0x24a>
 8008b0a:	ea95 0f0c 	teq	r5, ip
 8008b0e:	d105      	bne.n	8008b1c <__aeabi_dmul+0x234>
 8008b10:	ea52 3603 	orrs.w	r6, r2, r3, lsl #12
 8008b14:	bf1c      	itt	ne
 8008b16:	4610      	movne	r0, r2
 8008b18:	4619      	movne	r1, r3
 8008b1a:	d10a      	bne.n	8008b32 <__aeabi_dmul+0x24a>
 8008b1c:	ea81 0103 	eor.w	r1, r1, r3
 8008b20:	f001 4100 	and.w	r1, r1, #2147483648	; 0x80000000
 8008b24:	f041 41fe 	orr.w	r1, r1, #2130706432	; 0x7f000000
 8008b28:	f441 0170 	orr.w	r1, r1, #15728640	; 0xf00000
 8008b2c:	f04f 0000 	mov.w	r0, #0
 8008b30:	bd70      	pop	{r4, r5, r6, pc}
 8008b32:	f041 41fe 	orr.w	r1, r1, #2130706432	; 0x7f000000
 8008b36:	f441 0178 	orr.w	r1, r1, #16252928	; 0xf80000
 8008b3a:	bd70      	pop	{r4, r5, r6, pc}

08008b3c <__aeabi_ddiv>:
 8008b3c:	b570      	push	{r4, r5, r6, lr}
 8008b3e:	f04f 0cff 	mov.w	ip, #255	; 0xff
 8008b42:	f44c 6ce0 	orr.w	ip, ip, #1792	; 0x700
 8008b46:	ea1c 5411 	ands.w	r4, ip, r1, lsr #20
 8008b4a:	bf1d      	ittte	ne
 8008b4c:	ea1c 5513 	andsne.w	r5, ip, r3, lsr #20
 8008b50:	ea94 0f0c 	teqne	r4, ip
 8008b54:	ea95 0f0c 	teqne	r5, ip
 8008b58:	f000 f8a7 	bleq	8008caa <__aeabi_ddiv+0x16e>
 8008b5c:	eba4 0405 	sub.w	r4, r4, r5
 8008b60:	ea81 0e03 	eor.w	lr, r1, r3
 8008b64:	ea52 3503 	orrs.w	r5, r2, r3, lsl #12
 8008b68:	ea4f 3101 	mov.w	r1, r1, lsl #12
 8008b6c:	f000 8088 	beq.w	8008c80 <__aeabi_ddiv+0x144>
 8008b70:	ea4f 3303 	mov.w	r3, r3, lsl #12
 8008b74:	f04f 5580 	mov.w	r5, #268435456	; 0x10000000
 8008b78:	ea45 1313 	orr.w	r3, r5, r3, lsr #4
 8008b7c:	ea43 6312 	orr.w	r3, r3, r2, lsr #24
 8008b80:	ea4f 2202 	mov.w	r2, r2, lsl #8
 8008b84:	ea45 1511 	orr.w	r5, r5, r1, lsr #4
 8008b88:	ea45 6510 	orr.w	r5, r5, r0, lsr #24
 8008b8c:	ea4f 2600 	mov.w	r6, r0, lsl #8
 8008b90:	f00e 4100 	and.w	r1, lr, #2147483648	; 0x80000000
 8008b94:	429d      	cmp	r5, r3
 8008b96:	bf08      	it	eq
 8008b98:	4296      	cmpeq	r6, r2
 8008b9a:	f144 04fd 	adc.w	r4, r4, #253	; 0xfd
 8008b9e:	f504 7440 	add.w	r4, r4, #768	; 0x300
 8008ba2:	d202      	bcs.n	8008baa <__aeabi_ddiv+0x6e>
 8008ba4:	085b      	lsrs	r3, r3, #1
 8008ba6:	ea4f 0232 	mov.w	r2, r2, rrx
 8008baa:	1ab6      	subs	r6, r6, r2
 8008bac:	eb65 0503 	sbc.w	r5, r5, r3
 8008bb0:	085b      	lsrs	r3, r3, #1
 8008bb2:	ea4f 0232 	mov.w	r2, r2, rrx
 8008bb6:	f44f 1080 	mov.w	r0, #1048576	; 0x100000
 8008bba:	f44f 2c00 	mov.w	ip, #524288	; 0x80000
 8008bbe:	ebb6 0e02 	subs.w	lr, r6, r2
 8008bc2:	eb75 0e03 	sbcs.w	lr, r5, r3
 8008bc6:	bf22      	ittt	cs
 8008bc8:	1ab6      	subcs	r6, r6, r2
 8008bca:	4675      	movcs	r5, lr
 8008bcc:	ea40 000c 	orrcs.w	r0, r0, ip
 8008bd0:	085b      	lsrs	r3, r3, #1
 8008bd2:	ea4f 0232 	mov.w	r2, r2, rrx
 8008bd6:	ebb6 0e02 	subs.w	lr, r6, r2
 8008bda:	eb75 0e03 	sbcs.w	lr, r5, r3
 8008bde:	bf22      	ittt	cs
 8008be0:	1ab6      	subcs	r6, r6, r2
 8008be2:	4675      	movcs	r5, lr
 8008be4:	ea40 005c 	orrcs.w	r0, r0, ip, lsr #1
 8008be8:	085b      	lsrs	r3, r3, #1
 8008bea:	ea4f 0232 	mov.w	r2, r2, rrx
 8008bee:	ebb6 0e02 	subs.w	lr, r6, r2
 8008bf2:	eb75 0e03 	sbcs.w	lr, r5, r3
 8008bf6:	bf22      	ittt	cs
 8008bf8:	1ab6      	subcs	r6, r6, r2
 8008bfa:	4675      	movcs	r5, lr
 8008bfc:	ea40 009c 	orrcs.w	r0, r0, ip, lsr #2
 8008c00:	085b      	lsrs	r3, r3, #1
 8008c02:	ea4f 0232 	mov.w	r2, r2, rrx
 8008c06:	ebb6 0e02 	subs.w	lr, r6, r2
 8008c0a:	eb75 0e03 	sbcs.w	lr, r5, r3
 8008c0e:	bf22      	ittt	cs
 8008c10:	1ab6      	subcs	r6, r6, r2
 8008c12:	4675      	movcs	r5, lr
 8008c14:	ea40 00dc 	orrcs.w	r0, r0, ip, lsr #3
 8008c18:	ea55 0e06 	orrs.w	lr, r5, r6
 8008c1c:	d018      	beq.n	8008c50 <__aeabi_ddiv+0x114>
 8008c1e:	ea4f 1505 	mov.w	r5, r5, lsl #4
 8008c22:	ea45 7516 	orr.w	r5, r5, r6, lsr #28
 8008c26:	ea4f 1606 	mov.w	r6, r6, lsl #4
 8008c2a:	ea4f 03c3 	mov.w	r3, r3, lsl #3
 8008c2e:	ea43 7352 	orr.w	r3, r3, r2, lsr #29
 8008c32:	ea4f 02c2 	mov.w	r2, r2, lsl #3
 8008c36:	ea5f 1c1c 	movs.w	ip, ip, lsr #4
 8008c3a:	d1c0      	bne.n	8008bbe <__aeabi_ddiv+0x82>
 8008c3c:	f411 1f80 	tst.w	r1, #1048576	; 0x100000
 8008c40:	d10b      	bne.n	8008c5a <__aeabi_ddiv+0x11e>
 8008c42:	ea41 0100 	orr.w	r1, r1, r0
 8008c46:	f04f 0000 	mov.w	r0, #0
 8008c4a:	f04f 4c00 	mov.w	ip, #2147483648	; 0x80000000
 8008c4e:	e7b6      	b.n	8008bbe <__aeabi_ddiv+0x82>
 8008c50:	f411 1f80 	tst.w	r1, #1048576	; 0x100000
 8008c54:	bf04      	itt	eq
 8008c56:	4301      	orreq	r1, r0
 8008c58:	2000      	moveq	r0, #0
 8008c5a:	f1b4 0cfd 	subs.w	ip, r4, #253	; 0xfd
 8008c5e:	bf88      	it	hi
 8008c60:	f5bc 6fe0 	cmphi.w	ip, #1792	; 0x700
 8008c64:	f63f aeaf 	bhi.w	80089c6 <__aeabi_dmul+0xde>
 8008c68:	ebb5 0c03 	subs.w	ip, r5, r3
 8008c6c:	bf04      	itt	eq
 8008c6e:	ebb6 0c02 	subseq.w	ip, r6, r2
 8008c72:	ea5f 0c50 	movseq.w	ip, r0, lsr #1
 8008c76:	f150 0000 	adcs.w	r0, r0, #0
 8008c7a:	eb41 5104 	adc.w	r1, r1, r4, lsl #20
 8008c7e:	bd70      	pop	{r4, r5, r6, pc}
 8008c80:	f00e 4e00 	and.w	lr, lr, #2147483648	; 0x80000000
 8008c84:	ea4e 3111 	orr.w	r1, lr, r1, lsr #12
 8008c88:	eb14 045c 	adds.w	r4, r4, ip, lsr #1
 8008c8c:	bfc2      	ittt	gt
 8008c8e:	ebd4 050c 	rsbsgt	r5, r4, ip
 8008c92:	ea41 5104 	orrgt.w	r1, r1, r4, lsl #20
 8008c96:	bd70      	popgt	{r4, r5, r6, pc}
 8008c98:	f441 1180 	orr.w	r1, r1, #1048576	; 0x100000
 8008c9c:	f04f 0e00 	mov.w	lr, #0
 8008ca0:	3c01      	subs	r4, #1
 8008ca2:	e690      	b.n	80089c6 <__aeabi_dmul+0xde>
 8008ca4:	ea45 0e06 	orr.w	lr, r5, r6
 8008ca8:	e68d      	b.n	80089c6 <__aeabi_dmul+0xde>
 8008caa:	ea0c 5513 	and.w	r5, ip, r3, lsr #20
 8008cae:	ea94 0f0c 	teq	r4, ip
 8008cb2:	bf08      	it	eq
 8008cb4:	ea95 0f0c 	teqeq	r5, ip
 8008cb8:	f43f af3b 	beq.w	8008b32 <__aeabi_dmul+0x24a>
 8008cbc:	ea94 0f0c 	teq	r4, ip
 8008cc0:	d10a      	bne.n	8008cd8 <__aeabi_ddiv+0x19c>
 8008cc2:	ea50 3401 	orrs.w	r4, r0, r1, lsl #12
 8008cc6:	f47f af34 	bne.w	8008b32 <__aeabi_dmul+0x24a>
 8008cca:	ea95 0f0c 	teq	r5, ip
 8008cce:	f47f af25 	bne.w	8008b1c <__aeabi_dmul+0x234>
 8008cd2:	4610      	mov	r0, r2
 8008cd4:	4619      	mov	r1, r3
 8008cd6:	e72c      	b.n	8008b32 <__aeabi_dmul+0x24a>
 8008cd8:	ea95 0f0c 	teq	r5, ip
 8008cdc:	d106      	bne.n	8008cec <__aeabi_ddiv+0x1b0>
 8008cde:	ea52 3503 	orrs.w	r5, r2, r3, lsl #12
 8008ce2:	f43f aefd 	beq.w	8008ae0 <__aeabi_dmul+0x1f8>
 8008ce6:	4610      	mov	r0, r2
 8008ce8:	4619      	mov	r1, r3
 8008cea:	e722      	b.n	8008b32 <__aeabi_dmul+0x24a>
 8008cec:	ea50 0641 	orrs.w	r6, r0, r1, lsl #1
 8008cf0:	bf18      	it	ne
 8008cf2:	ea52 0643 	orrsne.w	r6, r2, r3, lsl #1
 8008cf6:	f47f aec5 	bne.w	8008a84 <__aeabi_dmul+0x19c>
 8008cfa:	ea50 0441 	orrs.w	r4, r0, r1, lsl #1
 8008cfe:	f47f af0d 	bne.w	8008b1c <__aeabi_dmul+0x234>
 8008d02:	ea52 0543 	orrs.w	r5, r2, r3, lsl #1
 8008d06:	f47f aeeb 	bne.w	8008ae0 <__aeabi_dmul+0x1f8>
 8008d0a:	e712      	b.n	8008b32 <__aeabi_dmul+0x24a>

08008d0c <__gedf2>:
 8008d0c:	f04f 3cff 	mov.w	ip, #4294967295
 8008d10:	e006      	b.n	8008d20 <__cmpdf2+0x4>
 8008d12:	bf00      	nop

08008d14 <__ledf2>:
 8008d14:	f04f 0c01 	mov.w	ip, #1
 8008d18:	e002      	b.n	8008d20 <__cmpdf2+0x4>
 8008d1a:	bf00      	nop

08008d1c <__cmpdf2>:
 8008d1c:	f04f 0c01 	mov.w	ip, #1
 8008d20:	f84d cd04 	str.w	ip, [sp, #-4]!
 8008d24:	ea4f 0c41 	mov.w	ip, r1, lsl #1
 8008d28:	ea7f 5c6c 	mvns.w	ip, ip, asr #21
 8008d2c:	ea4f 0c43 	mov.w	ip, r3, lsl #1
 8008d30:	bf18      	it	ne
 8008d32:	ea7f 5c6c 	mvnsne.w	ip, ip, asr #21
 8008d36:	d01b      	beq.n	8008d70 <__cmpdf2+0x54>
 8008d38:	b001      	add	sp, #4
 8008d3a:	ea50 0c41 	orrs.w	ip, r0, r1, lsl #1
 8008d3e:	bf0c      	ite	eq
 8008d40:	ea52 0c43 	orrseq.w	ip, r2, r3, lsl #1
 8008d44:	ea91 0f03 	teqne	r1, r3
 8008d48:	bf02      	ittt	eq
 8008d4a:	ea90 0f02 	teqeq	r0, r2
 8008d4e:	2000      	moveq	r0, #0
 8008d50:	4770      	bxeq	lr
 8008d52:	f110 0f00 	cmn.w	r0, #0
 8008d56:	ea91 0f03 	teq	r1, r3
 8008d5a:	bf58      	it	pl
 8008d5c:	4299      	cmppl	r1, r3
 8008d5e:	bf08      	it	eq
 8008d60:	4290      	cmpeq	r0, r2
 8008d62:	bf2c      	ite	cs
 8008d64:	17d8      	asrcs	r0, r3, #31
 8008d66:	ea6f 70e3 	mvncc.w	r0, r3, asr #31
 8008d6a:	f040 0001 	orr.w	r0, r0, #1
 8008d6e:	4770      	bx	lr
 8008d70:	ea4f 0c41 	mov.w	ip, r1, lsl #1
 8008d74:	ea7f 5c6c 	mvns.w	ip, ip, asr #21
 8008d78:	d102      	bne.n	8008d80 <__cmpdf2+0x64>
 8008d7a:	ea50 3c01 	orrs.w	ip, r0, r1, lsl #12
 8008d7e:	d107      	bne.n	8008d90 <__cmpdf2+0x74>
 8008d80:	ea4f 0c43 	mov.w	ip, r3, lsl #1
 8008d84:	ea7f 5c6c 	mvns.w	ip, ip, asr #21
 8008d88:	d1d6      	bne.n	8008d38 <__cmpdf2+0x1c>
 8008d8a:	ea52 3c03 	orrs.w	ip, r2, r3, lsl #12
 8008d8e:	d0d3      	beq.n	8008d38 <__cmpdf2+0x1c>
 8008d90:	f85d 0b04 	ldr.w	r0, [sp], #4
 8008d94:	4770      	bx	lr
 8008d96:	bf00      	nop

08008d98 <__aeabi_cdrcmple>:
 8008d98:	4684      	mov	ip, r0
 8008d9a:	4610      	mov	r0, r2
 8008d9c:	4662      	mov	r2, ip
 8008d9e:	468c      	mov	ip, r1
 8008da0:	4619      	mov	r1, r3
 8008da2:	4663      	mov	r3, ip
 8008da4:	e000      	b.n	8008da8 <__aeabi_cdcmpeq>
 8008da6:	bf00      	nop

08008da8 <__aeabi_cdcmpeq>:
 8008da8:	b501      	push	{r0, lr}
 8008daa:	f7ff ffb7 	bl	8008d1c <__cmpdf2>
 8008dae:	2800      	cmp	r0, #0
 8008db0:	bf48      	it	mi
 8008db2:	f110 0f00 	cmnmi.w	r0, #0
 8008db6:	bd01      	pop	{r0, pc}

08008db8 <__aeabi_dcmpeq>:
 8008db8:	f84d ed08 	str.w	lr, [sp, #-8]!
 8008dbc:	f7ff fff4 	bl	8008da8 <__aeabi_cdcmpeq>
 8008dc0:	bf0c      	ite	eq
 8008dc2:	2001      	moveq	r0, #1
 8008dc4:	2000      	movne	r0, #0
 8008dc6:	f85d fb08 	ldr.w	pc, [sp], #8
 8008dca:	bf00      	nop

08008dcc <__aeabi_dcmplt>:
 8008dcc:	f84d ed08 	str.w	lr, [sp, #-8]!
 8008dd0:	f7ff ffea 	bl	8008da8 <__aeabi_cdcmpeq>
 8008dd4:	bf34      	ite	cc
 8008dd6:	2001      	movcc	r0, #1
 8008dd8:	2000      	movcs	r0, #0
 8008dda:	f85d fb08 	ldr.w	pc, [sp], #8
 8008dde:	bf00      	nop

08008de0 <__aeabi_dcmple>:
 8008de0:	f84d ed08 	str.w	lr, [sp, #-8]!
 8008de4:	f7ff ffe0 	bl	8008da8 <__aeabi_cdcmpeq>
 8008de8:	bf94      	ite	ls
 8008dea:	2001      	movls	r0, #1
 8008dec:	2000      	movhi	r0, #0
 8008dee:	f85d fb08 	ldr.w	pc, [sp], #8
 8008df2:	bf00      	nop

08008df4 <__aeabi_dcmpge>:
 8008df4:	f84d ed08 	str.w	lr, [sp, #-8]!
 8008df8:	f7ff ffce 	bl	8008d98 <__aeabi_cdrcmple>
 8008dfc:	bf94      	ite	ls
 8008dfe:	2001      	movls	r0, #1
 8008e00:	2000      	movhi	r0, #0
 8008e02:	f85d fb08 	ldr.w	pc, [sp], #8
 8008e06:	bf00      	nop

08008e08 <__aeabi_dcmpgt>:
 8008e08:	f84d ed08 	str.w	lr, [sp, #-8]!
 8008e0c:	f7ff ffc4 	bl	8008d98 <__aeabi_cdrcmple>
 8008e10:	bf34      	ite	cc
 8008e12:	2001      	movcc	r0, #1
 8008e14:	2000      	movcs	r0, #0
 8008e16:	f85d fb08 	ldr.w	pc, [sp], #8
 8008e1a:	bf00      	nop

08008e1c <__aeabi_d2uiz>:
 8008e1c:	004a      	lsls	r2, r1, #1
 8008e1e:	d211      	bcs.n	8008e44 <__aeabi_d2uiz+0x28>
 8008e20:	f512 1200 	adds.w	r2, r2, #2097152	; 0x200000
 8008e24:	d211      	bcs.n	8008e4a <__aeabi_d2uiz+0x2e>
 8008e26:	d50d      	bpl.n	8008e44 <__aeabi_d2uiz+0x28>
 8008e28:	f46f 7378 	mvn.w	r3, #992	; 0x3e0
 8008e2c:	ebb3 5262 	subs.w	r2, r3, r2, asr #21
 8008e30:	d40e      	bmi.n	8008e50 <__aeabi_d2uiz+0x34>
 8008e32:	ea4f 23c1 	mov.w	r3, r1, lsl #11
 8008e36:	f043 4300 	orr.w	r3, r3, #2147483648	; 0x80000000
 8008e3a:	ea43 5350 	orr.w	r3, r3, r0, lsr #21
 8008e3e:	fa23 f002 	lsr.w	r0, r3, r2
 8008e42:	4770      	bx	lr
 8008e44:	f04f 0000 	mov.w	r0, #0
 8008e48:	4770      	bx	lr
 8008e4a:	ea50 3001 	orrs.w	r0, r0, r1, lsl #12
 8008e4e:	d102      	bne.n	8008e56 <__aeabi_d2uiz+0x3a>
 8008e50:	f04f 30ff 	mov.w	r0, #4294967295
 8008e54:	4770      	bx	lr
 8008e56:	f04f 0000 	mov.w	r0, #0
 8008e5a:	4770      	bx	lr

08008e5c <__errno>:
 8008e5c:	4b01      	ldr	r3, [pc, #4]	; (8008e64 <__errno+0x8>)
 8008e5e:	6818      	ldr	r0, [r3, #0]
 8008e60:	4770      	bx	lr
 8008e62:	bf00      	nop
 8008e64:	2000068c 	.word	0x2000068c

08008e68 <__libc_init_array>:
 8008e68:	b570      	push	{r4, r5, r6, lr}
 8008e6a:	4b0e      	ldr	r3, [pc, #56]	; (8008ea4 <__libc_init_array+0x3c>)
 8008e6c:	4c0e      	ldr	r4, [pc, #56]	; (8008ea8 <__libc_init_array+0x40>)
 8008e6e:	1ae4      	subs	r4, r4, r3
 8008e70:	10a4      	asrs	r4, r4, #2
 8008e72:	2500      	movs	r5, #0
 8008e74:	461e      	mov	r6, r3
 8008e76:	42a5      	cmp	r5, r4
 8008e78:	d004      	beq.n	8008e84 <__libc_init_array+0x1c>
 8008e7a:	f856 3025 	ldr.w	r3, [r6, r5, lsl #2]
 8008e7e:	4798      	blx	r3
 8008e80:	3501      	adds	r5, #1
 8008e82:	e7f8      	b.n	8008e76 <__libc_init_array+0xe>
 8008e84:	f7fb fbdc 	bl	8004640 <_init>
 8008e88:	4c08      	ldr	r4, [pc, #32]	; (8008eac <__libc_init_array+0x44>)
 8008e8a:	4b09      	ldr	r3, [pc, #36]	; (8008eb0 <__libc_init_array+0x48>)
 8008e8c:	1ae4      	subs	r4, r4, r3
 8008e8e:	10a4      	asrs	r4, r4, #2
 8008e90:	2500      	movs	r5, #0
 8008e92:	461e      	mov	r6, r3
 8008e94:	42a5      	cmp	r5, r4
 8008e96:	d004      	beq.n	8008ea2 <__libc_init_array+0x3a>
 8008e98:	f856 3025 	ldr.w	r3, [r6, r5, lsl #2]
 8008e9c:	4798      	blx	r3
 8008e9e:	3501      	adds	r5, #1
 8008ea0:	e7f8      	b.n	8008e94 <__libc_init_array+0x2c>
 8008ea2:	bd70      	pop	{r4, r5, r6, pc}
 8008ea4:	20000690 	.word	0x20000690
 8008ea8:	20000690 	.word	0x20000690
 8008eac:	20000690 	.word	0x20000690
 8008eb0:	20000690 	.word	0x20000690

08008eb4 <malloc>:
 8008eb4:	4b02      	ldr	r3, [pc, #8]	; (8008ec0 <malloc+0xc>)
 8008eb6:	4601      	mov	r1, r0
 8008eb8:	6818      	ldr	r0, [r3, #0]
 8008eba:	f000 b863 	b.w	8008f84 <_malloc_r>
 8008ebe:	bf00      	nop
 8008ec0:	2000068c 	.word	0x2000068c

08008ec4 <free>:
 8008ec4:	4b02      	ldr	r3, [pc, #8]	; (8008ed0 <free+0xc>)
 8008ec6:	4601      	mov	r1, r0
 8008ec8:	6818      	ldr	r0, [r3, #0]
 8008eca:	f000 b817 	b.w	8008efc <_free_r>
 8008ece:	bf00      	nop
 8008ed0:	2000068c 	.word	0x2000068c

08008ed4 <memcpy>:
 8008ed4:	b510      	push	{r4, lr}
 8008ed6:	1e43      	subs	r3, r0, #1
 8008ed8:	440a      	add	r2, r1
 8008eda:	4291      	cmp	r1, r2
 8008edc:	d004      	beq.n	8008ee8 <memcpy+0x14>
 8008ede:	f811 4b01 	ldrb.w	r4, [r1], #1
 8008ee2:	f803 4f01 	strb.w	r4, [r3, #1]!
 8008ee6:	e7f8      	b.n	8008eda <memcpy+0x6>
 8008ee8:	bd10      	pop	{r4, pc}

08008eea <memset>:
 8008eea:	4402      	add	r2, r0
 8008eec:	4603      	mov	r3, r0
 8008eee:	4293      	cmp	r3, r2
 8008ef0:	d002      	beq.n	8008ef8 <memset+0xe>
 8008ef2:	f803 1b01 	strb.w	r1, [r3], #1
 8008ef6:	e7fa      	b.n	8008eee <memset+0x4>
 8008ef8:	4770      	bx	lr
	...

08008efc <_free_r>:
 8008efc:	b530      	push	{r4, r5, lr}
 8008efe:	2900      	cmp	r1, #0
 8008f00:	d03d      	beq.n	8008f7e <_free_r+0x82>
 8008f02:	f851 2c04 	ldr.w	r2, [r1, #-4]
 8008f06:	1f0b      	subs	r3, r1, #4
 8008f08:	491d      	ldr	r1, [pc, #116]	; (8008f80 <_free_r+0x84>)
 8008f0a:	2a00      	cmp	r2, #0
 8008f0c:	bfb8      	it	lt
 8008f0e:	189b      	addlt	r3, r3, r2
 8008f10:	680a      	ldr	r2, [r1, #0]
 8008f12:	460c      	mov	r4, r1
 8008f14:	b912      	cbnz	r2, 8008f1c <_free_r+0x20>
 8008f16:	605a      	str	r2, [r3, #4]
 8008f18:	600b      	str	r3, [r1, #0]
 8008f1a:	bd30      	pop	{r4, r5, pc}
 8008f1c:	4293      	cmp	r3, r2
 8008f1e:	d20d      	bcs.n	8008f3c <_free_r+0x40>
 8008f20:	6819      	ldr	r1, [r3, #0]
 8008f22:	1858      	adds	r0, r3, r1
 8008f24:	4290      	cmp	r0, r2
 8008f26:	bf01      	itttt	eq
 8008f28:	585a      	ldreq	r2, [r3, r1]
 8008f2a:	1852      	addeq	r2, r2, r1
 8008f2c:	601a      	streq	r2, [r3, #0]
 8008f2e:	6842      	ldreq	r2, [r0, #4]
 8008f30:	605a      	str	r2, [r3, #4]
 8008f32:	6023      	str	r3, [r4, #0]
 8008f34:	bd30      	pop	{r4, r5, pc}
 8008f36:	4299      	cmp	r1, r3
 8008f38:	d803      	bhi.n	8008f42 <_free_r+0x46>
 8008f3a:	460a      	mov	r2, r1
 8008f3c:	6851      	ldr	r1, [r2, #4]
 8008f3e:	2900      	cmp	r1, #0
 8008f40:	d1f9      	bne.n	8008f36 <_free_r+0x3a>
 8008f42:	6814      	ldr	r4, [r2, #0]
 8008f44:	1915      	adds	r5, r2, r4
 8008f46:	429d      	cmp	r5, r3
 8008f48:	d10a      	bne.n	8008f60 <_free_r+0x64>
 8008f4a:	681b      	ldr	r3, [r3, #0]
 8008f4c:	4423      	add	r3, r4
 8008f4e:	18d0      	adds	r0, r2, r3
 8008f50:	4288      	cmp	r0, r1
 8008f52:	6013      	str	r3, [r2, #0]
 8008f54:	d113      	bne.n	8008f7e <_free_r+0x82>
 8008f56:	6808      	ldr	r0, [r1, #0]
 8008f58:	4403      	add	r3, r0
 8008f5a:	6013      	str	r3, [r2, #0]
 8008f5c:	684b      	ldr	r3, [r1, #4]
 8008f5e:	e00d      	b.n	8008f7c <_free_r+0x80>
 8008f60:	d902      	bls.n	8008f68 <_free_r+0x6c>
 8008f62:	230c      	movs	r3, #12
 8008f64:	6003      	str	r3, [r0, #0]
 8008f66:	bd30      	pop	{r4, r5, pc}
 8008f68:	681c      	ldr	r4, [r3, #0]
 8008f6a:	1918      	adds	r0, r3, r4
 8008f6c:	4288      	cmp	r0, r1
 8008f6e:	bf04      	itt	eq
 8008f70:	6808      	ldreq	r0, [r1, #0]
 8008f72:	6849      	ldreq	r1, [r1, #4]
 8008f74:	6059      	str	r1, [r3, #4]
 8008f76:	bf04      	itt	eq
 8008f78:	1900      	addeq	r0, r0, r4
 8008f7a:	6018      	streq	r0, [r3, #0]
 8008f7c:	6053      	str	r3, [r2, #4]
 8008f7e:	bd30      	pop	{r4, r5, pc}
 8008f80:	2000089c 	.word	0x2000089c

08008f84 <_malloc_r>:
 8008f84:	b570      	push	{r4, r5, r6, lr}
 8008f86:	1ccc      	adds	r4, r1, #3
 8008f88:	f024 0403 	bic.w	r4, r4, #3
 8008f8c:	3408      	adds	r4, #8
 8008f8e:	2c0c      	cmp	r4, #12
 8008f90:	bf38      	it	cc
 8008f92:	240c      	movcc	r4, #12
 8008f94:	2c00      	cmp	r4, #0
 8008f96:	4606      	mov	r6, r0
 8008f98:	da03      	bge.n	8008fa2 <_malloc_r+0x1e>
 8008f9a:	230c      	movs	r3, #12
 8008f9c:	6033      	str	r3, [r6, #0]
 8008f9e:	2000      	movs	r0, #0
 8008fa0:	bd70      	pop	{r4, r5, r6, pc}
 8008fa2:	428c      	cmp	r4, r1
 8008fa4:	d3f9      	bcc.n	8008f9a <_malloc_r+0x16>
 8008fa6:	4a20      	ldr	r2, [pc, #128]	; (8009028 <_malloc_r+0xa4>)
 8008fa8:	6813      	ldr	r3, [r2, #0]
 8008faa:	4610      	mov	r0, r2
 8008fac:	4619      	mov	r1, r3
 8008fae:	b1a1      	cbz	r1, 8008fda <_malloc_r+0x56>
 8008fb0:	680a      	ldr	r2, [r1, #0]
 8008fb2:	1b12      	subs	r2, r2, r4
 8008fb4:	d40e      	bmi.n	8008fd4 <_malloc_r+0x50>
 8008fb6:	2a0b      	cmp	r2, #11
 8008fb8:	d903      	bls.n	8008fc2 <_malloc_r+0x3e>
 8008fba:	600a      	str	r2, [r1, #0]
 8008fbc:	188b      	adds	r3, r1, r2
 8008fbe:	508c      	str	r4, [r1, r2]
 8008fc0:	e01f      	b.n	8009002 <_malloc_r+0x7e>
 8008fc2:	428b      	cmp	r3, r1
 8008fc4:	bf0d      	iteet	eq
 8008fc6:	685a      	ldreq	r2, [r3, #4]
 8008fc8:	684a      	ldrne	r2, [r1, #4]
 8008fca:	605a      	strne	r2, [r3, #4]
 8008fcc:	6002      	streq	r2, [r0, #0]
 8008fce:	bf18      	it	ne
 8008fd0:	460b      	movne	r3, r1
 8008fd2:	e016      	b.n	8009002 <_malloc_r+0x7e>
 8008fd4:	460b      	mov	r3, r1
 8008fd6:	6849      	ldr	r1, [r1, #4]
 8008fd8:	e7e9      	b.n	8008fae <_malloc_r+0x2a>
 8008fda:	4d14      	ldr	r5, [pc, #80]	; (800902c <_malloc_r+0xa8>)
 8008fdc:	682b      	ldr	r3, [r5, #0]
 8008fde:	b91b      	cbnz	r3, 8008fe8 <_malloc_r+0x64>
 8008fe0:	4630      	mov	r0, r6
 8008fe2:	f000 f825 	bl	8009030 <_sbrk_r>
 8008fe6:	6028      	str	r0, [r5, #0]
 8008fe8:	4630      	mov	r0, r6
 8008fea:	4621      	mov	r1, r4
 8008fec:	f000 f820 	bl	8009030 <_sbrk_r>
 8008ff0:	1c42      	adds	r2, r0, #1
 8008ff2:	4603      	mov	r3, r0
 8008ff4:	d0d1      	beq.n	8008f9a <_malloc_r+0x16>
 8008ff6:	1cc5      	adds	r5, r0, #3
 8008ff8:	f025 0503 	bic.w	r5, r5, #3
 8008ffc:	4285      	cmp	r5, r0
 8008ffe:	d10a      	bne.n	8009016 <_malloc_r+0x92>
 8009000:	601c      	str	r4, [r3, #0]
 8009002:	f103 000b 	add.w	r0, r3, #11
 8009006:	1d1a      	adds	r2, r3, #4
 8009008:	f020 0007 	bic.w	r0, r0, #7
 800900c:	1a82      	subs	r2, r0, r2
 800900e:	d00a      	beq.n	8009026 <_malloc_r+0xa2>
 8009010:	4251      	negs	r1, r2
 8009012:	5099      	str	r1, [r3, r2]
 8009014:	bd70      	pop	{r4, r5, r6, pc}
 8009016:	4630      	mov	r0, r6
 8009018:	1ae9      	subs	r1, r5, r3
 800901a:	f000 f809 	bl	8009030 <_sbrk_r>
 800901e:	3001      	adds	r0, #1
 8009020:	d0bb      	beq.n	8008f9a <_malloc_r+0x16>
 8009022:	462b      	mov	r3, r5
 8009024:	e7ec      	b.n	8009000 <_malloc_r+0x7c>
 8009026:	bd70      	pop	{r4, r5, r6, pc}
 8009028:	2000089c 	.word	0x2000089c
 800902c:	20000898 	.word	0x20000898

08009030 <_sbrk_r>:
 8009030:	b538      	push	{r3, r4, r5, lr}
 8009032:	4c06      	ldr	r4, [pc, #24]	; (800904c <_sbrk_r+0x1c>)
 8009034:	2300      	movs	r3, #0
 8009036:	4605      	mov	r5, r0
 8009038:	4608      	mov	r0, r1
 800903a:	6023      	str	r3, [r4, #0]
 800903c:	f7fb fae0 	bl	8004600 <_sbrk>
 8009040:	1c43      	adds	r3, r0, #1
 8009042:	d102      	bne.n	800904a <_sbrk_r+0x1a>
 8009044:	6823      	ldr	r3, [r4, #0]
 8009046:	b103      	cbz	r3, 800904a <_sbrk_r+0x1a>
 8009048:	602b      	str	r3, [r5, #0]
 800904a:	bd38      	pop	{r3, r4, r5, pc}
 800904c:	20001480 	.word	0x20001480

08009050 <VCU_ConstB>:
 8009050:	48e8a71e 3fefff2e 48e8a71e 3fefff2e     ...H...?...H...?
 8009060:	0000fff8 00000000                       ........

08009068 <VCU_ConstP>:
 8009068:	00000000 40390000 00000000 00000000     ......9@........
	...
 8009084:	40140000 00000000 404b8000 00000000     ...@......K@....
 8009094:	40640000 47ae147b 3fb47ae1 8f5c28f6     ..d@{..G.z.?.(\.
 80090a4:	4008f5c2 47ae147b 3fb47ae1 851eb852     ...@{..G.z.?R...
 80090b4:	400851eb 00000000 40060000 c28f5c29     .Q.@.......@)\..
 80090c4:	401028f5 00000000 c0440000 00000000     .(.@......D.....
 80090d4:	4072c000 2b020c4a 3fb91687 c083126f     ..r@J..+...?o...
 80090e4:	3fc5a1ca 00000000 c0440000 00000000     ...?......D.....
 80090f4:	4077a000 72b020c5 3fdd9168 e353f7cf     ..w@. .rh..?..S.
 8009104:	3fe09ba5 00000000 40901800 00000000     ...?.......@....
 8009114:	409f5400 00000000 40af0400 00000000     .T.@.......@....
 8009124:	40b73400 00000000 40bee600 a5e353f8     .4.@.......@.S..
 8009134:	3fe8c49b b645a1cb 3ff4fdf3 33333333     ...?..E....?3333
 8009144:	40033333 1eb851ec 400beb85 f1a9fbe7     33.@.Q.....@....
 8009154:	40124dd2 00000000 408fd000 00000000     .M.@.......@....
 8009164:	409f1800 00000000 40aebe00 00000000     ...@.......@....
 8009174:	40b6f300 00000000 40be9600 5a1cac08     ...@.......@...Z
 8009184:	3feb3b64 374bc6a8 3ff64189 a1cac083     d;.?..K7.A.?....
 8009194:	4003b645 851eb852 400c51eb 47ae147b     E..@R....Q.@{..G
 80091a4:	40127ae1 00000000 00000000 00000000     .z.@............
	...
 80091cc:	3fe00000 66666666 3fe66666 00000000     ...?ffffff.?....
 80091dc:	3ff00000 00000000 00000000 00000000     ...?............
	...
 8009204:	3fe00000 66666666 3fe66666 00000000     ...?ffffff.?....
 8009214:	3ff00000 00000000 00000000 00000000     ...?............
	...
 800923c:	3fe00000 66666666 3fe66666 00000000     ...?ffffff.?....
 800924c:	3ff00000 00000000 00000000 00000000     ...?............
 800925c:	404e0000 00000000 40518000 00000000     ..N@......Q@....
 800926c:	40528000 00000000 4052c000 00000000     ..R@......R@....
 800927c:	40540000 00000000 40554000 00000000     ..T@.....@U@....
	...
 8009294:	40240000 00000000 40568000 00000000     ..$@......V@....
 80092a4:	3ff00000 00000000 3fe00000 9999999a     ...?.......?....
 80092b4:	3fb99999 9999999a 3fa99999 9999999a     ...?.......?....
 80092c4:	3fa99999 9999999a 3fa99999 eb851eb8     ...?.......?....
 80092d4:	3f9eb851 00000000 00000000 00000000     Q..?............
 80092e4:	00000000 eb851eb8 3f9eb851 eb851eb8     ........Q..?....
 80092f4:	3f9eb851 9999999a 3fa99999 9999999a     Q..?.......?....
 8009304:	3fd99999 9999999a 3fe99999 00000000     ...?.......?....
 8009314:	3ff00000 00000000 c0390000 00000000     ...?......9.....
 8009324:	c0140000 00000000 c0080000 00000000     ................
 8009334:	c0000000 00000000 bff00000 00000000     ................
 8009344:	bfe00000 9999999a bfb99999 00000000     ................
 8009354:	00000000 9999999a 3fb99999 00000000     ...........?....
 8009364:	3fe00000 00000000 3ff00000 00000000     ...?.......?....
 8009374:	40000000 00000000 40140000 00000000     ...@.......@....
 8009384:	401c0000 00000000 40390000 00000006     ...@......9@....
 8009394:	00000002 00000100 00000101 01010001     ................
 80093a4:	00000000                                ....

080093a8 <CSWTCH.36>:
 80093a8:	02020000 0c0c0c0c 00030a08                       ..........

080093b2 <CSWTCH.37>:
 80093b2:	00030003 000c000c 30003000 30003000     .........0.0.0.0
 80093c2:	0c000300 44000000                                ......

080093c8 <g_xmc_vadc_group_array>:
 80093c8:	40004400 40004800 40004c00 40005000     .D.@.H.@.L.@.P.@

080093d8 <PWM_Fans1_gpio_out_config>:
 80093d8:	00000098 00010000 00000004              ............

080093e4 <PWM_MHJ9_IN_compare_config>:
 80093e4:	00000000 00000005                       ........

080093ec <PWM_Fans2_gpio_out_config>:
 80093ec:	00000098 00010000 00000004              ............

080093f8 <PWM_Fans2_compare_config>:
 80093f8:	00000000 00000004                       ........

08009400 <PWM_Fans1_compare_config>:
 8009400:	00000000 00000004                       ........

08009408 <PWM_Waterpump_compare_config>:
 8009408:	00000000 00000004                       ........

08009410 <PWM_MHJ9_OUT_gpio_out_config>:
 8009410:	00000098 00010000 00000004              ............

0800941c <PWM_MHJ9_OUT_compare_config>:
 800941c:	00000000 00000005                       ........

08009424 <PWM_MHJ9_IN_gpio_out_config>:
 8009424:	00000098 00010000 00000004              ............

08009430 <PWM_Waterpump_gpio_out_config>:
 8009430:	00000098 00010000 00000004              ............

0800943c <INTERRUPT_Shifting>:
 800943c:	01003f04                                .?..

08009440 <group_init_handle0>:
	...

08009454 <group_init_handle1>:
	...

08009468 <group_init_handle3>:
	...

0800947c <global_config>:
 800947c:	00000000 00000003 00000000 00000000     ................
	...

08009494 <group_init_handle2>:
	...
 80094a8:	454c4449 63250900 09752509 25097525     IDLE..%c.%u.%u.%
 80094b8:	000a0d75 51726d54 726d5400 63765320     u...TmrQ.Tmr Svc
 80094c8:	00000000                                ....

080094cc <EVENT_GENERATOR_Shifting_OGU_Config>:
 80094cc:	00000010                                ....

080094d0 <EVENT_DETECTOR_Shifting_ETL_Config>:
 80094d0:	00000005 00000237                       ....7...

080094d8 <Signal_DownShift>:
 80094d8:	48028300 00000008 00000000 00000000     ...H............
 80094e8:	00000002                                ....

080094ec <CAN1_Res>:
 80094ec:	48028100 00000080 00000001 00000000     ...H............
 80094fc:	00000006                                ....

08009500 <CAN2_Res>:
 8009500:	48028100 00000080 00000001 00000000     ...H............
 8009510:	0000000e                                ....

08009514 <Signal_UpShift>:
 8009514:	48028300 00000008 00000000 00000000     ...H............
 8009524:	00000001                                ....

08009528 <DIGITAL_IO_Debug_LED>:
 8009528:	48028000 00000080 00000001 00000000     ...H............
 8009538:	00000002 01040250 00010000 00000000     ....P...........
 8009548:	00010000 01010101                       ........

08009550 <CAN_2_LMO_01_Config>:
 8009550:	200001d0 0000003c 00000000              ... <.......

0800955c <CAN_2_LMO_05_Config>:
 800955c:	20000250 00000006 00000000              P.. ........

08009568 <CAN_2_gpio_in_config>:
	...

08009574 <CAN_2_gpio_out>:
 8009574:	48028100 00000004                       ...H....

0800957c <CAN_1_LMO_01_Config>:
 800957c:	200002f0 00000026 00000000              ... &.......

08009588 <CAN_1_LMO_06_Config>:
 8009588:	20000370 00000021 00000000              p.. !.......

08009594 <CAN_1_sr>:
 8009594:	00000000                                ....

08009598 <CAN_2_LMO_06_Config>:
 8009598:	20000270 00000016 00000000              p.. ........

080095a4 <CAN_2_gpio_in>:
 80095a4:	48028100 00000005                       ...H....

080095ac <CAN_1_gpio_out_config>:
 80095ac:	00000090 00000001 00000002              ............

080095b8 <CAN_2_LMO_12_Config>:
 80095b8:	20000430 00000009 00000000              0.. ........

080095c4 <CAN_2_gpio_out_config>:
 80095c4:	00000090 00000001 00000002              ............

080095d0 <CAN_1_LMO_05_Config>:
 80095d0:	20000350 00000020 00000000              P..  .......

080095dc <CAN_2_LMO_11_Config>:
 80095dc:	20000410 00000024 00000000              ... $.......

080095e8 <CAN_1_LMO_04_Config>:
 80095e8:	200003d0 0000001f 00000000              ... ........

080095f4 <CAN_2_LMO_04_Config>:
 80095f4:	20000230 00000005 00000000              0.. ........

08009600 <CAN_2_LMO_09_Config>:
 8009600:	200002d0 00000017 00000000              ... ........

0800960c <CAN_2_LMO_10_Config>:
 800960c:	200003f0 00000025 00000000              ... %.......

08009618 <CAN_1_LMO_03_Config>:
 8009618:	20000330 0000001e 00000000              0.. ........

08009624 <CAN_1>:
 8009624:	20000138 48014300 200001b4 0800957c     8.. .C.H... |...
 8009634:	080097bc 08009618 080095e8 080095d0     ................
 8009644:	08009588 080097c8 0800978c 00000000     ................
	...
 80096b0:	08009594 080097d4 080095ac 080097a4     ................
 80096c0:	08009798 00080102 00000000              ............

080096cc <CAN_2>:
 80096cc:	20000138 48014200 200001c0 08009550     8.. .B.H... P...
 80096dc:	080097b0 08009774 080095f4 0800955c     ....t.......\...
 80096ec:	08009598 080097dc 08009780 08009600     ................
 80096fc:	0800960c 080095dc 080095b8 00000000     ................
	...
 8009758:	080097ac 08009574 080095c4 080095a4     ....t...........
 8009768:	08009568 000c0000 00000000              h...........

08009774 <CAN_2_LMO_03_Config>:
 8009774:	20000210 00000008 00000000              ... ........

08009780 <CAN_2_LMO_08_Config>:
 8009780:	200002b0 00000018 00000000              ... ........

0800978c <CAN_1_LMO_08_Config>:
 800978c:	200003b0 00000023 00000000              ... #.......

08009798 <CAN_1_gpio_in_config>:
	...

080097a4 <CAN_1_gpio_in>:
 80097a4:	48028100 0000000d                       ...H....

080097ac <CAN_2_sr>:
 80097ac:	00000000                                ....

080097b0 <CAN_2_LMO_02_Config>:
 80097b0:	200001f0 00000007 00000000              ... ........

080097bc <CAN_1_LMO_02_Config>:
 80097bc:	20000310 00000027 00000000              ... '.......

080097c8 <CAN_1_LMO_07_Config>:
 80097c8:	20000390 00000022 00000000              ... ".......

080097d4 <CAN_1_gpio_out>:
 80097d4:	48028100 0000000c                       ...H....

080097dc <CAN_2_LMO_07_Config>:
 80097dc:	20000290 00000015 00000000              ... ........

080097e8 <BUS_IO_Input_pin_list>:
 80097e8:	48028000 00000007 48028000 00000008     ...H.......H....

080097f8 <BUS_IO_pin_list>:
 80097f8:	48028000 00000009 48028000 0000000a     ...H.......H....
 8009808:	48028000 00000004 48028000 00000005     ...H.......H....
 8009818:	48028000 00000006 48028500 00000002     ...H.......H....
 8009828:	48028500 00000007                       ...H....

08009830 <ANALOG_IO_xRHF>:
 8009830:	00000000 200007f4 48028e00 00000004     ....... ...H....

08009840 <ANALOG_IO_fFR>:
 8009840:	00000000 200007f7 48028e00 00000003     ....... ...H....

08009850 <ANALOG_IO_xClutchSTW>:
 8009850:	00000000 200007fb 48028e00 00000000     ....... ...H....

08009860 <ANALOG_IO_boardTemp>:
 8009860:	00000000 200007f6 48028e00 0000000e     ....... ...H....

08009870 <ANALOG_IO_TR2_I_FAN1>:
 8009870:	00000000 200007f9 48028f00 00000003     ....... ...H....

08009880 <ANALOG_IO_TR3_I_FAN2>:
 8009880:	00000000 200007f2 48028f00 00000008     ....... ...H....

08009890 <ANALOG_IO_fFL>:
 8009890:	00000000 200007f5 48028e00 00000002     ....... ...H....

080098a0 <ANALOG_IO_pbrakeR>:
 80098a0:	00000000 200007f8 48028e00 00000006     ....... ...H....

080098b0 <ANALOG_IO_UBat>:
 80098b0:	00000000 200007f1 48028e00 00000008     ....... ...H....

080098c0 <ANALOG_IO_xClutch>:
 80098c0:	00000000 200007fa 48028e00 00000005     ....... ...H....

080098d0 <ANALOG_IO_TR1_I_WP>:
 80098d0:	00000000 200007f3 48028f00 00000002     ....... ...H....

080098e0 <backgnd_config>:
 80098e0:	00000005 00000000 00000010              ............

080098ec <global_iclass_config>:
 80098ec:	00000000 6b736154 7665525f 65766965     ....Task_Reveive
 80098fc:	73615400 6f4c5f6b 69725077 7361546f     .Task_LowPrioTas
 800990c:	6154006b 545f6b73 736e6172 0074696d     k.Task_Transmit.
 800991c:	6b736154 6172545f 696d736e 6f697373     Task_Transmissio
 800992c:	6154006e 4f5f6b73 6f4c656e 6154706f     n.Task_OneLoopTa
 800993c:	54006b73 72656d69 6172545f 696d736e     sk.Timer_Transmi
 800994c:	6f697373 0000006e 646f6d66 00000000     ssion...fmod....
 800995c:	00000000                                ....

08009960 <Zero>:
	...
 800996c:	80000000 00000043                       ....C...
