   1              	 .syntax unified
   2              	 .cpu cortex-m4
   3              	 .eabi_attribute 27,3
   4              	 .fpu fpv4-sp-d16
   5              	 .eabi_attribute 20,1
   6              	 .eabi_attribute 21,1
   7              	 .eabi_attribute 23,3
   8              	 .eabi_attribute 24,1
   9              	 .eabi_attribute 25,1
  10              	 .eabi_attribute 26,1
  11              	 .eabi_attribute 30,6
  12              	 .eabi_attribute 34,1
  13              	 .eabi_attribute 18,4
  14              	 .thumb
  15              	 .file "xmc4_gpio.c"
  16              	 .text
  17              	.Ltext0:
  18              	 .cfi_sections .debug_frame
  19              	 .section .text.XMC_GPIO_Init,"ax",%progbits
  20              	 .align 2
  21              	 .global XMC_GPIO_Init
  22              	 .thumb
  23              	 .thumb_func
  25              	XMC_GPIO_Init:
  26              	.LFB147:
  27              	 .file 1 "../Libraries/XMCLib/src/xmc4_gpio.c"
   1:../Libraries/XMCLib/src/xmc4_gpio.c **** /**
   2:../Libraries/XMCLib/src/xmc4_gpio.c ****  * @file xmc4_gpio.c
   3:../Libraries/XMCLib/src/xmc4_gpio.c ****  * @date 2017-09-15
   4:../Libraries/XMCLib/src/xmc4_gpio.c ****  *
   5:../Libraries/XMCLib/src/xmc4_gpio.c ****  * @cond
   6:../Libraries/XMCLib/src/xmc4_gpio.c ****  **************************************************************************************************
   7:../Libraries/XMCLib/src/xmc4_gpio.c ****  * XMClib v2.1.24 - XMC Peripheral Driver Library 
   8:../Libraries/XMCLib/src/xmc4_gpio.c ****  *
   9:../Libraries/XMCLib/src/xmc4_gpio.c ****  * Copyright (c) 2015-2019, Infineon Technologies AG
  10:../Libraries/XMCLib/src/xmc4_gpio.c ****  * All rights reserved.                        
  11:../Libraries/XMCLib/src/xmc4_gpio.c ****  *                                             
  12:../Libraries/XMCLib/src/xmc4_gpio.c ****  * Redistribution and use in source and binary forms, with or without modification,are permitted pr
  13:../Libraries/XMCLib/src/xmc4_gpio.c ****  * following conditions are met:   
  14:../Libraries/XMCLib/src/xmc4_gpio.c ****  *                                                                              
  15:../Libraries/XMCLib/src/xmc4_gpio.c ****  * Redistributions of source code must retain the above copyright notice, this list of conditions a
  16:../Libraries/XMCLib/src/xmc4_gpio.c ****  * disclaimer.                        
  17:../Libraries/XMCLib/src/xmc4_gpio.c ****  * 
  18:../Libraries/XMCLib/src/xmc4_gpio.c ****  * Redistributions in binary form must reproduce the above copyright notice, this list of condition
  19:../Libraries/XMCLib/src/xmc4_gpio.c ****  * disclaimer in the documentation and/or other materials provided with the distribution.          
  20:../Libraries/XMCLib/src/xmc4_gpio.c ****  * 
  21:../Libraries/XMCLib/src/xmc4_gpio.c ****  * Neither the name of the copyright holders nor the names of its contributors may be used to endor
  22:../Libraries/XMCLib/src/xmc4_gpio.c ****  * products derived from this software without specific prior written permission.                  
  23:../Libraries/XMCLib/src/xmc4_gpio.c ****  *                                                                              
  24:../Libraries/XMCLib/src/xmc4_gpio.c ****  * THIS SOFTWARE IS PROVIDED BY THE COPYRIGHT HOLDERS AND CONTRIBUTORS "AS IS" AND ANY EXPRESS OR I
  25:../Libraries/XMCLib/src/xmc4_gpio.c ****  * INCLUDING, BUT NOT LIMITED TO, THE IMPLIED WARRANTIES OF MERCHANTABILITY AND FITNESS FOR A PARTI
  26:../Libraries/XMCLib/src/xmc4_gpio.c ****  * DISCLAIMED. IN NO EVENT SHALL THE COPYRIGHT HOLDER OR CONTRIBUTORS BE LIABLE  FOR ANY DIRECT, IN
  27:../Libraries/XMCLib/src/xmc4_gpio.c ****  * SPECIAL, EXEMPLARY, OR CONSEQUENTIAL DAMAGES (INCLUDING, BUT NOT LIMITED TO, PROCUREMENT OF SUBS
  28:../Libraries/XMCLib/src/xmc4_gpio.c ****  * SERVICES; LOSS OF USE, DATA, OR PROFITS; OR BUSINESS INTERRUPTION) HOWEVER CAUSED AND ON ANY THE
  29:../Libraries/XMCLib/src/xmc4_gpio.c ****  * WHETHER IN CONTRACT, STRICT LIABILITY,OR TORT (INCLUDING NEGLIGENCE OR OTHERWISE) ARISING IN ANY
  30:../Libraries/XMCLib/src/xmc4_gpio.c ****  * OF THIS SOFTWARE, EVEN IF ADVISED OF THE POSSIBILITY OF SUCH DAMAGE.                            
  31:../Libraries/XMCLib/src/xmc4_gpio.c ****  *                                                                              
  32:../Libraries/XMCLib/src/xmc4_gpio.c ****  * To improve the quality of the software, users are encouraged to share modifications, enhancement
  33:../Libraries/XMCLib/src/xmc4_gpio.c ****  * Infineon Technologies AG dave@infineon.com).                                                    
  34:../Libraries/XMCLib/src/xmc4_gpio.c ****  **************************************************************************************************
  35:../Libraries/XMCLib/src/xmc4_gpio.c ****  *
  36:../Libraries/XMCLib/src/xmc4_gpio.c ****  * Change History
  37:../Libraries/XMCLib/src/xmc4_gpio.c ****  * --------------
  38:../Libraries/XMCLib/src/xmc4_gpio.c ****  *
  39:../Libraries/XMCLib/src/xmc4_gpio.c ****  * 2015-02-20:
  40:../Libraries/XMCLib/src/xmc4_gpio.c ****  *     - Initial draft <br>
  41:../Libraries/XMCLib/src/xmc4_gpio.c ****  *      
  42:../Libraries/XMCLib/src/xmc4_gpio.c ****  * 2015-06-20:
  43:../Libraries/XMCLib/src/xmc4_gpio.c ****  *     - Removed version macros and declaration of GetDriverVersion API
  44:../Libraries/XMCLib/src/xmc4_gpio.c ****  *
  45:../Libraries/XMCLib/src/xmc4_gpio.c ****  * 2017-09-15:
  46:../Libraries/XMCLib/src/xmc4_gpio.c ****  *     - Fix side effects on output level when programming a pin as input after the same pin in ano
  47:../Libraries/XMCLib/src/xmc4_gpio.c ****  *  
  48:../Libraries/XMCLib/src/xmc4_gpio.c ****  * @endcond
  49:../Libraries/XMCLib/src/xmc4_gpio.c ****  *
  50:../Libraries/XMCLib/src/xmc4_gpio.c ****  */
  51:../Libraries/XMCLib/src/xmc4_gpio.c **** 
  52:../Libraries/XMCLib/src/xmc4_gpio.c **** #include "xmc_gpio.h"
  53:../Libraries/XMCLib/src/xmc4_gpio.c **** 
  54:../Libraries/XMCLib/src/xmc4_gpio.c **** #if UC_FAMILY == XMC4
  55:../Libraries/XMCLib/src/xmc4_gpio.c **** 
  56:../Libraries/XMCLib/src/xmc4_gpio.c **** /*******************************************************************************
  57:../Libraries/XMCLib/src/xmc4_gpio.c ****  * MACROS
  58:../Libraries/XMCLib/src/xmc4_gpio.c ****  *******************************************************************************/
  59:../Libraries/XMCLib/src/xmc4_gpio.c **** 
  60:../Libraries/XMCLib/src/xmc4_gpio.c **** #define PORT_PDR_Msk              PORT0_PDR0_PD0_Msk
  61:../Libraries/XMCLib/src/xmc4_gpio.c **** #define PORT_PDR_Size             (4U)
  62:../Libraries/XMCLib/src/xmc4_gpio.c **** #define PORT_HWSEL_Msk            PORT0_HWSEL_HW0_Msk
  63:../Libraries/XMCLib/src/xmc4_gpio.c **** #define XMC_GPIO_MODE_OE          XMC_GPIO_MODE_OUTPUT_PUSH_PULL
  64:../Libraries/XMCLib/src/xmc4_gpio.c **** 
  65:../Libraries/XMCLib/src/xmc4_gpio.c **** /*******************************************************************************
  66:../Libraries/XMCLib/src/xmc4_gpio.c ****  * API IMPLEMENTATION
  67:../Libraries/XMCLib/src/xmc4_gpio.c ****  *******************************************************************************/
  68:../Libraries/XMCLib/src/xmc4_gpio.c **** 
  69:../Libraries/XMCLib/src/xmc4_gpio.c **** void XMC_GPIO_Init(XMC_GPIO_PORT_t *const port, const uint8_t pin, const XMC_GPIO_CONFIG_t *const c
  70:../Libraries/XMCLib/src/xmc4_gpio.c **** {
  28              	 .loc 1 70 0
  29              	 .cfi_startproc
  30              	 
  31              	 
  32              	 
  33 0000 80B4     	 push {r7}
  34              	 .cfi_def_cfa_offset 4
  35              	 .cfi_offset 7,-4
  36 0002 85B0     	 sub sp,sp,#20
  37              	 .cfi_def_cfa_offset 24
  38 0004 00AF     	 add r7,sp,#0
  39              	 .cfi_def_cfa_register 7
  40 0006 F860     	 str r0,[r7,#12]
  41 0008 0B46     	 mov r3,r1
  42 000a 7A60     	 str r2,[r7,#4]
  43 000c FB72     	 strb r3,[r7,#11]
  71:../Libraries/XMCLib/src/xmc4_gpio.c ****   XMC_ASSERT("XMC_GPIO_Init: Invalid port", XMC_GPIO_CHECK_PORT(port));
  72:../Libraries/XMCLib/src/xmc4_gpio.c ****   XMC_ASSERT("XMC_GPIO_Init: Invalid mode", XMC_GPIO_IsModeValid(config->mode));
  73:../Libraries/XMCLib/src/xmc4_gpio.c ****  
  74:../Libraries/XMCLib/src/xmc4_gpio.c ****   /* Switch to input */
  75:../Libraries/XMCLib/src/xmc4_gpio.c ****   port->IOCR[pin >> 2U] &= (uint32_t)~(PORT_IOCR_PC_Msk << (PORT_IOCR_PC_Size * (pin & 0x3U)));
  44              	 .loc 1 75 0
  45 000e FB7A     	 ldrb r3,[r7,#11]
  46 0010 9B08     	 lsrs r3,r3,#2
  47 0012 DBB2     	 uxtb r3,r3
  48 0014 1846     	 mov r0,r3
  49 0016 FB7A     	 ldrb r3,[r7,#11]
  50 0018 9B08     	 lsrs r3,r3,#2
  51 001a DBB2     	 uxtb r3,r3
  52 001c 1A46     	 mov r2,r3
  53 001e FB68     	 ldr r3,[r7,#12]
  54 0020 0432     	 adds r2,r2,#4
  55 0022 53F82220 	 ldr r2,[r3,r2,lsl#2]
  56 0026 FB7A     	 ldrb r3,[r7,#11]
  57 0028 03F00303 	 and r3,r3,#3
  58 002c DB00     	 lsls r3,r3,#3
  59 002e 1946     	 mov r1,r3
  60 0030 F823     	 movs r3,#248
  61 0032 8B40     	 lsls r3,r3,r1
  62 0034 DB43     	 mvns r3,r3
  63 0036 02EA0301 	 and r1,r2,r3
  64 003a FB68     	 ldr r3,[r7,#12]
  65 003c 021D     	 adds r2,r0,#4
  66 003e 43F82210 	 str r1,[r3,r2,lsl#2]
  76:../Libraries/XMCLib/src/xmc4_gpio.c **** 
  77:../Libraries/XMCLib/src/xmc4_gpio.c ****   /* HW port control is disabled */
  78:../Libraries/XMCLib/src/xmc4_gpio.c ****   port->HWSEL &= ~(uint32_t)((uint32_t)PORT_HWSEL_Msk << ((uint32_t)pin << 1U));
  67              	 .loc 1 78 0
  68 0042 FB68     	 ldr r3,[r7,#12]
  69 0044 5A6F     	 ldr r2,[r3,#116]
  70 0046 FB7A     	 ldrb r3,[r7,#11]
  71 0048 5B00     	 lsls r3,r3,#1
  72 004a 1946     	 mov r1,r3
  73 004c 0323     	 movs r3,#3
  74 004e 8B40     	 lsls r3,r3,r1
  75 0050 DB43     	 mvns r3,r3
  76 0052 1A40     	 ands r2,r2,r3
  77 0054 FB68     	 ldr r3,[r7,#12]
  78 0056 5A67     	 str r2,[r3,#116]
  79:../Libraries/XMCLib/src/xmc4_gpio.c **** 
  80:../Libraries/XMCLib/src/xmc4_gpio.c **** 
  81:../Libraries/XMCLib/src/xmc4_gpio.c ****   /* Enable digital input */
  82:../Libraries/XMCLib/src/xmc4_gpio.c ****   if (XMC_GPIO_CHECK_ANALOG_PORT(port))
  79              	 .loc 1 82 0
  80 0058 FB68     	 ldr r3,[r7,#12]
  81 005a 3A4A     	 ldr r2,.L5
  82 005c 9342     	 cmp r3,r2
  83 005e 03D0     	 beq .L2
  84              	 .loc 1 82 0 is_stmt 0 discriminator 1
  85 0060 FB68     	 ldr r3,[r7,#12]
  86 0062 394A     	 ldr r2,.L5+4
  87 0064 9342     	 cmp r3,r2
  88 0066 0AD1     	 bne .L3
  89              	.L2:
  83:../Libraries/XMCLib/src/xmc4_gpio.c ****   {
  84:../Libraries/XMCLib/src/xmc4_gpio.c ****     port->PDISC &= ~(uint32_t)((uint32_t)0x1U << pin);
  90              	 .loc 1 84 0 is_stmt 1
  91 0068 FB68     	 ldr r3,[r7,#12]
  92 006a 1A6E     	 ldr r2,[r3,#96]
  93 006c FB7A     	 ldrb r3,[r7,#11]
  94 006e 0121     	 movs r1,#1
  95 0070 01FA03F3 	 lsl r3,r1,r3
  96 0074 DB43     	 mvns r3,r3
  97 0076 1A40     	 ands r2,r2,r3
  98 0078 FB68     	 ldr r3,[r7,#12]
  99 007a 1A66     	 str r2,[r3,#96]
 100 007c 42E0     	 b .L4
 101              	.L3:
  85:../Libraries/XMCLib/src/xmc4_gpio.c ****   }
  86:../Libraries/XMCLib/src/xmc4_gpio.c ****   else
  87:../Libraries/XMCLib/src/xmc4_gpio.c ****   {
  88:../Libraries/XMCLib/src/xmc4_gpio.c ****     if ((config->mode & XMC_GPIO_MODE_OE) != 0)
 102              	 .loc 1 88 0
 103 007e 7B68     	 ldr r3,[r7,#4]
 104 0080 1B78     	 ldrb r3,[r3]
 105 0082 DBB2     	 uxtb r3,r3
 106 0084 5BB2     	 sxtb r3,r3
 107 0086 002B     	 cmp r3,#0
 108 0088 3CDA     	 bge .L4
  89:../Libraries/XMCLib/src/xmc4_gpio.c ****     {
  90:../Libraries/XMCLib/src/xmc4_gpio.c ****       /* If output is enabled */
  91:../Libraries/XMCLib/src/xmc4_gpio.c **** 
  92:../Libraries/XMCLib/src/xmc4_gpio.c ****       /* Set output level */
  93:../Libraries/XMCLib/src/xmc4_gpio.c ****       port->OMR = (uint32_t)config->output_level << pin;
 109              	 .loc 1 93 0
 110 008a 7B68     	 ldr r3,[r7,#4]
 111 008c 5A68     	 ldr r2,[r3,#4]
 112 008e FB7A     	 ldrb r3,[r7,#11]
 113 0090 9A40     	 lsls r2,r2,r3
 114 0092 FB68     	 ldr r3,[r7,#12]
 115 0094 5A60     	 str r2,[r3,#4]
  94:../Libraries/XMCLib/src/xmc4_gpio.c **** 
  95:../Libraries/XMCLib/src/xmc4_gpio.c ****       /* Set output driver strength */
  96:../Libraries/XMCLib/src/xmc4_gpio.c ****       port->PDR[pin >> 3U] &= (uint32_t)~(PORT_PDR_Msk << ((uint32_t)PORT_PDR_Size * ((uint32_t)pin
 116              	 .loc 1 96 0
 117 0096 FB7A     	 ldrb r3,[r7,#11]
 118 0098 DB08     	 lsrs r3,r3,#3
 119 009a DBB2     	 uxtb r3,r3
 120 009c 1846     	 mov r0,r3
 121 009e FB7A     	 ldrb r3,[r7,#11]
 122 00a0 DB08     	 lsrs r3,r3,#3
 123 00a2 DBB2     	 uxtb r3,r3
 124 00a4 1A46     	 mov r2,r3
 125 00a6 FB68     	 ldr r3,[r7,#12]
 126 00a8 1032     	 adds r2,r2,#16
 127 00aa 53F82220 	 ldr r2,[r3,r2,lsl#2]
 128 00ae FB7A     	 ldrb r3,[r7,#11]
 129 00b0 03F00703 	 and r3,r3,#7
 130 00b4 9B00     	 lsls r3,r3,#2
 131 00b6 1946     	 mov r1,r3
 132 00b8 0723     	 movs r3,#7
 133 00ba 8B40     	 lsls r3,r3,r1
 134 00bc DB43     	 mvns r3,r3
 135 00be 02EA0301 	 and r1,r2,r3
 136 00c2 FB68     	 ldr r3,[r7,#12]
 137 00c4 00F11002 	 add r2,r0,#16
 138 00c8 43F82210 	 str r1,[r3,r2,lsl#2]
  97:../Libraries/XMCLib/src/xmc4_gpio.c ****       port->PDR[pin >> 3U] |= (uint32_t)config->output_strength << ((uint32_t)PORT_PDR_Size * ((uin
 139              	 .loc 1 97 0
 140 00cc FB7A     	 ldrb r3,[r7,#11]
 141 00ce DB08     	 lsrs r3,r3,#3
 142 00d0 DBB2     	 uxtb r3,r3
 143 00d2 1846     	 mov r0,r3
 144 00d4 FB7A     	 ldrb r3,[r7,#11]
 145 00d6 DB08     	 lsrs r3,r3,#3
 146 00d8 DBB2     	 uxtb r3,r3
 147 00da 1A46     	 mov r2,r3
 148 00dc FB68     	 ldr r3,[r7,#12]
 149 00de 1032     	 adds r2,r2,#16
 150 00e0 53F82220 	 ldr r2,[r3,r2,lsl#2]
 151 00e4 7B68     	 ldr r3,[r7,#4]
 152 00e6 1B7A     	 ldrb r3,[r3,#8]
 153 00e8 1946     	 mov r1,r3
 154 00ea FB7A     	 ldrb r3,[r7,#11]
 155 00ec 03F00703 	 and r3,r3,#7
 156 00f0 9B00     	 lsls r3,r3,#2
 157 00f2 01FA03F3 	 lsl r3,r1,r3
 158 00f6 42EA0301 	 orr r1,r2,r3
 159 00fa FB68     	 ldr r3,[r7,#12]
 160 00fc 00F11002 	 add r2,r0,#16
 161 0100 43F82210 	 str r1,[r3,r2,lsl#2]
 162              	.L4:
  98:../Libraries/XMCLib/src/xmc4_gpio.c ****     }
  99:../Libraries/XMCLib/src/xmc4_gpio.c ****   }
 100:../Libraries/XMCLib/src/xmc4_gpio.c **** 
 101:../Libraries/XMCLib/src/xmc4_gpio.c ****   /* Set mode */
 102:../Libraries/XMCLib/src/xmc4_gpio.c ****   port->IOCR[pin >> 2U] |= (uint32_t)config->mode << ((uint32_t)PORT_IOCR_PC_Size * ((uint32_t)pin 
 163              	 .loc 1 102 0
 164 0104 FB7A     	 ldrb r3,[r7,#11]
 165 0106 9B08     	 lsrs r3,r3,#2
 166 0108 DBB2     	 uxtb r3,r3
 167 010a 1846     	 mov r0,r3
 168 010c FB7A     	 ldrb r3,[r7,#11]
 169 010e 9B08     	 lsrs r3,r3,#2
 170 0110 DBB2     	 uxtb r3,r3
 171 0112 1A46     	 mov r2,r3
 172 0114 FB68     	 ldr r3,[r7,#12]
 173 0116 0432     	 adds r2,r2,#4
 174 0118 53F82220 	 ldr r2,[r3,r2,lsl#2]
 175 011c 7B68     	 ldr r3,[r7,#4]
 176 011e 1B78     	 ldrb r3,[r3]
 177 0120 1946     	 mov r1,r3
 178 0122 FB7A     	 ldrb r3,[r7,#11]
 179 0124 03F00303 	 and r3,r3,#3
 180 0128 DB00     	 lsls r3,r3,#3
 181 012a 01FA03F3 	 lsl r3,r1,r3
 182 012e 42EA0301 	 orr r1,r2,r3
 183 0132 FB68     	 ldr r3,[r7,#12]
 184 0134 021D     	 adds r2,r0,#4
 185 0136 43F82210 	 str r1,[r3,r2,lsl#2]
 103:../Libraries/XMCLib/src/xmc4_gpio.c **** }
 186              	 .loc 1 103 0
 187 013a 1437     	 adds r7,r7,#20
 188              	 .cfi_def_cfa_offset 4
 189 013c BD46     	 mov sp,r7
 190              	 .cfi_def_cfa_register 13
 191              	 
 192 013e 5DF8047B 	 ldr r7,[sp],#4
 193              	 .cfi_restore 7
 194              	 .cfi_def_cfa_offset 0
 195 0142 7047     	 bx lr
 196              	.L6:
 197              	 .align 2
 198              	.L5:
 199 0144 008E0248 	 .word 1208126976
 200 0148 008F0248 	 .word 1208127232
 201              	 .cfi_endproc
 202              	.LFE147:
 204              	 .section .text.XMC_GPIO_SetOutputStrength,"ax",%progbits
 205              	 .align 2
 206              	 .global XMC_GPIO_SetOutputStrength
 207              	 .thumb
 208              	 .thumb_func
 210              	XMC_GPIO_SetOutputStrength:
 211              	.LFB148:
 104:../Libraries/XMCLib/src/xmc4_gpio.c **** 
 105:../Libraries/XMCLib/src/xmc4_gpio.c **** void XMC_GPIO_SetOutputStrength(XMC_GPIO_PORT_t *const port, const uint8_t pin, XMC_GPIO_OUTPUT_STR
 106:../Libraries/XMCLib/src/xmc4_gpio.c **** {
 212              	 .loc 1 106 0
 213              	 .cfi_startproc
 214              	 
 215              	 
 216              	 
 217 0000 80B4     	 push {r7}
 218              	 .cfi_def_cfa_offset 4
 219              	 .cfi_offset 7,-4
 220 0002 83B0     	 sub sp,sp,#12
 221              	 .cfi_def_cfa_offset 16
 222 0004 00AF     	 add r7,sp,#0
 223              	 .cfi_def_cfa_register 7
 224 0006 7860     	 str r0,[r7,#4]
 225 0008 0B46     	 mov r3,r1
 226 000a FB70     	 strb r3,[r7,#3]
 227 000c 1346     	 mov r3,r2
 228 000e BB70     	 strb r3,[r7,#2]
 107:../Libraries/XMCLib/src/xmc4_gpio.c ****   XMC_ASSERT("XMC_GPIO_Init: Invalid port", XMC_GPIO_CHECK_OUTPUT_PORT(port));
 108:../Libraries/XMCLib/src/xmc4_gpio.c ****   XMC_ASSERT("XMC_GPIO_Init: Invalid output strength", XMC_GPIO_CHECK_OUTPUT_STRENGTH(strength));
 109:../Libraries/XMCLib/src/xmc4_gpio.c **** 
 110:../Libraries/XMCLib/src/xmc4_gpio.c ****   port->PDR[pin >> 3U] &= (uint32_t)~((uint32_t)PORT_PDR_Msk << ((uint32_t)PORT_PDR_Size * ((uint32
 229              	 .loc 1 110 0
 230 0010 FB78     	 ldrb r3,[r7,#3]
 231 0012 DB08     	 lsrs r3,r3,#3
 232 0014 DBB2     	 uxtb r3,r3
 233 0016 1846     	 mov r0,r3
 234 0018 FB78     	 ldrb r3,[r7,#3]
 235 001a DB08     	 lsrs r3,r3,#3
 236 001c DBB2     	 uxtb r3,r3
 237 001e 1A46     	 mov r2,r3
 238 0020 7B68     	 ldr r3,[r7,#4]
 239 0022 1032     	 adds r2,r2,#16
 240 0024 53F82220 	 ldr r2,[r3,r2,lsl#2]
 241 0028 FB78     	 ldrb r3,[r7,#3]
 242 002a 03F00703 	 and r3,r3,#7
 243 002e 9B00     	 lsls r3,r3,#2
 244 0030 1946     	 mov r1,r3
 245 0032 0723     	 movs r3,#7
 246 0034 8B40     	 lsls r3,r3,r1
 247 0036 DB43     	 mvns r3,r3
 248 0038 02EA0301 	 and r1,r2,r3
 249 003c 7B68     	 ldr r3,[r7,#4]
 250 003e 00F11002 	 add r2,r0,#16
 251 0042 43F82210 	 str r1,[r3,r2,lsl#2]
 111:../Libraries/XMCLib/src/xmc4_gpio.c ****   port->PDR[pin >> 3U] |= (uint32_t)strength << ((uint32_t)PORT_PDR_Size * ((uint32_t)pin & 0x7U));
 252              	 .loc 1 111 0
 253 0046 FB78     	 ldrb r3,[r7,#3]
 254 0048 DB08     	 lsrs r3,r3,#3
 255 004a DBB2     	 uxtb r3,r3
 256 004c 1846     	 mov r0,r3
 257 004e FB78     	 ldrb r3,[r7,#3]
 258 0050 DB08     	 lsrs r3,r3,#3
 259 0052 DBB2     	 uxtb r3,r3
 260 0054 1A46     	 mov r2,r3
 261 0056 7B68     	 ldr r3,[r7,#4]
 262 0058 1032     	 adds r2,r2,#16
 263 005a 53F82220 	 ldr r2,[r3,r2,lsl#2]
 264 005e BB78     	 ldrb r3,[r7,#2]
 265 0060 F978     	 ldrb r1,[r7,#3]
 266 0062 01F00701 	 and r1,r1,#7
 267 0066 8900     	 lsls r1,r1,#2
 268 0068 8B40     	 lsls r3,r3,r1
 269 006a 42EA0301 	 orr r1,r2,r3
 270 006e 7B68     	 ldr r3,[r7,#4]
 271 0070 00F11002 	 add r2,r0,#16
 272 0074 43F82210 	 str r1,[r3,r2,lsl#2]
 112:../Libraries/XMCLib/src/xmc4_gpio.c **** }
 273              	 .loc 1 112 0
 274 0078 0C37     	 adds r7,r7,#12
 275              	 .cfi_def_cfa_offset 4
 276 007a BD46     	 mov sp,r7
 277              	 .cfi_def_cfa_register 13
 278              	 
 279 007c 5DF8047B 	 ldr r7,[sp],#4
 280              	 .cfi_restore 7
 281              	 .cfi_def_cfa_offset 0
 282 0080 7047     	 bx lr
 283              	 .cfi_endproc
 284              	.LFE148:
 286 0082 00BF     	 .text
 287              	.Letext0:
 288              	 .file 2 "c:\\infineon\\tools\\dave ide\\4.5.0.202105191637\\eclipse\\arm-gcc-49\\arm-none-eabi\\include\\machine\\_default_types.h"
 289              	 .file 3 "c:\\infineon\\tools\\dave ide\\4.5.0.202105191637\\eclipse\\arm-gcc-49\\arm-none-eabi\\include\\stdint.h"
 290              	 .file 4 "C:/Users/Yoshi/Documents/GitHub/Software/01_jrg/04_CANModule/CAN_Modul_keckvale_AH/Libraries/XMCLib/inc/xmc_gpio.h"
 291              	 .file 5 "C:/Users/Yoshi/Documents/GitHub/Software/01_jrg/04_CANModule/CAN_Modul_keckvale_AH/Libraries/XMCLib/inc/xmc4_gpio.h"
 292              	 .file 6 "C:/Users/Yoshi/Documents/GitHub/Software/01_jrg/04_CANModule/CAN_Modul_keckvale_AH/Libraries/CMSIS/Include/cmsis_gcc.h"
 293              	 .file 7 "C:/Users/Yoshi/Documents/GitHub/Software/01_jrg/04_CANModule/CAN_Modul_keckvale_AH/Libraries/CMSIS/Include/core_cm4.h"