   1              	 .syntax unified
   2              	 .cpu cortex-m4
   3              	 .eabi_attribute 27,3
   4              	 .fpu fpv4-sp-d16
   5              	 .eabi_attribute 20,1
   6              	 .eabi_attribute 21,1
   7              	 .eabi_attribute 23,3
   8              	 .eabi_attribute 24,1
   9              	 .eabi_attribute 25,1
  10              	 .eabi_attribute 26,1
  11              	 .eabi_attribute 30,6
  12              	 .eabi_attribute 34,1
  13              	 .eabi_attribute 18,4
  14              	 .thumb
  15              	 .file "xmc_gpio.c"
  16              	 .text
  17              	.Ltext0:
  18              	 .cfi_sections .debug_frame
  19              	 .section .text.XMC_GPIO_SetMode,"ax",%progbits
  20              	 .align 2
  21              	 .global XMC_GPIO_SetMode
  22              	 .thumb
  23              	 .thumb_func
  25              	XMC_GPIO_SetMode:
  26              	.LFB147:
  27              	 .file 1 "../Libraries/XMCLib/src/xmc_gpio.c"
   1:../Libraries/XMCLib/src/xmc_gpio.c **** /**
   2:../Libraries/XMCLib/src/xmc_gpio.c ****  * @file xmc_gpio.c
   3:../Libraries/XMCLib/src/xmc_gpio.c ****  * @date 2015-06-20
   4:../Libraries/XMCLib/src/xmc_gpio.c ****  *
   5:../Libraries/XMCLib/src/xmc_gpio.c ****  * @cond
   6:../Libraries/XMCLib/src/xmc_gpio.c ****  **************************************************************************************************
   7:../Libraries/XMCLib/src/xmc_gpio.c ****  * XMClib v2.1.24 - XMC Peripheral Driver Library 
   8:../Libraries/XMCLib/src/xmc_gpio.c ****  *
   9:../Libraries/XMCLib/src/xmc_gpio.c ****  * Copyright (c) 2015-2019, Infineon Technologies AG
  10:../Libraries/XMCLib/src/xmc_gpio.c ****  * All rights reserved.                        
  11:../Libraries/XMCLib/src/xmc_gpio.c ****  *                                             
  12:../Libraries/XMCLib/src/xmc_gpio.c ****  * Redistribution and use in source and binary forms, with or without modification,are permitted pr
  13:../Libraries/XMCLib/src/xmc_gpio.c ****  * following conditions are met:   
  14:../Libraries/XMCLib/src/xmc_gpio.c ****  *                                                                              
  15:../Libraries/XMCLib/src/xmc_gpio.c ****  * Redistributions of source code must retain the above copyright notice, this list of conditions a
  16:../Libraries/XMCLib/src/xmc_gpio.c ****  * disclaimer.                        
  17:../Libraries/XMCLib/src/xmc_gpio.c ****  * 
  18:../Libraries/XMCLib/src/xmc_gpio.c ****  * Redistributions in binary form must reproduce the above copyright notice, this list of condition
  19:../Libraries/XMCLib/src/xmc_gpio.c ****  * disclaimer in the documentation and/or other materials provided with the distribution.          
  20:../Libraries/XMCLib/src/xmc_gpio.c ****  * 
  21:../Libraries/XMCLib/src/xmc_gpio.c ****  * Neither the name of the copyright holders nor the names of its contributors may be used to endor
  22:../Libraries/XMCLib/src/xmc_gpio.c ****  * products derived from this software without specific prior written permission.                  
  23:../Libraries/XMCLib/src/xmc_gpio.c ****  *                                                                              
  24:../Libraries/XMCLib/src/xmc_gpio.c ****  * THIS SOFTWARE IS PROVIDED BY THE COPYRIGHT HOLDERS AND CONTRIBUTORS "AS IS" AND ANY EXPRESS OR I
  25:../Libraries/XMCLib/src/xmc_gpio.c ****  * INCLUDING, BUT NOT LIMITED TO, THE IMPLIED WARRANTIES OF MERCHANTABILITY AND FITNESS FOR A PARTI
  26:../Libraries/XMCLib/src/xmc_gpio.c ****  * DISCLAIMED. IN NO EVENT SHALL THE COPYRIGHT HOLDER OR CONTRIBUTORS BE LIABLE  FOR ANY DIRECT, IN
  27:../Libraries/XMCLib/src/xmc_gpio.c ****  * SPECIAL, EXEMPLARY, OR CONSEQUENTIAL DAMAGES (INCLUDING, BUT NOT LIMITED TO, PROCUREMENT OF SUBS
  28:../Libraries/XMCLib/src/xmc_gpio.c ****  * SERVICES; LOSS OF USE, DATA, OR PROFITS; OR BUSINESS INTERRUPTION) HOWEVER CAUSED AND ON ANY THE
  29:../Libraries/XMCLib/src/xmc_gpio.c ****  * WHETHER IN CONTRACT, STRICT LIABILITY,OR TORT (INCLUDING NEGLIGENCE OR OTHERWISE) ARISING IN ANY
  30:../Libraries/XMCLib/src/xmc_gpio.c ****  * OF THIS SOFTWARE, EVEN IF ADVISED OF THE POSSIBILITY OF SUCH DAMAGE.                            
  31:../Libraries/XMCLib/src/xmc_gpio.c ****  *                                                                              
  32:../Libraries/XMCLib/src/xmc_gpio.c ****  * To improve the quality of the software, users are encouraged to share modifications, enhancement
  33:../Libraries/XMCLib/src/xmc_gpio.c ****  * Infineon Technologies AG dave@infineon.com).                                                    
  34:../Libraries/XMCLib/src/xmc_gpio.c ****  **************************************************************************************************
  35:../Libraries/XMCLib/src/xmc_gpio.c ****  *
  36:../Libraries/XMCLib/src/xmc_gpio.c ****  * Change History
  37:../Libraries/XMCLib/src/xmc_gpio.c ****  * --------------
  38:../Libraries/XMCLib/src/xmc_gpio.c ****  *
  39:../Libraries/XMCLib/src/xmc_gpio.c ****  * 2015-02-20:
  40:../Libraries/XMCLib/src/xmc_gpio.c ****  *     - Initial draft <br>
  41:../Libraries/XMCLib/src/xmc_gpio.c ****  *      
  42:../Libraries/XMCLib/src/xmc_gpio.c ****  * 2015-06-20:
  43:../Libraries/XMCLib/src/xmc_gpio.c ****  *     - Removed version macros and declaration of GetDriverVersion API
  44:../Libraries/XMCLib/src/xmc_gpio.c ****  *
  45:../Libraries/XMCLib/src/xmc_gpio.c ****  * @endcond
  46:../Libraries/XMCLib/src/xmc_gpio.c ****  *
  47:../Libraries/XMCLib/src/xmc_gpio.c ****  */
  48:../Libraries/XMCLib/src/xmc_gpio.c **** 
  49:../Libraries/XMCLib/src/xmc_gpio.c **** /*******************************************************************************
  50:../Libraries/XMCLib/src/xmc_gpio.c ****  * HEADER FILES
  51:../Libraries/XMCLib/src/xmc_gpio.c ****  *******************************************************************************/
  52:../Libraries/XMCLib/src/xmc_gpio.c **** 
  53:../Libraries/XMCLib/src/xmc_gpio.c **** #include <xmc_gpio.h>
  54:../Libraries/XMCLib/src/xmc_gpio.c **** 
  55:../Libraries/XMCLib/src/xmc_gpio.c **** /*******************************************************************************
  56:../Libraries/XMCLib/src/xmc_gpio.c ****  * MACROS
  57:../Libraries/XMCLib/src/xmc_gpio.c ****  *******************************************************************************/
  58:../Libraries/XMCLib/src/xmc_gpio.c **** 
  59:../Libraries/XMCLib/src/xmc_gpio.c **** #define PORT_HWSEL_Msk PORT0_HWSEL_HW0_Msk
  60:../Libraries/XMCLib/src/xmc_gpio.c **** 
  61:../Libraries/XMCLib/src/xmc_gpio.c **** /*******************************************************************************
  62:../Libraries/XMCLib/src/xmc_gpio.c ****  * API IMPLEMENTATION
  63:../Libraries/XMCLib/src/xmc_gpio.c ****  *******************************************************************************/
  64:../Libraries/XMCLib/src/xmc_gpio.c **** 
  65:../Libraries/XMCLib/src/xmc_gpio.c **** void XMC_GPIO_SetMode(XMC_GPIO_PORT_t *const port, const uint8_t pin, const XMC_GPIO_MODE_t mode)
  66:../Libraries/XMCLib/src/xmc_gpio.c **** {
  28              	 .loc 1 66 0
  29              	 .cfi_startproc
  30              	 
  31              	 
  32              	 
  33 0000 80B4     	 push {r7}
  34              	 .cfi_def_cfa_offset 4
  35              	 .cfi_offset 7,-4
  36 0002 83B0     	 sub sp,sp,#12
  37              	 .cfi_def_cfa_offset 16
  38 0004 00AF     	 add r7,sp,#0
  39              	 .cfi_def_cfa_register 7
  40 0006 7860     	 str r0,[r7,#4]
  41 0008 0B46     	 mov r3,r1
  42 000a FB70     	 strb r3,[r7,#3]
  43 000c 1346     	 mov r3,r2
  44 000e BB70     	 strb r3,[r7,#2]
  67:../Libraries/XMCLib/src/xmc_gpio.c ****   XMC_ASSERT("XMC_GPIO_SetMode: Invalid port", XMC_GPIO_CHECK_PORT(port));
  68:../Libraries/XMCLib/src/xmc_gpio.c ****   XMC_ASSERT("XMC_GPIO_SetMode: Invalid mode", XMC_GPIO_IsModeValid(mode));
  69:../Libraries/XMCLib/src/xmc_gpio.c **** 
  70:../Libraries/XMCLib/src/xmc_gpio.c ****   port->IOCR[(uint32_t)pin >> 2U] &= ~(uint32_t)((uint32_t)PORT_IOCR_PC_Msk << ((uint32_t)PORT_IOCR
  45              	 .loc 1 70 0
  46 0010 FB78     	 ldrb r3,[r7,#3]
  47 0012 9B08     	 lsrs r3,r3,#2
  48 0014 DBB2     	 uxtb r3,r3
  49 0016 1846     	 mov r0,r3
  50 0018 FB78     	 ldrb r3,[r7,#3]
  51 001a 9B08     	 lsrs r3,r3,#2
  52 001c DBB2     	 uxtb r3,r3
  53 001e 1A46     	 mov r2,r3
  54 0020 7B68     	 ldr r3,[r7,#4]
  55 0022 0432     	 adds r2,r2,#4
  56 0024 53F82220 	 ldr r2,[r3,r2,lsl#2]
  57 0028 FB78     	 ldrb r3,[r7,#3]
  58 002a 03F00303 	 and r3,r3,#3
  59 002e DB00     	 lsls r3,r3,#3
  60 0030 1946     	 mov r1,r3
  61 0032 F823     	 movs r3,#248
  62 0034 8B40     	 lsls r3,r3,r1
  63 0036 DB43     	 mvns r3,r3
  64 0038 02EA0301 	 and r1,r2,r3
  65 003c 7B68     	 ldr r3,[r7,#4]
  66 003e 021D     	 adds r2,r0,#4
  67 0040 43F82210 	 str r1,[r3,r2,lsl#2]
  71:../Libraries/XMCLib/src/xmc_gpio.c ****   port->IOCR[(uint32_t)pin >> 2U] |= (uint32_t)mode << ((uint32_t)PORT_IOCR_PC_Size * ((uint32_t)pi
  68              	 .loc 1 71 0
  69 0044 FB78     	 ldrb r3,[r7,#3]
  70 0046 9B08     	 lsrs r3,r3,#2
  71 0048 DBB2     	 uxtb r3,r3
  72 004a 1846     	 mov r0,r3
  73 004c FB78     	 ldrb r3,[r7,#3]
  74 004e 9B08     	 lsrs r3,r3,#2
  75 0050 DBB2     	 uxtb r3,r3
  76 0052 1A46     	 mov r2,r3
  77 0054 7B68     	 ldr r3,[r7,#4]
  78 0056 0432     	 adds r2,r2,#4
  79 0058 53F82220 	 ldr r2,[r3,r2,lsl#2]
  80 005c BB78     	 ldrb r3,[r7,#2]
  81 005e F978     	 ldrb r1,[r7,#3]
  82 0060 01F00301 	 and r1,r1,#3
  83 0064 C900     	 lsls r1,r1,#3
  84 0066 8B40     	 lsls r3,r3,r1
  85 0068 42EA0301 	 orr r1,r2,r3
  86 006c 7B68     	 ldr r3,[r7,#4]
  87 006e 021D     	 adds r2,r0,#4
  88 0070 43F82210 	 str r1,[r3,r2,lsl#2]
  72:../Libraries/XMCLib/src/xmc_gpio.c **** }
  89              	 .loc 1 72 0
  90 0074 0C37     	 adds r7,r7,#12
  91              	 .cfi_def_cfa_offset 4
  92 0076 BD46     	 mov sp,r7
  93              	 .cfi_def_cfa_register 13
  94              	 
  95 0078 5DF8047B 	 ldr r7,[sp],#4
  96              	 .cfi_restore 7
  97              	 .cfi_def_cfa_offset 0
  98 007c 7047     	 bx lr
  99              	 .cfi_endproc
 100              	.LFE147:
 102 007e 00BF     	 .section .text.XMC_GPIO_SetHardwareControl,"ax",%progbits
 103              	 .align 2
 104              	 .global XMC_GPIO_SetHardwareControl
 105              	 .thumb
 106              	 .thumb_func
 108              	XMC_GPIO_SetHardwareControl:
 109              	.LFB148:
  73:../Libraries/XMCLib/src/xmc_gpio.c **** 
  74:../Libraries/XMCLib/src/xmc_gpio.c **** void XMC_GPIO_SetHardwareControl(XMC_GPIO_PORT_t *const port, const uint8_t pin, const XMC_GPIO_HWC
  75:../Libraries/XMCLib/src/xmc_gpio.c **** {
 110              	 .loc 1 75 0
 111              	 .cfi_startproc
 112              	 
 113              	 
 114              	 
 115 0000 80B4     	 push {r7}
 116              	 .cfi_def_cfa_offset 4
 117              	 .cfi_offset 7,-4
 118 0002 83B0     	 sub sp,sp,#12
 119              	 .cfi_def_cfa_offset 16
 120 0004 00AF     	 add r7,sp,#0
 121              	 .cfi_def_cfa_register 7
 122 0006 7860     	 str r0,[r7,#4]
 123 0008 0B46     	 mov r3,r1
 124 000a FB70     	 strb r3,[r7,#3]
 125 000c 1346     	 mov r3,r2
 126 000e BB70     	 strb r3,[r7,#2]
  76:../Libraries/XMCLib/src/xmc_gpio.c ****   XMC_ASSERT("XMC_GPIO_SetHardwareControl: Invalid port", XMC_GPIO_CHECK_PORT(port));
  77:../Libraries/XMCLib/src/xmc_gpio.c ****   XMC_ASSERT("XMC_GPIO_SetHardwareControl: Invalid hwctrl", XMC_GPIO_CHECK_HWCTRL(hwctrl));
  78:../Libraries/XMCLib/src/xmc_gpio.c **** 
  79:../Libraries/XMCLib/src/xmc_gpio.c ****   port->HWSEL &= ~(uint32_t)((uint32_t)PORT_HWSEL_Msk << ((uint32_t)pin << 1U));
 127              	 .loc 1 79 0
 128 0010 7B68     	 ldr r3,[r7,#4]
 129 0012 5A6F     	 ldr r2,[r3,#116]
 130 0014 FB78     	 ldrb r3,[r7,#3]
 131 0016 5B00     	 lsls r3,r3,#1
 132 0018 1946     	 mov r1,r3
 133 001a 0323     	 movs r3,#3
 134 001c 8B40     	 lsls r3,r3,r1
 135 001e DB43     	 mvns r3,r3
 136 0020 1A40     	 ands r2,r2,r3
 137 0022 7B68     	 ldr r3,[r7,#4]
 138 0024 5A67     	 str r2,[r3,#116]
  80:../Libraries/XMCLib/src/xmc_gpio.c ****   port->HWSEL |= (uint32_t)hwctrl << ((uint32_t)pin << 1U);
 139              	 .loc 1 80 0
 140 0026 7B68     	 ldr r3,[r7,#4]
 141 0028 5A6F     	 ldr r2,[r3,#116]
 142 002a BB78     	 ldrb r3,[r7,#2]
 143 002c F978     	 ldrb r1,[r7,#3]
 144 002e 4900     	 lsls r1,r1,#1
 145 0030 8B40     	 lsls r3,r3,r1
 146 0032 1A43     	 orrs r2,r2,r3
 147 0034 7B68     	 ldr r3,[r7,#4]
 148 0036 5A67     	 str r2,[r3,#116]
  81:../Libraries/XMCLib/src/xmc_gpio.c **** }
 149              	 .loc 1 81 0
 150 0038 0C37     	 adds r7,r7,#12
 151              	 .cfi_def_cfa_offset 4
 152 003a BD46     	 mov sp,r7
 153              	 .cfi_def_cfa_register 13
 154              	 
 155 003c 5DF8047B 	 ldr r7,[sp],#4
 156              	 .cfi_restore 7
 157              	 .cfi_def_cfa_offset 0
 158 0040 7047     	 bx lr
 159              	 .cfi_endproc
 160              	.LFE148:
 162 0042 00BF     	 .text
 163              	.Letext0:
 164              	 .file 2 "c:\\infineon\\tools\\dave ide\\4.5.0.202105191637\\eclipse\\arm-gcc-49\\arm-none-eabi\\include\\machine\\_default_types.h"
 165              	 .file 3 "c:\\infineon\\tools\\dave ide\\4.5.0.202105191637\\eclipse\\arm-gcc-49\\arm-none-eabi\\include\\stdint.h"
 166              	 .file 4 "C:/Users/Yoshi/Documents/GitHub/Software/01_jrg/04_CANModule/CAN_Modul_keckvale_AH/Libraries/XMCLib/inc/xmc_gpio.h"
 167              	 .file 5 "C:/Users/Yoshi/Documents/GitHub/Software/01_jrg/04_CANModule/CAN_Modul_keckvale_AH/Libraries/XMCLib/inc/xmc4_gpio.h"
 168              	 .file 6 "C:/Users/Yoshi/Documents/GitHub/Software/01_jrg/04_CANModule/CAN_Modul_keckvale_AH/Libraries/CMSIS/Include/cmsis_gcc.h"
 169              	 .file 7 "C:/Users/Yoshi/Documents/GitHub/Software/01_jrg/04_CANModule/CAN_Modul_keckvale_AH/Libraries/CMSIS/Include/core_cm4.h"