   1              	 .syntax unified
   2              	 .cpu cortex-m4
   3              	 .eabi_attribute 27,3
   4              	 .fpu fpv4-sp-d16
   5              	 .eabi_attribute 20,1
   6              	 .eabi_attribute 21,1
   7              	 .eabi_attribute 23,3
   8              	 .eabi_attribute 24,1
   9              	 .eabi_attribute 25,1
  10              	 .eabi_attribute 26,1
  11              	 .eabi_attribute 30,6
  12              	 .eabi_attribute 34,1
  13              	 .eabi_attribute 18,4
  14              	 .thumb
  15              	 .file "IO_Port.c"
  16              	 .text
  17              	.Ltext0:
  18              	 .cfi_sections .debug_frame
  19              	 .section .text.XMC_GPIO_GetInput,"ax",%progbits
  20              	 .align 2
  21              	 .thumb
  22              	 .thumb_func
  24              	XMC_GPIO_GetInput:
  25              	.LFB180:
  26              	 .file 1 "C:/Users/Yoshi/Documents/GitHub/Software/01_jrg/03_VCUJR20/2021_04_29_VCU_jr20_Source/Libraries/XMCLib/inc/xmc_gpio.h"
   1:C:/Users/Yoshi/Documents/GitHub/Software/01_jrg/03_VCUJR20/2021_04_29_VCU_jr20_Source/Libraries/XMCLib/inc\xmc_gpio.h **** /**
   2:C:/Users/Yoshi/Documents/GitHub/Software/01_jrg/03_VCUJR20/2021_04_29_VCU_jr20_Source/Libraries/XMCLib/inc\xmc_gpio.h ****  * @file xmc_gpio.h
   3:C:/Users/Yoshi/Documents/GitHub/Software/01_jrg/03_VCUJR20/2021_04_29_VCU_jr20_Source/Libraries/XMCLib/inc\xmc_gpio.h ****  * @date 2015-06-20
   4:C:/Users/Yoshi/Documents/GitHub/Software/01_jrg/03_VCUJR20/2021_04_29_VCU_jr20_Source/Libraries/XMCLib/inc\xmc_gpio.h ****  *
   5:C:/Users/Yoshi/Documents/GitHub/Software/01_jrg/03_VCUJR20/2021_04_29_VCU_jr20_Source/Libraries/XMCLib/inc\xmc_gpio.h ****  * @cond
   6:C:/Users/Yoshi/Documents/GitHub/Software/01_jrg/03_VCUJR20/2021_04_29_VCU_jr20_Source/Libraries/XMCLib/inc\xmc_gpio.h ****  **************************************************************************************************
   7:C:/Users/Yoshi/Documents/GitHub/Software/01_jrg/03_VCUJR20/2021_04_29_VCU_jr20_Source/Libraries/XMCLib/inc\xmc_gpio.h ****  * XMClib v2.1.24 - XMC Peripheral Driver Library 
   8:C:/Users/Yoshi/Documents/GitHub/Software/01_jrg/03_VCUJR20/2021_04_29_VCU_jr20_Source/Libraries/XMCLib/inc\xmc_gpio.h ****  *
   9:C:/Users/Yoshi/Documents/GitHub/Software/01_jrg/03_VCUJR20/2021_04_29_VCU_jr20_Source/Libraries/XMCLib/inc\xmc_gpio.h ****  * Copyright (c) 2015-2019, Infineon Technologies AG
  10:C:/Users/Yoshi/Documents/GitHub/Software/01_jrg/03_VCUJR20/2021_04_29_VCU_jr20_Source/Libraries/XMCLib/inc\xmc_gpio.h ****  * All rights reserved.                        
  11:C:/Users/Yoshi/Documents/GitHub/Software/01_jrg/03_VCUJR20/2021_04_29_VCU_jr20_Source/Libraries/XMCLib/inc\xmc_gpio.h ****  *                                             
  12:C:/Users/Yoshi/Documents/GitHub/Software/01_jrg/03_VCUJR20/2021_04_29_VCU_jr20_Source/Libraries/XMCLib/inc\xmc_gpio.h ****  * Redistribution and use in source and binary forms, with or without modification,are permitted pr
  13:C:/Users/Yoshi/Documents/GitHub/Software/01_jrg/03_VCUJR20/2021_04_29_VCU_jr20_Source/Libraries/XMCLib/inc\xmc_gpio.h ****  * following conditions are met:   
  14:C:/Users/Yoshi/Documents/GitHub/Software/01_jrg/03_VCUJR20/2021_04_29_VCU_jr20_Source/Libraries/XMCLib/inc\xmc_gpio.h ****  *                                                                              
  15:C:/Users/Yoshi/Documents/GitHub/Software/01_jrg/03_VCUJR20/2021_04_29_VCU_jr20_Source/Libraries/XMCLib/inc\xmc_gpio.h ****  * Redistributions of source code must retain the above copyright notice, this list of conditions a
  16:C:/Users/Yoshi/Documents/GitHub/Software/01_jrg/03_VCUJR20/2021_04_29_VCU_jr20_Source/Libraries/XMCLib/inc\xmc_gpio.h ****  * disclaimer.                        
  17:C:/Users/Yoshi/Documents/GitHub/Software/01_jrg/03_VCUJR20/2021_04_29_VCU_jr20_Source/Libraries/XMCLib/inc\xmc_gpio.h ****  * 
  18:C:/Users/Yoshi/Documents/GitHub/Software/01_jrg/03_VCUJR20/2021_04_29_VCU_jr20_Source/Libraries/XMCLib/inc\xmc_gpio.h ****  * Redistributions in binary form must reproduce the above copyright notice, this list of condition
  19:C:/Users/Yoshi/Documents/GitHub/Software/01_jrg/03_VCUJR20/2021_04_29_VCU_jr20_Source/Libraries/XMCLib/inc\xmc_gpio.h ****  * disclaimer in the documentation and/or other materials provided with the distribution.          
  20:C:/Users/Yoshi/Documents/GitHub/Software/01_jrg/03_VCUJR20/2021_04_29_VCU_jr20_Source/Libraries/XMCLib/inc\xmc_gpio.h ****  * 
  21:C:/Users/Yoshi/Documents/GitHub/Software/01_jrg/03_VCUJR20/2021_04_29_VCU_jr20_Source/Libraries/XMCLib/inc\xmc_gpio.h ****  * Neither the name of the copyright holders nor the names of its contributors may be used to endor
  22:C:/Users/Yoshi/Documents/GitHub/Software/01_jrg/03_VCUJR20/2021_04_29_VCU_jr20_Source/Libraries/XMCLib/inc\xmc_gpio.h ****  * products derived from this software without specific prior written permission.                  
  23:C:/Users/Yoshi/Documents/GitHub/Software/01_jrg/03_VCUJR20/2021_04_29_VCU_jr20_Source/Libraries/XMCLib/inc\xmc_gpio.h ****  *                                                                              
  24:C:/Users/Yoshi/Documents/GitHub/Software/01_jrg/03_VCUJR20/2021_04_29_VCU_jr20_Source/Libraries/XMCLib/inc\xmc_gpio.h ****  * THIS SOFTWARE IS PROVIDED BY THE COPYRIGHT HOLDERS AND CONTRIBUTORS "AS IS" AND ANY EXPRESS OR I
  25:C:/Users/Yoshi/Documents/GitHub/Software/01_jrg/03_VCUJR20/2021_04_29_VCU_jr20_Source/Libraries/XMCLib/inc\xmc_gpio.h ****  * INCLUDING, BUT NOT LIMITED TO, THE IMPLIED WARRANTIES OF MERCHANTABILITY AND FITNESS FOR A PARTI
  26:C:/Users/Yoshi/Documents/GitHub/Software/01_jrg/03_VCUJR20/2021_04_29_VCU_jr20_Source/Libraries/XMCLib/inc\xmc_gpio.h ****  * DISCLAIMED. IN NO EVENT SHALL THE COPYRIGHT HOLDER OR CONTRIBUTORS BE LIABLE  FOR ANY DIRECT, IN
  27:C:/Users/Yoshi/Documents/GitHub/Software/01_jrg/03_VCUJR20/2021_04_29_VCU_jr20_Source/Libraries/XMCLib/inc\xmc_gpio.h ****  * SPECIAL, EXEMPLARY, OR CONSEQUENTIAL DAMAGES (INCLUDING, BUT NOT LIMITED TO, PROCUREMENT OF SUBS
  28:C:/Users/Yoshi/Documents/GitHub/Software/01_jrg/03_VCUJR20/2021_04_29_VCU_jr20_Source/Libraries/XMCLib/inc\xmc_gpio.h ****  * SERVICES; LOSS OF USE, DATA, OR PROFITS; OR BUSINESS INTERRUPTION) HOWEVER CAUSED AND ON ANY THE
  29:C:/Users/Yoshi/Documents/GitHub/Software/01_jrg/03_VCUJR20/2021_04_29_VCU_jr20_Source/Libraries/XMCLib/inc\xmc_gpio.h ****  * WHETHER IN CONTRACT, STRICT LIABILITY,OR TORT (INCLUDING NEGLIGENCE OR OTHERWISE) ARISING IN ANY
  30:C:/Users/Yoshi/Documents/GitHub/Software/01_jrg/03_VCUJR20/2021_04_29_VCU_jr20_Source/Libraries/XMCLib/inc\xmc_gpio.h ****  * OF THIS SOFTWARE, EVEN IF ADVISED OF THE POSSIBILITY OF SUCH DAMAGE.                            
  31:C:/Users/Yoshi/Documents/GitHub/Software/01_jrg/03_VCUJR20/2021_04_29_VCU_jr20_Source/Libraries/XMCLib/inc\xmc_gpio.h ****  *                                                                              
  32:C:/Users/Yoshi/Documents/GitHub/Software/01_jrg/03_VCUJR20/2021_04_29_VCU_jr20_Source/Libraries/XMCLib/inc\xmc_gpio.h ****  * To improve the quality of the software, users are encouraged to share modifications, enhancement
  33:C:/Users/Yoshi/Documents/GitHub/Software/01_jrg/03_VCUJR20/2021_04_29_VCU_jr20_Source/Libraries/XMCLib/inc\xmc_gpio.h ****  * Infineon Technologies AG dave@infineon.com).                                                    
  34:C:/Users/Yoshi/Documents/GitHub/Software/01_jrg/03_VCUJR20/2021_04_29_VCU_jr20_Source/Libraries/XMCLib/inc\xmc_gpio.h ****  **************************************************************************************************
  35:C:/Users/Yoshi/Documents/GitHub/Software/01_jrg/03_VCUJR20/2021_04_29_VCU_jr20_Source/Libraries/XMCLib/inc\xmc_gpio.h ****  *
  36:C:/Users/Yoshi/Documents/GitHub/Software/01_jrg/03_VCUJR20/2021_04_29_VCU_jr20_Source/Libraries/XMCLib/inc\xmc_gpio.h ****  * Change History
  37:C:/Users/Yoshi/Documents/GitHub/Software/01_jrg/03_VCUJR20/2021_04_29_VCU_jr20_Source/Libraries/XMCLib/inc\xmc_gpio.h ****  * --------------
  38:C:/Users/Yoshi/Documents/GitHub/Software/01_jrg/03_VCUJR20/2021_04_29_VCU_jr20_Source/Libraries/XMCLib/inc\xmc_gpio.h ****  *
  39:C:/Users/Yoshi/Documents/GitHub/Software/01_jrg/03_VCUJR20/2021_04_29_VCU_jr20_Source/Libraries/XMCLib/inc\xmc_gpio.h ****  * 2015-02-20:
  40:C:/Users/Yoshi/Documents/GitHub/Software/01_jrg/03_VCUJR20/2021_04_29_VCU_jr20_Source/Libraries/XMCLib/inc\xmc_gpio.h ****  *     - Initial draft<br>
  41:C:/Users/Yoshi/Documents/GitHub/Software/01_jrg/03_VCUJR20/2021_04_29_VCU_jr20_Source/Libraries/XMCLib/inc\xmc_gpio.h ****  *     - Documentation improved <br>
  42:C:/Users/Yoshi/Documents/GitHub/Software/01_jrg/03_VCUJR20/2021_04_29_VCU_jr20_Source/Libraries/XMCLib/inc\xmc_gpio.h ****  *      
  43:C:/Users/Yoshi/Documents/GitHub/Software/01_jrg/03_VCUJR20/2021_04_29_VCU_jr20_Source/Libraries/XMCLib/inc\xmc_gpio.h ****  * 2015-06-20:
  44:C:/Users/Yoshi/Documents/GitHub/Software/01_jrg/03_VCUJR20/2021_04_29_VCU_jr20_Source/Libraries/XMCLib/inc\xmc_gpio.h ****  *     - Removed version macros and declaration of GetDriverVersion API
  45:C:/Users/Yoshi/Documents/GitHub/Software/01_jrg/03_VCUJR20/2021_04_29_VCU_jr20_Source/Libraries/XMCLib/inc\xmc_gpio.h ****  *
  46:C:/Users/Yoshi/Documents/GitHub/Software/01_jrg/03_VCUJR20/2021_04_29_VCU_jr20_Source/Libraries/XMCLib/inc\xmc_gpio.h ****  * @endcond
  47:C:/Users/Yoshi/Documents/GitHub/Software/01_jrg/03_VCUJR20/2021_04_29_VCU_jr20_Source/Libraries/XMCLib/inc\xmc_gpio.h ****  *
  48:C:/Users/Yoshi/Documents/GitHub/Software/01_jrg/03_VCUJR20/2021_04_29_VCU_jr20_Source/Libraries/XMCLib/inc\xmc_gpio.h ****  */
  49:C:/Users/Yoshi/Documents/GitHub/Software/01_jrg/03_VCUJR20/2021_04_29_VCU_jr20_Source/Libraries/XMCLib/inc\xmc_gpio.h **** 
  50:C:/Users/Yoshi/Documents/GitHub/Software/01_jrg/03_VCUJR20/2021_04_29_VCU_jr20_Source/Libraries/XMCLib/inc\xmc_gpio.h **** #ifndef XMC_GPIO_H
  51:C:/Users/Yoshi/Documents/GitHub/Software/01_jrg/03_VCUJR20/2021_04_29_VCU_jr20_Source/Libraries/XMCLib/inc\xmc_gpio.h **** #define XMC_GPIO_H
  52:C:/Users/Yoshi/Documents/GitHub/Software/01_jrg/03_VCUJR20/2021_04_29_VCU_jr20_Source/Libraries/XMCLib/inc\xmc_gpio.h **** 
  53:C:/Users/Yoshi/Documents/GitHub/Software/01_jrg/03_VCUJR20/2021_04_29_VCU_jr20_Source/Libraries/XMCLib/inc\xmc_gpio.h **** /**************************************************************************************************
  54:C:/Users/Yoshi/Documents/GitHub/Software/01_jrg/03_VCUJR20/2021_04_29_VCU_jr20_Source/Libraries/XMCLib/inc\xmc_gpio.h ****  * HEADER FILES
  55:C:/Users/Yoshi/Documents/GitHub/Software/01_jrg/03_VCUJR20/2021_04_29_VCU_jr20_Source/Libraries/XMCLib/inc\xmc_gpio.h ****  **************************************************************************************************
  56:C:/Users/Yoshi/Documents/GitHub/Software/01_jrg/03_VCUJR20/2021_04_29_VCU_jr20_Source/Libraries/XMCLib/inc\xmc_gpio.h **** 
  57:C:/Users/Yoshi/Documents/GitHub/Software/01_jrg/03_VCUJR20/2021_04_29_VCU_jr20_Source/Libraries/XMCLib/inc\xmc_gpio.h **** #include "xmc_common.h"
  58:C:/Users/Yoshi/Documents/GitHub/Software/01_jrg/03_VCUJR20/2021_04_29_VCU_jr20_Source/Libraries/XMCLib/inc\xmc_gpio.h **** 
  59:C:/Users/Yoshi/Documents/GitHub/Software/01_jrg/03_VCUJR20/2021_04_29_VCU_jr20_Source/Libraries/XMCLib/inc\xmc_gpio.h **** /**
  60:C:/Users/Yoshi/Documents/GitHub/Software/01_jrg/03_VCUJR20/2021_04_29_VCU_jr20_Source/Libraries/XMCLib/inc\xmc_gpio.h ****  * @addtogroup XMClib XMC Peripheral Library
  61:C:/Users/Yoshi/Documents/GitHub/Software/01_jrg/03_VCUJR20/2021_04_29_VCU_jr20_Source/Libraries/XMCLib/inc\xmc_gpio.h ****  * @{
  62:C:/Users/Yoshi/Documents/GitHub/Software/01_jrg/03_VCUJR20/2021_04_29_VCU_jr20_Source/Libraries/XMCLib/inc\xmc_gpio.h ****  */
  63:C:/Users/Yoshi/Documents/GitHub/Software/01_jrg/03_VCUJR20/2021_04_29_VCU_jr20_Source/Libraries/XMCLib/inc\xmc_gpio.h **** 
  64:C:/Users/Yoshi/Documents/GitHub/Software/01_jrg/03_VCUJR20/2021_04_29_VCU_jr20_Source/Libraries/XMCLib/inc\xmc_gpio.h **** /**
  65:C:/Users/Yoshi/Documents/GitHub/Software/01_jrg/03_VCUJR20/2021_04_29_VCU_jr20_Source/Libraries/XMCLib/inc\xmc_gpio.h ****  * @addtogroup GPIO
  66:C:/Users/Yoshi/Documents/GitHub/Software/01_jrg/03_VCUJR20/2021_04_29_VCU_jr20_Source/Libraries/XMCLib/inc\xmc_gpio.h ****  * @brief General Purpose Input Output (GPIO) driver for the XMC microcontroller family.
  67:C:/Users/Yoshi/Documents/GitHub/Software/01_jrg/03_VCUJR20/2021_04_29_VCU_jr20_Source/Libraries/XMCLib/inc\xmc_gpio.h ****  *
  68:C:/Users/Yoshi/Documents/GitHub/Software/01_jrg/03_VCUJR20/2021_04_29_VCU_jr20_Source/Libraries/XMCLib/inc\xmc_gpio.h ****  * GPIO driver provide a generic and very flexible software interface for all standard digital I/O 
  69:C:/Users/Yoshi/Documents/GitHub/Software/01_jrg/03_VCUJR20/2021_04_29_VCU_jr20_Source/Libraries/XMCLib/inc\xmc_gpio.h ****  * Each port slice has individual interfaces for the operation as General Purpose I/O and it furthe
  70:C:/Users/Yoshi/Documents/GitHub/Software/01_jrg/03_VCUJR20/2021_04_29_VCU_jr20_Source/Libraries/XMCLib/inc\xmc_gpio.h ****  * connectivity to the on-chip periphery and the control for the pad characteristics. 
  71:C:/Users/Yoshi/Documents/GitHub/Software/01_jrg/03_VCUJR20/2021_04_29_VCU_jr20_Source/Libraries/XMCLib/inc\xmc_gpio.h ****  *
  72:C:/Users/Yoshi/Documents/GitHub/Software/01_jrg/03_VCUJR20/2021_04_29_VCU_jr20_Source/Libraries/XMCLib/inc\xmc_gpio.h ****  * The driver is divided into Input and Output mode.
  73:C:/Users/Yoshi/Documents/GitHub/Software/01_jrg/03_VCUJR20/2021_04_29_VCU_jr20_Source/Libraries/XMCLib/inc\xmc_gpio.h ****  *
  74:C:/Users/Yoshi/Documents/GitHub/Software/01_jrg/03_VCUJR20/2021_04_29_VCU_jr20_Source/Libraries/XMCLib/inc\xmc_gpio.h ****  * Input mode features:
  75:C:/Users/Yoshi/Documents/GitHub/Software/01_jrg/03_VCUJR20/2021_04_29_VCU_jr20_Source/Libraries/XMCLib/inc\xmc_gpio.h ****  * -# Configuration structure XMC_GPIO_CONFIG_t and initialization function XMC_GPIO_Init()
  76:C:/Users/Yoshi/Documents/GitHub/Software/01_jrg/03_VCUJR20/2021_04_29_VCU_jr20_Source/Libraries/XMCLib/inc\xmc_gpio.h ****  * -# Allows the selection of weak pull-up or pull-down device. Configuration structure XMC_GPIO_MO
  77:C:/Users/Yoshi/Documents/GitHub/Software/01_jrg/03_VCUJR20/2021_04_29_VCU_jr20_Source/Libraries/XMCLib/inc\xmc_gpio.h ****  * \if XMC1
  78:C:/Users/Yoshi/Documents/GitHub/Software/01_jrg/03_VCUJR20/2021_04_29_VCU_jr20_Source/Libraries/XMCLib/inc\xmc_gpio.h ****  * -# Allows the selection of input hysteresis. XMC_GPIO_SetInputHysteresis()
  79:C:/Users/Yoshi/Documents/GitHub/Software/01_jrg/03_VCUJR20/2021_04_29_VCU_jr20_Source/Libraries/XMCLib/inc\xmc_gpio.h ****  * \endif
  80:C:/Users/Yoshi/Documents/GitHub/Software/01_jrg/03_VCUJR20/2021_04_29_VCU_jr20_Source/Libraries/XMCLib/inc\xmc_gpio.h ****  *
  81:C:/Users/Yoshi/Documents/GitHub/Software/01_jrg/03_VCUJR20/2021_04_29_VCU_jr20_Source/Libraries/XMCLib/inc\xmc_gpio.h ****  * 
  82:C:/Users/Yoshi/Documents/GitHub/Software/01_jrg/03_VCUJR20/2021_04_29_VCU_jr20_Source/Libraries/XMCLib/inc\xmc_gpio.h ****  * Output mode features:
  83:C:/Users/Yoshi/Documents/GitHub/Software/01_jrg/03_VCUJR20/2021_04_29_VCU_jr20_Source/Libraries/XMCLib/inc\xmc_gpio.h ****  * -# Allows the selection of push pull/open drain and Alternate output. Configuration structure XM
  84:C:/Users/Yoshi/Documents/GitHub/Software/01_jrg/03_VCUJR20/2021_04_29_VCU_jr20_Source/Libraries/XMCLib/inc\xmc_gpio.h ****  * \if XMC4
  85:C:/Users/Yoshi/Documents/GitHub/Software/01_jrg/03_VCUJR20/2021_04_29_VCU_jr20_Source/Libraries/XMCLib/inc\xmc_gpio.h ****  * -# Allows the selection of pad driver strength. Configuration structure XMC_GPIO_OUTPUT_STRENGTH
  86:C:/Users/Yoshi/Documents/GitHub/Software/01_jrg/03_VCUJR20/2021_04_29_VCU_jr20_Source/Libraries/XMCLib/inc\xmc_gpio.h ****  * \endif
  87:C:/Users/Yoshi/Documents/GitHub/Software/01_jrg/03_VCUJR20/2021_04_29_VCU_jr20_Source/Libraries/XMCLib/inc\xmc_gpio.h ****  *
  88:C:/Users/Yoshi/Documents/GitHub/Software/01_jrg/03_VCUJR20/2021_04_29_VCU_jr20_Source/Libraries/XMCLib/inc\xmc_gpio.h ****  * -# Allows the selection of initial output level. Configuration structure XMC_GPIO_OUTPUT_LEVEL_t
  89:C:/Users/Yoshi/Documents/GitHub/Software/01_jrg/03_VCUJR20/2021_04_29_VCU_jr20_Source/Libraries/XMCLib/inc\xmc_gpio.h ****  *
  90:C:/Users/Yoshi/Documents/GitHub/Software/01_jrg/03_VCUJR20/2021_04_29_VCU_jr20_Source/Libraries/XMCLib/inc\xmc_gpio.h ****  *@{
  91:C:/Users/Yoshi/Documents/GitHub/Software/01_jrg/03_VCUJR20/2021_04_29_VCU_jr20_Source/Libraries/XMCLib/inc\xmc_gpio.h ****  */
  92:C:/Users/Yoshi/Documents/GitHub/Software/01_jrg/03_VCUJR20/2021_04_29_VCU_jr20_Source/Libraries/XMCLib/inc\xmc_gpio.h ****  
  93:C:/Users/Yoshi/Documents/GitHub/Software/01_jrg/03_VCUJR20/2021_04_29_VCU_jr20_Source/Libraries/XMCLib/inc\xmc_gpio.h **** /**************************************************************************************************
  94:C:/Users/Yoshi/Documents/GitHub/Software/01_jrg/03_VCUJR20/2021_04_29_VCU_jr20_Source/Libraries/XMCLib/inc\xmc_gpio.h ****  * MACROS
  95:C:/Users/Yoshi/Documents/GitHub/Software/01_jrg/03_VCUJR20/2021_04_29_VCU_jr20_Source/Libraries/XMCLib/inc\xmc_gpio.h ****  **************************************************************************************************
  96:C:/Users/Yoshi/Documents/GitHub/Software/01_jrg/03_VCUJR20/2021_04_29_VCU_jr20_Source/Libraries/XMCLib/inc\xmc_gpio.h **** 
  97:C:/Users/Yoshi/Documents/GitHub/Software/01_jrg/03_VCUJR20/2021_04_29_VCU_jr20_Source/Libraries/XMCLib/inc\xmc_gpio.h **** #define PORT_IOCR_PC_Pos PORT0_IOCR0_PC0_Pos
  98:C:/Users/Yoshi/Documents/GitHub/Software/01_jrg/03_VCUJR20/2021_04_29_VCU_jr20_Source/Libraries/XMCLib/inc\xmc_gpio.h **** #define PORT_IOCR_PC_Msk PORT0_IOCR0_PC0_Msk
  99:C:/Users/Yoshi/Documents/GitHub/Software/01_jrg/03_VCUJR20/2021_04_29_VCU_jr20_Source/Libraries/XMCLib/inc\xmc_gpio.h **** 
 100:C:/Users/Yoshi/Documents/GitHub/Software/01_jrg/03_VCUJR20/2021_04_29_VCU_jr20_Source/Libraries/XMCLib/inc\xmc_gpio.h **** #define PORT_IOCR_PC_Size 				(8U)
 101:C:/Users/Yoshi/Documents/GitHub/Software/01_jrg/03_VCUJR20/2021_04_29_VCU_jr20_Source/Libraries/XMCLib/inc\xmc_gpio.h **** 											
 102:C:/Users/Yoshi/Documents/GitHub/Software/01_jrg/03_VCUJR20/2021_04_29_VCU_jr20_Source/Libraries/XMCLib/inc\xmc_gpio.h **** 
 103:C:/Users/Yoshi/Documents/GitHub/Software/01_jrg/03_VCUJR20/2021_04_29_VCU_jr20_Source/Libraries/XMCLib/inc\xmc_gpio.h **** #define XMC_GPIO_CHECK_OUTPUT_LEVEL(level) ((level == XMC_GPIO_OUTPUT_LEVEL_LOW) || \
 104:C:/Users/Yoshi/Documents/GitHub/Software/01_jrg/03_VCUJR20/2021_04_29_VCU_jr20_Source/Libraries/XMCLib/inc\xmc_gpio.h ****                                             (level == XMC_GPIO_OUTPUT_LEVEL_HIGH))
 105:C:/Users/Yoshi/Documents/GitHub/Software/01_jrg/03_VCUJR20/2021_04_29_VCU_jr20_Source/Libraries/XMCLib/inc\xmc_gpio.h ****                                             
 106:C:/Users/Yoshi/Documents/GitHub/Software/01_jrg/03_VCUJR20/2021_04_29_VCU_jr20_Source/Libraries/XMCLib/inc\xmc_gpio.h **** #define XMC_GPIO_CHECK_HWCTRL(hwctrl) ((hwctrl == XMC_GPIO_HWCTRL_DISABLED) || \
 107:C:/Users/Yoshi/Documents/GitHub/Software/01_jrg/03_VCUJR20/2021_04_29_VCU_jr20_Source/Libraries/XMCLib/inc\xmc_gpio.h ****                                        (hwctrl == XMC_GPIO_HWCTRL_PERIPHERAL1) || \
 108:C:/Users/Yoshi/Documents/GitHub/Software/01_jrg/03_VCUJR20/2021_04_29_VCU_jr20_Source/Libraries/XMCLib/inc\xmc_gpio.h ****                                        (hwctrl == XMC_GPIO_HWCTRL_PERIPHERAL2))                    
 109:C:/Users/Yoshi/Documents/GitHub/Software/01_jrg/03_VCUJR20/2021_04_29_VCU_jr20_Source/Libraries/XMCLib/inc\xmc_gpio.h ****                                             
 110:C:/Users/Yoshi/Documents/GitHub/Software/01_jrg/03_VCUJR20/2021_04_29_VCU_jr20_Source/Libraries/XMCLib/inc\xmc_gpio.h **** /**************************************************************************************************
 111:C:/Users/Yoshi/Documents/GitHub/Software/01_jrg/03_VCUJR20/2021_04_29_VCU_jr20_Source/Libraries/XMCLib/inc\xmc_gpio.h ****  * ENUMS
 112:C:/Users/Yoshi/Documents/GitHub/Software/01_jrg/03_VCUJR20/2021_04_29_VCU_jr20_Source/Libraries/XMCLib/inc\xmc_gpio.h ****  **************************************************************************************************
 113:C:/Users/Yoshi/Documents/GitHub/Software/01_jrg/03_VCUJR20/2021_04_29_VCU_jr20_Source/Libraries/XMCLib/inc\xmc_gpio.h **** 
 114:C:/Users/Yoshi/Documents/GitHub/Software/01_jrg/03_VCUJR20/2021_04_29_VCU_jr20_Source/Libraries/XMCLib/inc\xmc_gpio.h **** 
 115:C:/Users/Yoshi/Documents/GitHub/Software/01_jrg/03_VCUJR20/2021_04_29_VCU_jr20_Source/Libraries/XMCLib/inc\xmc_gpio.h **** /**
 116:C:/Users/Yoshi/Documents/GitHub/Software/01_jrg/03_VCUJR20/2021_04_29_VCU_jr20_Source/Libraries/XMCLib/inc\xmc_gpio.h ****  * Defines output level of a pin. Use type \a XMC_GPIO_OUTPUT_LEVEL_t for this enum.
 117:C:/Users/Yoshi/Documents/GitHub/Software/01_jrg/03_VCUJR20/2021_04_29_VCU_jr20_Source/Libraries/XMCLib/inc\xmc_gpio.h ****  */
 118:C:/Users/Yoshi/Documents/GitHub/Software/01_jrg/03_VCUJR20/2021_04_29_VCU_jr20_Source/Libraries/XMCLib/inc\xmc_gpio.h **** typedef enum XMC_GPIO_OUTPUT_LEVEL
 119:C:/Users/Yoshi/Documents/GitHub/Software/01_jrg/03_VCUJR20/2021_04_29_VCU_jr20_Source/Libraries/XMCLib/inc\xmc_gpio.h **** {
 120:C:/Users/Yoshi/Documents/GitHub/Software/01_jrg/03_VCUJR20/2021_04_29_VCU_jr20_Source/Libraries/XMCLib/inc\xmc_gpio.h ****   XMC_GPIO_OUTPUT_LEVEL_LOW  = 0x10000U, /**<  Reset bit */
 121:C:/Users/Yoshi/Documents/GitHub/Software/01_jrg/03_VCUJR20/2021_04_29_VCU_jr20_Source/Libraries/XMCLib/inc\xmc_gpio.h ****   XMC_GPIO_OUTPUT_LEVEL_HIGH = 0x1U, 	/**< Set bit  */
 122:C:/Users/Yoshi/Documents/GitHub/Software/01_jrg/03_VCUJR20/2021_04_29_VCU_jr20_Source/Libraries/XMCLib/inc\xmc_gpio.h **** } XMC_GPIO_OUTPUT_LEVEL_t;
 123:C:/Users/Yoshi/Documents/GitHub/Software/01_jrg/03_VCUJR20/2021_04_29_VCU_jr20_Source/Libraries/XMCLib/inc\xmc_gpio.h **** 
 124:C:/Users/Yoshi/Documents/GitHub/Software/01_jrg/03_VCUJR20/2021_04_29_VCU_jr20_Source/Libraries/XMCLib/inc\xmc_gpio.h **** /**
 125:C:/Users/Yoshi/Documents/GitHub/Software/01_jrg/03_VCUJR20/2021_04_29_VCU_jr20_Source/Libraries/XMCLib/inc\xmc_gpio.h ****  * Defines direct hardware control characteristics of the pin . Use type \a XMC_GPIO_HWCTRL_t for t
 126:C:/Users/Yoshi/Documents/GitHub/Software/01_jrg/03_VCUJR20/2021_04_29_VCU_jr20_Source/Libraries/XMCLib/inc\xmc_gpio.h ****  */
 127:C:/Users/Yoshi/Documents/GitHub/Software/01_jrg/03_VCUJR20/2021_04_29_VCU_jr20_Source/Libraries/XMCLib/inc\xmc_gpio.h **** typedef enum XMC_GPIO_HWCTRL
 128:C:/Users/Yoshi/Documents/GitHub/Software/01_jrg/03_VCUJR20/2021_04_29_VCU_jr20_Source/Libraries/XMCLib/inc\xmc_gpio.h **** {
 129:C:/Users/Yoshi/Documents/GitHub/Software/01_jrg/03_VCUJR20/2021_04_29_VCU_jr20_Source/Libraries/XMCLib/inc\xmc_gpio.h ****   XMC_GPIO_HWCTRL_DISABLED     = 0x0U, /**<  Software control only */
 130:C:/Users/Yoshi/Documents/GitHub/Software/01_jrg/03_VCUJR20/2021_04_29_VCU_jr20_Source/Libraries/XMCLib/inc\xmc_gpio.h ****   XMC_GPIO_HWCTRL_PERIPHERAL1  = 0x1U, /**<  HWI0/HWO0 control path can override the software confi
 131:C:/Users/Yoshi/Documents/GitHub/Software/01_jrg/03_VCUJR20/2021_04_29_VCU_jr20_Source/Libraries/XMCLib/inc\xmc_gpio.h ****   XMC_GPIO_HWCTRL_PERIPHERAL2  = 0x2U  /**<  HWI1/HWO1 control path can override the software confi
 132:C:/Users/Yoshi/Documents/GitHub/Software/01_jrg/03_VCUJR20/2021_04_29_VCU_jr20_Source/Libraries/XMCLib/inc\xmc_gpio.h **** } XMC_GPIO_HWCTRL_t;
 133:C:/Users/Yoshi/Documents/GitHub/Software/01_jrg/03_VCUJR20/2021_04_29_VCU_jr20_Source/Libraries/XMCLib/inc\xmc_gpio.h **** 
 134:C:/Users/Yoshi/Documents/GitHub/Software/01_jrg/03_VCUJR20/2021_04_29_VCU_jr20_Source/Libraries/XMCLib/inc\xmc_gpio.h **** /**************************************************************************************************
 135:C:/Users/Yoshi/Documents/GitHub/Software/01_jrg/03_VCUJR20/2021_04_29_VCU_jr20_Source/Libraries/XMCLib/inc\xmc_gpio.h ****  * DEVICE FAMILY EXTENSIONS
 136:C:/Users/Yoshi/Documents/GitHub/Software/01_jrg/03_VCUJR20/2021_04_29_VCU_jr20_Source/Libraries/XMCLib/inc\xmc_gpio.h ****  **************************************************************************************************
 137:C:/Users/Yoshi/Documents/GitHub/Software/01_jrg/03_VCUJR20/2021_04_29_VCU_jr20_Source/Libraries/XMCLib/inc\xmc_gpio.h **** 
 138:C:/Users/Yoshi/Documents/GitHub/Software/01_jrg/03_VCUJR20/2021_04_29_VCU_jr20_Source/Libraries/XMCLib/inc\xmc_gpio.h ****  #if UC_FAMILY == XMC1
 139:C:/Users/Yoshi/Documents/GitHub/Software/01_jrg/03_VCUJR20/2021_04_29_VCU_jr20_Source/Libraries/XMCLib/inc\xmc_gpio.h **** #include "xmc1_gpio.h"
 140:C:/Users/Yoshi/Documents/GitHub/Software/01_jrg/03_VCUJR20/2021_04_29_VCU_jr20_Source/Libraries/XMCLib/inc\xmc_gpio.h **** #elif UC_FAMILY == XMC4
 141:C:/Users/Yoshi/Documents/GitHub/Software/01_jrg/03_VCUJR20/2021_04_29_VCU_jr20_Source/Libraries/XMCLib/inc\xmc_gpio.h **** #include "xmc4_gpio.h"
 142:C:/Users/Yoshi/Documents/GitHub/Software/01_jrg/03_VCUJR20/2021_04_29_VCU_jr20_Source/Libraries/XMCLib/inc\xmc_gpio.h **** #else
 143:C:/Users/Yoshi/Documents/GitHub/Software/01_jrg/03_VCUJR20/2021_04_29_VCU_jr20_Source/Libraries/XMCLib/inc\xmc_gpio.h **** #error "xmc_gpio.h: family device not supported"
 144:C:/Users/Yoshi/Documents/GitHub/Software/01_jrg/03_VCUJR20/2021_04_29_VCU_jr20_Source/Libraries/XMCLib/inc\xmc_gpio.h **** #endif
 145:C:/Users/Yoshi/Documents/GitHub/Software/01_jrg/03_VCUJR20/2021_04_29_VCU_jr20_Source/Libraries/XMCLib/inc\xmc_gpio.h **** 
 146:C:/Users/Yoshi/Documents/GitHub/Software/01_jrg/03_VCUJR20/2021_04_29_VCU_jr20_Source/Libraries/XMCLib/inc\xmc_gpio.h **** /**************************************************************************************************
 147:C:/Users/Yoshi/Documents/GitHub/Software/01_jrg/03_VCUJR20/2021_04_29_VCU_jr20_Source/Libraries/XMCLib/inc\xmc_gpio.h ****  * API PROTOTYPES
 148:C:/Users/Yoshi/Documents/GitHub/Software/01_jrg/03_VCUJR20/2021_04_29_VCU_jr20_Source/Libraries/XMCLib/inc\xmc_gpio.h ****  **************************************************************************************************
 149:C:/Users/Yoshi/Documents/GitHub/Software/01_jrg/03_VCUJR20/2021_04_29_VCU_jr20_Source/Libraries/XMCLib/inc\xmc_gpio.h **** 
 150:C:/Users/Yoshi/Documents/GitHub/Software/01_jrg/03_VCUJR20/2021_04_29_VCU_jr20_Source/Libraries/XMCLib/inc\xmc_gpio.h **** #ifdef __cplusplus
 151:C:/Users/Yoshi/Documents/GitHub/Software/01_jrg/03_VCUJR20/2021_04_29_VCU_jr20_Source/Libraries/XMCLib/inc\xmc_gpio.h **** extern "C" {
 152:C:/Users/Yoshi/Documents/GitHub/Software/01_jrg/03_VCUJR20/2021_04_29_VCU_jr20_Source/Libraries/XMCLib/inc\xmc_gpio.h **** #endif
 153:C:/Users/Yoshi/Documents/GitHub/Software/01_jrg/03_VCUJR20/2021_04_29_VCU_jr20_Source/Libraries/XMCLib/inc\xmc_gpio.h **** 
 154:C:/Users/Yoshi/Documents/GitHub/Software/01_jrg/03_VCUJR20/2021_04_29_VCU_jr20_Source/Libraries/XMCLib/inc\xmc_gpio.h **** 
 155:C:/Users/Yoshi/Documents/GitHub/Software/01_jrg/03_VCUJR20/2021_04_29_VCU_jr20_Source/Libraries/XMCLib/inc\xmc_gpio.h **** /**
 156:C:/Users/Yoshi/Documents/GitHub/Software/01_jrg/03_VCUJR20/2021_04_29_VCU_jr20_Source/Libraries/XMCLib/inc\xmc_gpio.h ****  * @param  port	  Constant pointer pointing to GPIO port, to access port registers like Pn_OUT,Pn_O
 157:C:/Users/Yoshi/Documents/GitHub/Software/01_jrg/03_VCUJR20/2021_04_29_VCU_jr20_Source/Libraries/XMCLib/inc\xmc_gpio.h ****  * @param  pin	  Port pin number.
 158:C:/Users/Yoshi/Documents/GitHub/Software/01_jrg/03_VCUJR20/2021_04_29_VCU_jr20_Source/Libraries/XMCLib/inc\xmc_gpio.h ****  * @param  config GPIO configuration data structure. Refer data structure @ref XMC_GPIO_CONFIG_t fo
 159:C:/Users/Yoshi/Documents/GitHub/Software/01_jrg/03_VCUJR20/2021_04_29_VCU_jr20_Source/Libraries/XMCLib/inc\xmc_gpio.h ****  *
 160:C:/Users/Yoshi/Documents/GitHub/Software/01_jrg/03_VCUJR20/2021_04_29_VCU_jr20_Source/Libraries/XMCLib/inc\xmc_gpio.h ****  * @return None
 161:C:/Users/Yoshi/Documents/GitHub/Software/01_jrg/03_VCUJR20/2021_04_29_VCU_jr20_Source/Libraries/XMCLib/inc\xmc_gpio.h ****  *
 162:C:/Users/Yoshi/Documents/GitHub/Software/01_jrg/03_VCUJR20/2021_04_29_VCU_jr20_Source/Libraries/XMCLib/inc\xmc_gpio.h ****  * \par<b>Description:</b><br>
 163:C:/Users/Yoshi/Documents/GitHub/Software/01_jrg/03_VCUJR20/2021_04_29_VCU_jr20_Source/Libraries/XMCLib/inc\xmc_gpio.h ****  * \if XMC1
 164:C:/Users/Yoshi/Documents/GitHub/Software/01_jrg/03_VCUJR20/2021_04_29_VCU_jr20_Source/Libraries/XMCLib/inc\xmc_gpio.h ****  * Initializes input / output mode settings like, pull up / pull down devices,hysteresis, push pull
 165:C:/Users/Yoshi/Documents/GitHub/Software/01_jrg/03_VCUJR20/2021_04_29_VCU_jr20_Source/Libraries/XMCLib/inc\xmc_gpio.h ****  * Also configures alternate function outputs and clears hardware port control for a selected \a po
 166:C:/Users/Yoshi/Documents/GitHub/Software/01_jrg/03_VCUJR20/2021_04_29_VCU_jr20_Source/Libraries/XMCLib/inc\xmc_gpio.h ****  * \a config provides selected I/O settings. It configures hardware registers Pn_IOCR,Pn_OUT, Pn_OM
 167:C:/Users/Yoshi/Documents/GitHub/Software/01_jrg/03_VCUJR20/2021_04_29_VCU_jr20_Source/Libraries/XMCLib/inc\xmc_gpio.h ****  * \endif
 168:C:/Users/Yoshi/Documents/GitHub/Software/01_jrg/03_VCUJR20/2021_04_29_VCU_jr20_Source/Libraries/XMCLib/inc\xmc_gpio.h ****  * \if XMC4
 169:C:/Users/Yoshi/Documents/GitHub/Software/01_jrg/03_VCUJR20/2021_04_29_VCU_jr20_Source/Libraries/XMCLib/inc\xmc_gpio.h ****  * Initializes input / output mode settings like, pull up / pull down devices,push pull /open drain
 170:C:/Users/Yoshi/Documents/GitHub/Software/01_jrg/03_VCUJR20/2021_04_29_VCU_jr20_Source/Libraries/XMCLib/inc\xmc_gpio.h ****  * Also configures alternate function outputs and clears hardware port control for selected \a port
 171:C:/Users/Yoshi/Documents/GitHub/Software/01_jrg/03_VCUJR20/2021_04_29_VCU_jr20_Source/Libraries/XMCLib/inc\xmc_gpio.h ****  * It configures hardware registers Pn_IOCR,Pn_OUT,Pn_OMR,Pn_PDISC and Pn_PDR.\n
 172:C:/Users/Yoshi/Documents/GitHub/Software/01_jrg/03_VCUJR20/2021_04_29_VCU_jr20_Source/Libraries/XMCLib/inc\xmc_gpio.h ****  * \endif
 173:C:/Users/Yoshi/Documents/GitHub/Software/01_jrg/03_VCUJR20/2021_04_29_VCU_jr20_Source/Libraries/XMCLib/inc\xmc_gpio.h ****  *
 174:C:/Users/Yoshi/Documents/GitHub/Software/01_jrg/03_VCUJR20/2021_04_29_VCU_jr20_Source/Libraries/XMCLib/inc\xmc_gpio.h ****  * \par<b>Related APIs:</b><BR>
 175:C:/Users/Yoshi/Documents/GitHub/Software/01_jrg/03_VCUJR20/2021_04_29_VCU_jr20_Source/Libraries/XMCLib/inc\xmc_gpio.h ****  *  None
 176:C:/Users/Yoshi/Documents/GitHub/Software/01_jrg/03_VCUJR20/2021_04_29_VCU_jr20_Source/Libraries/XMCLib/inc\xmc_gpio.h ****  *
 177:C:/Users/Yoshi/Documents/GitHub/Software/01_jrg/03_VCUJR20/2021_04_29_VCU_jr20_Source/Libraries/XMCLib/inc\xmc_gpio.h ****  * \par<b>Note:</b><br>
 178:C:/Users/Yoshi/Documents/GitHub/Software/01_jrg/03_VCUJR20/2021_04_29_VCU_jr20_Source/Libraries/XMCLib/inc\xmc_gpio.h ****  * This API is called in definition of DAVE_init by code generation and therefore should not be exp
 179:C:/Users/Yoshi/Documents/GitHub/Software/01_jrg/03_VCUJR20/2021_04_29_VCU_jr20_Source/Libraries/XMCLib/inc\xmc_gpio.h ****  * for the normal operation. Use other APIs only after DAVE_init is called successfully (returns DA
 180:C:/Users/Yoshi/Documents/GitHub/Software/01_jrg/03_VCUJR20/2021_04_29_VCU_jr20_Source/Libraries/XMCLib/inc\xmc_gpio.h ****  *
 181:C:/Users/Yoshi/Documents/GitHub/Software/01_jrg/03_VCUJR20/2021_04_29_VCU_jr20_Source/Libraries/XMCLib/inc\xmc_gpio.h ****  *
 182:C:/Users/Yoshi/Documents/GitHub/Software/01_jrg/03_VCUJR20/2021_04_29_VCU_jr20_Source/Libraries/XMCLib/inc\xmc_gpio.h ****  */
 183:C:/Users/Yoshi/Documents/GitHub/Software/01_jrg/03_VCUJR20/2021_04_29_VCU_jr20_Source/Libraries/XMCLib/inc\xmc_gpio.h **** 
 184:C:/Users/Yoshi/Documents/GitHub/Software/01_jrg/03_VCUJR20/2021_04_29_VCU_jr20_Source/Libraries/XMCLib/inc\xmc_gpio.h ****  
 185:C:/Users/Yoshi/Documents/GitHub/Software/01_jrg/03_VCUJR20/2021_04_29_VCU_jr20_Source/Libraries/XMCLib/inc\xmc_gpio.h **** void XMC_GPIO_Init(XMC_GPIO_PORT_t *const port, const uint8_t pin, const XMC_GPIO_CONFIG_t *const c
 186:C:/Users/Yoshi/Documents/GitHub/Software/01_jrg/03_VCUJR20/2021_04_29_VCU_jr20_Source/Libraries/XMCLib/inc\xmc_gpio.h ****  
 187:C:/Users/Yoshi/Documents/GitHub/Software/01_jrg/03_VCUJR20/2021_04_29_VCU_jr20_Source/Libraries/XMCLib/inc\xmc_gpio.h **** /**
 188:C:/Users/Yoshi/Documents/GitHub/Software/01_jrg/03_VCUJR20/2021_04_29_VCU_jr20_Source/Libraries/XMCLib/inc\xmc_gpio.h ****  *
 189:C:/Users/Yoshi/Documents/GitHub/Software/01_jrg/03_VCUJR20/2021_04_29_VCU_jr20_Source/Libraries/XMCLib/inc\xmc_gpio.h ****  * @param  port	Constant pointer pointing to GPIO port, to access hardware register Pn_IOCR.
 190:C:/Users/Yoshi/Documents/GitHub/Software/01_jrg/03_VCUJR20/2021_04_29_VCU_jr20_Source/Libraries/XMCLib/inc\xmc_gpio.h ****  * @param  pin	Port pin number.
 191:C:/Users/Yoshi/Documents/GitHub/Software/01_jrg/03_VCUJR20/2021_04_29_VCU_jr20_Source/Libraries/XMCLib/inc\xmc_gpio.h ****  * @param  mode input / output functionality selection. Refer @ref XMC_GPIO_MODE_t for valid values
 192:C:/Users/Yoshi/Documents/GitHub/Software/01_jrg/03_VCUJR20/2021_04_29_VCU_jr20_Source/Libraries/XMCLib/inc\xmc_gpio.h ****  *
 193:C:/Users/Yoshi/Documents/GitHub/Software/01_jrg/03_VCUJR20/2021_04_29_VCU_jr20_Source/Libraries/XMCLib/inc\xmc_gpio.h ****  * @return None
 194:C:/Users/Yoshi/Documents/GitHub/Software/01_jrg/03_VCUJR20/2021_04_29_VCU_jr20_Source/Libraries/XMCLib/inc\xmc_gpio.h ****  *
 195:C:/Users/Yoshi/Documents/GitHub/Software/01_jrg/03_VCUJR20/2021_04_29_VCU_jr20_Source/Libraries/XMCLib/inc\xmc_gpio.h ****  * \par<b>Description:</b><br>
 196:C:/Users/Yoshi/Documents/GitHub/Software/01_jrg/03_VCUJR20/2021_04_29_VCU_jr20_Source/Libraries/XMCLib/inc\xmc_gpio.h ****  * Sets digital input and output driver functionality and characteristics of a GPIO port pin. It co
 197:C:/Users/Yoshi/Documents/GitHub/Software/01_jrg/03_VCUJR20/2021_04_29_VCU_jr20_Source/Libraries/XMCLib/inc\xmc_gpio.h ****  * registers Pn_IOCR. \a mode is initially configured during initialization in XMC_GPIO_Init(). Cal
 198:C:/Users/Yoshi/Documents/GitHub/Software/01_jrg/03_VCUJR20/2021_04_29_VCU_jr20_Source/Libraries/XMCLib/inc\xmc_gpio.h ****  * the port direction functionality as needed later in the program.
 199:C:/Users/Yoshi/Documents/GitHub/Software/01_jrg/03_VCUJR20/2021_04_29_VCU_jr20_Source/Libraries/XMCLib/inc\xmc_gpio.h ****  *
 200:C:/Users/Yoshi/Documents/GitHub/Software/01_jrg/03_VCUJR20/2021_04_29_VCU_jr20_Source/Libraries/XMCLib/inc\xmc_gpio.h ****  * \par<b>Related APIs:</b><BR>
 201:C:/Users/Yoshi/Documents/GitHub/Software/01_jrg/03_VCUJR20/2021_04_29_VCU_jr20_Source/Libraries/XMCLib/inc\xmc_gpio.h ****  *  None
 202:C:/Users/Yoshi/Documents/GitHub/Software/01_jrg/03_VCUJR20/2021_04_29_VCU_jr20_Source/Libraries/XMCLib/inc\xmc_gpio.h ****  *
 203:C:/Users/Yoshi/Documents/GitHub/Software/01_jrg/03_VCUJR20/2021_04_29_VCU_jr20_Source/Libraries/XMCLib/inc\xmc_gpio.h ****  */
 204:C:/Users/Yoshi/Documents/GitHub/Software/01_jrg/03_VCUJR20/2021_04_29_VCU_jr20_Source/Libraries/XMCLib/inc\xmc_gpio.h **** 
 205:C:/Users/Yoshi/Documents/GitHub/Software/01_jrg/03_VCUJR20/2021_04_29_VCU_jr20_Source/Libraries/XMCLib/inc\xmc_gpio.h **** void XMC_GPIO_SetMode(XMC_GPIO_PORT_t *const port, const uint8_t pin, const XMC_GPIO_MODE_t mode);
 206:C:/Users/Yoshi/Documents/GitHub/Software/01_jrg/03_VCUJR20/2021_04_29_VCU_jr20_Source/Libraries/XMCLib/inc\xmc_gpio.h **** 
 207:C:/Users/Yoshi/Documents/GitHub/Software/01_jrg/03_VCUJR20/2021_04_29_VCU_jr20_Source/Libraries/XMCLib/inc\xmc_gpio.h **** 
 208:C:/Users/Yoshi/Documents/GitHub/Software/01_jrg/03_VCUJR20/2021_04_29_VCU_jr20_Source/Libraries/XMCLib/inc\xmc_gpio.h **** /**
 209:C:/Users/Yoshi/Documents/GitHub/Software/01_jrg/03_VCUJR20/2021_04_29_VCU_jr20_Source/Libraries/XMCLib/inc\xmc_gpio.h ****  *
 210:C:/Users/Yoshi/Documents/GitHub/Software/01_jrg/03_VCUJR20/2021_04_29_VCU_jr20_Source/Libraries/XMCLib/inc\xmc_gpio.h ****  * @param  port	 Constant pointer pointing to GPIO port, to access hardware register Pn_OMR.
 211:C:/Users/Yoshi/Documents/GitHub/Software/01_jrg/03_VCUJR20/2021_04_29_VCU_jr20_Source/Libraries/XMCLib/inc\xmc_gpio.h ****  * @param  pin	 Port pin number.
 212:C:/Users/Yoshi/Documents/GitHub/Software/01_jrg/03_VCUJR20/2021_04_29_VCU_jr20_Source/Libraries/XMCLib/inc\xmc_gpio.h ****  * @param  level output level selection. Refer @ref XMC_GPIO_OUTPUT_LEVEL_t for valid values.
 213:C:/Users/Yoshi/Documents/GitHub/Software/01_jrg/03_VCUJR20/2021_04_29_VCU_jr20_Source/Libraries/XMCLib/inc\xmc_gpio.h ****  *
 214:C:/Users/Yoshi/Documents/GitHub/Software/01_jrg/03_VCUJR20/2021_04_29_VCU_jr20_Source/Libraries/XMCLib/inc\xmc_gpio.h ****  * @return None
 215:C:/Users/Yoshi/Documents/GitHub/Software/01_jrg/03_VCUJR20/2021_04_29_VCU_jr20_Source/Libraries/XMCLib/inc\xmc_gpio.h ****  *
 216:C:/Users/Yoshi/Documents/GitHub/Software/01_jrg/03_VCUJR20/2021_04_29_VCU_jr20_Source/Libraries/XMCLib/inc\xmc_gpio.h ****  * \par<b>Description:</b><br>
 217:C:/Users/Yoshi/Documents/GitHub/Software/01_jrg/03_VCUJR20/2021_04_29_VCU_jr20_Source/Libraries/XMCLib/inc\xmc_gpio.h ****  * Set port pin output level to high or low.It configures hardware registers Pn_OMR.\a level is ini
 218:C:/Users/Yoshi/Documents/GitHub/Software/01_jrg/03_VCUJR20/2021_04_29_VCU_jr20_Source/Libraries/XMCLib/inc\xmc_gpio.h ****  * configured during initialization in XMC_GPIO_Init(). Call this API to alter output level as need
 219:C:/Users/Yoshi/Documents/GitHub/Software/01_jrg/03_VCUJR20/2021_04_29_VCU_jr20_Source/Libraries/XMCLib/inc\xmc_gpio.h ****  *
 220:C:/Users/Yoshi/Documents/GitHub/Software/01_jrg/03_VCUJR20/2021_04_29_VCU_jr20_Source/Libraries/XMCLib/inc\xmc_gpio.h ****  * \par<b>Related APIs:</b><BR>
 221:C:/Users/Yoshi/Documents/GitHub/Software/01_jrg/03_VCUJR20/2021_04_29_VCU_jr20_Source/Libraries/XMCLib/inc\xmc_gpio.h ****  *  XMC_GPIO_SetOutputHigh(), XMC_GPIO_SetOutputLow().
 222:C:/Users/Yoshi/Documents/GitHub/Software/01_jrg/03_VCUJR20/2021_04_29_VCU_jr20_Source/Libraries/XMCLib/inc\xmc_gpio.h ****  *
 223:C:/Users/Yoshi/Documents/GitHub/Software/01_jrg/03_VCUJR20/2021_04_29_VCU_jr20_Source/Libraries/XMCLib/inc\xmc_gpio.h ****  * \par<b>Note:</b><br>
 224:C:/Users/Yoshi/Documents/GitHub/Software/01_jrg/03_VCUJR20/2021_04_29_VCU_jr20_Source/Libraries/XMCLib/inc\xmc_gpio.h ****  * Prior to this api, user has to configure port pin to output mode using XMC_GPIO_SetMode().
 225:C:/Users/Yoshi/Documents/GitHub/Software/01_jrg/03_VCUJR20/2021_04_29_VCU_jr20_Source/Libraries/XMCLib/inc\xmc_gpio.h ****  *
 226:C:/Users/Yoshi/Documents/GitHub/Software/01_jrg/03_VCUJR20/2021_04_29_VCU_jr20_Source/Libraries/XMCLib/inc\xmc_gpio.h ****  */
 227:C:/Users/Yoshi/Documents/GitHub/Software/01_jrg/03_VCUJR20/2021_04_29_VCU_jr20_Source/Libraries/XMCLib/inc\xmc_gpio.h **** 
 228:C:/Users/Yoshi/Documents/GitHub/Software/01_jrg/03_VCUJR20/2021_04_29_VCU_jr20_Source/Libraries/XMCLib/inc\xmc_gpio.h **** 
 229:C:/Users/Yoshi/Documents/GitHub/Software/01_jrg/03_VCUJR20/2021_04_29_VCU_jr20_Source/Libraries/XMCLib/inc\xmc_gpio.h **** __STATIC_INLINE void XMC_GPIO_SetOutputLevel(XMC_GPIO_PORT_t *const port, const uint8_t pin, const 
 230:C:/Users/Yoshi/Documents/GitHub/Software/01_jrg/03_VCUJR20/2021_04_29_VCU_jr20_Source/Libraries/XMCLib/inc\xmc_gpio.h **** {
 231:C:/Users/Yoshi/Documents/GitHub/Software/01_jrg/03_VCUJR20/2021_04_29_VCU_jr20_Source/Libraries/XMCLib/inc\xmc_gpio.h ****   XMC_ASSERT("XMC_GPIO_SetOutputLevel: Invalid port", XMC_GPIO_CHECK_OUTPUT_PORT(port));
 232:C:/Users/Yoshi/Documents/GitHub/Software/01_jrg/03_VCUJR20/2021_04_29_VCU_jr20_Source/Libraries/XMCLib/inc\xmc_gpio.h ****   XMC_ASSERT("XMC_GPIO_SetOutputLevel: Invalid output level", XMC_GPIO_CHECK_OUTPUT_LEVEL(level));
 233:C:/Users/Yoshi/Documents/GitHub/Software/01_jrg/03_VCUJR20/2021_04_29_VCU_jr20_Source/Libraries/XMCLib/inc\xmc_gpio.h ****   
 234:C:/Users/Yoshi/Documents/GitHub/Software/01_jrg/03_VCUJR20/2021_04_29_VCU_jr20_Source/Libraries/XMCLib/inc\xmc_gpio.h ****   port->OMR = (uint32_t)level << pin;
 235:C:/Users/Yoshi/Documents/GitHub/Software/01_jrg/03_VCUJR20/2021_04_29_VCU_jr20_Source/Libraries/XMCLib/inc\xmc_gpio.h **** }
 236:C:/Users/Yoshi/Documents/GitHub/Software/01_jrg/03_VCUJR20/2021_04_29_VCU_jr20_Source/Libraries/XMCLib/inc\xmc_gpio.h **** 
 237:C:/Users/Yoshi/Documents/GitHub/Software/01_jrg/03_VCUJR20/2021_04_29_VCU_jr20_Source/Libraries/XMCLib/inc\xmc_gpio.h **** 
 238:C:/Users/Yoshi/Documents/GitHub/Software/01_jrg/03_VCUJR20/2021_04_29_VCU_jr20_Source/Libraries/XMCLib/inc\xmc_gpio.h **** /**
 239:C:/Users/Yoshi/Documents/GitHub/Software/01_jrg/03_VCUJR20/2021_04_29_VCU_jr20_Source/Libraries/XMCLib/inc\xmc_gpio.h ****  * @param  port constant pointer pointing to GPIO port, to access hardware register Pn_OMR.
 240:C:/Users/Yoshi/Documents/GitHub/Software/01_jrg/03_VCUJR20/2021_04_29_VCU_jr20_Source/Libraries/XMCLib/inc\xmc_gpio.h ****  * @param  pin	Port pin number.
 241:C:/Users/Yoshi/Documents/GitHub/Software/01_jrg/03_VCUJR20/2021_04_29_VCU_jr20_Source/Libraries/XMCLib/inc\xmc_gpio.h ****  *
 242:C:/Users/Yoshi/Documents/GitHub/Software/01_jrg/03_VCUJR20/2021_04_29_VCU_jr20_Source/Libraries/XMCLib/inc\xmc_gpio.h ****  * @return None
 243:C:/Users/Yoshi/Documents/GitHub/Software/01_jrg/03_VCUJR20/2021_04_29_VCU_jr20_Source/Libraries/XMCLib/inc\xmc_gpio.h ****  *
 244:C:/Users/Yoshi/Documents/GitHub/Software/01_jrg/03_VCUJR20/2021_04_29_VCU_jr20_Source/Libraries/XMCLib/inc\xmc_gpio.h ****  * \par<b>Description:</b><br>
 245:C:/Users/Yoshi/Documents/GitHub/Software/01_jrg/03_VCUJR20/2021_04_29_VCU_jr20_Source/Libraries/XMCLib/inc\xmc_gpio.h ****  *  Sets port pin output to high. It configures hardware registers Pn_OMR.
 246:C:/Users/Yoshi/Documents/GitHub/Software/01_jrg/03_VCUJR20/2021_04_29_VCU_jr20_Source/Libraries/XMCLib/inc\xmc_gpio.h ****  *
 247:C:/Users/Yoshi/Documents/GitHub/Software/01_jrg/03_VCUJR20/2021_04_29_VCU_jr20_Source/Libraries/XMCLib/inc\xmc_gpio.h ****  *  \par<b>Related APIs:</b><BR>
 248:C:/Users/Yoshi/Documents/GitHub/Software/01_jrg/03_VCUJR20/2021_04_29_VCU_jr20_Source/Libraries/XMCLib/inc\xmc_gpio.h ****  *  XMC_GPIO_SetOutputLow()
 249:C:/Users/Yoshi/Documents/GitHub/Software/01_jrg/03_VCUJR20/2021_04_29_VCU_jr20_Source/Libraries/XMCLib/inc\xmc_gpio.h ****  *
 250:C:/Users/Yoshi/Documents/GitHub/Software/01_jrg/03_VCUJR20/2021_04_29_VCU_jr20_Source/Libraries/XMCLib/inc\xmc_gpio.h ****  * \par<b>Note:</b><br>
 251:C:/Users/Yoshi/Documents/GitHub/Software/01_jrg/03_VCUJR20/2021_04_29_VCU_jr20_Source/Libraries/XMCLib/inc\xmc_gpio.h ****  * Prior to this api, user has to configure port pin to output mode using XMC_GPIO_SetMode().\n
 252:C:/Users/Yoshi/Documents/GitHub/Software/01_jrg/03_VCUJR20/2021_04_29_VCU_jr20_Source/Libraries/XMCLib/inc\xmc_gpio.h ****  * Register Pn_OMR is virtual and does not contain any flip-flop. A read action delivers the value 
 253:C:/Users/Yoshi/Documents/GitHub/Software/01_jrg/03_VCUJR20/2021_04_29_VCU_jr20_Source/Libraries/XMCLib/inc\xmc_gpio.h ****  *
 254:C:/Users/Yoshi/Documents/GitHub/Software/01_jrg/03_VCUJR20/2021_04_29_VCU_jr20_Source/Libraries/XMCLib/inc\xmc_gpio.h ****  */
 255:C:/Users/Yoshi/Documents/GitHub/Software/01_jrg/03_VCUJR20/2021_04_29_VCU_jr20_Source/Libraries/XMCLib/inc\xmc_gpio.h **** 
 256:C:/Users/Yoshi/Documents/GitHub/Software/01_jrg/03_VCUJR20/2021_04_29_VCU_jr20_Source/Libraries/XMCLib/inc\xmc_gpio.h **** __STATIC_INLINE void XMC_GPIO_SetOutputHigh(XMC_GPIO_PORT_t *const port, const uint8_t pin)
 257:C:/Users/Yoshi/Documents/GitHub/Software/01_jrg/03_VCUJR20/2021_04_29_VCU_jr20_Source/Libraries/XMCLib/inc\xmc_gpio.h **** {
 258:C:/Users/Yoshi/Documents/GitHub/Software/01_jrg/03_VCUJR20/2021_04_29_VCU_jr20_Source/Libraries/XMCLib/inc\xmc_gpio.h ****   XMC_ASSERT("XMC_GPIO_SetOutputHigh: Invalid port", XMC_GPIO_CHECK_OUTPUT_PORT(port));
 259:C:/Users/Yoshi/Documents/GitHub/Software/01_jrg/03_VCUJR20/2021_04_29_VCU_jr20_Source/Libraries/XMCLib/inc\xmc_gpio.h **** 
 260:C:/Users/Yoshi/Documents/GitHub/Software/01_jrg/03_VCUJR20/2021_04_29_VCU_jr20_Source/Libraries/XMCLib/inc\xmc_gpio.h ****   port->OMR = (uint32_t)0x1U << pin;
 261:C:/Users/Yoshi/Documents/GitHub/Software/01_jrg/03_VCUJR20/2021_04_29_VCU_jr20_Source/Libraries/XMCLib/inc\xmc_gpio.h **** }
 262:C:/Users/Yoshi/Documents/GitHub/Software/01_jrg/03_VCUJR20/2021_04_29_VCU_jr20_Source/Libraries/XMCLib/inc\xmc_gpio.h **** 
 263:C:/Users/Yoshi/Documents/GitHub/Software/01_jrg/03_VCUJR20/2021_04_29_VCU_jr20_Source/Libraries/XMCLib/inc\xmc_gpio.h **** /**
 264:C:/Users/Yoshi/Documents/GitHub/Software/01_jrg/03_VCUJR20/2021_04_29_VCU_jr20_Source/Libraries/XMCLib/inc\xmc_gpio.h ****  *
 265:C:/Users/Yoshi/Documents/GitHub/Software/01_jrg/03_VCUJR20/2021_04_29_VCU_jr20_Source/Libraries/XMCLib/inc\xmc_gpio.h ****  * @param  port	constant pointer pointing to GPIO port, to access hardware register Pn_OMR.
 266:C:/Users/Yoshi/Documents/GitHub/Software/01_jrg/03_VCUJR20/2021_04_29_VCU_jr20_Source/Libraries/XMCLib/inc\xmc_gpio.h ****  * @param  pin	port pin number.
 267:C:/Users/Yoshi/Documents/GitHub/Software/01_jrg/03_VCUJR20/2021_04_29_VCU_jr20_Source/Libraries/XMCLib/inc\xmc_gpio.h ****  *
 268:C:/Users/Yoshi/Documents/GitHub/Software/01_jrg/03_VCUJR20/2021_04_29_VCU_jr20_Source/Libraries/XMCLib/inc\xmc_gpio.h ****  * @return  None
 269:C:/Users/Yoshi/Documents/GitHub/Software/01_jrg/03_VCUJR20/2021_04_29_VCU_jr20_Source/Libraries/XMCLib/inc\xmc_gpio.h ****  *
 270:C:/Users/Yoshi/Documents/GitHub/Software/01_jrg/03_VCUJR20/2021_04_29_VCU_jr20_Source/Libraries/XMCLib/inc\xmc_gpio.h ****  *\par<b>Description:</b><br>
 271:C:/Users/Yoshi/Documents/GitHub/Software/01_jrg/03_VCUJR20/2021_04_29_VCU_jr20_Source/Libraries/XMCLib/inc\xmc_gpio.h ****  * Sets port pin output to low. It configures hardware registers Pn_OMR.\n
 272:C:/Users/Yoshi/Documents/GitHub/Software/01_jrg/03_VCUJR20/2021_04_29_VCU_jr20_Source/Libraries/XMCLib/inc\xmc_gpio.h ****  *
 273:C:/Users/Yoshi/Documents/GitHub/Software/01_jrg/03_VCUJR20/2021_04_29_VCU_jr20_Source/Libraries/XMCLib/inc\xmc_gpio.h ****  * \par<b>Related APIs:</b><BR>>
 274:C:/Users/Yoshi/Documents/GitHub/Software/01_jrg/03_VCUJR20/2021_04_29_VCU_jr20_Source/Libraries/XMCLib/inc\xmc_gpio.h ****  * XMC_GPIO_SetOutputHigh()
 275:C:/Users/Yoshi/Documents/GitHub/Software/01_jrg/03_VCUJR20/2021_04_29_VCU_jr20_Source/Libraries/XMCLib/inc\xmc_gpio.h ****  *
 276:C:/Users/Yoshi/Documents/GitHub/Software/01_jrg/03_VCUJR20/2021_04_29_VCU_jr20_Source/Libraries/XMCLib/inc\xmc_gpio.h ****  *\par<b>Note:</b><br>
 277:C:/Users/Yoshi/Documents/GitHub/Software/01_jrg/03_VCUJR20/2021_04_29_VCU_jr20_Source/Libraries/XMCLib/inc\xmc_gpio.h ****  * Prior to this api, user has to configure port pin to output mode using XMC_GPIO_SetMode().
 278:C:/Users/Yoshi/Documents/GitHub/Software/01_jrg/03_VCUJR20/2021_04_29_VCU_jr20_Source/Libraries/XMCLib/inc\xmc_gpio.h ****  * Register Pn_OMR is virtual and does not contain any flip-flop. A read action delivers the value 
 279:C:/Users/Yoshi/Documents/GitHub/Software/01_jrg/03_VCUJR20/2021_04_29_VCU_jr20_Source/Libraries/XMCLib/inc\xmc_gpio.h ****  *
 280:C:/Users/Yoshi/Documents/GitHub/Software/01_jrg/03_VCUJR20/2021_04_29_VCU_jr20_Source/Libraries/XMCLib/inc\xmc_gpio.h ****  */
 281:C:/Users/Yoshi/Documents/GitHub/Software/01_jrg/03_VCUJR20/2021_04_29_VCU_jr20_Source/Libraries/XMCLib/inc\xmc_gpio.h **** 
 282:C:/Users/Yoshi/Documents/GitHub/Software/01_jrg/03_VCUJR20/2021_04_29_VCU_jr20_Source/Libraries/XMCLib/inc\xmc_gpio.h **** __STATIC_INLINE void XMC_GPIO_SetOutputLow(XMC_GPIO_PORT_t *const port, const uint8_t pin)
 283:C:/Users/Yoshi/Documents/GitHub/Software/01_jrg/03_VCUJR20/2021_04_29_VCU_jr20_Source/Libraries/XMCLib/inc\xmc_gpio.h **** {
 284:C:/Users/Yoshi/Documents/GitHub/Software/01_jrg/03_VCUJR20/2021_04_29_VCU_jr20_Source/Libraries/XMCLib/inc\xmc_gpio.h ****   XMC_ASSERT("XMC_GPIO_SetOutputLow: Invalid port", XMC_GPIO_CHECK_OUTPUT_PORT(port));
 285:C:/Users/Yoshi/Documents/GitHub/Software/01_jrg/03_VCUJR20/2021_04_29_VCU_jr20_Source/Libraries/XMCLib/inc\xmc_gpio.h **** 
 286:C:/Users/Yoshi/Documents/GitHub/Software/01_jrg/03_VCUJR20/2021_04_29_VCU_jr20_Source/Libraries/XMCLib/inc\xmc_gpio.h ****   port->OMR = 0x10000U << pin;
 287:C:/Users/Yoshi/Documents/GitHub/Software/01_jrg/03_VCUJR20/2021_04_29_VCU_jr20_Source/Libraries/XMCLib/inc\xmc_gpio.h **** }
 288:C:/Users/Yoshi/Documents/GitHub/Software/01_jrg/03_VCUJR20/2021_04_29_VCU_jr20_Source/Libraries/XMCLib/inc\xmc_gpio.h **** 
 289:C:/Users/Yoshi/Documents/GitHub/Software/01_jrg/03_VCUJR20/2021_04_29_VCU_jr20_Source/Libraries/XMCLib/inc\xmc_gpio.h **** /**
 290:C:/Users/Yoshi/Documents/GitHub/Software/01_jrg/03_VCUJR20/2021_04_29_VCU_jr20_Source/Libraries/XMCLib/inc\xmc_gpio.h ****  *
 291:C:/Users/Yoshi/Documents/GitHub/Software/01_jrg/03_VCUJR20/2021_04_29_VCU_jr20_Source/Libraries/XMCLib/inc\xmc_gpio.h ****  * @param port constant pointer pointing to GPIO port, to access hardware register Pn_OMR.
 292:C:/Users/Yoshi/Documents/GitHub/Software/01_jrg/03_VCUJR20/2021_04_29_VCU_jr20_Source/Libraries/XMCLib/inc\xmc_gpio.h ****  * @param pin  port pin number.
 293:C:/Users/Yoshi/Documents/GitHub/Software/01_jrg/03_VCUJR20/2021_04_29_VCU_jr20_Source/Libraries/XMCLib/inc\xmc_gpio.h ****  *
 294:C:/Users/Yoshi/Documents/GitHub/Software/01_jrg/03_VCUJR20/2021_04_29_VCU_jr20_Source/Libraries/XMCLib/inc\xmc_gpio.h ****  * @return None
 295:C:/Users/Yoshi/Documents/GitHub/Software/01_jrg/03_VCUJR20/2021_04_29_VCU_jr20_Source/Libraries/XMCLib/inc\xmc_gpio.h ****  *
 296:C:/Users/Yoshi/Documents/GitHub/Software/01_jrg/03_VCUJR20/2021_04_29_VCU_jr20_Source/Libraries/XMCLib/inc\xmc_gpio.h ****  * \par<b>Description:</b><br>
 297:C:/Users/Yoshi/Documents/GitHub/Software/01_jrg/03_VCUJR20/2021_04_29_VCU_jr20_Source/Libraries/XMCLib/inc\xmc_gpio.h ****  * Configures port pin output to Toggle. It configures hardware registers Pn_OMR.
 298:C:/Users/Yoshi/Documents/GitHub/Software/01_jrg/03_VCUJR20/2021_04_29_VCU_jr20_Source/Libraries/XMCLib/inc\xmc_gpio.h ****  *
 299:C:/Users/Yoshi/Documents/GitHub/Software/01_jrg/03_VCUJR20/2021_04_29_VCU_jr20_Source/Libraries/XMCLib/inc\xmc_gpio.h ****  * \par<b>Related APIs:</b><BR>
 300:C:/Users/Yoshi/Documents/GitHub/Software/01_jrg/03_VCUJR20/2021_04_29_VCU_jr20_Source/Libraries/XMCLib/inc\xmc_gpio.h ****  * XMC_GPIO_SetOutputHigh(), XMC_GPIO_SetOutputLow().
 301:C:/Users/Yoshi/Documents/GitHub/Software/01_jrg/03_VCUJR20/2021_04_29_VCU_jr20_Source/Libraries/XMCLib/inc\xmc_gpio.h ****  *
 302:C:/Users/Yoshi/Documents/GitHub/Software/01_jrg/03_VCUJR20/2021_04_29_VCU_jr20_Source/Libraries/XMCLib/inc\xmc_gpio.h ****  * \par<b>Note:</b><br>
 303:C:/Users/Yoshi/Documents/GitHub/Software/01_jrg/03_VCUJR20/2021_04_29_VCU_jr20_Source/Libraries/XMCLib/inc\xmc_gpio.h ****  * Prior to this api, user has to configure port pin to output mode using XMC_GPIO_SetMode(). Regis
 304:C:/Users/Yoshi/Documents/GitHub/Software/01_jrg/03_VCUJR20/2021_04_29_VCU_jr20_Source/Libraries/XMCLib/inc\xmc_gpio.h ****  * and does not contain any flip-flop. A read action delivers the value of 0.
 305:C:/Users/Yoshi/Documents/GitHub/Software/01_jrg/03_VCUJR20/2021_04_29_VCU_jr20_Source/Libraries/XMCLib/inc\xmc_gpio.h ****  *
 306:C:/Users/Yoshi/Documents/GitHub/Software/01_jrg/03_VCUJR20/2021_04_29_VCU_jr20_Source/Libraries/XMCLib/inc\xmc_gpio.h ****  */
 307:C:/Users/Yoshi/Documents/GitHub/Software/01_jrg/03_VCUJR20/2021_04_29_VCU_jr20_Source/Libraries/XMCLib/inc\xmc_gpio.h **** 
 308:C:/Users/Yoshi/Documents/GitHub/Software/01_jrg/03_VCUJR20/2021_04_29_VCU_jr20_Source/Libraries/XMCLib/inc\xmc_gpio.h **** __STATIC_INLINE void XMC_GPIO_ToggleOutput(XMC_GPIO_PORT_t *const port, const uint8_t pin)
 309:C:/Users/Yoshi/Documents/GitHub/Software/01_jrg/03_VCUJR20/2021_04_29_VCU_jr20_Source/Libraries/XMCLib/inc\xmc_gpio.h **** {
 310:C:/Users/Yoshi/Documents/GitHub/Software/01_jrg/03_VCUJR20/2021_04_29_VCU_jr20_Source/Libraries/XMCLib/inc\xmc_gpio.h ****   XMC_ASSERT("XMC_GPIO_ToggleOutput: Invalid port", XMC_GPIO_CHECK_OUTPUT_PORT(port));
 311:C:/Users/Yoshi/Documents/GitHub/Software/01_jrg/03_VCUJR20/2021_04_29_VCU_jr20_Source/Libraries/XMCLib/inc\xmc_gpio.h **** 
 312:C:/Users/Yoshi/Documents/GitHub/Software/01_jrg/03_VCUJR20/2021_04_29_VCU_jr20_Source/Libraries/XMCLib/inc\xmc_gpio.h ****   port->OMR = 0x10001U << pin;
 313:C:/Users/Yoshi/Documents/GitHub/Software/01_jrg/03_VCUJR20/2021_04_29_VCU_jr20_Source/Libraries/XMCLib/inc\xmc_gpio.h **** }
 314:C:/Users/Yoshi/Documents/GitHub/Software/01_jrg/03_VCUJR20/2021_04_29_VCU_jr20_Source/Libraries/XMCLib/inc\xmc_gpio.h **** 
 315:C:/Users/Yoshi/Documents/GitHub/Software/01_jrg/03_VCUJR20/2021_04_29_VCU_jr20_Source/Libraries/XMCLib/inc\xmc_gpio.h **** /**
 316:C:/Users/Yoshi/Documents/GitHub/Software/01_jrg/03_VCUJR20/2021_04_29_VCU_jr20_Source/Libraries/XMCLib/inc\xmc_gpio.h ****  *
 317:C:/Users/Yoshi/Documents/GitHub/Software/01_jrg/03_VCUJR20/2021_04_29_VCU_jr20_Source/Libraries/XMCLib/inc\xmc_gpio.h ****  * @param port constant pointer pointing to GPIO port, to access hardware register Pn_IN.
 318:C:/Users/Yoshi/Documents/GitHub/Software/01_jrg/03_VCUJR20/2021_04_29_VCU_jr20_Source/Libraries/XMCLib/inc\xmc_gpio.h ****  * @param pin  Port pin number.
 319:C:/Users/Yoshi/Documents/GitHub/Software/01_jrg/03_VCUJR20/2021_04_29_VCU_jr20_Source/Libraries/XMCLib/inc\xmc_gpio.h ****  *
 320:C:/Users/Yoshi/Documents/GitHub/Software/01_jrg/03_VCUJR20/2021_04_29_VCU_jr20_Source/Libraries/XMCLib/inc\xmc_gpio.h ****  * @return uint32_t pin logic level status.
 321:C:/Users/Yoshi/Documents/GitHub/Software/01_jrg/03_VCUJR20/2021_04_29_VCU_jr20_Source/Libraries/XMCLib/inc\xmc_gpio.h ****  *
 322:C:/Users/Yoshi/Documents/GitHub/Software/01_jrg/03_VCUJR20/2021_04_29_VCU_jr20_Source/Libraries/XMCLib/inc\xmc_gpio.h ****  *\par<b>Description:</b><br>
 323:C:/Users/Yoshi/Documents/GitHub/Software/01_jrg/03_VCUJR20/2021_04_29_VCU_jr20_Source/Libraries/XMCLib/inc\xmc_gpio.h ****  * Reads the Pn_IN register and returns the current logical value at the GPIO pin.
 324:C:/Users/Yoshi/Documents/GitHub/Software/01_jrg/03_VCUJR20/2021_04_29_VCU_jr20_Source/Libraries/XMCLib/inc\xmc_gpio.h ****  *
 325:C:/Users/Yoshi/Documents/GitHub/Software/01_jrg/03_VCUJR20/2021_04_29_VCU_jr20_Source/Libraries/XMCLib/inc\xmc_gpio.h ****  * \par<b>Related APIs:</b><BR>
 326:C:/Users/Yoshi/Documents/GitHub/Software/01_jrg/03_VCUJR20/2021_04_29_VCU_jr20_Source/Libraries/XMCLib/inc\xmc_gpio.h ****  * None
 327:C:/Users/Yoshi/Documents/GitHub/Software/01_jrg/03_VCUJR20/2021_04_29_VCU_jr20_Source/Libraries/XMCLib/inc\xmc_gpio.h ****  *
 328:C:/Users/Yoshi/Documents/GitHub/Software/01_jrg/03_VCUJR20/2021_04_29_VCU_jr20_Source/Libraries/XMCLib/inc\xmc_gpio.h ****  * \par<b>Note:</b><br>
 329:C:/Users/Yoshi/Documents/GitHub/Software/01_jrg/03_VCUJR20/2021_04_29_VCU_jr20_Source/Libraries/XMCLib/inc\xmc_gpio.h ****  * Prior to this api, user has to configure port pin to input mode using XMC_GPIO_SetMode().
 330:C:/Users/Yoshi/Documents/GitHub/Software/01_jrg/03_VCUJR20/2021_04_29_VCU_jr20_Source/Libraries/XMCLib/inc\xmc_gpio.h ****  *
 331:C:/Users/Yoshi/Documents/GitHub/Software/01_jrg/03_VCUJR20/2021_04_29_VCU_jr20_Source/Libraries/XMCLib/inc\xmc_gpio.h ****  */
 332:C:/Users/Yoshi/Documents/GitHub/Software/01_jrg/03_VCUJR20/2021_04_29_VCU_jr20_Source/Libraries/XMCLib/inc\xmc_gpio.h **** 
 333:C:/Users/Yoshi/Documents/GitHub/Software/01_jrg/03_VCUJR20/2021_04_29_VCU_jr20_Source/Libraries/XMCLib/inc\xmc_gpio.h **** __STATIC_INLINE uint32_t XMC_GPIO_GetInput(XMC_GPIO_PORT_t *const port, const uint8_t pin)
 334:C:/Users/Yoshi/Documents/GitHub/Software/01_jrg/03_VCUJR20/2021_04_29_VCU_jr20_Source/Libraries/XMCLib/inc\xmc_gpio.h **** {
  27              	 .loc 1 334 0
  28              	 .cfi_startproc
  29              	 
  30              	 
  31              	 
  32 0000 80B4     	 push {r7}
  33              	.LCFI0:
  34              	 .cfi_def_cfa_offset 4
  35              	 .cfi_offset 7,-4
  36 0002 83B0     	 sub sp,sp,#12
  37              	.LCFI1:
  38              	 .cfi_def_cfa_offset 16
  39 0004 00AF     	 add r7,sp,#0
  40              	.LCFI2:
  41              	 .cfi_def_cfa_register 7
  42 0006 7860     	 str r0,[r7,#4]
  43 0008 0B46     	 mov r3,r1
  44 000a FB70     	 strb r3,[r7,#3]
 335:C:/Users/Yoshi/Documents/GitHub/Software/01_jrg/03_VCUJR20/2021_04_29_VCU_jr20_Source/Libraries/XMCLib/inc\xmc_gpio.h ****   XMC_ASSERT("XMC_GPIO_GetInput: Invalid port", XMC_GPIO_CHECK_PORT(port));
 336:C:/Users/Yoshi/Documents/GitHub/Software/01_jrg/03_VCUJR20/2021_04_29_VCU_jr20_Source/Libraries/XMCLib/inc\xmc_gpio.h **** 
 337:C:/Users/Yoshi/Documents/GitHub/Software/01_jrg/03_VCUJR20/2021_04_29_VCU_jr20_Source/Libraries/XMCLib/inc\xmc_gpio.h ****   return (((port->IN) >> pin) & 0x1U);
  45              	 .loc 1 337 0
  46 000c 7B68     	 ldr r3,[r7,#4]
  47 000e 5A6A     	 ldr r2,[r3,#36]
  48 0010 FB78     	 ldrb r3,[r7,#3]
  49 0012 22FA03F3 	 lsr r3,r2,r3
  50 0016 03F00103 	 and r3,r3,#1
 338:C:/Users/Yoshi/Documents/GitHub/Software/01_jrg/03_VCUJR20/2021_04_29_VCU_jr20_Source/Libraries/XMCLib/inc\xmc_gpio.h **** }
  51              	 .loc 1 338 0
  52 001a 1846     	 mov r0,r3
  53 001c 0C37     	 adds r7,r7,#12
  54              	.LCFI3:
  55              	 .cfi_def_cfa_offset 4
  56 001e BD46     	 mov sp,r7
  57              	.LCFI4:
  58              	 .cfi_def_cfa_register 13
  59              	 
  60 0020 5DF8047B 	 ldr r7,[sp],#4
  61              	.LCFI5:
  62              	 .cfi_restore 7
  63              	 .cfi_def_cfa_offset 0
  64 0024 7047     	 bx lr
  65              	 .cfi_endproc
  66              	.LFE180:
  68 0026 00BF     	 .section .text.DIGITAL_IO_GetInput,"ax",%progbits
  69              	 .align 2
  70              	 .thumb
  71              	 .thumb_func
  73              	DIGITAL_IO_GetInput:
  74              	.LFB267:
  75              	 .file 2 "C:/Users/Yoshi/Documents/GitHub/Software/01_jrg/03_VCUJR20/2021_04_29_VCU_jr20_Source/Dave/Generated/DIGITAL_IO/digital_io.h"
   1:C:/Users/Yoshi/Documents/GitHub/Software/01_jrg/03_VCUJR20/2021_04_29_VCU_jr20_Source/Dave/Generated/DIGITAL_IO\digital_io.h **** /*
   2:C:/Users/Yoshi/Documents/GitHub/Software/01_jrg/03_VCUJR20/2021_04_29_VCU_jr20_Source/Dave/Generated/DIGITAL_IO\digital_io.h ****  *
   3:C:/Users/Yoshi/Documents/GitHub/Software/01_jrg/03_VCUJR20/2021_04_29_VCU_jr20_Source/Dave/Generated/DIGITAL_IO\digital_io.h ****  * @file digital_io.h
   4:C:/Users/Yoshi/Documents/GitHub/Software/01_jrg/03_VCUJR20/2021_04_29_VCU_jr20_Source/Dave/Generated/DIGITAL_IO\digital_io.h ****  * @date 2016-07-08
   5:C:/Users/Yoshi/Documents/GitHub/Software/01_jrg/03_VCUJR20/2021_04_29_VCU_jr20_Source/Dave/Generated/DIGITAL_IO\digital_io.h ****  *
   6:C:/Users/Yoshi/Documents/GitHub/Software/01_jrg/03_VCUJR20/2021_04_29_VCU_jr20_Source/Dave/Generated/DIGITAL_IO\digital_io.h ****  * NOTE:
   7:C:/Users/Yoshi/Documents/GitHub/Software/01_jrg/03_VCUJR20/2021_04_29_VCU_jr20_Source/Dave/Generated/DIGITAL_IO\digital_io.h ****  * This file is generated by DAVE. Any manual modification done to this file will be lost when the 
   8:C:/Users/Yoshi/Documents/GitHub/Software/01_jrg/03_VCUJR20/2021_04_29_VCU_jr20_Source/Dave/Generated/DIGITAL_IO\digital_io.h ****  *
   9:C:/Users/Yoshi/Documents/GitHub/Software/01_jrg/03_VCUJR20/2021_04_29_VCU_jr20_Source/Dave/Generated/DIGITAL_IO\digital_io.h ****  * @cond
  10:C:/Users/Yoshi/Documents/GitHub/Software/01_jrg/03_VCUJR20/2021_04_29_VCU_jr20_Source/Dave/Generated/DIGITAL_IO\digital_io.h ****  **************************************************************************************************
  11:C:/Users/Yoshi/Documents/GitHub/Software/01_jrg/03_VCUJR20/2021_04_29_VCU_jr20_Source/Dave/Generated/DIGITAL_IO\digital_io.h ****  * DIGITAL_IO v4.0.16 - The DIGITAL_IO APP is used to configure a port pin as digital Input/Output.
  12:C:/Users/Yoshi/Documents/GitHub/Software/01_jrg/03_VCUJR20/2021_04_29_VCU_jr20_Source/Dave/Generated/DIGITAL_IO\digital_io.h ****  *
  13:C:/Users/Yoshi/Documents/GitHub/Software/01_jrg/03_VCUJR20/2021_04_29_VCU_jr20_Source/Dave/Generated/DIGITAL_IO\digital_io.h ****  * Copyright (c) 2015-2016, Infineon Technologies AG
  14:C:/Users/Yoshi/Documents/GitHub/Software/01_jrg/03_VCUJR20/2021_04_29_VCU_jr20_Source/Dave/Generated/DIGITAL_IO\digital_io.h ****  * All rights reserved.
  15:C:/Users/Yoshi/Documents/GitHub/Software/01_jrg/03_VCUJR20/2021_04_29_VCU_jr20_Source/Dave/Generated/DIGITAL_IO\digital_io.h ****  *
  16:C:/Users/Yoshi/Documents/GitHub/Software/01_jrg/03_VCUJR20/2021_04_29_VCU_jr20_Source/Dave/Generated/DIGITAL_IO\digital_io.h ****  * Redistribution and use in source and binary forms, with or without modification,are permitted pr
  17:C:/Users/Yoshi/Documents/GitHub/Software/01_jrg/03_VCUJR20/2021_04_29_VCU_jr20_Source/Dave/Generated/DIGITAL_IO\digital_io.h ****  * following conditions are met:
  18:C:/Users/Yoshi/Documents/GitHub/Software/01_jrg/03_VCUJR20/2021_04_29_VCU_jr20_Source/Dave/Generated/DIGITAL_IO\digital_io.h ****  *
  19:C:/Users/Yoshi/Documents/GitHub/Software/01_jrg/03_VCUJR20/2021_04_29_VCU_jr20_Source/Dave/Generated/DIGITAL_IO\digital_io.h ****  *   Redistributions of source code must retain the above copyright notice, this list of conditions
  20:C:/Users/Yoshi/Documents/GitHub/Software/01_jrg/03_VCUJR20/2021_04_29_VCU_jr20_Source/Dave/Generated/DIGITAL_IO\digital_io.h ****  *   disclaimer.
  21:C:/Users/Yoshi/Documents/GitHub/Software/01_jrg/03_VCUJR20/2021_04_29_VCU_jr20_Source/Dave/Generated/DIGITAL_IO\digital_io.h ****  *
  22:C:/Users/Yoshi/Documents/GitHub/Software/01_jrg/03_VCUJR20/2021_04_29_VCU_jr20_Source/Dave/Generated/DIGITAL_IO\digital_io.h ****  *   Redistributions in binary form must reproduce the above copyright notice, this list of conditi
  23:C:/Users/Yoshi/Documents/GitHub/Software/01_jrg/03_VCUJR20/2021_04_29_VCU_jr20_Source/Dave/Generated/DIGITAL_IO\digital_io.h ****  *   following disclaimer in the documentation and/or other materials provided with the distributio
  24:C:/Users/Yoshi/Documents/GitHub/Software/01_jrg/03_VCUJR20/2021_04_29_VCU_jr20_Source/Dave/Generated/DIGITAL_IO\digital_io.h ****  *
  25:C:/Users/Yoshi/Documents/GitHub/Software/01_jrg/03_VCUJR20/2021_04_29_VCU_jr20_Source/Dave/Generated/DIGITAL_IO\digital_io.h ****  *   Neither the name of the copyright holders nor the names of its contributors may be used to end
  26:C:/Users/Yoshi/Documents/GitHub/Software/01_jrg/03_VCUJR20/2021_04_29_VCU_jr20_Source/Dave/Generated/DIGITAL_IO\digital_io.h ****  *   products derived from this software without specific prior written permission.
  27:C:/Users/Yoshi/Documents/GitHub/Software/01_jrg/03_VCUJR20/2021_04_29_VCU_jr20_Source/Dave/Generated/DIGITAL_IO\digital_io.h ****  *
  28:C:/Users/Yoshi/Documents/GitHub/Software/01_jrg/03_VCUJR20/2021_04_29_VCU_jr20_Source/Dave/Generated/DIGITAL_IO\digital_io.h ****  * THIS SOFTWARE IS PROVIDED BY THE COPYRIGHT HOLDERS AND CONTRIBUTORS "AS IS" AND ANY EXPRESS OR I
  29:C:/Users/Yoshi/Documents/GitHub/Software/01_jrg/03_VCUJR20/2021_04_29_VCU_jr20_Source/Dave/Generated/DIGITAL_IO\digital_io.h ****  * INCLUDING, BUT NOT LIMITED TO, THE IMPLIED WARRANTIES OF MERCHANTABILITY AND FITNESS FOR A PARTI
  30:C:/Users/Yoshi/Documents/GitHub/Software/01_jrg/03_VCUJR20/2021_04_29_VCU_jr20_Source/Dave/Generated/DIGITAL_IO\digital_io.h ****  * DISCLAIMED. IN NO EVENT SHALL THE COPYRIGHT HOLDER OR CONTRIBUTORS BE LIABLE  FOR ANY DIRECT, IN
  31:C:/Users/Yoshi/Documents/GitHub/Software/01_jrg/03_VCUJR20/2021_04_29_VCU_jr20_Source/Dave/Generated/DIGITAL_IO\digital_io.h ****  * SPECIAL, EXEMPLARY, OR CONSEQUENTIAL DAMAGES (INCLUDING, BUT NOT LIMITED TO, PROCUREMENT OF SUBS
  32:C:/Users/Yoshi/Documents/GitHub/Software/01_jrg/03_VCUJR20/2021_04_29_VCU_jr20_Source/Dave/Generated/DIGITAL_IO\digital_io.h ****  * SERVICES; LOSS OF USE, DATA, OR PROFITS; OR BUSINESS INTERRUPTION) HOWEVER CAUSED AND ON ANY THE
  33:C:/Users/Yoshi/Documents/GitHub/Software/01_jrg/03_VCUJR20/2021_04_29_VCU_jr20_Source/Dave/Generated/DIGITAL_IO\digital_io.h ****  * WHETHER IN CONTRACT, STRICT LIABILITY,OR TORT (INCLUDING NEGLIGENCE OR OTHERWISE) ARISING IN ANY
  34:C:/Users/Yoshi/Documents/GitHub/Software/01_jrg/03_VCUJR20/2021_04_29_VCU_jr20_Source/Dave/Generated/DIGITAL_IO\digital_io.h ****  * USE OF THIS SOFTWARE, EVEN IF ADVISED OF THE POSSIBILITY OF SUCH DAMAGE.
  35:C:/Users/Yoshi/Documents/GitHub/Software/01_jrg/03_VCUJR20/2021_04_29_VCU_jr20_Source/Dave/Generated/DIGITAL_IO\digital_io.h ****  *
  36:C:/Users/Yoshi/Documents/GitHub/Software/01_jrg/03_VCUJR20/2021_04_29_VCU_jr20_Source/Dave/Generated/DIGITAL_IO\digital_io.h ****  * To improve the quality of the software, users are encouraged to share modifications, enhancement
  37:C:/Users/Yoshi/Documents/GitHub/Software/01_jrg/03_VCUJR20/2021_04_29_VCU_jr20_Source/Dave/Generated/DIGITAL_IO\digital_io.h ****  * with Infineon Technologies AG (dave@infineon.com).
  38:C:/Users/Yoshi/Documents/GitHub/Software/01_jrg/03_VCUJR20/2021_04_29_VCU_jr20_Source/Dave/Generated/DIGITAL_IO\digital_io.h ****  **************************************************************************************************
  39:C:/Users/Yoshi/Documents/GitHub/Software/01_jrg/03_VCUJR20/2021_04_29_VCU_jr20_Source/Dave/Generated/DIGITAL_IO\digital_io.h ****  *
  40:C:/Users/Yoshi/Documents/GitHub/Software/01_jrg/03_VCUJR20/2021_04_29_VCU_jr20_Source/Dave/Generated/DIGITAL_IO\digital_io.h ****  * Change History
  41:C:/Users/Yoshi/Documents/GitHub/Software/01_jrg/03_VCUJR20/2021_04_29_VCU_jr20_Source/Dave/Generated/DIGITAL_IO\digital_io.h ****  * --------------
  42:C:/Users/Yoshi/Documents/GitHub/Software/01_jrg/03_VCUJR20/2021_04_29_VCU_jr20_Source/Dave/Generated/DIGITAL_IO\digital_io.h ****  *
  43:C:/Users/Yoshi/Documents/GitHub/Software/01_jrg/03_VCUJR20/2021_04_29_VCU_jr20_Source/Dave/Generated/DIGITAL_IO\digital_io.h ****  * 2015-02-16
  44:C:/Users/Yoshi/Documents/GitHub/Software/01_jrg/03_VCUJR20/2021_04_29_VCU_jr20_Source/Dave/Generated/DIGITAL_IO\digital_io.h ****  *     - Initial version
  45:C:/Users/Yoshi/Documents/GitHub/Software/01_jrg/03_VCUJR20/2021_04_29_VCU_jr20_Source/Dave/Generated/DIGITAL_IO\digital_io.h ****  *
  46:C:/Users/Yoshi/Documents/GitHub/Software/01_jrg/03_VCUJR20/2021_04_29_VCU_jr20_Source/Dave/Generated/DIGITAL_IO\digital_io.h ****  * 2015-04-22
  47:C:/Users/Yoshi/Documents/GitHub/Software/01_jrg/03_VCUJR20/2021_04_29_VCU_jr20_Source/Dave/Generated/DIGITAL_IO\digital_io.h ****  *     - XMC_ASSERT is added in static inline functions.<br>
  48:C:/Users/Yoshi/Documents/GitHub/Software/01_jrg/03_VCUJR20/2021_04_29_VCU_jr20_Source/Dave/Generated/DIGITAL_IO\digital_io.h ****  *
  49:C:/Users/Yoshi/Documents/GitHub/Software/01_jrg/03_VCUJR20/2021_04_29_VCU_jr20_Source/Dave/Generated/DIGITAL_IO\digital_io.h ****  * 2015-06-20
  50:C:/Users/Yoshi/Documents/GitHub/Software/01_jrg/03_VCUJR20/2021_04_29_VCU_jr20_Source/Dave/Generated/DIGITAL_IO\digital_io.h ****  *     - Version check added for XMCLib dependency.<br>
  51:C:/Users/Yoshi/Documents/GitHub/Software/01_jrg/03_VCUJR20/2021_04_29_VCU_jr20_Source/Dave/Generated/DIGITAL_IO\digital_io.h ****  *
  52:C:/Users/Yoshi/Documents/GitHub/Software/01_jrg/03_VCUJR20/2021_04_29_VCU_jr20_Source/Dave/Generated/DIGITAL_IO\digital_io.h ****  * 2015-12-22
  53:C:/Users/Yoshi/Documents/GitHub/Software/01_jrg/03_VCUJR20/2021_04_29_VCU_jr20_Source/Dave/Generated/DIGITAL_IO\digital_io.h ****  *     - Added hardware controlled IO feature.
  54:C:/Users/Yoshi/Documents/GitHub/Software/01_jrg/03_VCUJR20/2021_04_29_VCU_jr20_Source/Dave/Generated/DIGITAL_IO\digital_io.h ****  * 2016-07-08:
  55:C:/Users/Yoshi/Documents/GitHub/Software/01_jrg/03_VCUJR20/2021_04_29_VCU_jr20_Source/Dave/Generated/DIGITAL_IO\digital_io.h ****  *     - Fixed incorrect case for an included header.<br>
  56:C:/Users/Yoshi/Documents/GitHub/Software/01_jrg/03_VCUJR20/2021_04_29_VCU_jr20_Source/Dave/Generated/DIGITAL_IO\digital_io.h ****  *
  57:C:/Users/Yoshi/Documents/GitHub/Software/01_jrg/03_VCUJR20/2021_04_29_VCU_jr20_Source/Dave/Generated/DIGITAL_IO\digital_io.h ****  * @endcond
  58:C:/Users/Yoshi/Documents/GitHub/Software/01_jrg/03_VCUJR20/2021_04_29_VCU_jr20_Source/Dave/Generated/DIGITAL_IO\digital_io.h ****  *
  59:C:/Users/Yoshi/Documents/GitHub/Software/01_jrg/03_VCUJR20/2021_04_29_VCU_jr20_Source/Dave/Generated/DIGITAL_IO\digital_io.h ****  */
  60:C:/Users/Yoshi/Documents/GitHub/Software/01_jrg/03_VCUJR20/2021_04_29_VCU_jr20_Source/Dave/Generated/DIGITAL_IO\digital_io.h **** 
  61:C:/Users/Yoshi/Documents/GitHub/Software/01_jrg/03_VCUJR20/2021_04_29_VCU_jr20_Source/Dave/Generated/DIGITAL_IO\digital_io.h **** /**************************************************************************************************
  62:C:/Users/Yoshi/Documents/GitHub/Software/01_jrg/03_VCUJR20/2021_04_29_VCU_jr20_Source/Dave/Generated/DIGITAL_IO\digital_io.h ****  * HEADER FILES
  63:C:/Users/Yoshi/Documents/GitHub/Software/01_jrg/03_VCUJR20/2021_04_29_VCU_jr20_Source/Dave/Generated/DIGITAL_IO\digital_io.h ****  **************************************************************************************************
  64:C:/Users/Yoshi/Documents/GitHub/Software/01_jrg/03_VCUJR20/2021_04_29_VCU_jr20_Source/Dave/Generated/DIGITAL_IO\digital_io.h **** 
  65:C:/Users/Yoshi/Documents/GitHub/Software/01_jrg/03_VCUJR20/2021_04_29_VCU_jr20_Source/Dave/Generated/DIGITAL_IO\digital_io.h **** #ifndef DIGITAL_IO_H
  66:C:/Users/Yoshi/Documents/GitHub/Software/01_jrg/03_VCUJR20/2021_04_29_VCU_jr20_Source/Dave/Generated/DIGITAL_IO\digital_io.h **** #define DIGITAL_IO_H
  67:C:/Users/Yoshi/Documents/GitHub/Software/01_jrg/03_VCUJR20/2021_04_29_VCU_jr20_Source/Dave/Generated/DIGITAL_IO\digital_io.h **** 
  68:C:/Users/Yoshi/Documents/GitHub/Software/01_jrg/03_VCUJR20/2021_04_29_VCU_jr20_Source/Dave/Generated/DIGITAL_IO\digital_io.h **** #include <xmc_gpio.h>
  69:C:/Users/Yoshi/Documents/GitHub/Software/01_jrg/03_VCUJR20/2021_04_29_VCU_jr20_Source/Dave/Generated/DIGITAL_IO\digital_io.h **** #include <DAVE_Common.h>
  70:C:/Users/Yoshi/Documents/GitHub/Software/01_jrg/03_VCUJR20/2021_04_29_VCU_jr20_Source/Dave/Generated/DIGITAL_IO\digital_io.h **** #include "digital_io_conf.h"
  71:C:/Users/Yoshi/Documents/GitHub/Software/01_jrg/03_VCUJR20/2021_04_29_VCU_jr20_Source/Dave/Generated/DIGITAL_IO\digital_io.h **** 
  72:C:/Users/Yoshi/Documents/GitHub/Software/01_jrg/03_VCUJR20/2021_04_29_VCU_jr20_Source/Dave/Generated/DIGITAL_IO\digital_io.h **** /**************************************************************************************************
  73:C:/Users/Yoshi/Documents/GitHub/Software/01_jrg/03_VCUJR20/2021_04_29_VCU_jr20_Source/Dave/Generated/DIGITAL_IO\digital_io.h ****  * MACROS
  74:C:/Users/Yoshi/Documents/GitHub/Software/01_jrg/03_VCUJR20/2021_04_29_VCU_jr20_Source/Dave/Generated/DIGITAL_IO\digital_io.h ****  **************************************************************************************************
  75:C:/Users/Yoshi/Documents/GitHub/Software/01_jrg/03_VCUJR20/2021_04_29_VCU_jr20_Source/Dave/Generated/DIGITAL_IO\digital_io.h **** #if (!((XMC_LIB_MAJOR_VERSION == 2U) && \
  76:C:/Users/Yoshi/Documents/GitHub/Software/01_jrg/03_VCUJR20/2021_04_29_VCU_jr20_Source/Dave/Generated/DIGITAL_IO\digital_io.h ****        (XMC_LIB_MINOR_VERSION >= 0U) && \
  77:C:/Users/Yoshi/Documents/GitHub/Software/01_jrg/03_VCUJR20/2021_04_29_VCU_jr20_Source/Dave/Generated/DIGITAL_IO\digital_io.h ****        (XMC_LIB_PATCH_VERSION >= 0U)))
  78:C:/Users/Yoshi/Documents/GitHub/Software/01_jrg/03_VCUJR20/2021_04_29_VCU_jr20_Source/Dave/Generated/DIGITAL_IO\digital_io.h **** #error "DIGITAL_IO requires XMC Peripheral Library v2.0.0 or higher"
  79:C:/Users/Yoshi/Documents/GitHub/Software/01_jrg/03_VCUJR20/2021_04_29_VCU_jr20_Source/Dave/Generated/DIGITAL_IO\digital_io.h **** #endif
  80:C:/Users/Yoshi/Documents/GitHub/Software/01_jrg/03_VCUJR20/2021_04_29_VCU_jr20_Source/Dave/Generated/DIGITAL_IO\digital_io.h **** 
  81:C:/Users/Yoshi/Documents/GitHub/Software/01_jrg/03_VCUJR20/2021_04_29_VCU_jr20_Source/Dave/Generated/DIGITAL_IO\digital_io.h ****  /*************************************************************************************************
  82:C:/Users/Yoshi/Documents/GitHub/Software/01_jrg/03_VCUJR20/2021_04_29_VCU_jr20_Source/Dave/Generated/DIGITAL_IO\digital_io.h ****  * ENUMS
  83:C:/Users/Yoshi/Documents/GitHub/Software/01_jrg/03_VCUJR20/2021_04_29_VCU_jr20_Source/Dave/Generated/DIGITAL_IO\digital_io.h ****  **************************************************************************************************
  84:C:/Users/Yoshi/Documents/GitHub/Software/01_jrg/03_VCUJR20/2021_04_29_VCU_jr20_Source/Dave/Generated/DIGITAL_IO\digital_io.h **** 
  85:C:/Users/Yoshi/Documents/GitHub/Software/01_jrg/03_VCUJR20/2021_04_29_VCU_jr20_Source/Dave/Generated/DIGITAL_IO\digital_io.h **** /**
  86:C:/Users/Yoshi/Documents/GitHub/Software/01_jrg/03_VCUJR20/2021_04_29_VCU_jr20_Source/Dave/Generated/DIGITAL_IO\digital_io.h **** * @ingroup DIGITAL_IO_enumerations
  87:C:/Users/Yoshi/Documents/GitHub/Software/01_jrg/03_VCUJR20/2021_04_29_VCU_jr20_Source/Dave/Generated/DIGITAL_IO\digital_io.h **** * @{
  88:C:/Users/Yoshi/Documents/GitHub/Software/01_jrg/03_VCUJR20/2021_04_29_VCU_jr20_Source/Dave/Generated/DIGITAL_IO\digital_io.h **** */
  89:C:/Users/Yoshi/Documents/GitHub/Software/01_jrg/03_VCUJR20/2021_04_29_VCU_jr20_Source/Dave/Generated/DIGITAL_IO\digital_io.h **** 
  90:C:/Users/Yoshi/Documents/GitHub/Software/01_jrg/03_VCUJR20/2021_04_29_VCU_jr20_Source/Dave/Generated/DIGITAL_IO\digital_io.h **** /**
  91:C:/Users/Yoshi/Documents/GitHub/Software/01_jrg/03_VCUJR20/2021_04_29_VCU_jr20_Source/Dave/Generated/DIGITAL_IO\digital_io.h **** * @brief Initialization status of DIGITAL_IO APP.
  92:C:/Users/Yoshi/Documents/GitHub/Software/01_jrg/03_VCUJR20/2021_04_29_VCU_jr20_Source/Dave/Generated/DIGITAL_IO\digital_io.h **** */
  93:C:/Users/Yoshi/Documents/GitHub/Software/01_jrg/03_VCUJR20/2021_04_29_VCU_jr20_Source/Dave/Generated/DIGITAL_IO\digital_io.h **** typedef enum DIGITAL_IO_STATUS
  94:C:/Users/Yoshi/Documents/GitHub/Software/01_jrg/03_VCUJR20/2021_04_29_VCU_jr20_Source/Dave/Generated/DIGITAL_IO\digital_io.h **** {
  95:C:/Users/Yoshi/Documents/GitHub/Software/01_jrg/03_VCUJR20/2021_04_29_VCU_jr20_Source/Dave/Generated/DIGITAL_IO\digital_io.h ****   DIGITAL_IO_STATUS_OK = 0U,/**< 0=Status OK */
  96:C:/Users/Yoshi/Documents/GitHub/Software/01_jrg/03_VCUJR20/2021_04_29_VCU_jr20_Source/Dave/Generated/DIGITAL_IO\digital_io.h ****   DIGITAL_IO_STATUS_FAILURE = 1U/**< 1=Status Failed */
  97:C:/Users/Yoshi/Documents/GitHub/Software/01_jrg/03_VCUJR20/2021_04_29_VCU_jr20_Source/Dave/Generated/DIGITAL_IO\digital_io.h **** } DIGITAL_IO_STATUS_t;
  98:C:/Users/Yoshi/Documents/GitHub/Software/01_jrg/03_VCUJR20/2021_04_29_VCU_jr20_Source/Dave/Generated/DIGITAL_IO\digital_io.h **** 
  99:C:/Users/Yoshi/Documents/GitHub/Software/01_jrg/03_VCUJR20/2021_04_29_VCU_jr20_Source/Dave/Generated/DIGITAL_IO\digital_io.h **** /**
 100:C:/Users/Yoshi/Documents/GitHub/Software/01_jrg/03_VCUJR20/2021_04_29_VCU_jr20_Source/Dave/Generated/DIGITAL_IO\digital_io.h **** * @}
 101:C:/Users/Yoshi/Documents/GitHub/Software/01_jrg/03_VCUJR20/2021_04_29_VCU_jr20_Source/Dave/Generated/DIGITAL_IO\digital_io.h **** */
 102:C:/Users/Yoshi/Documents/GitHub/Software/01_jrg/03_VCUJR20/2021_04_29_VCU_jr20_Source/Dave/Generated/DIGITAL_IO\digital_io.h **** 
 103:C:/Users/Yoshi/Documents/GitHub/Software/01_jrg/03_VCUJR20/2021_04_29_VCU_jr20_Source/Dave/Generated/DIGITAL_IO\digital_io.h **** /**************************************************************************************************
 104:C:/Users/Yoshi/Documents/GitHub/Software/01_jrg/03_VCUJR20/2021_04_29_VCU_jr20_Source/Dave/Generated/DIGITAL_IO\digital_io.h ****  * DATA STRUCTURES
 105:C:/Users/Yoshi/Documents/GitHub/Software/01_jrg/03_VCUJR20/2021_04_29_VCU_jr20_Source/Dave/Generated/DIGITAL_IO\digital_io.h ****  **************************************************************************************************
 106:C:/Users/Yoshi/Documents/GitHub/Software/01_jrg/03_VCUJR20/2021_04_29_VCU_jr20_Source/Dave/Generated/DIGITAL_IO\digital_io.h **** /**
 107:C:/Users/Yoshi/Documents/GitHub/Software/01_jrg/03_VCUJR20/2021_04_29_VCU_jr20_Source/Dave/Generated/DIGITAL_IO\digital_io.h **** * @ingroup DIGITAL_IO_datastructures
 108:C:/Users/Yoshi/Documents/GitHub/Software/01_jrg/03_VCUJR20/2021_04_29_VCU_jr20_Source/Dave/Generated/DIGITAL_IO\digital_io.h **** * @{
 109:C:/Users/Yoshi/Documents/GitHub/Software/01_jrg/03_VCUJR20/2021_04_29_VCU_jr20_Source/Dave/Generated/DIGITAL_IO\digital_io.h **** */
 110:C:/Users/Yoshi/Documents/GitHub/Software/01_jrg/03_VCUJR20/2021_04_29_VCU_jr20_Source/Dave/Generated/DIGITAL_IO\digital_io.h **** 
 111:C:/Users/Yoshi/Documents/GitHub/Software/01_jrg/03_VCUJR20/2021_04_29_VCU_jr20_Source/Dave/Generated/DIGITAL_IO\digital_io.h **** /**
 112:C:/Users/Yoshi/Documents/GitHub/Software/01_jrg/03_VCUJR20/2021_04_29_VCU_jr20_Source/Dave/Generated/DIGITAL_IO\digital_io.h **** * @brief Initialization data structure of DIGITAL_IO APP
 113:C:/Users/Yoshi/Documents/GitHub/Software/01_jrg/03_VCUJR20/2021_04_29_VCU_jr20_Source/Dave/Generated/DIGITAL_IO\digital_io.h **** */
 114:C:/Users/Yoshi/Documents/GitHub/Software/01_jrg/03_VCUJR20/2021_04_29_VCU_jr20_Source/Dave/Generated/DIGITAL_IO\digital_io.h **** typedef struct DIGITAL_IO
 115:C:/Users/Yoshi/Documents/GitHub/Software/01_jrg/03_VCUJR20/2021_04_29_VCU_jr20_Source/Dave/Generated/DIGITAL_IO\digital_io.h **** {
 116:C:/Users/Yoshi/Documents/GitHub/Software/01_jrg/03_VCUJR20/2021_04_29_VCU_jr20_Source/Dave/Generated/DIGITAL_IO\digital_io.h ****   XMC_GPIO_PORT_t *const gpio_port;             /**< port number */
 117:C:/Users/Yoshi/Documents/GitHub/Software/01_jrg/03_VCUJR20/2021_04_29_VCU_jr20_Source/Dave/Generated/DIGITAL_IO\digital_io.h ****   const XMC_GPIO_CONFIG_t gpio_config;          /**< mode, initial output level and pad driver stre
 118:C:/Users/Yoshi/Documents/GitHub/Software/01_jrg/03_VCUJR20/2021_04_29_VCU_jr20_Source/Dave/Generated/DIGITAL_IO\digital_io.h ****   const uint8_t gpio_pin;                       /**< pin number */
 119:C:/Users/Yoshi/Documents/GitHub/Software/01_jrg/03_VCUJR20/2021_04_29_VCU_jr20_Source/Dave/Generated/DIGITAL_IO\digital_io.h ****   const XMC_GPIO_HWCTRL_t hwctrl;               /**< Hardware port control */
 120:C:/Users/Yoshi/Documents/GitHub/Software/01_jrg/03_VCUJR20/2021_04_29_VCU_jr20_Source/Dave/Generated/DIGITAL_IO\digital_io.h **** } DIGITAL_IO_t;
 121:C:/Users/Yoshi/Documents/GitHub/Software/01_jrg/03_VCUJR20/2021_04_29_VCU_jr20_Source/Dave/Generated/DIGITAL_IO\digital_io.h **** 
 122:C:/Users/Yoshi/Documents/GitHub/Software/01_jrg/03_VCUJR20/2021_04_29_VCU_jr20_Source/Dave/Generated/DIGITAL_IO\digital_io.h **** 
 123:C:/Users/Yoshi/Documents/GitHub/Software/01_jrg/03_VCUJR20/2021_04_29_VCU_jr20_Source/Dave/Generated/DIGITAL_IO\digital_io.h **** /**
 124:C:/Users/Yoshi/Documents/GitHub/Software/01_jrg/03_VCUJR20/2021_04_29_VCU_jr20_Source/Dave/Generated/DIGITAL_IO\digital_io.h **** * @}
 125:C:/Users/Yoshi/Documents/GitHub/Software/01_jrg/03_VCUJR20/2021_04_29_VCU_jr20_Source/Dave/Generated/DIGITAL_IO\digital_io.h **** */
 126:C:/Users/Yoshi/Documents/GitHub/Software/01_jrg/03_VCUJR20/2021_04_29_VCU_jr20_Source/Dave/Generated/DIGITAL_IO\digital_io.h **** 
 127:C:/Users/Yoshi/Documents/GitHub/Software/01_jrg/03_VCUJR20/2021_04_29_VCU_jr20_Source/Dave/Generated/DIGITAL_IO\digital_io.h **** 
 128:C:/Users/Yoshi/Documents/GitHub/Software/01_jrg/03_VCUJR20/2021_04_29_VCU_jr20_Source/Dave/Generated/DIGITAL_IO\digital_io.h **** /**************************************************************************************************
 129:C:/Users/Yoshi/Documents/GitHub/Software/01_jrg/03_VCUJR20/2021_04_29_VCU_jr20_Source/Dave/Generated/DIGITAL_IO\digital_io.h ****  * API Prototypes
 130:C:/Users/Yoshi/Documents/GitHub/Software/01_jrg/03_VCUJR20/2021_04_29_VCU_jr20_Source/Dave/Generated/DIGITAL_IO\digital_io.h ****  **************************************************************************************************
 131:C:/Users/Yoshi/Documents/GitHub/Software/01_jrg/03_VCUJR20/2021_04_29_VCU_jr20_Source/Dave/Generated/DIGITAL_IO\digital_io.h **** 
 132:C:/Users/Yoshi/Documents/GitHub/Software/01_jrg/03_VCUJR20/2021_04_29_VCU_jr20_Source/Dave/Generated/DIGITAL_IO\digital_io.h **** 
 133:C:/Users/Yoshi/Documents/GitHub/Software/01_jrg/03_VCUJR20/2021_04_29_VCU_jr20_Source/Dave/Generated/DIGITAL_IO\digital_io.h **** #ifdef __cplusplus
 134:C:/Users/Yoshi/Documents/GitHub/Software/01_jrg/03_VCUJR20/2021_04_29_VCU_jr20_Source/Dave/Generated/DIGITAL_IO\digital_io.h **** extern "C" {
 135:C:/Users/Yoshi/Documents/GitHub/Software/01_jrg/03_VCUJR20/2021_04_29_VCU_jr20_Source/Dave/Generated/DIGITAL_IO\digital_io.h **** #endif
 136:C:/Users/Yoshi/Documents/GitHub/Software/01_jrg/03_VCUJR20/2021_04_29_VCU_jr20_Source/Dave/Generated/DIGITAL_IO\digital_io.h **** 
 137:C:/Users/Yoshi/Documents/GitHub/Software/01_jrg/03_VCUJR20/2021_04_29_VCU_jr20_Source/Dave/Generated/DIGITAL_IO\digital_io.h **** /**
 138:C:/Users/Yoshi/Documents/GitHub/Software/01_jrg/03_VCUJR20/2021_04_29_VCU_jr20_Source/Dave/Generated/DIGITAL_IO\digital_io.h **** * @ingroup DIGITAL_IO_apidoc
 139:C:/Users/Yoshi/Documents/GitHub/Software/01_jrg/03_VCUJR20/2021_04_29_VCU_jr20_Source/Dave/Generated/DIGITAL_IO\digital_io.h **** * @{
 140:C:/Users/Yoshi/Documents/GitHub/Software/01_jrg/03_VCUJR20/2021_04_29_VCU_jr20_Source/Dave/Generated/DIGITAL_IO\digital_io.h **** */
 141:C:/Users/Yoshi/Documents/GitHub/Software/01_jrg/03_VCUJR20/2021_04_29_VCU_jr20_Source/Dave/Generated/DIGITAL_IO\digital_io.h **** 
 142:C:/Users/Yoshi/Documents/GitHub/Software/01_jrg/03_VCUJR20/2021_04_29_VCU_jr20_Source/Dave/Generated/DIGITAL_IO\digital_io.h **** 
 143:C:/Users/Yoshi/Documents/GitHub/Software/01_jrg/03_VCUJR20/2021_04_29_VCU_jr20_Source/Dave/Generated/DIGITAL_IO\digital_io.h **** 
 144:C:/Users/Yoshi/Documents/GitHub/Software/01_jrg/03_VCUJR20/2021_04_29_VCU_jr20_Source/Dave/Generated/DIGITAL_IO\digital_io.h **** /**
 145:C:/Users/Yoshi/Documents/GitHub/Software/01_jrg/03_VCUJR20/2021_04_29_VCU_jr20_Source/Dave/Generated/DIGITAL_IO\digital_io.h **** * @brief Get DIGITAL_IO APP version
 146:C:/Users/Yoshi/Documents/GitHub/Software/01_jrg/03_VCUJR20/2021_04_29_VCU_jr20_Source/Dave/Generated/DIGITAL_IO\digital_io.h **** * @return DAVE_APP_VERSION_t APP version information (major, minor and patch number)
 147:C:/Users/Yoshi/Documents/GitHub/Software/01_jrg/03_VCUJR20/2021_04_29_VCU_jr20_Source/Dave/Generated/DIGITAL_IO\digital_io.h **** *
 148:C:/Users/Yoshi/Documents/GitHub/Software/01_jrg/03_VCUJR20/2021_04_29_VCU_jr20_Source/Dave/Generated/DIGITAL_IO\digital_io.h **** * \par<b>Description: </b><br>
 149:C:/Users/Yoshi/Documents/GitHub/Software/01_jrg/03_VCUJR20/2021_04_29_VCU_jr20_Source/Dave/Generated/DIGITAL_IO\digital_io.h **** * The function can be used to check application software compatibility with a
 150:C:/Users/Yoshi/Documents/GitHub/Software/01_jrg/03_VCUJR20/2021_04_29_VCU_jr20_Source/Dave/Generated/DIGITAL_IO\digital_io.h **** * specific version of the APP.
 151:C:/Users/Yoshi/Documents/GitHub/Software/01_jrg/03_VCUJR20/2021_04_29_VCU_jr20_Source/Dave/Generated/DIGITAL_IO\digital_io.h **** *
 152:C:/Users/Yoshi/Documents/GitHub/Software/01_jrg/03_VCUJR20/2021_04_29_VCU_jr20_Source/Dave/Generated/DIGITAL_IO\digital_io.h **** * Example Usage:
 153:C:/Users/Yoshi/Documents/GitHub/Software/01_jrg/03_VCUJR20/2021_04_29_VCU_jr20_Source/Dave/Generated/DIGITAL_IO\digital_io.h **** *
 154:C:/Users/Yoshi/Documents/GitHub/Software/01_jrg/03_VCUJR20/2021_04_29_VCU_jr20_Source/Dave/Generated/DIGITAL_IO\digital_io.h **** * @code
 155:C:/Users/Yoshi/Documents/GitHub/Software/01_jrg/03_VCUJR20/2021_04_29_VCU_jr20_Source/Dave/Generated/DIGITAL_IO\digital_io.h **** * #include <DAVE.h>
 156:C:/Users/Yoshi/Documents/GitHub/Software/01_jrg/03_VCUJR20/2021_04_29_VCU_jr20_Source/Dave/Generated/DIGITAL_IO\digital_io.h **** *
 157:C:/Users/Yoshi/Documents/GitHub/Software/01_jrg/03_VCUJR20/2021_04_29_VCU_jr20_Source/Dave/Generated/DIGITAL_IO\digital_io.h **** * int main(void)
 158:C:/Users/Yoshi/Documents/GitHub/Software/01_jrg/03_VCUJR20/2021_04_29_VCU_jr20_Source/Dave/Generated/DIGITAL_IO\digital_io.h **** * {
 159:C:/Users/Yoshi/Documents/GitHub/Software/01_jrg/03_VCUJR20/2021_04_29_VCU_jr20_Source/Dave/Generated/DIGITAL_IO\digital_io.h **** *   DAVE_STATUS_t init_status;
 160:C:/Users/Yoshi/Documents/GitHub/Software/01_jrg/03_VCUJR20/2021_04_29_VCU_jr20_Source/Dave/Generated/DIGITAL_IO\digital_io.h **** *   DAVE_APP_VERSION_t version;
 161:C:/Users/Yoshi/Documents/GitHub/Software/01_jrg/03_VCUJR20/2021_04_29_VCU_jr20_Source/Dave/Generated/DIGITAL_IO\digital_io.h **** *
 162:C:/Users/Yoshi/Documents/GitHub/Software/01_jrg/03_VCUJR20/2021_04_29_VCU_jr20_Source/Dave/Generated/DIGITAL_IO\digital_io.h **** *   // Initialize DIGITAL_IO APP:
 163:C:/Users/Yoshi/Documents/GitHub/Software/01_jrg/03_VCUJR20/2021_04_29_VCU_jr20_Source/Dave/Generated/DIGITAL_IO\digital_io.h **** *   // DIGITAL_IO_Init() is called from within DAVE_Init().
 164:C:/Users/Yoshi/Documents/GitHub/Software/01_jrg/03_VCUJR20/2021_04_29_VCU_jr20_Source/Dave/Generated/DIGITAL_IO\digital_io.h **** *   init_status = DAVE_Init();
 165:C:/Users/Yoshi/Documents/GitHub/Software/01_jrg/03_VCUJR20/2021_04_29_VCU_jr20_Source/Dave/Generated/DIGITAL_IO\digital_io.h **** *   if(init_status == DAVE_STATUS_SUCCESS)
 166:C:/Users/Yoshi/Documents/GitHub/Software/01_jrg/03_VCUJR20/2021_04_29_VCU_jr20_Source/Dave/Generated/DIGITAL_IO\digital_io.h **** *   {
 167:C:/Users/Yoshi/Documents/GitHub/Software/01_jrg/03_VCUJR20/2021_04_29_VCU_jr20_Source/Dave/Generated/DIGITAL_IO\digital_io.h **** *     version = DIGITAL_IO_GetAppVersion();
 168:C:/Users/Yoshi/Documents/GitHub/Software/01_jrg/03_VCUJR20/2021_04_29_VCU_jr20_Source/Dave/Generated/DIGITAL_IO\digital_io.h **** *     if (version.major != 4U) {
 169:C:/Users/Yoshi/Documents/GitHub/Software/01_jrg/03_VCUJR20/2021_04_29_VCU_jr20_Source/Dave/Generated/DIGITAL_IO\digital_io.h **** *     // Probably, not the right version.
 170:C:/Users/Yoshi/Documents/GitHub/Software/01_jrg/03_VCUJR20/2021_04_29_VCU_jr20_Source/Dave/Generated/DIGITAL_IO\digital_io.h **** *     }
 171:C:/Users/Yoshi/Documents/GitHub/Software/01_jrg/03_VCUJR20/2021_04_29_VCU_jr20_Source/Dave/Generated/DIGITAL_IO\digital_io.h **** *   }
 172:C:/Users/Yoshi/Documents/GitHub/Software/01_jrg/03_VCUJR20/2021_04_29_VCU_jr20_Source/Dave/Generated/DIGITAL_IO\digital_io.h **** *
 173:C:/Users/Yoshi/Documents/GitHub/Software/01_jrg/03_VCUJR20/2021_04_29_VCU_jr20_Source/Dave/Generated/DIGITAL_IO\digital_io.h **** *     // More code here
 174:C:/Users/Yoshi/Documents/GitHub/Software/01_jrg/03_VCUJR20/2021_04_29_VCU_jr20_Source/Dave/Generated/DIGITAL_IO\digital_io.h **** *     while(1) {
 175:C:/Users/Yoshi/Documents/GitHub/Software/01_jrg/03_VCUJR20/2021_04_29_VCU_jr20_Source/Dave/Generated/DIGITAL_IO\digital_io.h **** *
 176:C:/Users/Yoshi/Documents/GitHub/Software/01_jrg/03_VCUJR20/2021_04_29_VCU_jr20_Source/Dave/Generated/DIGITAL_IO\digital_io.h **** *     }
 177:C:/Users/Yoshi/Documents/GitHub/Software/01_jrg/03_VCUJR20/2021_04_29_VCU_jr20_Source/Dave/Generated/DIGITAL_IO\digital_io.h **** *     return (1);
 178:C:/Users/Yoshi/Documents/GitHub/Software/01_jrg/03_VCUJR20/2021_04_29_VCU_jr20_Source/Dave/Generated/DIGITAL_IO\digital_io.h **** *  }
 179:C:/Users/Yoshi/Documents/GitHub/Software/01_jrg/03_VCUJR20/2021_04_29_VCU_jr20_Source/Dave/Generated/DIGITAL_IO\digital_io.h **** * @endcode<BR>
 180:C:/Users/Yoshi/Documents/GitHub/Software/01_jrg/03_VCUJR20/2021_04_29_VCU_jr20_Source/Dave/Generated/DIGITAL_IO\digital_io.h **** */
 181:C:/Users/Yoshi/Documents/GitHub/Software/01_jrg/03_VCUJR20/2021_04_29_VCU_jr20_Source/Dave/Generated/DIGITAL_IO\digital_io.h **** 
 182:C:/Users/Yoshi/Documents/GitHub/Software/01_jrg/03_VCUJR20/2021_04_29_VCU_jr20_Source/Dave/Generated/DIGITAL_IO\digital_io.h **** DAVE_APP_VERSION_t DIGITAL_IO_GetAppVersion(void);
 183:C:/Users/Yoshi/Documents/GitHub/Software/01_jrg/03_VCUJR20/2021_04_29_VCU_jr20_Source/Dave/Generated/DIGITAL_IO\digital_io.h **** 
 184:C:/Users/Yoshi/Documents/GitHub/Software/01_jrg/03_VCUJR20/2021_04_29_VCU_jr20_Source/Dave/Generated/DIGITAL_IO\digital_io.h **** /**
 185:C:/Users/Yoshi/Documents/GitHub/Software/01_jrg/03_VCUJR20/2021_04_29_VCU_jr20_Source/Dave/Generated/DIGITAL_IO\digital_io.h **** *
 186:C:/Users/Yoshi/Documents/GitHub/Software/01_jrg/03_VCUJR20/2021_04_29_VCU_jr20_Source/Dave/Generated/DIGITAL_IO\digital_io.h **** * @brief Function to initialize the port pin as per UI settings.
 187:C:/Users/Yoshi/Documents/GitHub/Software/01_jrg/03_VCUJR20/2021_04_29_VCU_jr20_Source/Dave/Generated/DIGITAL_IO\digital_io.h **** * @param handler Pointer pointing to APP data structure. Refer @ref DIGITAL_IO_t for details.
 188:C:/Users/Yoshi/Documents/GitHub/Software/01_jrg/03_VCUJR20/2021_04_29_VCU_jr20_Source/Dave/Generated/DIGITAL_IO\digital_io.h **** * @return DIGITAL_IO_STATUS_t DIGITAL_IO APP status. Refer @ref DIGITAL_IO_STATUS_t structure for d
 189:C:/Users/Yoshi/Documents/GitHub/Software/01_jrg/03_VCUJR20/2021_04_29_VCU_jr20_Source/Dave/Generated/DIGITAL_IO\digital_io.h **** *
 190:C:/Users/Yoshi/Documents/GitHub/Software/01_jrg/03_VCUJR20/2021_04_29_VCU_jr20_Source/Dave/Generated/DIGITAL_IO\digital_io.h **** * \par<b>Description:</b><br>
 191:C:/Users/Yoshi/Documents/GitHub/Software/01_jrg/03_VCUJR20/2021_04_29_VCU_jr20_Source/Dave/Generated/DIGITAL_IO\digital_io.h **** * This function initializes GPIO port registers IOCR,PDISC,OMR,PDR/PHCR to configure pin direction,
 192:C:/Users/Yoshi/Documents/GitHub/Software/01_jrg/03_VCUJR20/2021_04_29_VCU_jr20_Source/Dave/Generated/DIGITAL_IO\digital_io.h **** * and pad driver strength/hysteresis.
 193:C:/Users/Yoshi/Documents/GitHub/Software/01_jrg/03_VCUJR20/2021_04_29_VCU_jr20_Source/Dave/Generated/DIGITAL_IO\digital_io.h **** *
 194:C:/Users/Yoshi/Documents/GitHub/Software/01_jrg/03_VCUJR20/2021_04_29_VCU_jr20_Source/Dave/Generated/DIGITAL_IO\digital_io.h **** * \par<b>Related APIs:</b><BR>
 195:C:/Users/Yoshi/Documents/GitHub/Software/01_jrg/03_VCUJR20/2021_04_29_VCU_jr20_Source/Dave/Generated/DIGITAL_IO\digital_io.h **** * None
 196:C:/Users/Yoshi/Documents/GitHub/Software/01_jrg/03_VCUJR20/2021_04_29_VCU_jr20_Source/Dave/Generated/DIGITAL_IO\digital_io.h **** *
 197:C:/Users/Yoshi/Documents/GitHub/Software/01_jrg/03_VCUJR20/2021_04_29_VCU_jr20_Source/Dave/Generated/DIGITAL_IO\digital_io.h **** * Example Usage:
 198:C:/Users/Yoshi/Documents/GitHub/Software/01_jrg/03_VCUJR20/2021_04_29_VCU_jr20_Source/Dave/Generated/DIGITAL_IO\digital_io.h **** * @code
 199:C:/Users/Yoshi/Documents/GitHub/Software/01_jrg/03_VCUJR20/2021_04_29_VCU_jr20_Source/Dave/Generated/DIGITAL_IO\digital_io.h **** * #include <DAVE.h>//Declarations from DAVE Code Generation (includes SFR declaration)
 200:C:/Users/Yoshi/Documents/GitHub/Software/01_jrg/03_VCUJR20/2021_04_29_VCU_jr20_Source/Dave/Generated/DIGITAL_IO\digital_io.h **** * int main(void)
 201:C:/Users/Yoshi/Documents/GitHub/Software/01_jrg/03_VCUJR20/2021_04_29_VCU_jr20_Source/Dave/Generated/DIGITAL_IO\digital_io.h **** * {
 202:C:/Users/Yoshi/Documents/GitHub/Software/01_jrg/03_VCUJR20/2021_04_29_VCU_jr20_Source/Dave/Generated/DIGITAL_IO\digital_io.h **** *   DAVE_STATUS_t status;
 203:C:/Users/Yoshi/Documents/GitHub/Software/01_jrg/03_VCUJR20/2021_04_29_VCU_jr20_Source/Dave/Generated/DIGITAL_IO\digital_io.h **** *   status = DAVE_Init();  //(DAVE_STATUS_t)DIGITAL_IO_Init(&DIGITAL_IO_0) is called within DAVE_In
 204:C:/Users/Yoshi/Documents/GitHub/Software/01_jrg/03_VCUJR20/2021_04_29_VCU_jr20_Source/Dave/Generated/DIGITAL_IO\digital_io.h **** *   if(status == DAVE_STATUS_SUCCESS)
 205:C:/Users/Yoshi/Documents/GitHub/Software/01_jrg/03_VCUJR20/2021_04_29_VCU_jr20_Source/Dave/Generated/DIGITAL_IO\digital_io.h **** *   {
 206:C:/Users/Yoshi/Documents/GitHub/Software/01_jrg/03_VCUJR20/2021_04_29_VCU_jr20_Source/Dave/Generated/DIGITAL_IO\digital_io.h **** *     XMC_DEBUG("DAVE Apps initialization success\n");
 207:C:/Users/Yoshi/Documents/GitHub/Software/01_jrg/03_VCUJR20/2021_04_29_VCU_jr20_Source/Dave/Generated/DIGITAL_IO\digital_io.h **** *   }
 208:C:/Users/Yoshi/Documents/GitHub/Software/01_jrg/03_VCUJR20/2021_04_29_VCU_jr20_Source/Dave/Generated/DIGITAL_IO\digital_io.h **** *   else
 209:C:/Users/Yoshi/Documents/GitHub/Software/01_jrg/03_VCUJR20/2021_04_29_VCU_jr20_Source/Dave/Generated/DIGITAL_IO\digital_io.h **** *   {
 210:C:/Users/Yoshi/Documents/GitHub/Software/01_jrg/03_VCUJR20/2021_04_29_VCU_jr20_Source/Dave/Generated/DIGITAL_IO\digital_io.h **** *     XMC_DEBUG(("DAVE Apps initialization failed with status %d\n", status));
 211:C:/Users/Yoshi/Documents/GitHub/Software/01_jrg/03_VCUJR20/2021_04_29_VCU_jr20_Source/Dave/Generated/DIGITAL_IO\digital_io.h **** *     while(1U)
 212:C:/Users/Yoshi/Documents/GitHub/Software/01_jrg/03_VCUJR20/2021_04_29_VCU_jr20_Source/Dave/Generated/DIGITAL_IO\digital_io.h **** *     {
 213:C:/Users/Yoshi/Documents/GitHub/Software/01_jrg/03_VCUJR20/2021_04_29_VCU_jr20_Source/Dave/Generated/DIGITAL_IO\digital_io.h **** *     }
 214:C:/Users/Yoshi/Documents/GitHub/Software/01_jrg/03_VCUJR20/2021_04_29_VCU_jr20_Source/Dave/Generated/DIGITAL_IO\digital_io.h **** *   }
 215:C:/Users/Yoshi/Documents/GitHub/Software/01_jrg/03_VCUJR20/2021_04_29_VCU_jr20_Source/Dave/Generated/DIGITAL_IO\digital_io.h **** *   //Placeholder for user application code. The while loop below can be replaced with user applica
 216:C:/Users/Yoshi/Documents/GitHub/Software/01_jrg/03_VCUJR20/2021_04_29_VCU_jr20_Source/Dave/Generated/DIGITAL_IO\digital_io.h **** *   while(1U)
 217:C:/Users/Yoshi/Documents/GitHub/Software/01_jrg/03_VCUJR20/2021_04_29_VCU_jr20_Source/Dave/Generated/DIGITAL_IO\digital_io.h **** *   {
 218:C:/Users/Yoshi/Documents/GitHub/Software/01_jrg/03_VCUJR20/2021_04_29_VCU_jr20_Source/Dave/Generated/DIGITAL_IO\digital_io.h **** *   }
 219:C:/Users/Yoshi/Documents/GitHub/Software/01_jrg/03_VCUJR20/2021_04_29_VCU_jr20_Source/Dave/Generated/DIGITAL_IO\digital_io.h **** *   return 1U;
 220:C:/Users/Yoshi/Documents/GitHub/Software/01_jrg/03_VCUJR20/2021_04_29_VCU_jr20_Source/Dave/Generated/DIGITAL_IO\digital_io.h **** *  }
 221:C:/Users/Yoshi/Documents/GitHub/Software/01_jrg/03_VCUJR20/2021_04_29_VCU_jr20_Source/Dave/Generated/DIGITAL_IO\digital_io.h **** *  @endcode
 222:C:/Users/Yoshi/Documents/GitHub/Software/01_jrg/03_VCUJR20/2021_04_29_VCU_jr20_Source/Dave/Generated/DIGITAL_IO\digital_io.h **** */
 223:C:/Users/Yoshi/Documents/GitHub/Software/01_jrg/03_VCUJR20/2021_04_29_VCU_jr20_Source/Dave/Generated/DIGITAL_IO\digital_io.h **** 
 224:C:/Users/Yoshi/Documents/GitHub/Software/01_jrg/03_VCUJR20/2021_04_29_VCU_jr20_Source/Dave/Generated/DIGITAL_IO\digital_io.h **** DIGITAL_IO_STATUS_t DIGITAL_IO_Init(const DIGITAL_IO_t *const handler);
 225:C:/Users/Yoshi/Documents/GitHub/Software/01_jrg/03_VCUJR20/2021_04_29_VCU_jr20_Source/Dave/Generated/DIGITAL_IO\digital_io.h **** 
 226:C:/Users/Yoshi/Documents/GitHub/Software/01_jrg/03_VCUJR20/2021_04_29_VCU_jr20_Source/Dave/Generated/DIGITAL_IO\digital_io.h **** /**
 227:C:/Users/Yoshi/Documents/GitHub/Software/01_jrg/03_VCUJR20/2021_04_29_VCU_jr20_Source/Dave/Generated/DIGITAL_IO\digital_io.h **** *
 228:C:/Users/Yoshi/Documents/GitHub/Software/01_jrg/03_VCUJR20/2021_04_29_VCU_jr20_Source/Dave/Generated/DIGITAL_IO\digital_io.h **** * @brief Function to set port pin high.
 229:C:/Users/Yoshi/Documents/GitHub/Software/01_jrg/03_VCUJR20/2021_04_29_VCU_jr20_Source/Dave/Generated/DIGITAL_IO\digital_io.h **** * @param handler Pointer pointing to APP data structure. Refer @ref DIGITAL_IO_t for details.
 230:C:/Users/Yoshi/Documents/GitHub/Software/01_jrg/03_VCUJR20/2021_04_29_VCU_jr20_Source/Dave/Generated/DIGITAL_IO\digital_io.h **** * @return None
 231:C:/Users/Yoshi/Documents/GitHub/Software/01_jrg/03_VCUJR20/2021_04_29_VCU_jr20_Source/Dave/Generated/DIGITAL_IO\digital_io.h **** *
 232:C:/Users/Yoshi/Documents/GitHub/Software/01_jrg/03_VCUJR20/2021_04_29_VCU_jr20_Source/Dave/Generated/DIGITAL_IO\digital_io.h **** * \par<b>Description:</b><br>
 233:C:/Users/Yoshi/Documents/GitHub/Software/01_jrg/03_VCUJR20/2021_04_29_VCU_jr20_Source/Dave/Generated/DIGITAL_IO\digital_io.h **** * This function configures port output modification register Pn_OMR, to make port pin to high level
 234:C:/Users/Yoshi/Documents/GitHub/Software/01_jrg/03_VCUJR20/2021_04_29_VCU_jr20_Source/Dave/Generated/DIGITAL_IO\digital_io.h **** *
 235:C:/Users/Yoshi/Documents/GitHub/Software/01_jrg/03_VCUJR20/2021_04_29_VCU_jr20_Source/Dave/Generated/DIGITAL_IO\digital_io.h **** * \par<b>Related APIs:</b><BR>
 236:C:/Users/Yoshi/Documents/GitHub/Software/01_jrg/03_VCUJR20/2021_04_29_VCU_jr20_Source/Dave/Generated/DIGITAL_IO\digital_io.h **** *  DIGITAL_IO_SetOutputLow()
 237:C:/Users/Yoshi/Documents/GitHub/Software/01_jrg/03_VCUJR20/2021_04_29_VCU_jr20_Source/Dave/Generated/DIGITAL_IO\digital_io.h **** *
 238:C:/Users/Yoshi/Documents/GitHub/Software/01_jrg/03_VCUJR20/2021_04_29_VCU_jr20_Source/Dave/Generated/DIGITAL_IO\digital_io.h **** * Example Usage:
 239:C:/Users/Yoshi/Documents/GitHub/Software/01_jrg/03_VCUJR20/2021_04_29_VCU_jr20_Source/Dave/Generated/DIGITAL_IO\digital_io.h **** * @code
 240:C:/Users/Yoshi/Documents/GitHub/Software/01_jrg/03_VCUJR20/2021_04_29_VCU_jr20_Source/Dave/Generated/DIGITAL_IO\digital_io.h **** * #include <DAVE.h>//Declarations from DAVE Code Generation (includes SFR declaration)
 241:C:/Users/Yoshi/Documents/GitHub/Software/01_jrg/03_VCUJR20/2021_04_29_VCU_jr20_Source/Dave/Generated/DIGITAL_IO\digital_io.h **** * int main(void)
 242:C:/Users/Yoshi/Documents/GitHub/Software/01_jrg/03_VCUJR20/2021_04_29_VCU_jr20_Source/Dave/Generated/DIGITAL_IO\digital_io.h **** * {
 243:C:/Users/Yoshi/Documents/GitHub/Software/01_jrg/03_VCUJR20/2021_04_29_VCU_jr20_Source/Dave/Generated/DIGITAL_IO\digital_io.h **** *   DAVE_STATUS_t status;
 244:C:/Users/Yoshi/Documents/GitHub/Software/01_jrg/03_VCUJR20/2021_04_29_VCU_jr20_Source/Dave/Generated/DIGITAL_IO\digital_io.h **** *   status = DAVE_Init();  //(DAVE_STATUS_t)DIGITAL_IO_Init(&DIGITAL_IO_0) is called within DAVE_In
 245:C:/Users/Yoshi/Documents/GitHub/Software/01_jrg/03_VCUJR20/2021_04_29_VCU_jr20_Source/Dave/Generated/DIGITAL_IO\digital_io.h **** *   if(status == DAVE_STATUS_SUCCESS)
 246:C:/Users/Yoshi/Documents/GitHub/Software/01_jrg/03_VCUJR20/2021_04_29_VCU_jr20_Source/Dave/Generated/DIGITAL_IO\digital_io.h **** *   {
 247:C:/Users/Yoshi/Documents/GitHub/Software/01_jrg/03_VCUJR20/2021_04_29_VCU_jr20_Source/Dave/Generated/DIGITAL_IO\digital_io.h **** *     XMC_DEBUG("DAVE Apps initialization success\n");
 248:C:/Users/Yoshi/Documents/GitHub/Software/01_jrg/03_VCUJR20/2021_04_29_VCU_jr20_Source/Dave/Generated/DIGITAL_IO\digital_io.h **** *   }
 249:C:/Users/Yoshi/Documents/GitHub/Software/01_jrg/03_VCUJR20/2021_04_29_VCU_jr20_Source/Dave/Generated/DIGITAL_IO\digital_io.h **** *   else
 250:C:/Users/Yoshi/Documents/GitHub/Software/01_jrg/03_VCUJR20/2021_04_29_VCU_jr20_Source/Dave/Generated/DIGITAL_IO\digital_io.h **** *   {
 251:C:/Users/Yoshi/Documents/GitHub/Software/01_jrg/03_VCUJR20/2021_04_29_VCU_jr20_Source/Dave/Generated/DIGITAL_IO\digital_io.h **** *     XMC_DEBUG(("DAVE Apps initialization failed with status %d\n", status));
 252:C:/Users/Yoshi/Documents/GitHub/Software/01_jrg/03_VCUJR20/2021_04_29_VCU_jr20_Source/Dave/Generated/DIGITAL_IO\digital_io.h **** *     while(1U)
 253:C:/Users/Yoshi/Documents/GitHub/Software/01_jrg/03_VCUJR20/2021_04_29_VCU_jr20_Source/Dave/Generated/DIGITAL_IO\digital_io.h **** *     {
 254:C:/Users/Yoshi/Documents/GitHub/Software/01_jrg/03_VCUJR20/2021_04_29_VCU_jr20_Source/Dave/Generated/DIGITAL_IO\digital_io.h **** *     }
 255:C:/Users/Yoshi/Documents/GitHub/Software/01_jrg/03_VCUJR20/2021_04_29_VCU_jr20_Source/Dave/Generated/DIGITAL_IO\digital_io.h **** *   }
 256:C:/Users/Yoshi/Documents/GitHub/Software/01_jrg/03_VCUJR20/2021_04_29_VCU_jr20_Source/Dave/Generated/DIGITAL_IO\digital_io.h **** *   //Placeholder for user application code. The while loop below can be replaced with user applica
 257:C:/Users/Yoshi/Documents/GitHub/Software/01_jrg/03_VCUJR20/2021_04_29_VCU_jr20_Source/Dave/Generated/DIGITAL_IO\digital_io.h **** *   DIGITAL_IO_SetOutputHigh(&DIGITAL_IO_0);
 258:C:/Users/Yoshi/Documents/GitHub/Software/01_jrg/03_VCUJR20/2021_04_29_VCU_jr20_Source/Dave/Generated/DIGITAL_IO\digital_io.h **** *   while(1U)
 259:C:/Users/Yoshi/Documents/GitHub/Software/01_jrg/03_VCUJR20/2021_04_29_VCU_jr20_Source/Dave/Generated/DIGITAL_IO\digital_io.h **** *   {
 260:C:/Users/Yoshi/Documents/GitHub/Software/01_jrg/03_VCUJR20/2021_04_29_VCU_jr20_Source/Dave/Generated/DIGITAL_IO\digital_io.h **** *     // Add application code here
 261:C:/Users/Yoshi/Documents/GitHub/Software/01_jrg/03_VCUJR20/2021_04_29_VCU_jr20_Source/Dave/Generated/DIGITAL_IO\digital_io.h **** *   }
 262:C:/Users/Yoshi/Documents/GitHub/Software/01_jrg/03_VCUJR20/2021_04_29_VCU_jr20_Source/Dave/Generated/DIGITAL_IO\digital_io.h **** *
 263:C:/Users/Yoshi/Documents/GitHub/Software/01_jrg/03_VCUJR20/2021_04_29_VCU_jr20_Source/Dave/Generated/DIGITAL_IO\digital_io.h **** *   return (1);
 264:C:/Users/Yoshi/Documents/GitHub/Software/01_jrg/03_VCUJR20/2021_04_29_VCU_jr20_Source/Dave/Generated/DIGITAL_IO\digital_io.h **** * }
 265:C:/Users/Yoshi/Documents/GitHub/Software/01_jrg/03_VCUJR20/2021_04_29_VCU_jr20_Source/Dave/Generated/DIGITAL_IO\digital_io.h **** *  @endcode
 266:C:/Users/Yoshi/Documents/GitHub/Software/01_jrg/03_VCUJR20/2021_04_29_VCU_jr20_Source/Dave/Generated/DIGITAL_IO\digital_io.h **** */
 267:C:/Users/Yoshi/Documents/GitHub/Software/01_jrg/03_VCUJR20/2021_04_29_VCU_jr20_Source/Dave/Generated/DIGITAL_IO\digital_io.h **** 
 268:C:/Users/Yoshi/Documents/GitHub/Software/01_jrg/03_VCUJR20/2021_04_29_VCU_jr20_Source/Dave/Generated/DIGITAL_IO\digital_io.h **** __STATIC_INLINE void DIGITAL_IO_SetOutputHigh(const DIGITAL_IO_t *const handler)
 269:C:/Users/Yoshi/Documents/GitHub/Software/01_jrg/03_VCUJR20/2021_04_29_VCU_jr20_Source/Dave/Generated/DIGITAL_IO\digital_io.h **** {
 270:C:/Users/Yoshi/Documents/GitHub/Software/01_jrg/03_VCUJR20/2021_04_29_VCU_jr20_Source/Dave/Generated/DIGITAL_IO\digital_io.h ****   XMC_ASSERT("DIGITAL_IO_SetOutputHigh: handler null pointer", handler != NULL);
 271:C:/Users/Yoshi/Documents/GitHub/Software/01_jrg/03_VCUJR20/2021_04_29_VCU_jr20_Source/Dave/Generated/DIGITAL_IO\digital_io.h ****   XMC_GPIO_SetOutputHigh(handler->gpio_port, handler->gpio_pin);
 272:C:/Users/Yoshi/Documents/GitHub/Software/01_jrg/03_VCUJR20/2021_04_29_VCU_jr20_Source/Dave/Generated/DIGITAL_IO\digital_io.h **** }
 273:C:/Users/Yoshi/Documents/GitHub/Software/01_jrg/03_VCUJR20/2021_04_29_VCU_jr20_Source/Dave/Generated/DIGITAL_IO\digital_io.h **** 
 274:C:/Users/Yoshi/Documents/GitHub/Software/01_jrg/03_VCUJR20/2021_04_29_VCU_jr20_Source/Dave/Generated/DIGITAL_IO\digital_io.h **** /**
 275:C:/Users/Yoshi/Documents/GitHub/Software/01_jrg/03_VCUJR20/2021_04_29_VCU_jr20_Source/Dave/Generated/DIGITAL_IO\digital_io.h **** * @brief Function to reset port pin.
 276:C:/Users/Yoshi/Documents/GitHub/Software/01_jrg/03_VCUJR20/2021_04_29_VCU_jr20_Source/Dave/Generated/DIGITAL_IO\digital_io.h **** * @param handler Pointer pointing to APP data structure. Refer @ref DIGITAL_IO_t for details.
 277:C:/Users/Yoshi/Documents/GitHub/Software/01_jrg/03_VCUJR20/2021_04_29_VCU_jr20_Source/Dave/Generated/DIGITAL_IO\digital_io.h **** * @return None
 278:C:/Users/Yoshi/Documents/GitHub/Software/01_jrg/03_VCUJR20/2021_04_29_VCU_jr20_Source/Dave/Generated/DIGITAL_IO\digital_io.h **** *
 279:C:/Users/Yoshi/Documents/GitHub/Software/01_jrg/03_VCUJR20/2021_04_29_VCU_jr20_Source/Dave/Generated/DIGITAL_IO\digital_io.h **** * \par<b>Description:</b><br>
 280:C:/Users/Yoshi/Documents/GitHub/Software/01_jrg/03_VCUJR20/2021_04_29_VCU_jr20_Source/Dave/Generated/DIGITAL_IO\digital_io.h **** * This function configures port output modification register Pn_OMR, to make port pin to low level.
 281:C:/Users/Yoshi/Documents/GitHub/Software/01_jrg/03_VCUJR20/2021_04_29_VCU_jr20_Source/Dave/Generated/DIGITAL_IO\digital_io.h **** *
 282:C:/Users/Yoshi/Documents/GitHub/Software/01_jrg/03_VCUJR20/2021_04_29_VCU_jr20_Source/Dave/Generated/DIGITAL_IO\digital_io.h **** * \par<b>Related APIs:</b><BR>
 283:C:/Users/Yoshi/Documents/GitHub/Software/01_jrg/03_VCUJR20/2021_04_29_VCU_jr20_Source/Dave/Generated/DIGITAL_IO\digital_io.h **** * DIGITAL_IO_SetOutputHigh()
 284:C:/Users/Yoshi/Documents/GitHub/Software/01_jrg/03_VCUJR20/2021_04_29_VCU_jr20_Source/Dave/Generated/DIGITAL_IO\digital_io.h **** *
 285:C:/Users/Yoshi/Documents/GitHub/Software/01_jrg/03_VCUJR20/2021_04_29_VCU_jr20_Source/Dave/Generated/DIGITAL_IO\digital_io.h **** * Example Usage:
 286:C:/Users/Yoshi/Documents/GitHub/Software/01_jrg/03_VCUJR20/2021_04_29_VCU_jr20_Source/Dave/Generated/DIGITAL_IO\digital_io.h **** * @code
 287:C:/Users/Yoshi/Documents/GitHub/Software/01_jrg/03_VCUJR20/2021_04_29_VCU_jr20_Source/Dave/Generated/DIGITAL_IO\digital_io.h **** *  #include <DAVE.h>//Declarations from DAVE Code Generation (includes SFR declaration)
 288:C:/Users/Yoshi/Documents/GitHub/Software/01_jrg/03_VCUJR20/2021_04_29_VCU_jr20_Source/Dave/Generated/DIGITAL_IO\digital_io.h **** *  int main(void)
 289:C:/Users/Yoshi/Documents/GitHub/Software/01_jrg/03_VCUJR20/2021_04_29_VCU_jr20_Source/Dave/Generated/DIGITAL_IO\digital_io.h **** *  {
 290:C:/Users/Yoshi/Documents/GitHub/Software/01_jrg/03_VCUJR20/2021_04_29_VCU_jr20_Source/Dave/Generated/DIGITAL_IO\digital_io.h **** *    DAVE_STATUS_t status;
 291:C:/Users/Yoshi/Documents/GitHub/Software/01_jrg/03_VCUJR20/2021_04_29_VCU_jr20_Source/Dave/Generated/DIGITAL_IO\digital_io.h **** *    status = DAVE_Init();  //(DAVE_STATUS_t)DIGITAL_IO_Init(&DIGITAL_IO_0) is called within DAVE_I
 292:C:/Users/Yoshi/Documents/GitHub/Software/01_jrg/03_VCUJR20/2021_04_29_VCU_jr20_Source/Dave/Generated/DIGITAL_IO\digital_io.h **** *    if(status == DAVE_STATUS_SUCCESS)
 293:C:/Users/Yoshi/Documents/GitHub/Software/01_jrg/03_VCUJR20/2021_04_29_VCU_jr20_Source/Dave/Generated/DIGITAL_IO\digital_io.h **** *    {
 294:C:/Users/Yoshi/Documents/GitHub/Software/01_jrg/03_VCUJR20/2021_04_29_VCU_jr20_Source/Dave/Generated/DIGITAL_IO\digital_io.h **** *      XMC_DEBUG("DAVE Apps initialization success\n");
 295:C:/Users/Yoshi/Documents/GitHub/Software/01_jrg/03_VCUJR20/2021_04_29_VCU_jr20_Source/Dave/Generated/DIGITAL_IO\digital_io.h **** *    }
 296:C:/Users/Yoshi/Documents/GitHub/Software/01_jrg/03_VCUJR20/2021_04_29_VCU_jr20_Source/Dave/Generated/DIGITAL_IO\digital_io.h **** *    else
 297:C:/Users/Yoshi/Documents/GitHub/Software/01_jrg/03_VCUJR20/2021_04_29_VCU_jr20_Source/Dave/Generated/DIGITAL_IO\digital_io.h **** *    {
 298:C:/Users/Yoshi/Documents/GitHub/Software/01_jrg/03_VCUJR20/2021_04_29_VCU_jr20_Source/Dave/Generated/DIGITAL_IO\digital_io.h **** *      XMC_DEBUG(("DAVE Apps initialization failed with status %d\n", status));
 299:C:/Users/Yoshi/Documents/GitHub/Software/01_jrg/03_VCUJR20/2021_04_29_VCU_jr20_Source/Dave/Generated/DIGITAL_IO\digital_io.h **** *      while(1U)
 300:C:/Users/Yoshi/Documents/GitHub/Software/01_jrg/03_VCUJR20/2021_04_29_VCU_jr20_Source/Dave/Generated/DIGITAL_IO\digital_io.h **** *      {
 301:C:/Users/Yoshi/Documents/GitHub/Software/01_jrg/03_VCUJR20/2021_04_29_VCU_jr20_Source/Dave/Generated/DIGITAL_IO\digital_io.h **** *      }
 302:C:/Users/Yoshi/Documents/GitHub/Software/01_jrg/03_VCUJR20/2021_04_29_VCU_jr20_Source/Dave/Generated/DIGITAL_IO\digital_io.h **** *    }
 303:C:/Users/Yoshi/Documents/GitHub/Software/01_jrg/03_VCUJR20/2021_04_29_VCU_jr20_Source/Dave/Generated/DIGITAL_IO\digital_io.h **** *    //Placeholder for user application code. The while loop below can be replaced with user applic
 304:C:/Users/Yoshi/Documents/GitHub/Software/01_jrg/03_VCUJR20/2021_04_29_VCU_jr20_Source/Dave/Generated/DIGITAL_IO\digital_io.h **** *    DIGITAL_IO_SetOutputLow(&DIGITAL_IO_0);
 305:C:/Users/Yoshi/Documents/GitHub/Software/01_jrg/03_VCUJR20/2021_04_29_VCU_jr20_Source/Dave/Generated/DIGITAL_IO\digital_io.h **** *    while(1U)
 306:C:/Users/Yoshi/Documents/GitHub/Software/01_jrg/03_VCUJR20/2021_04_29_VCU_jr20_Source/Dave/Generated/DIGITAL_IO\digital_io.h **** *    {
 307:C:/Users/Yoshi/Documents/GitHub/Software/01_jrg/03_VCUJR20/2021_04_29_VCU_jr20_Source/Dave/Generated/DIGITAL_IO\digital_io.h **** *      // Add application code here
 308:C:/Users/Yoshi/Documents/GitHub/Software/01_jrg/03_VCUJR20/2021_04_29_VCU_jr20_Source/Dave/Generated/DIGITAL_IO\digital_io.h **** *    }
 309:C:/Users/Yoshi/Documents/GitHub/Software/01_jrg/03_VCUJR20/2021_04_29_VCU_jr20_Source/Dave/Generated/DIGITAL_IO\digital_io.h **** *
 310:C:/Users/Yoshi/Documents/GitHub/Software/01_jrg/03_VCUJR20/2021_04_29_VCU_jr20_Source/Dave/Generated/DIGITAL_IO\digital_io.h **** *   return (1);
 311:C:/Users/Yoshi/Documents/GitHub/Software/01_jrg/03_VCUJR20/2021_04_29_VCU_jr20_Source/Dave/Generated/DIGITAL_IO\digital_io.h **** * }
 312:C:/Users/Yoshi/Documents/GitHub/Software/01_jrg/03_VCUJR20/2021_04_29_VCU_jr20_Source/Dave/Generated/DIGITAL_IO\digital_io.h **** *  @endcode
 313:C:/Users/Yoshi/Documents/GitHub/Software/01_jrg/03_VCUJR20/2021_04_29_VCU_jr20_Source/Dave/Generated/DIGITAL_IO\digital_io.h **** */
 314:C:/Users/Yoshi/Documents/GitHub/Software/01_jrg/03_VCUJR20/2021_04_29_VCU_jr20_Source/Dave/Generated/DIGITAL_IO\digital_io.h **** 
 315:C:/Users/Yoshi/Documents/GitHub/Software/01_jrg/03_VCUJR20/2021_04_29_VCU_jr20_Source/Dave/Generated/DIGITAL_IO\digital_io.h **** __STATIC_INLINE void DIGITAL_IO_SetOutputLow(const DIGITAL_IO_t *const handler)
 316:C:/Users/Yoshi/Documents/GitHub/Software/01_jrg/03_VCUJR20/2021_04_29_VCU_jr20_Source/Dave/Generated/DIGITAL_IO\digital_io.h **** {
 317:C:/Users/Yoshi/Documents/GitHub/Software/01_jrg/03_VCUJR20/2021_04_29_VCU_jr20_Source/Dave/Generated/DIGITAL_IO\digital_io.h ****   XMC_ASSERT("DIGITAL_IO_SetOutputLow: handler null pointer", handler != NULL);
 318:C:/Users/Yoshi/Documents/GitHub/Software/01_jrg/03_VCUJR20/2021_04_29_VCU_jr20_Source/Dave/Generated/DIGITAL_IO\digital_io.h ****   XMC_GPIO_SetOutputLow(handler->gpio_port,handler->gpio_pin);
 319:C:/Users/Yoshi/Documents/GitHub/Software/01_jrg/03_VCUJR20/2021_04_29_VCU_jr20_Source/Dave/Generated/DIGITAL_IO\digital_io.h **** }
 320:C:/Users/Yoshi/Documents/GitHub/Software/01_jrg/03_VCUJR20/2021_04_29_VCU_jr20_Source/Dave/Generated/DIGITAL_IO\digital_io.h **** 
 321:C:/Users/Yoshi/Documents/GitHub/Software/01_jrg/03_VCUJR20/2021_04_29_VCU_jr20_Source/Dave/Generated/DIGITAL_IO\digital_io.h **** /**
 322:C:/Users/Yoshi/Documents/GitHub/Software/01_jrg/03_VCUJR20/2021_04_29_VCU_jr20_Source/Dave/Generated/DIGITAL_IO\digital_io.h **** * @brief Function to Toggle port pin.
 323:C:/Users/Yoshi/Documents/GitHub/Software/01_jrg/03_VCUJR20/2021_04_29_VCU_jr20_Source/Dave/Generated/DIGITAL_IO\digital_io.h **** * @param handler Pointer pointing to APP data structure. Refer @ref DIGITAL_IO_t for details.
 324:C:/Users/Yoshi/Documents/GitHub/Software/01_jrg/03_VCUJR20/2021_04_29_VCU_jr20_Source/Dave/Generated/DIGITAL_IO\digital_io.h **** * @return None
 325:C:/Users/Yoshi/Documents/GitHub/Software/01_jrg/03_VCUJR20/2021_04_29_VCU_jr20_Source/Dave/Generated/DIGITAL_IO\digital_io.h **** *
 326:C:/Users/Yoshi/Documents/GitHub/Software/01_jrg/03_VCUJR20/2021_04_29_VCU_jr20_Source/Dave/Generated/DIGITAL_IO\digital_io.h **** * \par<b>Description:</b><br>
 327:C:/Users/Yoshi/Documents/GitHub/Software/01_jrg/03_VCUJR20/2021_04_29_VCU_jr20_Source/Dave/Generated/DIGITAL_IO\digital_io.h **** * This function configures port output modification register Pn_OMR, to toggle port pin.
 328:C:/Users/Yoshi/Documents/GitHub/Software/01_jrg/03_VCUJR20/2021_04_29_VCU_jr20_Source/Dave/Generated/DIGITAL_IO\digital_io.h **** *
 329:C:/Users/Yoshi/Documents/GitHub/Software/01_jrg/03_VCUJR20/2021_04_29_VCU_jr20_Source/Dave/Generated/DIGITAL_IO\digital_io.h **** * \par<b>Related APIs:</b><BR>
 330:C:/Users/Yoshi/Documents/GitHub/Software/01_jrg/03_VCUJR20/2021_04_29_VCU_jr20_Source/Dave/Generated/DIGITAL_IO\digital_io.h **** * DIGITAL_IO_SetOutputLow(), DIGITAL_IO_SetOutputHigh()
 331:C:/Users/Yoshi/Documents/GitHub/Software/01_jrg/03_VCUJR20/2021_04_29_VCU_jr20_Source/Dave/Generated/DIGITAL_IO\digital_io.h **** *
 332:C:/Users/Yoshi/Documents/GitHub/Software/01_jrg/03_VCUJR20/2021_04_29_VCU_jr20_Source/Dave/Generated/DIGITAL_IO\digital_io.h **** * Example Usage:
 333:C:/Users/Yoshi/Documents/GitHub/Software/01_jrg/03_VCUJR20/2021_04_29_VCU_jr20_Source/Dave/Generated/DIGITAL_IO\digital_io.h **** *
 334:C:/Users/Yoshi/Documents/GitHub/Software/01_jrg/03_VCUJR20/2021_04_29_VCU_jr20_Source/Dave/Generated/DIGITAL_IO\digital_io.h **** * @code
 335:C:/Users/Yoshi/Documents/GitHub/Software/01_jrg/03_VCUJR20/2021_04_29_VCU_jr20_Source/Dave/Generated/DIGITAL_IO\digital_io.h **** * #include <DAVE.h>//Declarations from DAVE Code Generation (includes SFR declaration)
 336:C:/Users/Yoshi/Documents/GitHub/Software/01_jrg/03_VCUJR20/2021_04_29_VCU_jr20_Source/Dave/Generated/DIGITAL_IO\digital_io.h **** * int main(void)
 337:C:/Users/Yoshi/Documents/GitHub/Software/01_jrg/03_VCUJR20/2021_04_29_VCU_jr20_Source/Dave/Generated/DIGITAL_IO\digital_io.h **** * {
 338:C:/Users/Yoshi/Documents/GitHub/Software/01_jrg/03_VCUJR20/2021_04_29_VCU_jr20_Source/Dave/Generated/DIGITAL_IO\digital_io.h **** *   DAVE_STATUS_t status;
 339:C:/Users/Yoshi/Documents/GitHub/Software/01_jrg/03_VCUJR20/2021_04_29_VCU_jr20_Source/Dave/Generated/DIGITAL_IO\digital_io.h **** *   uint32_t delay_count;;
 340:C:/Users/Yoshi/Documents/GitHub/Software/01_jrg/03_VCUJR20/2021_04_29_VCU_jr20_Source/Dave/Generated/DIGITAL_IO\digital_io.h **** *   status = DAVE_Init();  //(DAVE_STATUS_t)DIGITAL_IO_Init(&DIGITAL_IO_0) is called within DAVE_In
 341:C:/Users/Yoshi/Documents/GitHub/Software/01_jrg/03_VCUJR20/2021_04_29_VCU_jr20_Source/Dave/Generated/DIGITAL_IO\digital_io.h **** *   if(status == DAVE_STATUS_SUCCESS)
 342:C:/Users/Yoshi/Documents/GitHub/Software/01_jrg/03_VCUJR20/2021_04_29_VCU_jr20_Source/Dave/Generated/DIGITAL_IO\digital_io.h **** *   {
 343:C:/Users/Yoshi/Documents/GitHub/Software/01_jrg/03_VCUJR20/2021_04_29_VCU_jr20_Source/Dave/Generated/DIGITAL_IO\digital_io.h **** *     XMC_DEBUG("DAVE Apps initialization success\n");
 344:C:/Users/Yoshi/Documents/GitHub/Software/01_jrg/03_VCUJR20/2021_04_29_VCU_jr20_Source/Dave/Generated/DIGITAL_IO\digital_io.h **** *   }
 345:C:/Users/Yoshi/Documents/GitHub/Software/01_jrg/03_VCUJR20/2021_04_29_VCU_jr20_Source/Dave/Generated/DIGITAL_IO\digital_io.h **** *   else
 346:C:/Users/Yoshi/Documents/GitHub/Software/01_jrg/03_VCUJR20/2021_04_29_VCU_jr20_Source/Dave/Generated/DIGITAL_IO\digital_io.h **** *   {
 347:C:/Users/Yoshi/Documents/GitHub/Software/01_jrg/03_VCUJR20/2021_04_29_VCU_jr20_Source/Dave/Generated/DIGITAL_IO\digital_io.h **** *      XMC_DEBUG(("DAVE Apps initialization failed with status %d\n", status));
 348:C:/Users/Yoshi/Documents/GitHub/Software/01_jrg/03_VCUJR20/2021_04_29_VCU_jr20_Source/Dave/Generated/DIGITAL_IO\digital_io.h **** *      while(1U)
 349:C:/Users/Yoshi/Documents/GitHub/Software/01_jrg/03_VCUJR20/2021_04_29_VCU_jr20_Source/Dave/Generated/DIGITAL_IO\digital_io.h **** *      {
 350:C:/Users/Yoshi/Documents/GitHub/Software/01_jrg/03_VCUJR20/2021_04_29_VCU_jr20_Source/Dave/Generated/DIGITAL_IO\digital_io.h **** *      }
 351:C:/Users/Yoshi/Documents/GitHub/Software/01_jrg/03_VCUJR20/2021_04_29_VCU_jr20_Source/Dave/Generated/DIGITAL_IO\digital_io.h **** *   }
 352:C:/Users/Yoshi/Documents/GitHub/Software/01_jrg/03_VCUJR20/2021_04_29_VCU_jr20_Source/Dave/Generated/DIGITAL_IO\digital_io.h **** *   //Placeholder for user application code. The while loop below can be replaced with user applica
 353:C:/Users/Yoshi/Documents/GitHub/Software/01_jrg/03_VCUJR20/2021_04_29_VCU_jr20_Source/Dave/Generated/DIGITAL_IO\digital_io.h **** *   while(1U)
 354:C:/Users/Yoshi/Documents/GitHub/Software/01_jrg/03_VCUJR20/2021_04_29_VCU_jr20_Source/Dave/Generated/DIGITAL_IO\digital_io.h **** *   {
 355:C:/Users/Yoshi/Documents/GitHub/Software/01_jrg/03_VCUJR20/2021_04_29_VCU_jr20_Source/Dave/Generated/DIGITAL_IO\digital_io.h **** *      DIGITAL_IO_ToggleOutput(&DIGITAL_IO_0); //toggles : 1 -> 0 (if initial output level is logic
 356:C:/Users/Yoshi/Documents/GitHub/Software/01_jrg/03_VCUJR20/2021_04_29_VCU_jr20_Source/Dave/Generated/DIGITAL_IO\digital_io.h **** *      //Add application code here
 357:C:/Users/Yoshi/Documents/GitHub/Software/01_jrg/03_VCUJR20/2021_04_29_VCU_jr20_Source/Dave/Generated/DIGITAL_IO\digital_io.h **** *      for(delay_count = 0;delay_count<0xfffff;delay_count++);
 358:C:/Users/Yoshi/Documents/GitHub/Software/01_jrg/03_VCUJR20/2021_04_29_VCU_jr20_Source/Dave/Generated/DIGITAL_IO\digital_io.h **** *      DIGITAL_IO_ToggleOutput(&DIGITAL_IO_0); //toggles : 0 -> 1
 359:C:/Users/Yoshi/Documents/GitHub/Software/01_jrg/03_VCUJR20/2021_04_29_VCU_jr20_Source/Dave/Generated/DIGITAL_IO\digital_io.h **** *      //Add application code here
 360:C:/Users/Yoshi/Documents/GitHub/Software/01_jrg/03_VCUJR20/2021_04_29_VCU_jr20_Source/Dave/Generated/DIGITAL_IO\digital_io.h **** *      for(delay_count = 0;delay_count<0xfffff;delay_count++);
 361:C:/Users/Yoshi/Documents/GitHub/Software/01_jrg/03_VCUJR20/2021_04_29_VCU_jr20_Source/Dave/Generated/DIGITAL_IO\digital_io.h **** *   }
 362:C:/Users/Yoshi/Documents/GitHub/Software/01_jrg/03_VCUJR20/2021_04_29_VCU_jr20_Source/Dave/Generated/DIGITAL_IO\digital_io.h **** *   return (1);
 363:C:/Users/Yoshi/Documents/GitHub/Software/01_jrg/03_VCUJR20/2021_04_29_VCU_jr20_Source/Dave/Generated/DIGITAL_IO\digital_io.h **** * }
 364:C:/Users/Yoshi/Documents/GitHub/Software/01_jrg/03_VCUJR20/2021_04_29_VCU_jr20_Source/Dave/Generated/DIGITAL_IO\digital_io.h **** *  @endcode
 365:C:/Users/Yoshi/Documents/GitHub/Software/01_jrg/03_VCUJR20/2021_04_29_VCU_jr20_Source/Dave/Generated/DIGITAL_IO\digital_io.h **** */
 366:C:/Users/Yoshi/Documents/GitHub/Software/01_jrg/03_VCUJR20/2021_04_29_VCU_jr20_Source/Dave/Generated/DIGITAL_IO\digital_io.h **** 
 367:C:/Users/Yoshi/Documents/GitHub/Software/01_jrg/03_VCUJR20/2021_04_29_VCU_jr20_Source/Dave/Generated/DIGITAL_IO\digital_io.h **** __STATIC_INLINE void DIGITAL_IO_ToggleOutput(const DIGITAL_IO_t *const handler)
 368:C:/Users/Yoshi/Documents/GitHub/Software/01_jrg/03_VCUJR20/2021_04_29_VCU_jr20_Source/Dave/Generated/DIGITAL_IO\digital_io.h **** {
 369:C:/Users/Yoshi/Documents/GitHub/Software/01_jrg/03_VCUJR20/2021_04_29_VCU_jr20_Source/Dave/Generated/DIGITAL_IO\digital_io.h ****   XMC_ASSERT("DIGITAL_IO_ToggleOutput: handler null pointer", handler != NULL);
 370:C:/Users/Yoshi/Documents/GitHub/Software/01_jrg/03_VCUJR20/2021_04_29_VCU_jr20_Source/Dave/Generated/DIGITAL_IO\digital_io.h ****   XMC_GPIO_ToggleOutput(handler->gpio_port, handler->gpio_pin);
 371:C:/Users/Yoshi/Documents/GitHub/Software/01_jrg/03_VCUJR20/2021_04_29_VCU_jr20_Source/Dave/Generated/DIGITAL_IO\digital_io.h **** }
 372:C:/Users/Yoshi/Documents/GitHub/Software/01_jrg/03_VCUJR20/2021_04_29_VCU_jr20_Source/Dave/Generated/DIGITAL_IO\digital_io.h **** 
 373:C:/Users/Yoshi/Documents/GitHub/Software/01_jrg/03_VCUJR20/2021_04_29_VCU_jr20_Source/Dave/Generated/DIGITAL_IO\digital_io.h **** /**
 374:C:/Users/Yoshi/Documents/GitHub/Software/01_jrg/03_VCUJR20/2021_04_29_VCU_jr20_Source/Dave/Generated/DIGITAL_IO\digital_io.h **** * @brief Function to read input level of port pin.
 375:C:/Users/Yoshi/Documents/GitHub/Software/01_jrg/03_VCUJR20/2021_04_29_VCU_jr20_Source/Dave/Generated/DIGITAL_IO\digital_io.h **** * @param handler Pointer pointing to APP data structure. Refer @ref DIGITAL_IO_t for details.
 376:C:/Users/Yoshi/Documents/GitHub/Software/01_jrg/03_VCUJR20/2021_04_29_VCU_jr20_Source/Dave/Generated/DIGITAL_IO\digital_io.h **** * @return uint32_t input logic level. Range:0-1
 377:C:/Users/Yoshi/Documents/GitHub/Software/01_jrg/03_VCUJR20/2021_04_29_VCU_jr20_Source/Dave/Generated/DIGITAL_IO\digital_io.h **** *
 378:C:/Users/Yoshi/Documents/GitHub/Software/01_jrg/03_VCUJR20/2021_04_29_VCU_jr20_Source/Dave/Generated/DIGITAL_IO\digital_io.h **** * \par<b>Description:</b><br>
 379:C:/Users/Yoshi/Documents/GitHub/Software/01_jrg/03_VCUJR20/2021_04_29_VCU_jr20_Source/Dave/Generated/DIGITAL_IO\digital_io.h **** * This function reads the Pn_IN register and returns the current logical value at the GPIO pin.
 380:C:/Users/Yoshi/Documents/GitHub/Software/01_jrg/03_VCUJR20/2021_04_29_VCU_jr20_Source/Dave/Generated/DIGITAL_IO\digital_io.h **** *
 381:C:/Users/Yoshi/Documents/GitHub/Software/01_jrg/03_VCUJR20/2021_04_29_VCU_jr20_Source/Dave/Generated/DIGITAL_IO\digital_io.h **** * \par<b>Related APIs:</b><BR>
 382:C:/Users/Yoshi/Documents/GitHub/Software/01_jrg/03_VCUJR20/2021_04_29_VCU_jr20_Source/Dave/Generated/DIGITAL_IO\digital_io.h **** *  None
 383:C:/Users/Yoshi/Documents/GitHub/Software/01_jrg/03_VCUJR20/2021_04_29_VCU_jr20_Source/Dave/Generated/DIGITAL_IO\digital_io.h **** *
 384:C:/Users/Yoshi/Documents/GitHub/Software/01_jrg/03_VCUJR20/2021_04_29_VCU_jr20_Source/Dave/Generated/DIGITAL_IO\digital_io.h **** * Example Usage:
 385:C:/Users/Yoshi/Documents/GitHub/Software/01_jrg/03_VCUJR20/2021_04_29_VCU_jr20_Source/Dave/Generated/DIGITAL_IO\digital_io.h **** * @code
 386:C:/Users/Yoshi/Documents/GitHub/Software/01_jrg/03_VCUJR20/2021_04_29_VCU_jr20_Source/Dave/Generated/DIGITAL_IO\digital_io.h **** * #include <DAVE.h>//Declarations from DAVE Code Generation (includes SFR declaration)
 387:C:/Users/Yoshi/Documents/GitHub/Software/01_jrg/03_VCUJR20/2021_04_29_VCU_jr20_Source/Dave/Generated/DIGITAL_IO\digital_io.h **** * int main(void)
 388:C:/Users/Yoshi/Documents/GitHub/Software/01_jrg/03_VCUJR20/2021_04_29_VCU_jr20_Source/Dave/Generated/DIGITAL_IO\digital_io.h **** * {
 389:C:/Users/Yoshi/Documents/GitHub/Software/01_jrg/03_VCUJR20/2021_04_29_VCU_jr20_Source/Dave/Generated/DIGITAL_IO\digital_io.h **** *   DAVE_STATUS_t status;
 390:C:/Users/Yoshi/Documents/GitHub/Software/01_jrg/03_VCUJR20/2021_04_29_VCU_jr20_Source/Dave/Generated/DIGITAL_IO\digital_io.h **** *   uint32_t pin_status;
 391:C:/Users/Yoshi/Documents/GitHub/Software/01_jrg/03_VCUJR20/2021_04_29_VCU_jr20_Source/Dave/Generated/DIGITAL_IO\digital_io.h **** *   status = DAVE_Init();   // (DAVE_STATUS_t)DIGITAL_IO_Init(&DIGITAL_IO_0) is called within DAVE_
 392:C:/Users/Yoshi/Documents/GitHub/Software/01_jrg/03_VCUJR20/2021_04_29_VCU_jr20_Source/Dave/Generated/DIGITAL_IO\digital_io.h **** *   if(status == DAVE_STATUS_SUCCESS)
 393:C:/Users/Yoshi/Documents/GitHub/Software/01_jrg/03_VCUJR20/2021_04_29_VCU_jr20_Source/Dave/Generated/DIGITAL_IO\digital_io.h **** *   {
 394:C:/Users/Yoshi/Documents/GitHub/Software/01_jrg/03_VCUJR20/2021_04_29_VCU_jr20_Source/Dave/Generated/DIGITAL_IO\digital_io.h **** *     XMC_DEBUG("DAVE Apps initialization success\n");
 395:C:/Users/Yoshi/Documents/GitHub/Software/01_jrg/03_VCUJR20/2021_04_29_VCU_jr20_Source/Dave/Generated/DIGITAL_IO\digital_io.h **** *   }
 396:C:/Users/Yoshi/Documents/GitHub/Software/01_jrg/03_VCUJR20/2021_04_29_VCU_jr20_Source/Dave/Generated/DIGITAL_IO\digital_io.h **** *   else
 397:C:/Users/Yoshi/Documents/GitHub/Software/01_jrg/03_VCUJR20/2021_04_29_VCU_jr20_Source/Dave/Generated/DIGITAL_IO\digital_io.h **** *   {
 398:C:/Users/Yoshi/Documents/GitHub/Software/01_jrg/03_VCUJR20/2021_04_29_VCU_jr20_Source/Dave/Generated/DIGITAL_IO\digital_io.h **** *     XMC_DEBUG(("DAVE Apps initialization failed with status %d\n", status));
 399:C:/Users/Yoshi/Documents/GitHub/Software/01_jrg/03_VCUJR20/2021_04_29_VCU_jr20_Source/Dave/Generated/DIGITAL_IO\digital_io.h **** *     while(1U)
 400:C:/Users/Yoshi/Documents/GitHub/Software/01_jrg/03_VCUJR20/2021_04_29_VCU_jr20_Source/Dave/Generated/DIGITAL_IO\digital_io.h **** *     {
 401:C:/Users/Yoshi/Documents/GitHub/Software/01_jrg/03_VCUJR20/2021_04_29_VCU_jr20_Source/Dave/Generated/DIGITAL_IO\digital_io.h **** *     }
 402:C:/Users/Yoshi/Documents/GitHub/Software/01_jrg/03_VCUJR20/2021_04_29_VCU_jr20_Source/Dave/Generated/DIGITAL_IO\digital_io.h **** *   }
 403:C:/Users/Yoshi/Documents/GitHub/Software/01_jrg/03_VCUJR20/2021_04_29_VCU_jr20_Source/Dave/Generated/DIGITAL_IO\digital_io.h **** *   //Placeholder for user application code. The while loop below can be replaced with user applica
 404:C:/Users/Yoshi/Documents/GitHub/Software/01_jrg/03_VCUJR20/2021_04_29_VCU_jr20_Source/Dave/Generated/DIGITAL_IO\digital_io.h **** *   while(1U)
 405:C:/Users/Yoshi/Documents/GitHub/Software/01_jrg/03_VCUJR20/2021_04_29_VCU_jr20_Source/Dave/Generated/DIGITAL_IO\digital_io.h **** *   {
 406:C:/Users/Yoshi/Documents/GitHub/Software/01_jrg/03_VCUJR20/2021_04_29_VCU_jr20_Source/Dave/Generated/DIGITAL_IO\digital_io.h **** *     pin_status = DIGITAL_IO_GetInput(&DIGITAL_IO_0);
 407:C:/Users/Yoshi/Documents/GitHub/Software/01_jrg/03_VCUJR20/2021_04_29_VCU_jr20_Source/Dave/Generated/DIGITAL_IO\digital_io.h **** *     if(pin_status == 1)
 408:C:/Users/Yoshi/Documents/GitHub/Software/01_jrg/03_VCUJR20/2021_04_29_VCU_jr20_Source/Dave/Generated/DIGITAL_IO\digital_io.h **** *     {
 409:C:/Users/Yoshi/Documents/GitHub/Software/01_jrg/03_VCUJR20/2021_04_29_VCU_jr20_Source/Dave/Generated/DIGITAL_IO\digital_io.h **** *       // Add application code here
 410:C:/Users/Yoshi/Documents/GitHub/Software/01_jrg/03_VCUJR20/2021_04_29_VCU_jr20_Source/Dave/Generated/DIGITAL_IO\digital_io.h **** *     }
 411:C:/Users/Yoshi/Documents/GitHub/Software/01_jrg/03_VCUJR20/2021_04_29_VCU_jr20_Source/Dave/Generated/DIGITAL_IO\digital_io.h **** *     else
 412:C:/Users/Yoshi/Documents/GitHub/Software/01_jrg/03_VCUJR20/2021_04_29_VCU_jr20_Source/Dave/Generated/DIGITAL_IO\digital_io.h **** *     {
 413:C:/Users/Yoshi/Documents/GitHub/Software/01_jrg/03_VCUJR20/2021_04_29_VCU_jr20_Source/Dave/Generated/DIGITAL_IO\digital_io.h **** *       // Add application code here
 414:C:/Users/Yoshi/Documents/GitHub/Software/01_jrg/03_VCUJR20/2021_04_29_VCU_jr20_Source/Dave/Generated/DIGITAL_IO\digital_io.h **** *     }
 415:C:/Users/Yoshi/Documents/GitHub/Software/01_jrg/03_VCUJR20/2021_04_29_VCU_jr20_Source/Dave/Generated/DIGITAL_IO\digital_io.h **** *   }
 416:C:/Users/Yoshi/Documents/GitHub/Software/01_jrg/03_VCUJR20/2021_04_29_VCU_jr20_Source/Dave/Generated/DIGITAL_IO\digital_io.h **** *   return (1);
 417:C:/Users/Yoshi/Documents/GitHub/Software/01_jrg/03_VCUJR20/2021_04_29_VCU_jr20_Source/Dave/Generated/DIGITAL_IO\digital_io.h **** * }
 418:C:/Users/Yoshi/Documents/GitHub/Software/01_jrg/03_VCUJR20/2021_04_29_VCU_jr20_Source/Dave/Generated/DIGITAL_IO\digital_io.h **** *  @endcode
 419:C:/Users/Yoshi/Documents/GitHub/Software/01_jrg/03_VCUJR20/2021_04_29_VCU_jr20_Source/Dave/Generated/DIGITAL_IO\digital_io.h **** */
 420:C:/Users/Yoshi/Documents/GitHub/Software/01_jrg/03_VCUJR20/2021_04_29_VCU_jr20_Source/Dave/Generated/DIGITAL_IO\digital_io.h **** 
 421:C:/Users/Yoshi/Documents/GitHub/Software/01_jrg/03_VCUJR20/2021_04_29_VCU_jr20_Source/Dave/Generated/DIGITAL_IO\digital_io.h **** __STATIC_INLINE uint32_t DIGITAL_IO_GetInput(const DIGITAL_IO_t *const handler)
 422:C:/Users/Yoshi/Documents/GitHub/Software/01_jrg/03_VCUJR20/2021_04_29_VCU_jr20_Source/Dave/Generated/DIGITAL_IO\digital_io.h **** {
  76              	 .loc 2 422 0
  77              	 .cfi_startproc
  78              	 
  79              	 
  80 0000 80B5     	 push {r7,lr}
  81              	.LCFI6:
  82              	 .cfi_def_cfa_offset 8
  83              	 .cfi_offset 7,-8
  84              	 .cfi_offset 14,-4
  85 0002 82B0     	 sub sp,sp,#8
  86              	.LCFI7:
  87              	 .cfi_def_cfa_offset 16
  88 0004 00AF     	 add r7,sp,#0
  89              	.LCFI8:
  90              	 .cfi_def_cfa_register 7
  91 0006 7860     	 str r0,[r7,#4]
 423:C:/Users/Yoshi/Documents/GitHub/Software/01_jrg/03_VCUJR20/2021_04_29_VCU_jr20_Source/Dave/Generated/DIGITAL_IO\digital_io.h ****   XMC_ASSERT("DIGITAL_IO_GetInput: handler null pointer", handler != NULL);
 424:C:/Users/Yoshi/Documents/GitHub/Software/01_jrg/03_VCUJR20/2021_04_29_VCU_jr20_Source/Dave/Generated/DIGITAL_IO\digital_io.h ****   return XMC_GPIO_GetInput(handler->gpio_port, handler->gpio_pin);
  92              	 .loc 2 424 0
  93 0008 7B68     	 ldr r3,[r7,#4]
  94 000a 1A68     	 ldr r2,[r3]
  95 000c 7B68     	 ldr r3,[r7,#4]
  96 000e 1B7C     	 ldrb r3,[r3,#16]
  97 0010 1046     	 mov r0,r2
  98 0012 1946     	 mov r1,r3
  99 0014 FFF7FEFF 	 bl XMC_GPIO_GetInput
 100 0018 0346     	 mov r3,r0
 425:C:/Users/Yoshi/Documents/GitHub/Software/01_jrg/03_VCUJR20/2021_04_29_VCU_jr20_Source/Dave/Generated/DIGITAL_IO\digital_io.h **** }
 101              	 .loc 2 425 0
 102 001a 1846     	 mov r0,r3
 103 001c 0837     	 adds r7,r7,#8
 104              	.LCFI9:
 105              	 .cfi_def_cfa_offset 8
 106 001e BD46     	 mov sp,r7
 107              	.LCFI10:
 108              	 .cfi_def_cfa_register 13
 109              	 
 110 0020 80BD     	 pop {r7,pc}
 111              	 .cfi_endproc
 112              	.LFE267:
 114              	 .comm VAR_boardTemp,8,8
 115              	 .comm VAR_TR1_VSense_WP,8,8
 116              	 .comm VAR_TR2_VSense_FAN1,8,8
 117              	 .comm VAR_TR3_VSense_FAN2,8,8
 118              	 .comm shiftUpInterrupt,1,1
 119              	 .comm shiftDownInterrupt,1,1
 120              	 .comm output_pins,4,4
 121              	 .comm busio_read,2,2
 122 0022 00BF     	 .section .text.IOPort_ini,"ax",%progbits
 123              	 .align 2
 124              	 .global IOPort_ini
 125              	 .thumb
 126              	 .thumb_func
 128              	IOPort_ini:
 129              	.LFB415:
 130              	 .file 3 "../IO_Port.c"
   1:../IO_Port.c  **** /*
   2:../IO_Port.c  ****  * IO_Port.c
   3:../IO_Port.c  ****  *
   4:../IO_Port.c  ****  *  Created on: 26 Oct 2019
   5:../IO_Port.c  ****  *      Author: Paul
   6:../IO_Port.c  ****  */
   7:../IO_Port.c  **** 
   8:../IO_Port.c  **** #include "Header.h"
   9:../IO_Port.c  **** 
  10:../IO_Port.c  **** int output_pins;
  11:../IO_Port.c  **** extern struct data_IOPort IOportData;
  12:../IO_Port.c  **** extern struct data_can canData;
  13:../IO_Port.c  **** uint16_t busio_read;
  14:../IO_Port.c  **** extern boolean_T shiftDownInterrupt;
  15:../IO_Port.c  **** extern boolean_T shiftUpInterrupt;
  16:../IO_Port.c  **** 
  17:../IO_Port.c  **** void IOPort_ini()
  18:../IO_Port.c  **** {
 131              	 .loc 3 18 0
 132              	 .cfi_startproc
 133              	 
 134              	 
 135              	 
 136 0000 80B4     	 push {r7}
 137              	.LCFI11:
 138              	 .cfi_def_cfa_offset 4
 139              	 .cfi_offset 7,-4
 140 0002 00AF     	 add r7,sp,#0
 141              	.LCFI12:
 142              	 .cfi_def_cfa_register 7
  19:../IO_Port.c  **** 	//Inputs
  20:../IO_Port.c  **** 	IOportData.Fans_dash_bit = (boolean_T*)&VCU_DW.VAR_IN_Fans_dash_bit;
 143              	 .loc 3 20 0
 144 0004 3C4B     	 ldr r3,.L6
 145 0006 3D4A     	 ldr r2,.L6+4
 146 0008 1A60     	 str r2,[r3]
  21:../IO_Port.c  **** 	IOportData.p_brake_R = &VCU_DW.VAR_IN_p_brake_R;
 147              	 .loc 3 21 0
 148 000a 3B4B     	 ldr r3,.L6
 149 000c 3C4A     	 ldr r2,.L6+8
 150 000e 5A60     	 str r2,[r3,#4]
  22:../IO_Port.c  **** 	//IOportData.p_pneum = &VCU_DW.VAR_IN_p_pneum;
  23:../IO_Port.c  **** 	IOportData.x_clutch = &VCU_DW.VAR_IN_x_clutch;
 151              	 .loc 3 23 0
 152 0010 394B     	 ldr r3,.L6
 153 0012 3C4A     	 ldr r2,.L6+12
 154 0014 DA60     	 str r2,[r3,#12]
  24:../IO_Port.c  **** 	IOportData.f_FL = &VCU_DW.VAR_IN_f_FL;
 155              	 .loc 3 24 0
 156 0016 384B     	 ldr r3,.L6
 157 0018 3B4A     	 ldr r2,.L6+16
 158 001a 1A61     	 str r2,[r3,#16]
  25:../IO_Port.c  **** 	IOportData.f_FR = &VCU_DW.VAR_IN_f_FR;
 159              	 .loc 3 25 0
 160 001c 364B     	 ldr r3,.L6
 161 001e 3B4A     	 ldr r2,.L6+20
 162 0020 5A61     	 str r2,[r3,#20]
  26:../IO_Port.c  **** 	IOportData.f_RL = &VCU_DW.VAR_IN_f_RL;
 163              	 .loc 3 26 0
 164 0022 354B     	 ldr r3,.L6
 165 0024 3A4A     	 ldr r2,.L6+24
 166 0026 9A61     	 str r2,[r3,#24]
  27:../IO_Port.c  **** 	IOportData.f_RR = &VCU_DW.VAR_IN_f_RR;
 167              	 .loc 3 27 0
 168 0028 334B     	 ldr r3,.L6
 169 002a 3A4A     	 ldr r2,.L6+28
 170 002c DA61     	 str r2,[r3,#28]
  28:../IO_Port.c  **** 	IOportData.LC_dash_bit = (boolean_T*)&VCU_DW.VAR_IN_LC_dash_bit;
 171              	 .loc 3 28 0
 172 002e 324B     	 ldr r3,.L6
 173 0030 394A     	 ldr r2,.L6+32
 174 0032 1A62     	 str r2,[r3,#32]
  29:../IO_Port.c  **** 	IOportData.x_RH_F = &VCU_DW.VAR_IN_x_RH_F;
 175              	 .loc 3 29 0
 176 0034 304B     	 ldr r3,.L6
 177 0036 394A     	 ldr r2,.L6+36
 178 0038 5A62     	 str r2,[r3,#36]
  30:../IO_Port.c  **** 	IOportData.x_RH_RL = &VCU_DW.VAR_IN_x_RH_RL;
 179              	 .loc 3 30 0
 180 003a 2F4B     	 ldr r3,.L6
 181 003c 384A     	 ldr r2,.L6+40
 182 003e 9A62     	 str r2,[r3,#40]
  31:../IO_Port.c  **** 	IOportData.x_RH_RR = &VCU_DW.VAR_IN_x_RH_RR;
 183              	 .loc 3 31 0
 184 0040 2D4B     	 ldr r3,.L6
 185 0042 384A     	 ldr r2,.L6+44
 186 0044 DA62     	 str r2,[r3,#44]
  32:../IO_Port.c  **** 	IOportData.U_Bat = &VCU_DW.VAR_IN_U_Bat;
 187              	 .loc 3 32 0
 188 0046 2C4B     	 ldr r3,.L6
 189 0048 374A     	 ldr r2,.L6+48
 190 004a 1A63     	 str r2,[r3,#48]
  33:../IO_Port.c  **** 	IOportData.x_clutch_STW = &VCU_DW.VAR_IN_x_clutch_STW;
 191              	 .loc 3 33 0
 192 004c 2A4B     	 ldr r3,.L6
 193 004e 374A     	 ldr r2,.L6+52
 194 0050 5A63     	 str r2,[r3,#52]
  34:../IO_Port.c  **** 	VAR_boardTemp = 0; IOportData.boardTemp = &VAR_boardTemp;
 195              	 .loc 3 34 0
 196 0052 3749     	 ldr r1,.L6+56
 197 0054 4FF00002 	 mov r2,#0
 198 0058 4FF00003 	 mov r3,#0
 199 005c C1E90023 	 strd r2,[r1]
 200 0060 254B     	 ldr r3,.L6
 201 0062 334A     	 ldr r2,.L6+56
 202 0064 9A63     	 str r2,[r3,#56]
  35:../IO_Port.c  **** 	VAR_TR1_VSense_WP = 0; IOportData.TR1_VSense_WP = &VAR_TR1_VSense_WP;
 203              	 .loc 3 35 0
 204 0066 3349     	 ldr r1,.L6+60
 205 0068 4FF00002 	 mov r2,#0
 206 006c 4FF00003 	 mov r3,#0
 207 0070 C1E90023 	 strd r2,[r1]
 208 0074 204B     	 ldr r3,.L6
 209 0076 2F4A     	 ldr r2,.L6+60
 210 0078 DA63     	 str r2,[r3,#60]
  36:../IO_Port.c  **** 	VAR_TR2_VSense_FAN1 = 0; IOportData.TR2_VSense_FAN1 = &VAR_TR2_VSense_FAN1;
 211              	 .loc 3 36 0
 212 007a 2F49     	 ldr r1,.L6+64
 213 007c 4FF00002 	 mov r2,#0
 214 0080 4FF00003 	 mov r3,#0
 215 0084 C1E90023 	 strd r2,[r1]
 216 0088 1B4B     	 ldr r3,.L6
 217 008a 2B4A     	 ldr r2,.L6+64
 218 008c 1A64     	 str r2,[r3,#64]
  37:../IO_Port.c  **** 	VAR_TR3_VSense_FAN2 = 0; IOportData.TR3_VSense_FAN2 = &VAR_TR3_VSense_FAN2;
 219              	 .loc 3 37 0
 220 008e 2B49     	 ldr r1,.L6+68
 221 0090 4FF00002 	 mov r2,#0
 222 0094 4FF00003 	 mov r3,#0
 223 0098 C1E90023 	 strd r2,[r1]
 224 009c 164B     	 ldr r3,.L6
 225 009e 274A     	 ldr r2,.L6+68
 226 00a0 5A64     	 str r2,[r3,#68]
  38:../IO_Port.c  **** 
  39:../IO_Port.c  **** 	//Outputs
  40:../IO_Port.c  **** 	IOportData.VOVG_ShiftUp = &VCU_DW.VAR_OUT_VOVG_ShiftUp;
 227              	 .loc 3 40 0
 228 00a2 154B     	 ldr r3,.L6
 229 00a4 264A     	 ldr r2,.L6+72
 230 00a6 9A64     	 str r2,[r3,#72]
  41:../IO_Port.c  **** 	IOportData.VOVG_ShiftDown = &VCU_DW.VAR_OUT_VOVG_ShiftDown;
 231              	 .loc 3 41 0
 232 00a8 134B     	 ldr r3,.L6
 233 00aa 264A     	 ldr r2,.L6+76
 234 00ac DA64     	 str r2,[r3,#76]
  42:../IO_Port.c  **** 	IOportData.Ignition_Cut = &VCU_DW.VAR_OUT_Ignition_Cut;
 235              	 .loc 3 42 0
 236 00ae 124B     	 ldr r3,.L6
 237 00b0 254A     	 ldr r2,.L6+80
 238 00b2 1A65     	 str r2,[r3,#80]
  43:../IO_Port.c  **** 	IOportData.VOVG_IN = &VCU_DW.VAR_OUT_VOVG_IN;
 239              	 .loc 3 43 0
 240 00b4 104B     	 ldr r3,.L6
 241 00b6 254A     	 ldr r2,.L6+84
 242 00b8 5A65     	 str r2,[r3,#84]
  44:../IO_Port.c  **** 	IOportData.VOVG_OUT = &VCU_DW.VAR_OUT_VOVG_OUT;
 243              	 .loc 3 44 0
 244 00ba 0F4B     	 ldr r3,.L6
 245 00bc 244A     	 ldr r2,.L6+88
 246 00be 9A65     	 str r2,[r3,#88]
  45:../IO_Port.c  **** 	IOportData.MHJ9_IN = (uint16_t*)&VCU_DW.VAR_OUT_MHJ9_IN; //PWM
 247              	 .loc 3 45 0
 248 00c0 0D4B     	 ldr r3,.L6
 249 00c2 244A     	 ldr r2,.L6+92
 250 00c4 DA65     	 str r2,[r3,#92]
  46:../IO_Port.c  **** 	IOportData.MHJ9_OUT = (uint16_t*)&VCU_DW.VAR_OUT_MHJ9_OUT; //PWM
 251              	 .loc 3 46 0
 252 00c6 0C4B     	 ldr r3,.L6
 253 00c8 234A     	 ldr r2,.L6+96
 254 00ca 1A66     	 str r2,[r3,#96]
  47:../IO_Port.c  **** 	IOportData.Brakelight = &VCU_DW.VAR_OUT_Brakelight;
 255              	 .loc 3 47 0
 256 00cc 0A4B     	 ldr r3,.L6
 257 00ce 234A     	 ldr r2,.L6+100
 258 00d0 5A66     	 str r2,[r3,#100]
  48:../IO_Port.c  **** 	IOportData.Waterpump_PWM_active = &VCU_DW.VAR_OUT_Waterpump_PWM_active;
 259              	 .loc 3 48 0
 260 00d2 094B     	 ldr r3,.L6
 261 00d4 224A     	 ldr r2,.L6+104
 262 00d6 9A66     	 str r2,[r3,#104]
  49:../IO_Port.c  **** 	IOportData.Fans1_PWM_active = &VCU_DW.VAR_OUT_Fans1_PWM_active;
 263              	 .loc 3 49 0
 264 00d8 074B     	 ldr r3,.L6
 265 00da 224A     	 ldr r2,.L6+108
 266 00dc DA66     	 str r2,[r3,#108]
  50:../IO_Port.c  **** 	IOportData.Fans2_PWM_active = &VCU_DW.VAR_OUT_Fans2_PWM_active;
 267              	 .loc 3 50 0
 268 00de 064B     	 ldr r3,.L6
 269 00e0 214A     	 ldr r2,.L6+112
 270 00e2 1A67     	 str r2,[r3,#112]
  51:../IO_Port.c  **** 
  52:../IO_Port.c  **** 	output_pins = 0;
 271              	 .loc 3 52 0
 272 00e4 214B     	 ldr r3,.L6+116
 273 00e6 0022     	 movs r2,#0
 274 00e8 1A60     	 str r2,[r3]
  53:../IO_Port.c  **** 	busio_read = 0;
 275              	 .loc 3 53 0
 276 00ea 214B     	 ldr r3,.L6+120
 277 00ec 0022     	 movs r2,#0
 278 00ee 1A80     	 strh r2,[r3]
  54:../IO_Port.c  **** }
 279              	 .loc 3 54 0
 280 00f0 BD46     	 mov sp,r7
 281              	.LCFI13:
 282              	 .cfi_def_cfa_register 13
 283              	 
 284 00f2 5DF8047B 	 ldr r7,[sp],#4
 285              	.LCFI14:
 286              	 .cfi_restore 7
 287              	 .cfi_def_cfa_offset 0
 288 00f6 7047     	 bx lr
 289              	.L7:
 290              	 .align 2
 291              	.L6:
 292 00f8 00000000 	 .word IOportData
 293 00fc 58000000 	 .word VCU_DW+88
 294 0100 60000000 	 .word VCU_DW+96
 295 0104 80000000 	 .word VCU_DW+128
 296 0108 88000000 	 .word VCU_DW+136
 297 010c 90000000 	 .word VCU_DW+144
 298 0110 98000000 	 .word VCU_DW+152
 299 0114 A0000000 	 .word VCU_DW+160
 300 0118 A8000000 	 .word VCU_DW+168
 301 011c B0000000 	 .word VCU_DW+176
 302 0120 68000000 	 .word VCU_DW+104
 303 0124 70000000 	 .word VCU_DW+112
 304 0128 78000000 	 .word VCU_DW+120
 305 012c 50000000 	 .word VCU_DW+80
 306 0130 00000000 	 .word VAR_boardTemp
 307 0134 00000000 	 .word VAR_TR1_VSense_WP
 308 0138 00000000 	 .word VAR_TR2_VSense_FAN1
 309 013c 00000000 	 .word VAR_TR3_VSense_FAN2
 310 0140 5C010000 	 .word VCU_DW+348
 311 0144 5D010000 	 .word VCU_DW+349
 312 0148 5E010000 	 .word VCU_DW+350
 313 014c 5F010000 	 .word VCU_DW+351
 314 0150 60010000 	 .word VCU_DW+352
 315 0154 D6000000 	 .word VCU_DW+214
 316 0158 D8000000 	 .word VCU_DW+216
 317 015c 61010000 	 .word VCU_DW+353
 318 0160 DA000000 	 .word VCU_DW+218
 319 0164 DC000000 	 .word VCU_DW+220
 320 0168 D4000000 	 .word VCU_DW+212
 321 016c 00000000 	 .word output_pins
 322 0170 00000000 	 .word busio_read
 323              	 .cfi_endproc
 324              	.LFE415:
 326              	 .section .text.IOPort_setDOUTS,"ax",%progbits
 327              	 .align 2
 328              	 .global IOPort_setDOUTS
 329              	 .thumb
 330              	 .thumb_func
 332              	IOPort_setDOUTS:
 333              	.LFB416:
  55:../IO_Port.c  **** 
  56:../IO_Port.c  **** void IOPort_setDOUTS()
  57:../IO_Port.c  **** {
 334              	 .loc 3 57 0
 335              	 .cfi_startproc
 336              	 
 337              	 
 338 0000 80B5     	 push {r7,lr}
 339              	.LCFI15:
 340              	 .cfi_def_cfa_offset 8
 341              	 .cfi_offset 7,-8
 342              	 .cfi_offset 14,-4
 343 0002 00AF     	 add r7,sp,#0
 344              	.LCFI16:
 345              	 .cfi_def_cfa_register 7
  58:../IO_Port.c  **** 	if(canData.ManualControl_Active) //set manual values if controlled by CANoe
 346              	 .loc 3 58 0
 347 0004 144B     	 ldr r3,.L10
 348 0006 93F84831 	 ldrb r3,[r3,#328]
 349 000a 002B     	 cmp r3,#0
 350 000c 01D0     	 beq .L9
  59:../IO_Port.c  **** 	{
  60:../IO_Port.c  **** 		ManualControl_setDOUTS();
 351              	 .loc 3 60 0
 352 000e FFF7FEFF 	 bl ManualControl_setDOUTS
 353              	.L9:
  61:../IO_Port.c  **** 	}
  62:../IO_Port.c  **** 	//set calculated values if controlled by VCU
  63:../IO_Port.c  **** 	  output_pins =	*IOportData.VOVG_ShiftUp |
 354              	 .loc 3 63 0
 355 0012 124B     	 ldr r3,.L10+4
 356 0014 9B6C     	 ldr r3,[r3,#72]
 357 0016 1B78     	 ldrb r3,[r3]
 358 0018 1A46     	 mov r2,r3
  64:../IO_Port.c  **** 			  	  	(*IOportData.VOVG_ShiftDown << 1) |
 359              	 .loc 3 64 0
 360 001a 104B     	 ldr r3,.L10+4
 361 001c DB6C     	 ldr r3,[r3,#76]
 362 001e 1B78     	 ldrb r3,[r3]
 363 0020 5B00     	 lsls r3,r3,#1
  63:../IO_Port.c  **** 			  	  	(*IOportData.VOVG_ShiftDown << 1) |
 364              	 .loc 3 63 0
 365 0022 1A43     	 orrs r2,r2,r3
  65:../IO_Port.c  **** 					(*IOportData.Ignition_Cut << 2) |
 366              	 .loc 3 65 0
 367 0024 0D4B     	 ldr r3,.L10+4
 368 0026 1B6D     	 ldr r3,[r3,#80]
 369 0028 1B78     	 ldrb r3,[r3]
 370 002a 9B00     	 lsls r3,r3,#2
  64:../IO_Port.c  **** 			  	  	(*IOportData.VOVG_ShiftDown << 1) |
 371              	 .loc 3 64 0
 372 002c 1A43     	 orrs r2,r2,r3
  66:../IO_Port.c  **** 					(*IOportData.VOVG_IN << 3) |
 373              	 .loc 3 66 0
 374 002e 0B4B     	 ldr r3,.L10+4
 375 0030 5B6D     	 ldr r3,[r3,#84]
 376 0032 1B78     	 ldrb r3,[r3]
 377 0034 DB00     	 lsls r3,r3,#3
  65:../IO_Port.c  **** 					(*IOportData.Ignition_Cut << 2) |
 378              	 .loc 3 65 0
 379 0036 1A43     	 orrs r2,r2,r3
  67:../IO_Port.c  **** 					(*IOportData.VOVG_OUT << 4);
 380              	 .loc 3 67 0
 381 0038 084B     	 ldr r3,.L10+4
 382 003a 9B6D     	 ldr r3,[r3,#88]
 383 003c 1B78     	 ldrb r3,[r3]
 384 003e 1B01     	 lsls r3,r3,#4
  66:../IO_Port.c  **** 					(*IOportData.VOVG_IN << 3) |
 385              	 .loc 3 66 0
 386 0040 1343     	 orrs r3,r3,r2
  63:../IO_Port.c  **** 			  	  	(*IOportData.VOVG_ShiftDown << 1) |
 387              	 .loc 3 63 0
 388 0042 074A     	 ldr r2,.L10+8
 389 0044 1360     	 str r3,[r2]
  68:../IO_Port.c  **** 
  69:../IO_Port.c  **** 	  BUS_IO_Write(&BUS_IO, (uint8_t) output_pins);
 390              	 .loc 3 69 0
 391 0046 064B     	 ldr r3,.L10+8
 392 0048 1B68     	 ldr r3,[r3]
 393 004a DBB2     	 uxtb r3,r3
 394 004c 9BB2     	 uxth r3,r3
 395 004e 0548     	 ldr r0,.L10+12
 396 0050 1946     	 mov r1,r3
 397 0052 FFF7FEFF 	 bl BUS_IO_Write
  70:../IO_Port.c  **** }
 398              	 .loc 3 70 0
 399 0056 80BD     	 pop {r7,pc}
 400              	.L11:
 401              	 .align 2
 402              	.L10:
 403 0058 00000000 	 .word canData
 404 005c 00000000 	 .word IOportData
 405 0060 00000000 	 .word output_pins
 406 0064 00000000 	 .word BUS_IO
 407              	 .cfi_endproc
 408              	.LFE416:
 410              	 .section .text.IOPort_readDINS,"ax",%progbits
 411              	 .align 2
 412              	 .global IOPort_readDINS
 413              	 .thumb
 414              	 .thumb_func
 416              	IOPort_readDINS:
 417              	.LFB417:
  71:../IO_Port.c  **** 
  72:../IO_Port.c  **** void IOPort_readDINS()
  73:../IO_Port.c  **** {
 418              	 .loc 3 73 0
 419              	 .cfi_startproc
 420              	 
 421              	 
 422 0000 98B5     	 push {r3,r4,r7,lr}
 423              	.LCFI17:
 424              	 .cfi_def_cfa_offset 16
 425              	 .cfi_offset 3,-16
 426              	 .cfi_offset 4,-12
 427              	 .cfi_offset 7,-8
 428              	 .cfi_offset 14,-4
 429 0002 00AF     	 add r7,sp,#0
 430              	.LCFI18:
 431              	 .cfi_def_cfa_register 7
  74:../IO_Port.c  **** 	busio_read = BUS_IO_Read(&BUS_IO_Input);
 432              	 .loc 3 74 0
 433 0004 1448     	 ldr r0,.L13
 434 0006 FFF7FEFF 	 bl BUS_IO_Read
 435 000a 0346     	 mov r3,r0
 436 000c 1A46     	 mov r2,r3
 437 000e 134B     	 ldr r3,.L13+4
 438 0010 1A80     	 strh r2,[r3]
  75:../IO_Port.c  **** 	*IOportData.Fans_dash_bit = checkRangePlausi(getbits(busio_read, 1, 1),ERR_FANS_DASH_BIT);
 439              	 .loc 3 75 0
 440 0012 134B     	 ldr r3,.L13+8
 441 0014 1C68     	 ldr r4,[r3]
 442 0016 114B     	 ldr r3,.L13+4
 443 0018 1B88     	 ldrh r3,[r3]
 444 001a 1846     	 mov r0,r3
 445 001c 0121     	 movs r1,#1
 446 001e 0122     	 movs r2,#1
 447 0020 FFF7FEFF 	 bl getbits
 448 0024 0346     	 mov r3,r0
 449 0026 1846     	 mov r0,r3
 450 0028 0121     	 movs r1,#1
 451 002a FFF7FEFF 	 bl checkRangePlausi
 452 002e 0346     	 mov r3,r0
 453 0030 DBB2     	 uxtb r3,r3
 454 0032 2370     	 strb r3,[r4]
  76:../IO_Port.c  **** 	*IOportData.LC_dash_bit = checkRangePlausi(getbits(busio_read, 0, 1),ERR_LC_DASH_BIT);
 455              	 .loc 3 76 0
 456 0034 0A4B     	 ldr r3,.L13+8
 457 0036 1C6A     	 ldr r4,[r3,#32]
 458 0038 084B     	 ldr r3,.L13+4
 459 003a 1B88     	 ldrh r3,[r3]
 460 003c 1846     	 mov r0,r3
 461 003e 0021     	 movs r1,#0
 462 0040 0122     	 movs r2,#1
 463 0042 FFF7FEFF 	 bl getbits
 464 0046 0346     	 mov r3,r0
 465 0048 1846     	 mov r0,r3
 466 004a 0521     	 movs r1,#5
 467 004c FFF7FEFF 	 bl checkRangePlausi
 468 0050 0346     	 mov r3,r0
 469 0052 DBB2     	 uxtb r3,r3
 470 0054 2370     	 strb r3,[r4]
  77:../IO_Port.c  **** }
 471              	 .loc 3 77 0
 472 0056 98BD     	 pop {r3,r4,r7,pc}
 473              	.L14:
 474              	 .align 2
 475              	.L13:
 476 0058 00000000 	 .word BUS_IO_Input
 477 005c 00000000 	 .word busio_read
 478 0060 00000000 	 .word IOportData
 479              	 .cfi_endproc
 480              	.LFE417:
 482              	 .section .text.IOPort_setPWMOUTS,"ax",%progbits
 483              	 .align 2
 484              	 .global IOPort_setPWMOUTS
 485              	 .thumb
 486              	 .thumb_func
 488              	IOPort_setPWMOUTS:
 489              	.LFB418:
  78:../IO_Port.c  **** 
  79:../IO_Port.c  **** void IOPort_setPWMOUTS()
  80:../IO_Port.c  **** {
 490              	 .loc 3 80 0
 491              	 .cfi_startproc
 492              	 
 493              	 
 494 0000 80B5     	 push {r7,lr}
 495              	.LCFI19:
 496              	 .cfi_def_cfa_offset 8
 497              	 .cfi_offset 7,-8
 498              	 .cfi_offset 14,-4
 499 0002 00AF     	 add r7,sp,#0
 500              	.LCFI20:
 501              	 .cfi_def_cfa_register 7
  81:../IO_Port.c  **** 	if(canData.ManualControl_Active) //set manual values if controlled by CANoe
 502              	 .loc 3 81 0
 503 0004 3A4B     	 ldr r3,.L17
 504 0006 93F84831 	 ldrb r3,[r3,#328]
 505 000a 002B     	 cmp r3,#0
 506 000c 01D0     	 beq .L16
  82:../IO_Port.c  **** 	{
  83:../IO_Port.c  **** 		ManualControl_setPWMOUTS();
 507              	 .loc 3 83 0
 508 000e FFF7FEFF 	 bl ManualControl_setPWMOUTS
 509              	.L16:
  84:../IO_Port.c  **** 	}
  85:../IO_Port.c  **** 	//set calculated values if controlled by VCU
  86:../IO_Port.c  **** 	PWM_SetDutyCycle(&PWM_MHJ9_IN, (float)*IOportData.MHJ9_IN/65536*10000);//100% = 10000, var_max = 6
 510              	 .loc 3 86 0
 511 0012 384B     	 ldr r3,.L17+4
 512 0014 DB6D     	 ldr r3,[r3,#92]
 513 0016 1B88     	 ldrh r3,[r3]
 514 0018 07EE903A 	 fmsr s15,r3
 515 001c F8EE677A 	 fuitos s15,s15
 516 0020 9FED357A 	 flds s14,.L17+8
 517 0024 C7EE877A 	 fdivs s15,s15,s14
 518 0028 9FED347A 	 flds s14,.L17+12
 519 002c 67EE877A 	 fmuls s15,s15,s14
 520 0030 FCEEE77A 	 ftouizs s15,s15
 521 0034 3248     	 ldr r0,.L17+16
 522 0036 17EE901A 	 fmrs r1,s15
 523 003a FFF7FEFF 	 bl PWM_SetDutyCycle
  87:../IO_Port.c  **** 	PWM_SetDutyCycle(&PWM_MHJ9_OUT, (float)*IOportData.MHJ9_OUT/65536*10000);
 524              	 .loc 3 87 0
 525 003e 2D4B     	 ldr r3,.L17+4
 526 0040 1B6E     	 ldr r3,[r3,#96]
 527 0042 1B88     	 ldrh r3,[r3]
 528 0044 07EE903A 	 fmsr s15,r3
 529 0048 F8EE677A 	 fuitos s15,s15
 530 004c 9FED2A7A 	 flds s14,.L17+8
 531 0050 C7EE877A 	 fdivs s15,s15,s14
 532 0054 9FED297A 	 flds s14,.L17+12
 533 0058 67EE877A 	 fmuls s15,s15,s14
 534 005c FCEEE77A 	 ftouizs s15,s15
 535 0060 2848     	 ldr r0,.L17+20
 536 0062 17EE901A 	 fmrs r1,s15
 537 0066 FFF7FEFF 	 bl PWM_SetDutyCycle
  88:../IO_Port.c  **** 	PWM_SetDutyCycle(&PWM_Waterpump, (float)*IOportData.Waterpump_PWM_active/65536*10000);
 538              	 .loc 3 88 0
 539 006a 224B     	 ldr r3,.L17+4
 540 006c 9B6E     	 ldr r3,[r3,#104]
 541 006e 1B88     	 ldrh r3,[r3]
 542 0070 07EE903A 	 fmsr s15,r3
 543 0074 F8EE677A 	 fuitos s15,s15
 544 0078 9FED1F7A 	 flds s14,.L17+8
 545 007c C7EE877A 	 fdivs s15,s15,s14
 546 0080 9FED1E7A 	 flds s14,.L17+12
 547 0084 67EE877A 	 fmuls s15,s15,s14
 548 0088 FCEEE77A 	 ftouizs s15,s15
 549 008c 1E48     	 ldr r0,.L17+24
 550 008e 17EE901A 	 fmrs r1,s15
 551 0092 FFF7FEFF 	 bl PWM_SetDutyCycle
  89:../IO_Port.c  **** 	PWM_SetDutyCycle(&PWM_Fans1, (float)*IOportData.Fans1_PWM_active/65536*10000);
 552              	 .loc 3 89 0
 553 0096 174B     	 ldr r3,.L17+4
 554 0098 DB6E     	 ldr r3,[r3,#108]
 555 009a 1B88     	 ldrh r3,[r3]
 556 009c 07EE903A 	 fmsr s15,r3
 557 00a0 F8EE677A 	 fuitos s15,s15
 558 00a4 9FED147A 	 flds s14,.L17+8
 559 00a8 C7EE877A 	 fdivs s15,s15,s14
 560 00ac 9FED137A 	 flds s14,.L17+12
 561 00b0 67EE877A 	 fmuls s15,s15,s14
 562 00b4 FCEEE77A 	 ftouizs s15,s15
 563 00b8 1448     	 ldr r0,.L17+28
 564 00ba 17EE901A 	 fmrs r1,s15
 565 00be FFF7FEFF 	 bl PWM_SetDutyCycle
  90:../IO_Port.c  **** 	PWM_SetDutyCycle(&PWM_Fans2, (float)*IOportData.Fans2_PWM_active/65536*10000);
 566              	 .loc 3 90 0
 567 00c2 0C4B     	 ldr r3,.L17+4
 568 00c4 1B6F     	 ldr r3,[r3,#112]
 569 00c6 1B88     	 ldrh r3,[r3]
 570 00c8 07EE903A 	 fmsr s15,r3
 571 00cc F8EE677A 	 fuitos s15,s15
 572 00d0 9FED097A 	 flds s14,.L17+8
 573 00d4 C7EE877A 	 fdivs s15,s15,s14
 574 00d8 9FED087A 	 flds s14,.L17+12
 575 00dc 67EE877A 	 fmuls s15,s15,s14
 576 00e0 FCEEE77A 	 ftouizs s15,s15
 577 00e4 0A48     	 ldr r0,.L17+32
 578 00e6 17EE901A 	 fmrs r1,s15
 579 00ea FFF7FEFF 	 bl PWM_SetDutyCycle
  91:../IO_Port.c  **** 	//PWM_SetFreq(&PWM_Fans1, 1000);//TEST
  92:../IO_Port.c  **** 	//PWM_SetDutyCycle(&PWM_Fans1, 5000);//TEST
  93:../IO_Port.c  **** }
 580              	 .loc 3 93 0
 581 00ee 80BD     	 pop {r7,pc}
 582              	.L18:
 583              	 .align 2
 584              	.L17:
 585 00f0 00000000 	 .word canData
 586 00f4 00000000 	 .word IOportData
 587 00f8 00008047 	 .word 1199570944
 588 00fc 00401C46 	 .word 1176256512
 589 0100 00000000 	 .word PWM_MHJ9_IN
 590 0104 00000000 	 .word PWM_MHJ9_OUT
 591 0108 00000000 	 .word PWM_Waterpump
 592 010c 00000000 	 .word PWM_Fans1
 593 0110 00000000 	 .word PWM_Fans2
 594              	 .cfi_endproc
 595              	.LFE418:
 597              	 .global __aeabi_i2d
 598              	 .global __aeabi_ddiv
 599              	 .global __aeabi_dmul
 600              	 .global __aeabi_ui2d
 601              	 .section .text.IOPort_readAINS,"ax",%progbits
 602              	 .align 2
 603              	 .global IOPort_readAINS
 604              	 .thumb
 605              	 .thumb_func
 607              	IOPort_readAINS:
 608              	.LFB419:
  94:../IO_Port.c  **** 
  95:../IO_Port.c  **** void IOPort_readAINS()
  96:../IO_Port.c  **** {
 609              	 .loc 3 96 0
 610              	 .cfi_startproc
 611              	 
 612              	 
 613 0000 98B5     	 push {r3,r4,r7,lr}
 614              	.LCFI21:
 615              	 .cfi_def_cfa_offset 16
 616              	 .cfi_offset 3,-16
 617              	 .cfi_offset 4,-12
 618              	 .cfi_offset 7,-8
 619              	 .cfi_offset 14,-4
 620 0002 00AF     	 add r7,sp,#0
 621              	.LCFI22:
 622              	 .cfi_def_cfa_register 7
  97:../IO_Port.c  **** 	*IOportData.x_clutch_STW = ADC_MEASUREMENT_GetResult(&ADC_MEASUREMENT_Channel_A)/4095.0*5*1000; //
 623              	 .loc 3 97 0
 624 0004 D44B     	 ldr r3,.L20+24
 625 0006 5C6B     	 ldr r4,[r3,#52]
 626 0008 D448     	 ldr r0,.L20+28
 627 000a FFF7FEFF 	 bl ADC_MEASUREMENT_GetResult
 628 000e 0346     	 mov r3,r0
 629 0010 1846     	 mov r0,r3
 630 0012 FFF7FEFF 	 bl __aeabi_i2d
 631 0016 0246     	 mov r2,r0
 632 0018 0B46     	 mov r3,r1
 633 001a 1046     	 mov r0,r2
 634 001c 1946     	 mov r1,r3
 635 001e C8A3     	 adr r3,.L20
 636 0020 D3E90023 	 ldrd r2,[r3]
 637 0024 FFF7FEFF 	 bl __aeabi_ddiv
 638 0028 0246     	 mov r2,r0
 639 002a 0B46     	 mov r3,r1
 640 002c 1046     	 mov r0,r2
 641 002e 1946     	 mov r1,r3
 642 0030 4FF00002 	 mov r2,#0
 643 0034 CA4B     	 ldr r3,.L20+32
 644 0036 FFF7FEFF 	 bl __aeabi_dmul
 645 003a 0246     	 mov r2,r0
 646 003c 0B46     	 mov r3,r1
 647 003e 1046     	 mov r0,r2
 648 0040 1946     	 mov r1,r3
 649 0042 4FF00002 	 mov r2,#0
 650 0046 C74B     	 ldr r3,.L20+36
 651 0048 FFF7FEFF 	 bl __aeabi_dmul
 652 004c 0246     	 mov r2,r0
 653 004e 0B46     	 mov r3,r1
 654 0050 C4E90023 	 strd r2,[r4]
  98:../IO_Port.c  **** 	*IOportData.U_Bat = ADC_MEASUREMENT_GetResult(&ADC_MEASUREMENT_Channel_B)/4095.0*14.8*1000;
 655              	 .loc 3 98 0
 656 0054 C04B     	 ldr r3,.L20+24
 657 0056 1C6B     	 ldr r4,[r3,#48]
 658 0058 C348     	 ldr r0,.L20+40
 659 005a FFF7FEFF 	 bl ADC_MEASUREMENT_GetResult
 660 005e 0346     	 mov r3,r0
 661 0060 1846     	 mov r0,r3
 662 0062 FFF7FEFF 	 bl __aeabi_i2d
 663 0066 0246     	 mov r2,r0
 664 0068 0B46     	 mov r3,r1
 665 006a 1046     	 mov r0,r2
 666 006c 1946     	 mov r1,r3
 667 006e B4A3     	 adr r3,.L20
 668 0070 D3E90023 	 ldrd r2,[r3]
 669 0074 FFF7FEFF 	 bl __aeabi_ddiv
 670 0078 0246     	 mov r2,r0
 671 007a 0B46     	 mov r3,r1
 672 007c 1046     	 mov r0,r2
 673 007e 1946     	 mov r1,r3
 674 0080 B1A3     	 adr r3,.L20+8
 675 0082 D3E90023 	 ldrd r2,[r3]
 676 0086 FFF7FEFF 	 bl __aeabi_dmul
 677 008a 0246     	 mov r2,r0
 678 008c 0B46     	 mov r3,r1
 679 008e 1046     	 mov r0,r2
 680 0090 1946     	 mov r1,r3
 681 0092 4FF00002 	 mov r2,#0
 682 0096 B34B     	 ldr r3,.L20+36
 683 0098 FFF7FEFF 	 bl __aeabi_dmul
 684 009c 0246     	 mov r2,r0
 685 009e 0B46     	 mov r3,r1
 686 00a0 C4E90023 	 strd r2,[r4]
  99:../IO_Port.c  **** 	*IOportData.x_RH_F = ADC_MEASUREMENT_GetResult(&ADC_MEASUREMENT_Channel_C)/4095.0*12*1000;
 687              	 .loc 3 99 0
 688 00a4 AC4B     	 ldr r3,.L20+24
 689 00a6 5C6A     	 ldr r4,[r3,#36]
 690 00a8 B048     	 ldr r0,.L20+44
 691 00aa FFF7FEFF 	 bl ADC_MEASUREMENT_GetResult
 692 00ae 0346     	 mov r3,r0
 693 00b0 1846     	 mov r0,r3
 694 00b2 FFF7FEFF 	 bl __aeabi_i2d
 695 00b6 0246     	 mov r2,r0
 696 00b8 0B46     	 mov r3,r1
 697 00ba 1046     	 mov r0,r2
 698 00bc 1946     	 mov r1,r3
 699 00be A0A3     	 adr r3,.L20
 700 00c0 D3E90023 	 ldrd r2,[r3]
 701 00c4 FFF7FEFF 	 bl __aeabi_ddiv
 702 00c8 0246     	 mov r2,r0
 703 00ca 0B46     	 mov r3,r1
 704 00cc 1046     	 mov r0,r2
 705 00ce 1946     	 mov r1,r3
 706 00d0 4FF00002 	 mov r2,#0
 707 00d4 A64B     	 ldr r3,.L20+48
 708 00d6 FFF7FEFF 	 bl __aeabi_dmul
 709 00da 0246     	 mov r2,r0
 710 00dc 0B46     	 mov r3,r1
 711 00de 1046     	 mov r0,r2
 712 00e0 1946     	 mov r1,r3
 713 00e2 4FF00002 	 mov r2,#0
 714 00e6 9F4B     	 ldr r3,.L20+36
 715 00e8 FFF7FEFF 	 bl __aeabi_dmul
 716 00ec 0246     	 mov r2,r0
 717 00ee 0B46     	 mov r3,r1
 718 00f0 C4E90023 	 strd r2,[r4]
 100:../IO_Port.c  **** 	*IOportData.f_FR = ADC_MEASUREMENT_GetResult(&ADC_MEASUREMENT_Channel_D)/4095.0*5*1000;
 719              	 .loc 3 100 0
 720 00f4 984B     	 ldr r3,.L20+24
 721 00f6 5C69     	 ldr r4,[r3,#20]
 722 00f8 9E48     	 ldr r0,.L20+52
 723 00fa FFF7FEFF 	 bl ADC_MEASUREMENT_GetResult
 724 00fe 0346     	 mov r3,r0
 725 0100 1846     	 mov r0,r3
 726 0102 FFF7FEFF 	 bl __aeabi_i2d
 727 0106 0246     	 mov r2,r0
 728 0108 0B46     	 mov r3,r1
 729 010a 1046     	 mov r0,r2
 730 010c 1946     	 mov r1,r3
 731 010e 8CA3     	 adr r3,.L20
 732 0110 D3E90023 	 ldrd r2,[r3]
 733 0114 FFF7FEFF 	 bl __aeabi_ddiv
 734 0118 0246     	 mov r2,r0
 735 011a 0B46     	 mov r3,r1
 736 011c 1046     	 mov r0,r2
 737 011e 1946     	 mov r1,r3
 738 0120 4FF00002 	 mov r2,#0
 739 0124 8E4B     	 ldr r3,.L20+32
 740 0126 FFF7FEFF 	 bl __aeabi_dmul
 741 012a 0246     	 mov r2,r0
 742 012c 0B46     	 mov r3,r1
 743 012e 1046     	 mov r0,r2
 744 0130 1946     	 mov r1,r3
 745 0132 4FF00002 	 mov r2,#0
 746 0136 8B4B     	 ldr r3,.L20+36
 747 0138 FFF7FEFF 	 bl __aeabi_dmul
 748 013c 0246     	 mov r2,r0
 749 013e 0B46     	 mov r3,r1
 750 0140 C4E90023 	 strd r2,[r4]
 101:../IO_Port.c  **** 	*IOportData.f_FL = ADC_MEASUREMENT_GetResult(&ADC_MEASUREMENT_Channel_E)/4095.0*5*1000;
 751              	 .loc 3 101 0
 752 0144 844B     	 ldr r3,.L20+24
 753 0146 1C69     	 ldr r4,[r3,#16]
 754 0148 8B48     	 ldr r0,.L20+56
 755 014a FFF7FEFF 	 bl ADC_MEASUREMENT_GetResult
 756 014e 0346     	 mov r3,r0
 757 0150 1846     	 mov r0,r3
 758 0152 FFF7FEFF 	 bl __aeabi_i2d
 759 0156 0246     	 mov r2,r0
 760 0158 0B46     	 mov r3,r1
 761 015a 1046     	 mov r0,r2
 762 015c 1946     	 mov r1,r3
 763 015e 78A3     	 adr r3,.L20
 764 0160 D3E90023 	 ldrd r2,[r3]
 765 0164 FFF7FEFF 	 bl __aeabi_ddiv
 766 0168 0246     	 mov r2,r0
 767 016a 0B46     	 mov r3,r1
 768 016c 1046     	 mov r0,r2
 769 016e 1946     	 mov r1,r3
 770 0170 4FF00002 	 mov r2,#0
 771 0174 7A4B     	 ldr r3,.L20+32
 772 0176 FFF7FEFF 	 bl __aeabi_dmul
 773 017a 0246     	 mov r2,r0
 774 017c 0B46     	 mov r3,r1
 775 017e 1046     	 mov r0,r2
 776 0180 1946     	 mov r1,r3
 777 0182 4FF00002 	 mov r2,#0
 778 0186 774B     	 ldr r3,.L20+36
 779 0188 FFF7FEFF 	 bl __aeabi_dmul
 780 018c 0246     	 mov r2,r0
 781 018e 0B46     	 mov r3,r1
 782 0190 C4E90023 	 strd r2,[r4]
 102:../IO_Port.c  **** 	*IOportData.x_clutch = ADC_MEASUREMENT_GetResult(&ADC_MEASUREMENT_Channel_F)/4095.0*5*1000;
 783              	 .loc 3 102 0
 784 0194 704B     	 ldr r3,.L20+24
 785 0196 DC68     	 ldr r4,[r3,#12]
 786 0198 7848     	 ldr r0,.L20+60
 787 019a FFF7FEFF 	 bl ADC_MEASUREMENT_GetResult
 788 019e 0346     	 mov r3,r0
 789 01a0 1846     	 mov r0,r3
 790 01a2 FFF7FEFF 	 bl __aeabi_i2d
 791 01a6 0246     	 mov r2,r0
 792 01a8 0B46     	 mov r3,r1
 793 01aa 1046     	 mov r0,r2
 794 01ac 1946     	 mov r1,r3
 795 01ae 64A3     	 adr r3,.L20
 796 01b0 D3E90023 	 ldrd r2,[r3]
 797 01b4 FFF7FEFF 	 bl __aeabi_ddiv
 798 01b8 0246     	 mov r2,r0
 799 01ba 0B46     	 mov r3,r1
 800 01bc 1046     	 mov r0,r2
 801 01be 1946     	 mov r1,r3
 802 01c0 4FF00002 	 mov r2,#0
 803 01c4 664B     	 ldr r3,.L20+32
 804 01c6 FFF7FEFF 	 bl __aeabi_dmul
 805 01ca 0246     	 mov r2,r0
 806 01cc 0B46     	 mov r3,r1
 807 01ce 1046     	 mov r0,r2
 808 01d0 1946     	 mov r1,r3
 809 01d2 4FF00002 	 mov r2,#0
 810 01d6 634B     	 ldr r3,.L20+36
 811 01d8 FFF7FEFF 	 bl __aeabi_dmul
 812 01dc 0246     	 mov r2,r0
 813 01de 0B46     	 mov r3,r1
 814 01e0 C4E90023 	 strd r2,[r4]
 103:../IO_Port.c  **** 	*IOportData.p_brake_R = ADC_MEASUREMENT_GetResult(&ADC_MEASUREMENT_Channel_G)/4095.0*5*1000;
 815              	 .loc 3 103 0
 816 01e4 5C4B     	 ldr r3,.L20+24
 817 01e6 5C68     	 ldr r4,[r3,#4]
 818 01e8 6548     	 ldr r0,.L20+64
 819 01ea FFF7FEFF 	 bl ADC_MEASUREMENT_GetResult
 820 01ee 0346     	 mov r3,r0
 821 01f0 1846     	 mov r0,r3
 822 01f2 FFF7FEFF 	 bl __aeabi_i2d
 823 01f6 0246     	 mov r2,r0
 824 01f8 0B46     	 mov r3,r1
 825 01fa 1046     	 mov r0,r2
 826 01fc 1946     	 mov r1,r3
 827 01fe 50A3     	 adr r3,.L20
 828 0200 D3E90023 	 ldrd r2,[r3]
 829 0204 FFF7FEFF 	 bl __aeabi_ddiv
 830 0208 0246     	 mov r2,r0
 831 020a 0B46     	 mov r3,r1
 832 020c 1046     	 mov r0,r2
 833 020e 1946     	 mov r1,r3
 834 0210 4FF00002 	 mov r2,#0
 835 0214 524B     	 ldr r3,.L20+32
 836 0216 FFF7FEFF 	 bl __aeabi_dmul
 837 021a 0246     	 mov r2,r0
 838 021c 0B46     	 mov r3,r1
 839 021e 1046     	 mov r0,r2
 840 0220 1946     	 mov r1,r3
 841 0222 4FF00002 	 mov r2,#0
 842 0226 4F4B     	 ldr r3,.L20+36
 843 0228 FFF7FEFF 	 bl __aeabi_dmul
 844 022c 0246     	 mov r2,r0
 845 022e 0B46     	 mov r3,r1
 846 0230 C4E90023 	 strd r2,[r4]
 104:../IO_Port.c  **** 	*IOportData.boardTemp = NTC_Calc(ADC_MEASUREMENT_GetResult(&ADC_MEASUREMENT_Channel_H));
 847              	 .loc 3 104 0
 848 0234 484B     	 ldr r3,.L20+24
 849 0236 9C6B     	 ldr r4,[r3,#56]
 850 0238 5248     	 ldr r0,.L20+68
 851 023a FFF7FEFF 	 bl ADC_MEASUREMENT_GetResult
 852 023e 0346     	 mov r3,r0
 853 0240 1846     	 mov r0,r3
 854 0242 FFF7FEFF 	 bl __aeabi_ui2d
 855 0246 0246     	 mov r2,r0
 856 0248 0B46     	 mov r3,r1
 857 024a 1046     	 mov r0,r2
 858 024c 1946     	 mov r1,r3
 859 024e FFF7FEFF 	 bl NTC_Calc
 860 0252 0246     	 mov r2,r0
 861 0254 0B46     	 mov r3,r1
 862 0256 C4E90023 	 strd r2,[r4]
 105:../IO_Port.c  **** 	*IOportData.TR1_VSense_WP = ADC_MEASUREMENT_GetResult(&ADC_MEASUREMENT_Channel_I)/4095.0*3.3*1000;
 863              	 .loc 3 105 0
 864 025a 3F4B     	 ldr r3,.L20+24
 865 025c DC6B     	 ldr r4,[r3,#60]
 866 025e 4A48     	 ldr r0,.L20+72
 867 0260 FFF7FEFF 	 bl ADC_MEASUREMENT_GetResult
 868 0264 0346     	 mov r3,r0
 869 0266 1846     	 mov r0,r3
 870 0268 FFF7FEFF 	 bl __aeabi_i2d
 871 026c 0246     	 mov r2,r0
 872 026e 0B46     	 mov r3,r1
 873 0270 1046     	 mov r0,r2
 874 0272 1946     	 mov r1,r3
 875 0274 32A3     	 adr r3,.L20
 876 0276 D3E90023 	 ldrd r2,[r3]
 877 027a FFF7FEFF 	 bl __aeabi_ddiv
 878 027e 0246     	 mov r2,r0
 879 0280 0B46     	 mov r3,r1
 880 0282 1046     	 mov r0,r2
 881 0284 1946     	 mov r1,r3
 882 0286 32A3     	 adr r3,.L20+16
 883 0288 D3E90023 	 ldrd r2,[r3]
 884 028c FFF7FEFF 	 bl __aeabi_dmul
 885 0290 0246     	 mov r2,r0
 886 0292 0B46     	 mov r3,r1
 887 0294 1046     	 mov r0,r2
 888 0296 1946     	 mov r1,r3
 889 0298 4FF00002 	 mov r2,#0
 890 029c 314B     	 ldr r3,.L20+36
 891 029e FFF7FEFF 	 bl __aeabi_dmul
 892 02a2 0246     	 mov r2,r0
 893 02a4 0B46     	 mov r3,r1
 894 02a6 C4E90023 	 strd r2,[r4]
 106:../IO_Port.c  **** 	*IOportData.TR2_VSense_FAN1 = ADC_MEASUREMENT_GetResult(&ADC_MEASUREMENT_Channel_J)/4095.0*3.3*100
 895              	 .loc 3 106 0
 896 02aa 2B4B     	 ldr r3,.L20+24
 897 02ac 1C6C     	 ldr r4,[r3,#64]
 898 02ae 3748     	 ldr r0,.L20+76
 899 02b0 FFF7FEFF 	 bl ADC_MEASUREMENT_GetResult
 900 02b4 0346     	 mov r3,r0
 901 02b6 1846     	 mov r0,r3
 902 02b8 FFF7FEFF 	 bl __aeabi_i2d
 903 02bc 0246     	 mov r2,r0
 904 02be 0B46     	 mov r3,r1
 905 02c0 1046     	 mov r0,r2
 906 02c2 1946     	 mov r1,r3
 907 02c4 1EA3     	 adr r3,.L20
 908 02c6 D3E90023 	 ldrd r2,[r3]
 909 02ca FFF7FEFF 	 bl __aeabi_ddiv
 910 02ce 0246     	 mov r2,r0
 911 02d0 0B46     	 mov r3,r1
 912 02d2 1046     	 mov r0,r2
 913 02d4 1946     	 mov r1,r3
 914 02d6 1EA3     	 adr r3,.L20+16
 915 02d8 D3E90023 	 ldrd r2,[r3]
 916 02dc FFF7FEFF 	 bl __aeabi_dmul
 917 02e0 0246     	 mov r2,r0
 918 02e2 0B46     	 mov r3,r1
 919 02e4 1046     	 mov r0,r2
 920 02e6 1946     	 mov r1,r3
 921 02e8 4FF00002 	 mov r2,#0
 922 02ec 1D4B     	 ldr r3,.L20+36
 923 02ee FFF7FEFF 	 bl __aeabi_dmul
 924 02f2 0246     	 mov r2,r0
 925 02f4 0B46     	 mov r3,r1
 926 02f6 C4E90023 	 strd r2,[r4]
 107:../IO_Port.c  **** 	*IOportData.TR3_VSense_FAN2 = ADC_MEASUREMENT_GetResult(&ADC_MEASUREMENT_Channel_K)/4095.0*3.3*100
 927              	 .loc 3 107 0
 928 02fa 174B     	 ldr r3,.L20+24
 929 02fc 5C6C     	 ldr r4,[r3,#68]
 930 02fe 2448     	 ldr r0,.L20+80
 931 0300 FFF7FEFF 	 bl ADC_MEASUREMENT_GetResult
 932 0304 0346     	 mov r3,r0
 933 0306 1846     	 mov r0,r3
 934 0308 FFF7FEFF 	 bl __aeabi_i2d
 935 030c 0246     	 mov r2,r0
 936 030e 0B46     	 mov r3,r1
 937 0310 1046     	 mov r0,r2
 938 0312 1946     	 mov r1,r3
 939 0314 0AA3     	 adr r3,.L20
 940 0316 D3E90023 	 ldrd r2,[r3]
 941 031a FFF7FEFF 	 bl __aeabi_ddiv
 942 031e 0246     	 mov r2,r0
 943 0320 0B46     	 mov r3,r1
 944 0322 1046     	 mov r0,r2
 945 0324 1946     	 mov r1,r3
 946 0326 0AA3     	 adr r3,.L20+16
 947 0328 D3E90023 	 ldrd r2,[r3]
 948 032c FFF7FEFF 	 bl __aeabi_dmul
 949 0330 0246     	 mov r2,r0
 950 0332 0B46     	 mov r3,r1
 951 0334 1046     	 mov r0,r2
 952 0336 1946     	 mov r1,r3
 953 0338 4FF00002 	 mov r2,#0
 954 033c 2AE0     	 b .L21
 955              	.L22:
 956 033e 00BF     	 .align 3
 957              	.L20:
 958 0340 00000000 	 .word 0
 959 0344 00FEAF40 	 .word 1085275648
 960 0348 9A999999 	 .word -1717986918
 961 034c 99992D40 	 .word 1076730265
 962 0350 66666666 	 .word 1717986918
 963 0354 66660A40 	 .word 1074423398
 964 0358 00000000 	 .word IOportData
 965 035c 00000000 	 .word ADC_MEASUREMENT_Channel_A_handle
 966 0360 00001440 	 .word 1075052544
 967 0364 00408F40 	 .word 1083129856
 968 0368 00000000 	 .word ADC_MEASUREMENT_Channel_B_handle
 969 036c 00000000 	 .word ADC_MEASUREMENT_Channel_C_handle
 970 0370 00002840 	 .word 1076363264
 971 0374 00000000 	 .word ADC_MEASUREMENT_Channel_D_handle
 972 0378 00000000 	 .word ADC_MEASUREMENT_Channel_E_handle
 973 037c 00000000 	 .word ADC_MEASUREMENT_Channel_F_handle
 974 0380 00000000 	 .word ADC_MEASUREMENT_Channel_G_handle
 975 0384 00000000 	 .word ADC_MEASUREMENT_Channel_H_handle
 976 0388 00000000 	 .word ADC_MEASUREMENT_Channel_I_handle
 977 038c 00000000 	 .word ADC_MEASUREMENT_Channel_J_handle
 978 0390 00000000 	 .word ADC_MEASUREMENT_Channel_K_handle
 979              	.L21:
 980 0394 034B     	 ldr r3,.L23
 981 0396 FFF7FEFF 	 bl __aeabi_dmul
 982 039a 0246     	 mov r2,r0
 983 039c 0B46     	 mov r3,r1
 984 039e C4E90023 	 strd r2,[r4]
 108:../IO_Port.c  **** 	//int test2 = ADC_MEASUREMENT_GetResult(&ADC_MEASUREMENT_Channel_H);
 109:../IO_Port.c  ****   }
 985              	 .loc 3 109 0
 986 03a2 98BD     	 pop {r3,r4,r7,pc}
 987              	.L24:
 988              	 .align 2
 989              	.L23:
 990 03a4 00408F40 	 .word 1083129856
 991              	 .cfi_endproc
 992              	.LFE419:
 994              	 .section .text.ERU0_3_IRQHandler,"ax",%progbits
 995              	 .align 2
 996              	 .global ERU0_3_IRQHandler
 997              	 .thumb
 998              	 .thumb_func
 1000              	ERU0_3_IRQHandler:
 1001              	.LFB420:
 110:../IO_Port.c  **** 
 111:../IO_Port.c  **** void Interrupt_Shifting(void)
 112:../IO_Port.c  **** {
 1002              	 .loc 3 112 0
 1003              	 .cfi_startproc
 1004              	 
 1005              	 
 1006 0000 80B5     	 push {r7,lr}
 1007              	.LCFI23:
 1008              	 .cfi_def_cfa_offset 8
 1009              	 .cfi_offset 7,-8
 1010              	 .cfi_offset 14,-4
 1011 0002 00AF     	 add r7,sp,#0
 1012              	.LCFI24:
 1013              	 .cfi_def_cfa_register 7
 113:../IO_Port.c  **** 	shiftUpInterrupt = DIGITAL_IO_GetInput(&Signal_UpShift);
 1014              	 .loc 3 113 0
 1015 0004 0748     	 ldr r0,.L26
 1016 0006 FFF7FEFF 	 bl DIGITAL_IO_GetInput
 1017 000a 0346     	 mov r3,r0
 1018 000c DAB2     	 uxtb r2,r3
 1019 000e 064B     	 ldr r3,.L26+4
 1020 0010 1A70     	 strb r2,[r3]
 114:../IO_Port.c  **** 	shiftDownInterrupt = DIGITAL_IO_GetInput(&Signal_DownShift);
 1021              	 .loc 3 114 0
 1022 0012 0648     	 ldr r0,.L26+8
 1023 0014 FFF7FEFF 	 bl DIGITAL_IO_GetInput
 1024 0018 0346     	 mov r3,r0
 1025 001a DAB2     	 uxtb r2,r3
 1026 001c 044B     	 ldr r3,.L26+12
 1027 001e 1A70     	 strb r2,[r3]
 115:../IO_Port.c  **** }
 1028              	 .loc 3 115 0
 1029 0020 80BD     	 pop {r7,pc}
 1030              	.L27:
 1031 0022 00BF     	 .align 2
 1032              	.L26:
 1033 0024 00000000 	 .word Signal_UpShift
 1034 0028 00000000 	 .word shiftUpInterrupt
 1035 002c 00000000 	 .word Signal_DownShift
 1036 0030 00000000 	 .word shiftDownInterrupt
 1037              	 .cfi_endproc
 1038              	.LFE420:
 1040              	 .section .text.ManualControl_setDOUTS,"ax",%progbits
 1041              	 .align 2
 1042              	 .global ManualControl_setDOUTS
 1043              	 .thumb
 1044              	 .thumb_func
 1046              	ManualControl_setDOUTS:
 1047              	.LFB421:
 116:../IO_Port.c  **** 
 117:../IO_Port.c  **** void ManualControl_setDOUTS()
 118:../IO_Port.c  **** {
 1048              	 .loc 3 118 0
 1049              	 .cfi_startproc
 1050              	 
 1051              	 
 1052              	 
 1053 0000 80B4     	 push {r7}
 1054              	.LCFI25:
 1055              	 .cfi_def_cfa_offset 4
 1056              	 .cfi_offset 7,-4
 1057 0002 00AF     	 add r7,sp,#0
 1058              	.LCFI26:
 1059              	 .cfi_def_cfa_register 7
 119:../IO_Port.c  **** 	if(canData.ManConOn_VOVGShiftUp)
 1060              	 .loc 3 119 0
 1061 0004 1D4B     	 ldr r3,.L34
 1062 0006 93F84F31 	 ldrb r3,[r3,#335]
 1063 000a 002B     	 cmp r3,#0
 1064 000c 05D0     	 beq .L29
 120:../IO_Port.c  **** 	  *IOportData.VOVG_ShiftUp = canData.ManConVar_VOVGShiftUp;
 1065              	 .loc 3 120 0
 1066 000e 1C4B     	 ldr r3,.L34+4
 1067 0010 9B6C     	 ldr r3,[r3,#72]
 1068 0012 1A4A     	 ldr r2,.L34
 1069 0014 92F85921 	 ldrb r2,[r2,#345]
 1070 0018 1A70     	 strb r2,[r3]
 1071              	.L29:
 121:../IO_Port.c  **** 
 122:../IO_Port.c  **** 	if(canData.ManConOn_VOVGShiftDown)
 1072              	 .loc 3 122 0
 1073 001a 184B     	 ldr r3,.L34
 1074 001c 93F84E31 	 ldrb r3,[r3,#334]
 1075 0020 002B     	 cmp r3,#0
 1076 0022 05D0     	 beq .L30
 123:../IO_Port.c  **** 	  *IOportData.VOVG_ShiftDown = canData.ManConVar_VOVGShiftDown;
 1077              	 .loc 3 123 0
 1078 0024 164B     	 ldr r3,.L34+4
 1079 0026 DB6C     	 ldr r3,[r3,#76]
 1080 0028 144A     	 ldr r2,.L34
 1081 002a 92F85821 	 ldrb r2,[r2,#344]
 1082 002e 1A70     	 strb r2,[r3]
 1083              	.L30:
 124:../IO_Port.c  **** 
 125:../IO_Port.c  **** 	if(canData.ManConOn_IgnCut)
 1084              	 .loc 3 125 0
 1085 0030 124B     	 ldr r3,.L34
 1086 0032 93F85031 	 ldrb r3,[r3,#336]
 1087 0036 002B     	 cmp r3,#0
 1088 0038 05D0     	 beq .L31
 126:../IO_Port.c  **** 	  *IOportData.Ignition_Cut = canData.ManConVar_IgnCut;
 1089              	 .loc 3 126 0
 1090 003a 114B     	 ldr r3,.L34+4
 1091 003c 1B6D     	 ldr r3,[r3,#80]
 1092 003e 0F4A     	 ldr r2,.L34
 1093 0040 92F85A21 	 ldrb r2,[r2,#346]
 1094 0044 1A70     	 strb r2,[r3]
 1095              	.L31:
 127:../IO_Port.c  **** 
 128:../IO_Port.c  **** 	if(canData.ManConOn_VOVG_IN)
 1096              	 .loc 3 128 0
 1097 0046 0D4B     	 ldr r3,.L34
 1098 0048 93F85131 	 ldrb r3,[r3,#337]
 1099 004c 002B     	 cmp r3,#0
 1100 004e 05D0     	 beq .L32
 129:../IO_Port.c  **** 	  *IOportData.VOVG_IN = canData.ManConVar_VOVG_IN;
 1101              	 .loc 3 129 0
 1102 0050 0B4B     	 ldr r3,.L34+4
 1103 0052 5B6D     	 ldr r3,[r3,#84]
 1104 0054 094A     	 ldr r2,.L34
 1105 0056 92F85B21 	 ldrb r2,[r2,#347]
 1106 005a 1A70     	 strb r2,[r3]
 1107              	.L32:
 130:../IO_Port.c  **** 
 131:../IO_Port.c  **** 	if(canData.ManConOn_VOVG_OUT)
 1108              	 .loc 3 131 0
 1109 005c 074B     	 ldr r3,.L34
 1110 005e 93F85231 	 ldrb r3,[r3,#338]
 1111 0062 002B     	 cmp r3,#0
 1112 0064 05D0     	 beq .L28
 132:../IO_Port.c  **** 	  *IOportData.VOVG_OUT = canData.ManConVar_VOVG_OUT;
 1113              	 .loc 3 132 0
 1114 0066 064B     	 ldr r3,.L34+4
 1115 0068 9B6D     	 ldr r3,[r3,#88]
 1116 006a 044A     	 ldr r2,.L34
 1117 006c 92F85C21 	 ldrb r2,[r2,#348]
 1118 0070 1A70     	 strb r2,[r3]
 1119              	.L28:
 133:../IO_Port.c  **** }
 1120              	 .loc 3 133 0
 1121 0072 BD46     	 mov sp,r7
 1122              	.LCFI27:
 1123              	 .cfi_def_cfa_register 13
 1124              	 
 1125 0074 5DF8047B 	 ldr r7,[sp],#4
 1126              	.LCFI28:
 1127              	 .cfi_restore 7
 1128              	 .cfi_def_cfa_offset 0
 1129 0078 7047     	 bx lr
 1130              	.L35:
 1131 007a 00BF     	 .align 2
 1132              	.L34:
 1133 007c 00000000 	 .word canData
 1134 0080 00000000 	 .word IOportData
 1135              	 .cfi_endproc
 1136              	.LFE421:
 1138              	 .section .text.ManualControl_setPWMOUTS,"ax",%progbits
 1139              	 .align 2
 1140              	 .global ManualControl_setPWMOUTS
 1141              	 .thumb
 1142              	 .thumb_func
 1144              	ManualControl_setPWMOUTS:
 1145              	.LFB422:
 134:../IO_Port.c  **** 
 135:../IO_Port.c  **** void ManualControl_setPWMOUTS()
 136:../IO_Port.c  **** {
 1146              	 .loc 3 136 0
 1147              	 .cfi_startproc
 1148              	 
 1149              	 
 1150              	 
 1151 0000 80B4     	 push {r7}
 1152              	.LCFI29:
 1153              	 .cfi_def_cfa_offset 4
 1154              	 .cfi_offset 7,-4
 1155 0002 83B0     	 sub sp,sp,#12
 1156              	.LCFI30:
 1157              	 .cfi_def_cfa_offset 16
 1158 0004 00AF     	 add r7,sp,#0
 1159              	.LCFI31:
 1160              	 .cfi_def_cfa_register 7
 137:../IO_Port.c  **** 	if(canData.ManConOn_MHJ9_IN)
 1161              	 .loc 3 137 0
 1162 0006 4B4B     	 ldr r3,.L42
 1163 0008 93F84931 	 ldrb r3,[r3,#329]
 1164 000c 002B     	 cmp r3,#0
 1165 000e 17D0     	 beq .L37
 138:../IO_Port.c  **** 	  *IOportData.MHJ9_IN = (float)canData.ManConVar_MHJ9_IN/100*65536;
 1166              	 .loc 3 138 0
 1167 0010 494B     	 ldr r3,.L42+4
 1168 0012 DB6D     	 ldr r3,[r3,#92]
 1169 0014 474A     	 ldr r2,.L42
 1170 0016 92F85321 	 ldrb r2,[r2,#339]
 1171 001a 07EE902A 	 fmsr s15,r2
 1172 001e F8EE677A 	 fuitos s15,s15
 1173 0022 9FED467A 	 flds s14,.L42+8
 1174 0026 C7EE877A 	 fdivs s15,s15,s14
 1175 002a 9FED457A 	 flds s14,.L42+12
 1176 002e 67EE877A 	 fmuls s15,s15,s14
 1177 0032 FCEEE77A 	 ftouizs s15,s15
 1178 0036 C7ED017A 	 fsts s15,[r7,#4]
 1179 003a BA88     	 ldrh r2,[r7,#4]
 1180 003c 92B2     	 uxth r2,r2
 1181 003e 1A80     	 strh r2,[r3]
 1182              	.L37:
 139:../IO_Port.c  **** 
 140:../IO_Port.c  **** 	if(canData.ManConOn_MHJ9_OUT)
 1183              	 .loc 3 140 0
 1184 0040 3C4B     	 ldr r3,.L42
 1185 0042 93F84A31 	 ldrb r3,[r3,#330]
 1186 0046 002B     	 cmp r3,#0
 1187 0048 17D0     	 beq .L38
 141:../IO_Port.c  **** 	  *IOportData.MHJ9_OUT = (float)canData.ManConVar_MHJ9_OUT/100*65536;
 1188              	 .loc 3 141 0
 1189 004a 3B4B     	 ldr r3,.L42+4
 1190 004c 1B6E     	 ldr r3,[r3,#96]
 1191 004e 394A     	 ldr r2,.L42
 1192 0050 92F85421 	 ldrb r2,[r2,#340]
 1193 0054 07EE902A 	 fmsr s15,r2
 1194 0058 F8EE677A 	 fuitos s15,s15
 1195 005c 9FED377A 	 flds s14,.L42+8
 1196 0060 C7EE877A 	 fdivs s15,s15,s14
 1197 0064 9FED367A 	 flds s14,.L42+12
 1198 0068 67EE877A 	 fmuls s15,s15,s14
 1199 006c FCEEE77A 	 ftouizs s15,s15
 1200 0070 C7ED017A 	 fsts s15,[r7,#4]
 1201 0074 BA88     	 ldrh r2,[r7,#4]
 1202 0076 92B2     	 uxth r2,r2
 1203 0078 1A80     	 strh r2,[r3]
 1204              	.L38:
 142:../IO_Port.c  **** 
 143:../IO_Port.c  **** 	if(canData.ManConOn_Waterpump)
 1205              	 .loc 3 143 0
 1206 007a 2E4B     	 ldr r3,.L42
 1207 007c 93F84B31 	 ldrb r3,[r3,#331]
 1208 0080 002B     	 cmp r3,#0
 1209 0082 17D0     	 beq .L39
 144:../IO_Port.c  **** 	  *IOportData.Waterpump_PWM_active = (float)canData.ManConVar_Waterpump/100*65536;
 1210              	 .loc 3 144 0
 1211 0084 2C4B     	 ldr r3,.L42+4
 1212 0086 9B6E     	 ldr r3,[r3,#104]
 1213 0088 2A4A     	 ldr r2,.L42
 1214 008a 92F85521 	 ldrb r2,[r2,#341]
 1215 008e 07EE902A 	 fmsr s15,r2
 1216 0092 F8EE677A 	 fuitos s15,s15
 1217 0096 9FED297A 	 flds s14,.L42+8
 1218 009a C7EE877A 	 fdivs s15,s15,s14
 1219 009e 9FED287A 	 flds s14,.L42+12
 1220 00a2 67EE877A 	 fmuls s15,s15,s14
 1221 00a6 FCEEE77A 	 ftouizs s15,s15
 1222 00aa C7ED017A 	 fsts s15,[r7,#4]
 1223 00ae BA88     	 ldrh r2,[r7,#4]
 1224 00b0 92B2     	 uxth r2,r2
 1225 00b2 1A80     	 strh r2,[r3]
 1226              	.L39:
 145:../IO_Port.c  **** 
 146:../IO_Port.c  **** 	if(canData.ManConOn_Fans1)
 1227              	 .loc 3 146 0
 1228 00b4 1F4B     	 ldr r3,.L42
 1229 00b6 93F84C31 	 ldrb r3,[r3,#332]
 1230 00ba 002B     	 cmp r3,#0
 1231 00bc 17D0     	 beq .L40
 147:../IO_Port.c  **** 	  *IOportData.Fans1_PWM_active = (float)canData.ManConVar_Fans1/100*65536;
 1232              	 .loc 3 147 0
 1233 00be 1E4B     	 ldr r3,.L42+4
 1234 00c0 DB6E     	 ldr r3,[r3,#108]
 1235 00c2 1C4A     	 ldr r2,.L42
 1236 00c4 92F85621 	 ldrb r2,[r2,#342]
 1237 00c8 07EE902A 	 fmsr s15,r2
 1238 00cc F8EE677A 	 fuitos s15,s15
 1239 00d0 9FED1A7A 	 flds s14,.L42+8
 1240 00d4 C7EE877A 	 fdivs s15,s15,s14
 1241 00d8 9FED197A 	 flds s14,.L42+12
 1242 00dc 67EE877A 	 fmuls s15,s15,s14
 1243 00e0 FCEEE77A 	 ftouizs s15,s15
 1244 00e4 C7ED017A 	 fsts s15,[r7,#4]
 1245 00e8 BA88     	 ldrh r2,[r7,#4]
 1246 00ea 92B2     	 uxth r2,r2
 1247 00ec 1A80     	 strh r2,[r3]
 1248              	.L40:
 148:../IO_Port.c  **** 
 149:../IO_Port.c  **** 	if(canData.ManConOn_Fans2)
 1249              	 .loc 3 149 0
 1250 00ee 114B     	 ldr r3,.L42
 1251 00f0 93F84D31 	 ldrb r3,[r3,#333]
 1252 00f4 002B     	 cmp r3,#0
 1253 00f6 17D0     	 beq .L36
 150:../IO_Port.c  **** 	  *IOportData.Fans2_PWM_active = (float)canData.ManConVar_Fans2/100*65536;
 1254              	 .loc 3 150 0
 1255 00f8 0F4B     	 ldr r3,.L42+4
 1256 00fa 1B6F     	 ldr r3,[r3,#112]
 1257 00fc 0D4A     	 ldr r2,.L42
 1258 00fe 92F85721 	 ldrb r2,[r2,#343]
 1259 0102 07EE902A 	 fmsr s15,r2
 1260 0106 F8EE677A 	 fuitos s15,s15
 1261 010a 9FED0C7A 	 flds s14,.L42+8
 1262 010e C7EE877A 	 fdivs s15,s15,s14
 1263 0112 9FED0B7A 	 flds s14,.L42+12
 1264 0116 67EE877A 	 fmuls s15,s15,s14
 1265 011a FCEEE77A 	 ftouizs s15,s15
 1266 011e C7ED017A 	 fsts s15,[r7,#4]
 1267 0122 BA88     	 ldrh r2,[r7,#4]
 1268 0124 92B2     	 uxth r2,r2
 1269 0126 1A80     	 strh r2,[r3]
 1270              	.L36:
 151:../IO_Port.c  **** }
 1271              	 .loc 3 151 0
 1272 0128 0C37     	 adds r7,r7,#12
 1273              	.LCFI32:
 1274              	 .cfi_def_cfa_offset 4
 1275 012a BD46     	 mov sp,r7
 1276              	.LCFI33:
 1277              	 .cfi_def_cfa_register 13
 1278              	 
 1279 012c 5DF8047B 	 ldr r7,[sp],#4
 1280              	.LCFI34:
 1281              	 .cfi_restore 7
 1282              	 .cfi_def_cfa_offset 0
 1283 0130 7047     	 bx lr
 1284              	.L43:
 1285 0132 00BF     	 .align 2
 1286              	.L42:
 1287 0134 00000000 	 .word canData
 1288 0138 00000000 	 .word IOportData
 1289 013c 0000C842 	 .word 1120403456
 1290 0140 00008047 	 .word 1199570944
 1291              	 .cfi_endproc
 1292              	.LFE422:
 1294              	 .global __aeabi_d2uiz
 1295              	 .global __aeabi_f2d
 1296              	 .section .text.NTC_Calc,"ax",%progbits
 1297              	 .align 2
 1298              	 .global NTC_Calc
 1299              	 .thumb
 1300              	 .thumb_func
 1302              	NTC_Calc:
 1303              	.LFB423:
 152:../IO_Port.c  **** 
 153:../IO_Port.c  **** double NTC_Calc(double Temp)
 154:../IO_Port.c  **** {
 1304              	 .loc 3 154 0
 1305              	 .cfi_startproc
 1306              	 
 1307              	 
 1308 0000 80B5     	 push {r7,lr}
 1309              	.LCFI35:
 1310              	 .cfi_def_cfa_offset 8
 1311              	 .cfi_offset 7,-8
 1312              	 .cfi_offset 14,-4
 1313 0002 98B0     	 sub sp,sp,#96
 1314              	.LCFI36:
 1315              	 .cfi_def_cfa_offset 104
 1316 0004 00AF     	 add r7,sp,#0
 1317              	.LCFI37:
 1318              	 .cfi_def_cfa_register 7
 1319 0006 C7E90001 	 strd r0,[r7]
 155:../IO_Port.c  **** 			int NTC_LUT_NB_POINT = 6;
 1320              	 .loc 3 155 0
 1321 000a 0623     	 movs r3,#6
 1322 000c BB64     	 str r3,[r7,#72]
 156:../IO_Port.c  **** 			int i;
 157:../IO_Port.c  **** 			uint16_t Temp_Val;
 158:../IO_Port.c  **** 			float x0,y0,x1,y1,a,b;
 159:../IO_Port.c  **** 			uint32_t LUT_NTC_V[6]={0};
 1323              	 .loc 3 159 0
 1324 000e 07F12403 	 add r3,r7,#36
 1325 0012 0022     	 movs r2,#0
 1326 0014 1A60     	 str r2,[r3]
 1327 0016 0433     	 adds r3,r3,#4
 1328 0018 0022     	 movs r2,#0
 1329 001a 1A60     	 str r2,[r3]
 1330 001c 0433     	 adds r3,r3,#4
 1331 001e 0022     	 movs r2,#0
 1332 0020 1A60     	 str r2,[r3]
 1333 0022 0433     	 adds r3,r3,#4
 1334 0024 0022     	 movs r2,#0
 1335 0026 1A60     	 str r2,[r3]
 1336 0028 0433     	 adds r3,r3,#4
 1337 002a 0022     	 movs r2,#0
 1338 002c 1A60     	 str r2,[r3]
 1339 002e 0433     	 adds r3,r3,#4
 1340 0030 0022     	 movs r2,#0
 1341 0032 1A60     	 str r2,[r3]
 1342 0034 0433     	 adds r3,r3,#4
 160:../IO_Port.c  **** 			float LUT_NTC[6]={0};
 1343              	 .loc 3 160 0
 1344 0036 07F10C03 	 add r3,r7,#12
 1345 003a 0022     	 movs r2,#0
 1346 003c 1A60     	 str r2,[r3]
 1347 003e 0433     	 adds r3,r3,#4
 1348 0040 0022     	 movs r2,#0
 1349 0042 1A60     	 str r2,[r3]
 1350 0044 0433     	 adds r3,r3,#4
 1351 0046 0022     	 movs r2,#0
 1352 0048 1A60     	 str r2,[r3]
 1353 004a 0433     	 adds r3,r3,#4
 1354 004c 0022     	 movs r2,#0
 1355 004e 1A60     	 str r2,[r3]
 1356 0050 0433     	 adds r3,r3,#4
 1357 0052 0022     	 movs r2,#0
 1358 0054 1A60     	 str r2,[r3]
 1359 0056 0433     	 adds r3,r3,#4
 1360 0058 0022     	 movs r2,#0
 1361 005a 1A60     	 str r2,[r3]
 1362 005c 0433     	 adds r3,r3,#4
 161:../IO_Port.c  **** 
 162:../IO_Port.c  **** 			LUT_NTC_V[0] = 140;
 1363              	 .loc 3 162 0
 1364 005e 8C23     	 movs r3,#140
 1365 0060 7B62     	 str r3,[r7,#36]
 163:../IO_Port.c  **** 			LUT_NTC_V[1] = 283;
 1366              	 .loc 3 163 0
 1367 0062 40F21B13 	 movw r3,#283
 1368 0066 BB62     	 str r3,[r7,#40]
 164:../IO_Port.c  **** 			LUT_NTC_V[2] = 602;
 1369              	 .loc 3 164 0
 1370 0068 40F25A23 	 movw r3,#602
 1371 006c FB62     	 str r3,[r7,#44]
 165:../IO_Port.c  **** 			LUT_NTC_V[3] = 1288;
 1372              	 .loc 3 165 0
 1373 006e 4FF4A163 	 mov r3,#1288
 1374 0072 3B63     	 str r3,[r7,#48]
 166:../IO_Port.c  **** 			LUT_NTC_V[4] = 2500;
 1375              	 .loc 3 166 0
 1376 0074 40F6C413 	 movw r3,#2500
 1377 0078 7B63     	 str r3,[r7,#52]
 167:../IO_Port.c  **** 			LUT_NTC_V[5] = 3850;
 1378              	 .loc 3 167 0
 1379 007a 40F60A73 	 movw r3,#3850
 1380 007e BB63     	 str r3,[r7,#56]
 168:../IO_Port.c  **** 
 169:../IO_Port.c  **** 		    LUT_NTC[0] = 125;
 1381              	 .loc 3 169 0
 1382 0080 774B     	 ldr r3,.L52+16
 1383 0082 FB60     	 str r3,[r7,#12]
 170:../IO_Port.c  **** 			LUT_NTC[1] = 100;
 1384              	 .loc 3 170 0
 1385 0084 774B     	 ldr r3,.L52+20
 1386 0086 3B61     	 str r3,[r7,#16]
 171:../IO_Port.c  **** 			LUT_NTC[2] = 75;
 1387              	 .loc 3 171 0
 1388 0088 774B     	 ldr r3,.L52+24
 1389 008a 7B61     	 str r3,[r7,#20]
 172:../IO_Port.c  **** 			LUT_NTC[3] = 50;
 1390              	 .loc 3 172 0
 1391 008c 774B     	 ldr r3,.L52+28
 1392 008e BB61     	 str r3,[r7,#24]
 173:../IO_Port.c  **** 			LUT_NTC[4] = 25;
 1393              	 .loc 3 173 0
 1394 0090 774B     	 ldr r3,.L52+32
 1395 0092 FB61     	 str r3,[r7,#28]
 174:../IO_Port.c  **** 			LUT_NTC[5] = 0;
 1396              	 .loc 3 174 0
 1397 0094 4FF00003 	 mov r3,#0
 1398 0098 3B62     	 str r3,[r7,#32]
 175:../IO_Port.c  **** 
 176:../IO_Port.c  **** 			i=0;
 1399              	 .loc 3 176 0
 1400 009a 0023     	 movs r3,#0
 1401 009c FB65     	 str r3,[r7,#92]
 177:../IO_Port.c  **** 			Temp_Val = ((Temp)*5000/4095);
 1402              	 .loc 3 177 0
 1403 009e D7E90001 	 ldrd r0,[r7]
 1404 00a2 6BA3     	 adr r3,.L52
 1405 00a4 D3E90023 	 ldrd r2,[r3]
 1406 00a8 FFF7FEFF 	 bl __aeabi_dmul
 1407 00ac 0246     	 mov r2,r0
 1408 00ae 0B46     	 mov r3,r1
 1409 00b0 1046     	 mov r0,r2
 1410 00b2 1946     	 mov r1,r3
 1411 00b4 68A3     	 adr r3,.L52+8
 1412 00b6 D3E90023 	 ldrd r2,[r3]
 1413 00ba FFF7FEFF 	 bl __aeabi_ddiv
 1414 00be 0246     	 mov r2,r0
 1415 00c0 0B46     	 mov r3,r1
 1416 00c2 1046     	 mov r0,r2
 1417 00c4 1946     	 mov r1,r3
 1418 00c6 FFF7FEFF 	 bl __aeabi_d2uiz
 1419 00ca 0346     	 mov r3,r0
 1420 00cc A7F84630 	 strh r3,[r7,#70]
 178:../IO_Port.c  **** 			while(i<NTC_LUT_NB_POINT && LUT_NTC_V[i]<=Temp_Val) i++;
 1421              	 .loc 3 178 0
 1422 00d0 02E0     	 b .L45
 1423              	.L47:
 1424              	 .loc 3 178 0 is_stmt 0 discriminator 3
 1425 00d2 FB6D     	 ldr r3,[r7,#92]
 1426 00d4 0133     	 adds r3,r3,#1
 1427 00d6 FB65     	 str r3,[r7,#92]
 1428              	.L45:
 1429              	 .loc 3 178 0 discriminator 1
 1430 00d8 FA6D     	 ldr r2,[r7,#92]
 1431 00da BB6C     	 ldr r3,[r7,#72]
 1432 00dc 9A42     	 cmp r2,r3
 1433 00de 0ADA     	 bge .L46
 1434              	 .loc 3 178 0 discriminator 2
 1435 00e0 FB6D     	 ldr r3,[r7,#92]
 1436 00e2 9B00     	 lsls r3,r3,#2
 1437 00e4 07F16002 	 add r2,r7,#96
 1438 00e8 1344     	 add r3,r3,r2
 1439 00ea 53F83C2C 	 ldr r2,[r3,#-60]
 1440 00ee B7F84630 	 ldrh r3,[r7,#70]
 1441 00f2 9A42     	 cmp r2,r3
 1442 00f4 EDD9     	 bls .L47
 1443              	.L46:
 179:../IO_Port.c  **** 			if(i==0){
 1444              	 .loc 3 179 0 is_stmt 1
 1445 00f6 FB6D     	 ldr r3,[r7,#92]
 1446 00f8 002B     	 cmp r3,#0
 1447 00fa 12D1     	 bne .L48
 180:../IO_Port.c  **** 				x0 = LUT_NTC_V[0];
 1448              	 .loc 3 180 0
 1449 00fc 7B6A     	 ldr r3,[r7,#36]
 1450 00fe 07EE903A 	 fmsr s15,r3
 1451 0102 F8EE677A 	 fuitos s15,s15
 1452 0106 C7ED167A 	 fsts s15,[r7,#88]
 181:../IO_Port.c  **** 				y0 = LUT_NTC[0];
 1453              	 .loc 3 181 0
 1454 010a FB68     	 ldr r3,[r7,#12]
 1455 010c 7B65     	 str r3,[r7,#84]
 182:../IO_Port.c  **** 				x1 = LUT_NTC_V[1];
 1456              	 .loc 3 182 0
 1457 010e BB6A     	 ldr r3,[r7,#40]
 1458 0110 07EE903A 	 fmsr s15,r3
 1459 0114 F8EE677A 	 fuitos s15,s15
 1460 0118 C7ED147A 	 fsts s15,[r7,#80]
 183:../IO_Port.c  **** 				y1 = LUT_NTC[1];
 1461              	 .loc 3 183 0
 1462 011c 3B69     	 ldr r3,[r7,#16]
 1463 011e FB64     	 str r3,[r7,#76]
 1464 0120 5EE0     	 b .L49
 1465              	.L48:
 184:../IO_Port.c  **** 			}
 185:../IO_Port.c  **** 			else if(i==NTC_LUT_NB_POINT){
 1466              	 .loc 3 185 0
 1467 0122 FA6D     	 ldr r2,[r7,#92]
 1468 0124 BB6C     	 ldr r3,[r7,#72]
 1469 0126 9A42     	 cmp r2,r3
 1470 0128 2ED1     	 bne .L50
 186:../IO_Port.c  **** 				x0 = LUT_NTC_V[NTC_LUT_NB_POINT-2];
 1471              	 .loc 3 186 0
 1472 012a BB6C     	 ldr r3,[r7,#72]
 1473 012c 023B     	 subs r3,r3,#2
 1474 012e 9B00     	 lsls r3,r3,#2
 1475 0130 07F16002 	 add r2,r7,#96
 1476 0134 1344     	 add r3,r3,r2
 1477 0136 53F83C3C 	 ldr r3,[r3,#-60]
 1478 013a 07EE903A 	 fmsr s15,r3
 1479 013e F8EE677A 	 fuitos s15,s15
 1480 0142 C7ED167A 	 fsts s15,[r7,#88]
 187:../IO_Port.c  **** 				y0 = LUT_NTC[NTC_LUT_NB_POINT-2];
 1481              	 .loc 3 187 0
 1482 0146 BB6C     	 ldr r3,[r7,#72]
 1483 0148 023B     	 subs r3,r3,#2
 1484 014a 9B00     	 lsls r3,r3,#2
 1485 014c 07F16002 	 add r2,r7,#96
 1486 0150 1344     	 add r3,r3,r2
 1487 0152 543B     	 subs r3,r3,#84
 1488 0154 1B68     	 ldr r3,[r3]
 1489 0156 7B65     	 str r3,[r7,#84]
 188:../IO_Port.c  **** 				x1 = LUT_NTC_V[NTC_LUT_NB_POINT-1];
 1490              	 .loc 3 188 0
 1491 0158 BB6C     	 ldr r3,[r7,#72]
 1492 015a 013B     	 subs r3,r3,#1
 1493 015c 9B00     	 lsls r3,r3,#2
 1494 015e 07F16002 	 add r2,r7,#96
 1495 0162 1344     	 add r3,r3,r2
 1496 0164 53F83C3C 	 ldr r3,[r3,#-60]
 1497 0168 07EE903A 	 fmsr s15,r3
 1498 016c F8EE677A 	 fuitos s15,s15
 1499 0170 C7ED147A 	 fsts s15,[r7,#80]
 189:../IO_Port.c  **** 				y1 = LUT_NTC[NTC_LUT_NB_POINT-1];
 1500              	 .loc 3 189 0
 1501 0174 BB6C     	 ldr r3,[r7,#72]
 1502 0176 013B     	 subs r3,r3,#1
 1503 0178 9B00     	 lsls r3,r3,#2
 1504 017a 07F16002 	 add r2,r7,#96
 1505 017e 1344     	 add r3,r3,r2
 1506 0180 543B     	 subs r3,r3,#84
 1507 0182 1B68     	 ldr r3,[r3]
 1508 0184 FB64     	 str r3,[r7,#76]
 1509 0186 2BE0     	 b .L49
 1510              	.L50:
 190:../IO_Port.c  **** 			}
 191:../IO_Port.c  **** 			else{
 192:../IO_Port.c  **** 				x0 = LUT_NTC_V[i-1];
 1511              	 .loc 3 192 0
 1512 0188 FB6D     	 ldr r3,[r7,#92]
 1513 018a 013B     	 subs r3,r3,#1
 1514 018c 9B00     	 lsls r3,r3,#2
 1515 018e 07F16002 	 add r2,r7,#96
 1516 0192 1344     	 add r3,r3,r2
 1517 0194 53F83C3C 	 ldr r3,[r3,#-60]
 1518 0198 07EE903A 	 fmsr s15,r3
 1519 019c F8EE677A 	 fuitos s15,s15
 1520 01a0 C7ED167A 	 fsts s15,[r7,#88]
 193:../IO_Port.c  **** 				y0 = LUT_NTC[i-1];
 1521              	 .loc 3 193 0
 1522 01a4 FB6D     	 ldr r3,[r7,#92]
 1523 01a6 013B     	 subs r3,r3,#1
 1524 01a8 9B00     	 lsls r3,r3,#2
 1525 01aa 07F16002 	 add r2,r7,#96
 1526 01ae 1344     	 add r3,r3,r2
 1527 01b0 543B     	 subs r3,r3,#84
 1528 01b2 1B68     	 ldr r3,[r3]
 1529 01b4 7B65     	 str r3,[r7,#84]
 194:../IO_Port.c  **** 				x1 = LUT_NTC_V[i];
 1530              	 .loc 3 194 0
 1531 01b6 FB6D     	 ldr r3,[r7,#92]
 1532 01b8 9B00     	 lsls r3,r3,#2
 1533 01ba 07F16002 	 add r2,r7,#96
 1534 01be 1344     	 add r3,r3,r2
 1535 01c0 53F83C3C 	 ldr r3,[r3,#-60]
 1536 01c4 07EE903A 	 fmsr s15,r3
 1537 01c8 F8EE677A 	 fuitos s15,s15
 1538 01cc C7ED147A 	 fsts s15,[r7,#80]
 195:../IO_Port.c  **** 				y1 = LUT_NTC[i];
 1539              	 .loc 3 195 0
 1540 01d0 FB6D     	 ldr r3,[r7,#92]
 1541 01d2 9B00     	 lsls r3,r3,#2
 1542 01d4 07F16002 	 add r2,r7,#96
 1543 01d8 1344     	 add r3,r3,r2
 1544 01da 543B     	 subs r3,r3,#84
 1545 01dc 1B68     	 ldr r3,[r3]
 1546 01de FB64     	 str r3,[r7,#76]
 1547              	.L49:
 196:../IO_Port.c  **** 			}
 197:../IO_Port.c  **** 
 198:../IO_Port.c  **** 			a = (y1-y0)/(x1-x0);
 1548              	 .loc 3 198 0
 1549 01e0 97ED137A 	 flds s14,[r7,#76]
 1550 01e4 D7ED157A 	 flds s15,[r7,#84]
 1551 01e8 37EE677A 	 fsubs s14,s14,s15
 1552 01ec D7ED146A 	 flds s13,[r7,#80]
 1553 01f0 D7ED167A 	 flds s15,[r7,#88]
 1554 01f4 76EEE77A 	 fsubs s15,s13,s15
 1555 01f8 C7EE277A 	 fdivs s15,s14,s15
 1556 01fc C7ED107A 	 fsts s15,[r7,#64]
 199:../IO_Port.c  **** 			b = y0 - a*x0;
 1557              	 .loc 3 199 0
 1558 0200 97ED107A 	 flds s14,[r7,#64]
 1559 0204 D7ED167A 	 flds s15,[r7,#88]
 1560 0208 67EE277A 	 fmuls s15,s14,s15
 1561 020c 97ED157A 	 flds s14,[r7,#84]
 1562 0210 77EE677A 	 fsubs s15,s14,s15
 1563 0214 C7ED0F7A 	 fsts s15,[r7,#60]
 200:../IO_Port.c  **** 			return a*(Temp_Val) + b;
 1564              	 .loc 3 200 0
 1565 0218 B7F84630 	 ldrh r3,[r7,#70]
 1566 021c 07EE903A 	 fmsr s15,r3
 1567 0220 B8EEE77A 	 fsitos s14,s15
 1568 0224 D7ED107A 	 flds s15,[r7,#64]
 1569 0228 27EE277A 	 fmuls s14,s14,s15
 1570 022c D7ED0F7A 	 flds s15,[r7,#60]
 1571 0230 77EE277A 	 fadds s15,s14,s15
 1572 0234 17EE900A 	 fmrs r0,s15
 1573 0238 FFF7FEFF 	 bl __aeabi_f2d
 1574 023c 0246     	 mov r2,r0
 1575 023e 0B46     	 mov r3,r1
 201:../IO_Port.c  **** 
 202:../IO_Port.c  **** }
 1576              	 .loc 3 202 0
 1577 0240 1046     	 mov r0,r2
 1578 0242 1946     	 mov r1,r3
 1579 0244 6037     	 adds r7,r7,#96
 1580              	.LCFI38:
 1581              	 .cfi_def_cfa_offset 8
 1582 0246 BD46     	 mov sp,r7
 1583              	.LCFI39:
 1584              	 .cfi_def_cfa_register 13
 1585              	 
 1586 0248 80BD     	 pop {r7,pc}
 1587              	.L53:
 1588 024a 00BFAFF3 	 .align 3
 1588      0080
 1589              	.L52:
 1590 0250 00000000 	 .word 0
 1591 0254 0088B340 	 .word 1085507584
 1592 0258 00000000 	 .word 0
 1593 025c 00FEAF40 	 .word 1085275648
 1594 0260 0000FA42 	 .word 1123680256
 1595 0264 0000C842 	 .word 1120403456
 1596 0268 00009642 	 .word 1117126656
 1597 026c 00004842 	 .word 1112014848
 1598 0270 0000C841 	 .word 1103626240
 1599              	 .cfi_endproc
 1600              	.LFE423:
 1602 0274 AFF30080 	 .text
 1603              	.Letext0:
 1604              	 .file 4 "c:\\dave\\dave-ide-4.4.2-64bit\\eclipse\\arm-gcc-49\\arm-none-eabi\\include\\machine\\_default_types.h"
 1605              	 .file 5 "c:\\dave\\dave-ide-4.4.2-64bit\\eclipse\\arm-gcc-49\\arm-none-eabi\\include\\stdint.h"
 1606              	 .file 6 "C:/Users/Yoshi/Documents/GitHub/Software/01_jrg/03_VCUJR20/2021_04_29_VCU_jr20_Source/Libraries/CMSIS/Infineon/XMC4500_series/Include/XMC4500.h"
 1607              	 .file 7 "C:/Users/Yoshi/Documents/GitHub/Software/01_jrg/03_VCUJR20/2021_04_29_VCU_jr20_Source/Libraries/XMCLib/inc/xmc4_scu.h"
 1608              	 .file 8 "../Simulink/rtwtypes.h"
 1609              	 .file 9 "../Simulink/VCU.h"
 1610              	 .file 10 "C:/Users/Yoshi/Documents/GitHub/Software/01_jrg/03_VCUJR20/2021_04_29_VCU_jr20_Source/Libraries/XMCLib/inc/xmc4_gpio.h"
 1611              	 .file 11 "C:/Users/Yoshi/Documents/GitHub/Software/01_jrg/03_VCUJR20/2021_04_29_VCU_jr20_Source/Dave/Generated/BUS_IO/bus_io.h"
 1612              	 .file 12 "C:/Users/Yoshi/Documents/GitHub/Software/01_jrg/03_VCUJR20/2021_04_29_VCU_jr20_Source/Libraries/XMCLib/inc/xmc_ccu4.h"
 1613              	 .file 13 "C:/Users/Yoshi/Documents/GitHub/Software/01_jrg/03_VCUJR20/2021_04_29_VCU_jr20_Source/Dave/Generated/GLOBAL_CCU4/global_ccu4.h"
 1614              	 .file 14 "C:/Users/Yoshi/Documents/GitHub/Software/01_jrg/03_VCUJR20/2021_04_29_VCU_jr20_Source/Dave/Generated/PWM/pwm.h"
 1615              	 .file 15 "C:/Users/Yoshi/Documents/GitHub/Software/01_jrg/03_VCUJR20/2021_04_29_VCU_jr20_Source/Libraries/XMCLib/inc/xmc_vadc.h"
 1616              	 .file 16 "C:/Users/Yoshi/Documents/GitHub/Software/01_jrg/03_VCUJR20/2021_04_29_VCU_jr20_Source/Dave/Generated/ANALOG_IO/analog_io.h"
 1617              	 .file 17 "C:/Users/Yoshi/Documents/GitHub/Software/01_jrg/03_VCUJR20/2021_04_29_VCU_jr20_Source/Dave/Generated/ADC_MEASUREMENT/adc_measurement.h"
 1618              	 .file 18 "../Header.h"
 1619              	 .file 19 "C:/Users/Yoshi/Documents/GitHub/Software/01_jrg/03_VCUJR20/2021_04_29_VCU_jr20_Source/Libraries/CMSIS/Include/cmsis_gcc.h"
 1620              	 .file 20 "C:/Users/Yoshi/Documents/GitHub/Software/01_jrg/03_VCUJR20/2021_04_29_VCU_jr20_Source/Libraries/CMSIS/Include/core_cm4.h"
 1621              	 .file 21 "C:/Users/Yoshi/Documents/GitHub/Software/01_jrg/03_VCUJR20/2021_04_29_VCU_jr20_Source/Libraries/CMSIS/Infineon/XMC4500_series/Include/system_XMC4500.h"
 1622              	 .file 22 "C:/Users/Yoshi/Documents/GitHub/Software/01_jrg/03_VCUJR20/2021_04_29_VCU_jr20_Source/Dave/Generated/BUS_IO/bus_io_extern.h"
 1623              	 .file 23 "C:/Users/Yoshi/Documents/GitHub/Software/01_jrg/03_VCUJR20/2021_04_29_VCU_jr20_Source/Dave/Generated/DIGITAL_IO/digital_io_extern.h"
 1624              	 .file 24 "C:/Users/Yoshi/Documents/GitHub/Software/01_jrg/03_VCUJR20/2021_04_29_VCU_jr20_Source/Dave/Generated/PWM/PWM_Extern.h"
 1625              	 .file 25 "C:/Users/Yoshi/Documents/GitHub/Software/01_jrg/03_VCUJR20/2021_04_29_VCU_jr20_Source/Dave/Generated/ADC_MEASUREMENT/ADC_MEASUREMENT_Extern.h"