   1              	 .syntax unified
   2              	 .cpu cortex-m4
   3              	 .eabi_attribute 27,3
   4              	 .fpu fpv4-sp-d16
   5              	 .eabi_attribute 20,1
   6              	 .eabi_attribute 21,1
   7              	 .eabi_attribute 23,3
   8              	 .eabi_attribute 24,1
   9              	 .eabi_attribute 25,1
  10              	 .eabi_attribute 26,1
  11              	 .eabi_attribute 30,6
  12              	 .eabi_attribute 34,1
  13              	 .eabi_attribute 18,4
  14              	 .thumb
  15              	 .file "freertos.c"
  16              	 .text
  17              	.Ltext0:
  18              	 .cfi_sections .debug_frame
  19              	 .section .text.FREERTOS_GetAppVersion,"ax",%progbits
  20              	 .align 2
  21              	 .global FREERTOS_GetAppVersion
  22              	 .thumb
  23              	 .thumb_func
  25              	FREERTOS_GetAppVersion:
  26              	.LFB142:
  27              	 .file 1 "../Dave/Generated/FREERTOS/freertos.c"
   1:../Dave/Generated/FREERTOS/freertos.c **** 
   2:../Dave/Generated/FREERTOS/freertos.c **** /**
   3:../Dave/Generated/FREERTOS/freertos.c ****  * @file freertos.c
   4:../Dave/Generated/FREERTOS/freertos.c ****  * @date 2018-11-21
   5:../Dave/Generated/FREERTOS/freertos.c ****  *
   6:../Dave/Generated/FREERTOS/freertos.c ****  * NOTE:
   7:../Dave/Generated/FREERTOS/freertos.c ****  * This file is generated by DAVE. Any manual modification done to this file will be lost when the 
   8:../Dave/Generated/FREERTOS/freertos.c ****  *
   9:../Dave/Generated/FREERTOS/freertos.c ****  * @cond
  10:../Dave/Generated/FREERTOS/freertos.c ****  **************************************************************************************************
  11:../Dave/Generated/FREERTOS/freertos.c ****  * FREERTOS v4.1.8 - FREERTOS software library for DAVE
  12:../Dave/Generated/FREERTOS/freertos.c ****  *
  13:../Dave/Generated/FREERTOS/freertos.c ****  * Copyright (c) 2015-2018, Infineon Technologies AG
  14:../Dave/Generated/FREERTOS/freertos.c ****  * All rights reserved.
  15:../Dave/Generated/FREERTOS/freertos.c ****  *
  16:../Dave/Generated/FREERTOS/freertos.c ****  * Redistribution and use in source and binary forms, with or without modification,are permitted pr
  17:../Dave/Generated/FREERTOS/freertos.c ****  * following conditions are met:
  18:../Dave/Generated/FREERTOS/freertos.c ****  *
  19:../Dave/Generated/FREERTOS/freertos.c ****  *   Redistributions of source code must retain the above copyright notice, this list of conditions
  20:../Dave/Generated/FREERTOS/freertos.c ****  *   disclaimer.
  21:../Dave/Generated/FREERTOS/freertos.c ****  *
  22:../Dave/Generated/FREERTOS/freertos.c ****  *   Redistributions in binary form must reproduce the above copyright notice, this list of conditi
  23:../Dave/Generated/FREERTOS/freertos.c ****  *   following disclaimer in the documentation and/or other materials provided with the distributio
  24:../Dave/Generated/FREERTOS/freertos.c ****  *
  25:../Dave/Generated/FREERTOS/freertos.c ****  *   Neither the name of the copyright holders nor the names of its contributors may be used to end
  26:../Dave/Generated/FREERTOS/freertos.c ****  *   products derived from this software without specific prior written permission.
  27:../Dave/Generated/FREERTOS/freertos.c ****  *
  28:../Dave/Generated/FREERTOS/freertos.c ****  * THIS SOFTWARE IS PROVIDED BY THE COPYRIGHT HOLDERS AND CONTRIBUTORS "AS IS" AND ANY EXPRESS OR I
  29:../Dave/Generated/FREERTOS/freertos.c ****  * INCLUDING, BUT NOT LIMITED TO, THE IMPLIED WARRANTIES OF MERCHANTABILITY AND FITNESS FOR A PARTI
  30:../Dave/Generated/FREERTOS/freertos.c ****  * DISCLAIMED. IN NO EVENT SHALL THE COPYRIGHT HOLDER OR CONTRIBUTORS BE LIABLE  FOR ANY DIRECT, IN
  31:../Dave/Generated/FREERTOS/freertos.c ****  * SPECIAL, EXEMPLARY, OR CONSEQUENTIAL DAMAGES (INCLUDING, BUT NOT LIMITED TO, PROCUREMENT OF SUBS
  32:../Dave/Generated/FREERTOS/freertos.c ****  * SERVICES; LOSS OF USE, DATA, OR PROFITS; OR BUSINESS INTERRUPTION) HOWEVER CAUSED AND ON ANY THE
  33:../Dave/Generated/FREERTOS/freertos.c ****  * WHETHER IN CONTRACT, STRICT LIABILITY,OR TORT (INCLUDING NEGLIGENCE OR OTHERWISE) ARISING IN ANY
  34:../Dave/Generated/FREERTOS/freertos.c ****  * USE OF THIS SOFTWARE, EVEN IF ADVISED OF THE POSSIBILITY OF SUCH DAMAGE.
  35:../Dave/Generated/FREERTOS/freertos.c ****  *
  36:../Dave/Generated/FREERTOS/freertos.c ****  * To improve the quality of the software, users are encouraged to share modifications, enhancement
  37:../Dave/Generated/FREERTOS/freertos.c ****  * with Infineon Technologies AG (dave@infineon.com).
  38:../Dave/Generated/FREERTOS/freertos.c ****  **************************************************************************************************
  39:../Dave/Generated/FREERTOS/freertos.c ****  *
  40:../Dave/Generated/FREERTOS/freertos.c ****  * Change History
  41:../Dave/Generated/FREERTOS/freertos.c ****  * --------------
  42:../Dave/Generated/FREERTOS/freertos.c ****  *
  43:../Dave/Generated/FREERTOS/freertos.c ****  * 2015-06-25:
  44:../Dave/Generated/FREERTOS/freertos.c ****  *     - Initial version <br>
  45:../Dave/Generated/FREERTOS/freertos.c ****  *
  46:../Dave/Generated/FREERTOS/freertos.c ****  * 2017-03-28:
  47:../Dave/Generated/FREERTOS/freertos.c ****  *     - Fix undefined _WEAK symbol 
  48:../Dave/Generated/FREERTOS/freertos.c ****  *
  49:../Dave/Generated/FREERTOS/freertos.c ****  * 2018-11-21:
  50:../Dave/Generated/FREERTOS/freertos.c ****  *     - Fix vApplicationGetTimerTaskMemory() return value
  51:../Dave/Generated/FREERTOS/freertos.c ****  *
  52:../Dave/Generated/FREERTOS/freertos.c ****  * @endcond
  53:../Dave/Generated/FREERTOS/freertos.c ****  */
  54:../Dave/Generated/FREERTOS/freertos.c **** 
  55:../Dave/Generated/FREERTOS/freertos.c **** /**************************************************************************************************
  56:../Dave/Generated/FREERTOS/freertos.c ****  * HEADER FILES
  57:../Dave/Generated/FREERTOS/freertos.c ****  **************************************************************************************************
  58:../Dave/Generated/FREERTOS/freertos.c **** 
  59:../Dave/Generated/FREERTOS/freertos.c **** #include "freertos.h"
  60:../Dave/Generated/FREERTOS/freertos.c **** #include "xmc_common.h"
  61:../Dave/Generated/FREERTOS/freertos.c **** 
  62:../Dave/Generated/FREERTOS/freertos.c **** /**************************************************************************************************
  63:../Dave/Generated/FREERTOS/freertos.c ****  * MACROS
  64:../Dave/Generated/FREERTOS/freertos.c ****  **************************************************************************************************
  65:../Dave/Generated/FREERTOS/freertos.c **** 
  66:../Dave/Generated/FREERTOS/freertos.c **** /**************************************************************************************************
  67:../Dave/Generated/FREERTOS/freertos.c ****  * LOCAL DATA
  68:../Dave/Generated/FREERTOS/freertos.c ****  **************************************************************************************************
  69:../Dave/Generated/FREERTOS/freertos.c **** 
  70:../Dave/Generated/FREERTOS/freertos.c **** /**************************************************************************************************
  71:../Dave/Generated/FREERTOS/freertos.c ****  * LOCAL ROUTINES
  72:../Dave/Generated/FREERTOS/freertos.c ****  **************************************************************************************************
  73:../Dave/Generated/FREERTOS/freertos.c **** 
  74:../Dave/Generated/FREERTOS/freertos.c **** /**************************************************************************************************
  75:../Dave/Generated/FREERTOS/freertos.c ****  * API IMPLEMENTATION
  76:../Dave/Generated/FREERTOS/freertos.c ****  **************************************************************************************************
  77:../Dave/Generated/FREERTOS/freertos.c **** 
  78:../Dave/Generated/FREERTOS/freertos.c **** /**
  79:../Dave/Generated/FREERTOS/freertos.c **** * @brief Get FREERTOS APP version
  80:../Dave/Generated/FREERTOS/freertos.c **** * @return DAVE_APP_VERSION_t APP version information (major, minor and patch number)
  81:../Dave/Generated/FREERTOS/freertos.c **** */
  82:../Dave/Generated/FREERTOS/freertos.c **** DAVE_APP_VERSION_t FREERTOS_GetAppVersion(void)
  83:../Dave/Generated/FREERTOS/freertos.c **** {
  28              	 .loc 1 83 0
  29              	 .cfi_startproc
  30              	 
  31              	 
  32              	 
  33 0000 80B4     	 push {r7}
  34              	.LCFI0:
  35              	 .cfi_def_cfa_offset 4
  36              	 .cfi_offset 7,-4
  37 0002 83B0     	 sub sp,sp,#12
  38              	.LCFI1:
  39              	 .cfi_def_cfa_offset 16
  40 0004 00AF     	 add r7,sp,#0
  41              	.LCFI2:
  42              	 .cfi_def_cfa_register 7
  84:../Dave/Generated/FREERTOS/freertos.c ****   DAVE_APP_VERSION_t version;
  85:../Dave/Generated/FREERTOS/freertos.c **** 
  86:../Dave/Generated/FREERTOS/freertos.c ****   version.major = (uint8_t)FREERTOS_MAJOR_VERSION;
  43              	 .loc 1 86 0
  44 0006 0423     	 movs r3,#4
  45 0008 3B70     	 strb r3,[r7]
  87:../Dave/Generated/FREERTOS/freertos.c ****   version.minor = (uint8_t)FREERTOS_MINOR_VERSION;
  46              	 .loc 1 87 0
  47 000a 0123     	 movs r3,#1
  48 000c 7B70     	 strb r3,[r7,#1]
  88:../Dave/Generated/FREERTOS/freertos.c ****   version.patch = (uint8_t)FREERTOS_PATCH_VERSION;
  49              	 .loc 1 88 0
  50 000e 0823     	 movs r3,#8
  51 0010 BB70     	 strb r3,[r7,#2]
  89:../Dave/Generated/FREERTOS/freertos.c **** 
  90:../Dave/Generated/FREERTOS/freertos.c ****   return version;
  52              	 .loc 1 90 0
  53 0012 3B1D     	 adds r3,r7,#4
  54 0014 3A46     	 mov r2,r7
  55 0016 1268     	 ldr r2,[r2]
  56 0018 1146     	 mov r1,r2
  57 001a 1980     	 strh r1,[r3]
  58 001c 0233     	 adds r3,r3,#2
  59 001e 120C     	 lsrs r2,r2,#16
  60 0020 1A70     	 strb r2,[r3]
  61 0022 0023     	 movs r3,#0
  62 0024 3A79     	 ldrb r2,[r7,#4]
  63 0026 62F30703 	 bfi r3,r2,#0,#8
  64 002a 7A79     	 ldrb r2,[r7,#5]
  65 002c 62F30F23 	 bfi r3,r2,#8,#8
  66 0030 BA79     	 ldrb r2,[r7,#6]
  67 0032 62F31743 	 bfi r3,r2,#16,#8
  91:../Dave/Generated/FREERTOS/freertos.c **** }
  68              	 .loc 1 91 0
  69 0036 1846     	 mov r0,r3
  70 0038 0C37     	 adds r7,r7,#12
  71              	.LCFI3:
  72              	 .cfi_def_cfa_offset 4
  73 003a BD46     	 mov sp,r7
  74              	.LCFI4:
  75              	 .cfi_def_cfa_register 13
  76              	 
  77 003c 5DF8047B 	 ldr r7,[sp],#4
  78              	.LCFI5:
  79              	 .cfi_restore 7
  80              	 .cfi_def_cfa_offset 0
  81 0040 7047     	 bx lr
  82              	 .cfi_endproc
  83              	.LFE142:
  85 0042 00BF     	 .text
  86              	.Letext0:
  87              	 .file 2 "c:\\dave\\dave-ide-4.4.2-64bit\\eclipse\\arm-gcc-49\\arm-none-eabi\\include\\machine\\_default_types.h"
  88              	 .file 3 "c:\\dave\\dave-ide-4.4.2-64bit\\eclipse\\arm-gcc-49\\arm-none-eabi\\include\\stdint.h"
  89              	 .file 4 "C:/Users/Yoshi/Documents/GitHub/Software/01_jrg/03_VCUJR20/2021_06_17_VCU_jr20_Source/2021_06_17_VCU_jr20_Source/Dave/Generated/DAVE_common.h"
  90              	 .file 5 "C:/Users/Yoshi/Documents/GitHub/Software/01_jrg/03_VCUJR20/2021_06_17_VCU_jr20_Source/2021_06_17_VCU_jr20_Source/Libraries/CMSIS/Include/cmsis_gcc.h"
  91              	 .file 6 "C:/Users/Yoshi/Documents/GitHub/Software/01_jrg/03_VCUJR20/2021_06_17_VCU_jr20_Source/2021_06_17_VCU_jr20_Source/Libraries/CMSIS/Include/core_cm4.h"