   1              	 .syntax unified
   2              	 .cpu cortex-m4
   3              	 .eabi_attribute 27,3
   4              	 .fpu fpv4-sp-d16
   5              	 .eabi_attribute 20,1
   6              	 .eabi_attribute 21,1
   7              	 .eabi_attribute 23,3
   8              	 .eabi_attribute 24,1
   9              	 .eabi_attribute 25,1
  10              	 .eabi_attribute 26,1
  11              	 .eabi_attribute 30,6
  12              	 .eabi_attribute 34,1
  13              	 .eabi_attribute 18,4
  14              	 .thumb
  15              	 .file "Error_Handling.c"
  16              	 .text
  17              	.Ltext0:
  18              	 .cfi_sections .debug_frame
  19              	 .section .text.XMC_GPIO_SetOutputLow,"ax",%progbits
  20              	 .align 2
  21              	 .thumb
  22              	 .thumb_func
  24              	XMC_GPIO_SetOutputLow:
  25              	.LFB178:
  26              	 .file 1 "C:/Users/Yoshi/Documents/GitHub/Software/01_jrg/03_VCUJR20/2021_06_17_VCU_jr20_Source/2021_06_17_VCU_jr20_Source/Libraries/XMCLib/inc/xmc_gpio.h"
   1:C:/Users/Yoshi/Documents/GitHub/Software/01_jrg/03_VCUJR20/2021_06_17_VCU_jr20_Source/2021_06_17_VCU_jr20_Source/Libraries/XMCLib/inc\xmc_gpio.h **** /**
   2:C:/Users/Yoshi/Documents/GitHub/Software/01_jrg/03_VCUJR20/2021_06_17_VCU_jr20_Source/2021_06_17_VCU_jr20_Source/Libraries/XMCLib/inc\xmc_gpio.h ****  * @file xmc_gpio.h
   3:C:/Users/Yoshi/Documents/GitHub/Software/01_jrg/03_VCUJR20/2021_06_17_VCU_jr20_Source/2021_06_17_VCU_jr20_Source/Libraries/XMCLib/inc\xmc_gpio.h ****  * @date 2015-06-20
   4:C:/Users/Yoshi/Documents/GitHub/Software/01_jrg/03_VCUJR20/2021_06_17_VCU_jr20_Source/2021_06_17_VCU_jr20_Source/Libraries/XMCLib/inc\xmc_gpio.h ****  *
   5:C:/Users/Yoshi/Documents/GitHub/Software/01_jrg/03_VCUJR20/2021_06_17_VCU_jr20_Source/2021_06_17_VCU_jr20_Source/Libraries/XMCLib/inc\xmc_gpio.h ****  * @cond
   6:C:/Users/Yoshi/Documents/GitHub/Software/01_jrg/03_VCUJR20/2021_06_17_VCU_jr20_Source/2021_06_17_VCU_jr20_Source/Libraries/XMCLib/inc\xmc_gpio.h ****  **************************************************************************************************
   7:C:/Users/Yoshi/Documents/GitHub/Software/01_jrg/03_VCUJR20/2021_06_17_VCU_jr20_Source/2021_06_17_VCU_jr20_Source/Libraries/XMCLib/inc\xmc_gpio.h ****  * XMClib v2.1.24 - XMC Peripheral Driver Library 
   8:C:/Users/Yoshi/Documents/GitHub/Software/01_jrg/03_VCUJR20/2021_06_17_VCU_jr20_Source/2021_06_17_VCU_jr20_Source/Libraries/XMCLib/inc\xmc_gpio.h ****  *
   9:C:/Users/Yoshi/Documents/GitHub/Software/01_jrg/03_VCUJR20/2021_06_17_VCU_jr20_Source/2021_06_17_VCU_jr20_Source/Libraries/XMCLib/inc\xmc_gpio.h ****  * Copyright (c) 2015-2019, Infineon Technologies AG
  10:C:/Users/Yoshi/Documents/GitHub/Software/01_jrg/03_VCUJR20/2021_06_17_VCU_jr20_Source/2021_06_17_VCU_jr20_Source/Libraries/XMCLib/inc\xmc_gpio.h ****  * All rights reserved.                        
  11:C:/Users/Yoshi/Documents/GitHub/Software/01_jrg/03_VCUJR20/2021_06_17_VCU_jr20_Source/2021_06_17_VCU_jr20_Source/Libraries/XMCLib/inc\xmc_gpio.h ****  *                                             
  12:C:/Users/Yoshi/Documents/GitHub/Software/01_jrg/03_VCUJR20/2021_06_17_VCU_jr20_Source/2021_06_17_VCU_jr20_Source/Libraries/XMCLib/inc\xmc_gpio.h ****  * Redistribution and use in source and binary forms, with or without modification,are permitted pr
  13:C:/Users/Yoshi/Documents/GitHub/Software/01_jrg/03_VCUJR20/2021_06_17_VCU_jr20_Source/2021_06_17_VCU_jr20_Source/Libraries/XMCLib/inc\xmc_gpio.h ****  * following conditions are met:   
  14:C:/Users/Yoshi/Documents/GitHub/Software/01_jrg/03_VCUJR20/2021_06_17_VCU_jr20_Source/2021_06_17_VCU_jr20_Source/Libraries/XMCLib/inc\xmc_gpio.h ****  *                                                                              
  15:C:/Users/Yoshi/Documents/GitHub/Software/01_jrg/03_VCUJR20/2021_06_17_VCU_jr20_Source/2021_06_17_VCU_jr20_Source/Libraries/XMCLib/inc\xmc_gpio.h ****  * Redistributions of source code must retain the above copyright notice, this list of conditions a
  16:C:/Users/Yoshi/Documents/GitHub/Software/01_jrg/03_VCUJR20/2021_06_17_VCU_jr20_Source/2021_06_17_VCU_jr20_Source/Libraries/XMCLib/inc\xmc_gpio.h ****  * disclaimer.                        
  17:C:/Users/Yoshi/Documents/GitHub/Software/01_jrg/03_VCUJR20/2021_06_17_VCU_jr20_Source/2021_06_17_VCU_jr20_Source/Libraries/XMCLib/inc\xmc_gpio.h ****  * 
  18:C:/Users/Yoshi/Documents/GitHub/Software/01_jrg/03_VCUJR20/2021_06_17_VCU_jr20_Source/2021_06_17_VCU_jr20_Source/Libraries/XMCLib/inc\xmc_gpio.h ****  * Redistributions in binary form must reproduce the above copyright notice, this list of condition
  19:C:/Users/Yoshi/Documents/GitHub/Software/01_jrg/03_VCUJR20/2021_06_17_VCU_jr20_Source/2021_06_17_VCU_jr20_Source/Libraries/XMCLib/inc\xmc_gpio.h ****  * disclaimer in the documentation and/or other materials provided with the distribution.          
  20:C:/Users/Yoshi/Documents/GitHub/Software/01_jrg/03_VCUJR20/2021_06_17_VCU_jr20_Source/2021_06_17_VCU_jr20_Source/Libraries/XMCLib/inc\xmc_gpio.h ****  * 
  21:C:/Users/Yoshi/Documents/GitHub/Software/01_jrg/03_VCUJR20/2021_06_17_VCU_jr20_Source/2021_06_17_VCU_jr20_Source/Libraries/XMCLib/inc\xmc_gpio.h ****  * Neither the name of the copyright holders nor the names of its contributors may be used to endor
  22:C:/Users/Yoshi/Documents/GitHub/Software/01_jrg/03_VCUJR20/2021_06_17_VCU_jr20_Source/2021_06_17_VCU_jr20_Source/Libraries/XMCLib/inc\xmc_gpio.h ****  * products derived from this software without specific prior written permission.                  
  23:C:/Users/Yoshi/Documents/GitHub/Software/01_jrg/03_VCUJR20/2021_06_17_VCU_jr20_Source/2021_06_17_VCU_jr20_Source/Libraries/XMCLib/inc\xmc_gpio.h ****  *                                                                              
  24:C:/Users/Yoshi/Documents/GitHub/Software/01_jrg/03_VCUJR20/2021_06_17_VCU_jr20_Source/2021_06_17_VCU_jr20_Source/Libraries/XMCLib/inc\xmc_gpio.h ****  * THIS SOFTWARE IS PROVIDED BY THE COPYRIGHT HOLDERS AND CONTRIBUTORS "AS IS" AND ANY EXPRESS OR I
  25:C:/Users/Yoshi/Documents/GitHub/Software/01_jrg/03_VCUJR20/2021_06_17_VCU_jr20_Source/2021_06_17_VCU_jr20_Source/Libraries/XMCLib/inc\xmc_gpio.h ****  * INCLUDING, BUT NOT LIMITED TO, THE IMPLIED WARRANTIES OF MERCHANTABILITY AND FITNESS FOR A PARTI
  26:C:/Users/Yoshi/Documents/GitHub/Software/01_jrg/03_VCUJR20/2021_06_17_VCU_jr20_Source/2021_06_17_VCU_jr20_Source/Libraries/XMCLib/inc\xmc_gpio.h ****  * DISCLAIMED. IN NO EVENT SHALL THE COPYRIGHT HOLDER OR CONTRIBUTORS BE LIABLE  FOR ANY DIRECT, IN
  27:C:/Users/Yoshi/Documents/GitHub/Software/01_jrg/03_VCUJR20/2021_06_17_VCU_jr20_Source/2021_06_17_VCU_jr20_Source/Libraries/XMCLib/inc\xmc_gpio.h ****  * SPECIAL, EXEMPLARY, OR CONSEQUENTIAL DAMAGES (INCLUDING, BUT NOT LIMITED TO, PROCUREMENT OF SUBS
  28:C:/Users/Yoshi/Documents/GitHub/Software/01_jrg/03_VCUJR20/2021_06_17_VCU_jr20_Source/2021_06_17_VCU_jr20_Source/Libraries/XMCLib/inc\xmc_gpio.h ****  * SERVICES; LOSS OF USE, DATA, OR PROFITS; OR BUSINESS INTERRUPTION) HOWEVER CAUSED AND ON ANY THE
  29:C:/Users/Yoshi/Documents/GitHub/Software/01_jrg/03_VCUJR20/2021_06_17_VCU_jr20_Source/2021_06_17_VCU_jr20_Source/Libraries/XMCLib/inc\xmc_gpio.h ****  * WHETHER IN CONTRACT, STRICT LIABILITY,OR TORT (INCLUDING NEGLIGENCE OR OTHERWISE) ARISING IN ANY
  30:C:/Users/Yoshi/Documents/GitHub/Software/01_jrg/03_VCUJR20/2021_06_17_VCU_jr20_Source/2021_06_17_VCU_jr20_Source/Libraries/XMCLib/inc\xmc_gpio.h ****  * OF THIS SOFTWARE, EVEN IF ADVISED OF THE POSSIBILITY OF SUCH DAMAGE.                            
  31:C:/Users/Yoshi/Documents/GitHub/Software/01_jrg/03_VCUJR20/2021_06_17_VCU_jr20_Source/2021_06_17_VCU_jr20_Source/Libraries/XMCLib/inc\xmc_gpio.h ****  *                                                                              
  32:C:/Users/Yoshi/Documents/GitHub/Software/01_jrg/03_VCUJR20/2021_06_17_VCU_jr20_Source/2021_06_17_VCU_jr20_Source/Libraries/XMCLib/inc\xmc_gpio.h ****  * To improve the quality of the software, users are encouraged to share modifications, enhancement
  33:C:/Users/Yoshi/Documents/GitHub/Software/01_jrg/03_VCUJR20/2021_06_17_VCU_jr20_Source/2021_06_17_VCU_jr20_Source/Libraries/XMCLib/inc\xmc_gpio.h ****  * Infineon Technologies AG dave@infineon.com).                                                    
  34:C:/Users/Yoshi/Documents/GitHub/Software/01_jrg/03_VCUJR20/2021_06_17_VCU_jr20_Source/2021_06_17_VCU_jr20_Source/Libraries/XMCLib/inc\xmc_gpio.h ****  **************************************************************************************************
  35:C:/Users/Yoshi/Documents/GitHub/Software/01_jrg/03_VCUJR20/2021_06_17_VCU_jr20_Source/2021_06_17_VCU_jr20_Source/Libraries/XMCLib/inc\xmc_gpio.h ****  *
  36:C:/Users/Yoshi/Documents/GitHub/Software/01_jrg/03_VCUJR20/2021_06_17_VCU_jr20_Source/2021_06_17_VCU_jr20_Source/Libraries/XMCLib/inc\xmc_gpio.h ****  * Change History
  37:C:/Users/Yoshi/Documents/GitHub/Software/01_jrg/03_VCUJR20/2021_06_17_VCU_jr20_Source/2021_06_17_VCU_jr20_Source/Libraries/XMCLib/inc\xmc_gpio.h ****  * --------------
  38:C:/Users/Yoshi/Documents/GitHub/Software/01_jrg/03_VCUJR20/2021_06_17_VCU_jr20_Source/2021_06_17_VCU_jr20_Source/Libraries/XMCLib/inc\xmc_gpio.h ****  *
  39:C:/Users/Yoshi/Documents/GitHub/Software/01_jrg/03_VCUJR20/2021_06_17_VCU_jr20_Source/2021_06_17_VCU_jr20_Source/Libraries/XMCLib/inc\xmc_gpio.h ****  * 2015-02-20:
  40:C:/Users/Yoshi/Documents/GitHub/Software/01_jrg/03_VCUJR20/2021_06_17_VCU_jr20_Source/2021_06_17_VCU_jr20_Source/Libraries/XMCLib/inc\xmc_gpio.h ****  *     - Initial draft<br>
  41:C:/Users/Yoshi/Documents/GitHub/Software/01_jrg/03_VCUJR20/2021_06_17_VCU_jr20_Source/2021_06_17_VCU_jr20_Source/Libraries/XMCLib/inc\xmc_gpio.h ****  *     - Documentation improved <br>
  42:C:/Users/Yoshi/Documents/GitHub/Software/01_jrg/03_VCUJR20/2021_06_17_VCU_jr20_Source/2021_06_17_VCU_jr20_Source/Libraries/XMCLib/inc\xmc_gpio.h ****  *      
  43:C:/Users/Yoshi/Documents/GitHub/Software/01_jrg/03_VCUJR20/2021_06_17_VCU_jr20_Source/2021_06_17_VCU_jr20_Source/Libraries/XMCLib/inc\xmc_gpio.h ****  * 2015-06-20:
  44:C:/Users/Yoshi/Documents/GitHub/Software/01_jrg/03_VCUJR20/2021_06_17_VCU_jr20_Source/2021_06_17_VCU_jr20_Source/Libraries/XMCLib/inc\xmc_gpio.h ****  *     - Removed version macros and declaration of GetDriverVersion API
  45:C:/Users/Yoshi/Documents/GitHub/Software/01_jrg/03_VCUJR20/2021_06_17_VCU_jr20_Source/2021_06_17_VCU_jr20_Source/Libraries/XMCLib/inc\xmc_gpio.h ****  *
  46:C:/Users/Yoshi/Documents/GitHub/Software/01_jrg/03_VCUJR20/2021_06_17_VCU_jr20_Source/2021_06_17_VCU_jr20_Source/Libraries/XMCLib/inc\xmc_gpio.h ****  * @endcond
  47:C:/Users/Yoshi/Documents/GitHub/Software/01_jrg/03_VCUJR20/2021_06_17_VCU_jr20_Source/2021_06_17_VCU_jr20_Source/Libraries/XMCLib/inc\xmc_gpio.h ****  *
  48:C:/Users/Yoshi/Documents/GitHub/Software/01_jrg/03_VCUJR20/2021_06_17_VCU_jr20_Source/2021_06_17_VCU_jr20_Source/Libraries/XMCLib/inc\xmc_gpio.h ****  */
  49:C:/Users/Yoshi/Documents/GitHub/Software/01_jrg/03_VCUJR20/2021_06_17_VCU_jr20_Source/2021_06_17_VCU_jr20_Source/Libraries/XMCLib/inc\xmc_gpio.h **** 
  50:C:/Users/Yoshi/Documents/GitHub/Software/01_jrg/03_VCUJR20/2021_06_17_VCU_jr20_Source/2021_06_17_VCU_jr20_Source/Libraries/XMCLib/inc\xmc_gpio.h **** #ifndef XMC_GPIO_H
  51:C:/Users/Yoshi/Documents/GitHub/Software/01_jrg/03_VCUJR20/2021_06_17_VCU_jr20_Source/2021_06_17_VCU_jr20_Source/Libraries/XMCLib/inc\xmc_gpio.h **** #define XMC_GPIO_H
  52:C:/Users/Yoshi/Documents/GitHub/Software/01_jrg/03_VCUJR20/2021_06_17_VCU_jr20_Source/2021_06_17_VCU_jr20_Source/Libraries/XMCLib/inc\xmc_gpio.h **** 
  53:C:/Users/Yoshi/Documents/GitHub/Software/01_jrg/03_VCUJR20/2021_06_17_VCU_jr20_Source/2021_06_17_VCU_jr20_Source/Libraries/XMCLib/inc\xmc_gpio.h **** /**************************************************************************************************
  54:C:/Users/Yoshi/Documents/GitHub/Software/01_jrg/03_VCUJR20/2021_06_17_VCU_jr20_Source/2021_06_17_VCU_jr20_Source/Libraries/XMCLib/inc\xmc_gpio.h ****  * HEADER FILES
  55:C:/Users/Yoshi/Documents/GitHub/Software/01_jrg/03_VCUJR20/2021_06_17_VCU_jr20_Source/2021_06_17_VCU_jr20_Source/Libraries/XMCLib/inc\xmc_gpio.h ****  **************************************************************************************************
  56:C:/Users/Yoshi/Documents/GitHub/Software/01_jrg/03_VCUJR20/2021_06_17_VCU_jr20_Source/2021_06_17_VCU_jr20_Source/Libraries/XMCLib/inc\xmc_gpio.h **** 
  57:C:/Users/Yoshi/Documents/GitHub/Software/01_jrg/03_VCUJR20/2021_06_17_VCU_jr20_Source/2021_06_17_VCU_jr20_Source/Libraries/XMCLib/inc\xmc_gpio.h **** #include "xmc_common.h"
  58:C:/Users/Yoshi/Documents/GitHub/Software/01_jrg/03_VCUJR20/2021_06_17_VCU_jr20_Source/2021_06_17_VCU_jr20_Source/Libraries/XMCLib/inc\xmc_gpio.h **** 
  59:C:/Users/Yoshi/Documents/GitHub/Software/01_jrg/03_VCUJR20/2021_06_17_VCU_jr20_Source/2021_06_17_VCU_jr20_Source/Libraries/XMCLib/inc\xmc_gpio.h **** /**
  60:C:/Users/Yoshi/Documents/GitHub/Software/01_jrg/03_VCUJR20/2021_06_17_VCU_jr20_Source/2021_06_17_VCU_jr20_Source/Libraries/XMCLib/inc\xmc_gpio.h ****  * @addtogroup XMClib XMC Peripheral Library
  61:C:/Users/Yoshi/Documents/GitHub/Software/01_jrg/03_VCUJR20/2021_06_17_VCU_jr20_Source/2021_06_17_VCU_jr20_Source/Libraries/XMCLib/inc\xmc_gpio.h ****  * @{
  62:C:/Users/Yoshi/Documents/GitHub/Software/01_jrg/03_VCUJR20/2021_06_17_VCU_jr20_Source/2021_06_17_VCU_jr20_Source/Libraries/XMCLib/inc\xmc_gpio.h ****  */
  63:C:/Users/Yoshi/Documents/GitHub/Software/01_jrg/03_VCUJR20/2021_06_17_VCU_jr20_Source/2021_06_17_VCU_jr20_Source/Libraries/XMCLib/inc\xmc_gpio.h **** 
  64:C:/Users/Yoshi/Documents/GitHub/Software/01_jrg/03_VCUJR20/2021_06_17_VCU_jr20_Source/2021_06_17_VCU_jr20_Source/Libraries/XMCLib/inc\xmc_gpio.h **** /**
  65:C:/Users/Yoshi/Documents/GitHub/Software/01_jrg/03_VCUJR20/2021_06_17_VCU_jr20_Source/2021_06_17_VCU_jr20_Source/Libraries/XMCLib/inc\xmc_gpio.h ****  * @addtogroup GPIO
  66:C:/Users/Yoshi/Documents/GitHub/Software/01_jrg/03_VCUJR20/2021_06_17_VCU_jr20_Source/2021_06_17_VCU_jr20_Source/Libraries/XMCLib/inc\xmc_gpio.h ****  * @brief General Purpose Input Output (GPIO) driver for the XMC microcontroller family.
  67:C:/Users/Yoshi/Documents/GitHub/Software/01_jrg/03_VCUJR20/2021_06_17_VCU_jr20_Source/2021_06_17_VCU_jr20_Source/Libraries/XMCLib/inc\xmc_gpio.h ****  *
  68:C:/Users/Yoshi/Documents/GitHub/Software/01_jrg/03_VCUJR20/2021_06_17_VCU_jr20_Source/2021_06_17_VCU_jr20_Source/Libraries/XMCLib/inc\xmc_gpio.h ****  * GPIO driver provide a generic and very flexible software interface for all standard digital I/O 
  69:C:/Users/Yoshi/Documents/GitHub/Software/01_jrg/03_VCUJR20/2021_06_17_VCU_jr20_Source/2021_06_17_VCU_jr20_Source/Libraries/XMCLib/inc\xmc_gpio.h ****  * Each port slice has individual interfaces for the operation as General Purpose I/O and it furthe
  70:C:/Users/Yoshi/Documents/GitHub/Software/01_jrg/03_VCUJR20/2021_06_17_VCU_jr20_Source/2021_06_17_VCU_jr20_Source/Libraries/XMCLib/inc\xmc_gpio.h ****  * connectivity to the on-chip periphery and the control for the pad characteristics. 
  71:C:/Users/Yoshi/Documents/GitHub/Software/01_jrg/03_VCUJR20/2021_06_17_VCU_jr20_Source/2021_06_17_VCU_jr20_Source/Libraries/XMCLib/inc\xmc_gpio.h ****  *
  72:C:/Users/Yoshi/Documents/GitHub/Software/01_jrg/03_VCUJR20/2021_06_17_VCU_jr20_Source/2021_06_17_VCU_jr20_Source/Libraries/XMCLib/inc\xmc_gpio.h ****  * The driver is divided into Input and Output mode.
  73:C:/Users/Yoshi/Documents/GitHub/Software/01_jrg/03_VCUJR20/2021_06_17_VCU_jr20_Source/2021_06_17_VCU_jr20_Source/Libraries/XMCLib/inc\xmc_gpio.h ****  *
  74:C:/Users/Yoshi/Documents/GitHub/Software/01_jrg/03_VCUJR20/2021_06_17_VCU_jr20_Source/2021_06_17_VCU_jr20_Source/Libraries/XMCLib/inc\xmc_gpio.h ****  * Input mode features:
  75:C:/Users/Yoshi/Documents/GitHub/Software/01_jrg/03_VCUJR20/2021_06_17_VCU_jr20_Source/2021_06_17_VCU_jr20_Source/Libraries/XMCLib/inc\xmc_gpio.h ****  * -# Configuration structure XMC_GPIO_CONFIG_t and initialization function XMC_GPIO_Init()
  76:C:/Users/Yoshi/Documents/GitHub/Software/01_jrg/03_VCUJR20/2021_06_17_VCU_jr20_Source/2021_06_17_VCU_jr20_Source/Libraries/XMCLib/inc\xmc_gpio.h ****  * -# Allows the selection of weak pull-up or pull-down device. Configuration structure XMC_GPIO_MO
  77:C:/Users/Yoshi/Documents/GitHub/Software/01_jrg/03_VCUJR20/2021_06_17_VCU_jr20_Source/2021_06_17_VCU_jr20_Source/Libraries/XMCLib/inc\xmc_gpio.h ****  * \if XMC1
  78:C:/Users/Yoshi/Documents/GitHub/Software/01_jrg/03_VCUJR20/2021_06_17_VCU_jr20_Source/2021_06_17_VCU_jr20_Source/Libraries/XMCLib/inc\xmc_gpio.h ****  * -# Allows the selection of input hysteresis. XMC_GPIO_SetInputHysteresis()
  79:C:/Users/Yoshi/Documents/GitHub/Software/01_jrg/03_VCUJR20/2021_06_17_VCU_jr20_Source/2021_06_17_VCU_jr20_Source/Libraries/XMCLib/inc\xmc_gpio.h ****  * \endif
  80:C:/Users/Yoshi/Documents/GitHub/Software/01_jrg/03_VCUJR20/2021_06_17_VCU_jr20_Source/2021_06_17_VCU_jr20_Source/Libraries/XMCLib/inc\xmc_gpio.h ****  *
  81:C:/Users/Yoshi/Documents/GitHub/Software/01_jrg/03_VCUJR20/2021_06_17_VCU_jr20_Source/2021_06_17_VCU_jr20_Source/Libraries/XMCLib/inc\xmc_gpio.h ****  * 
  82:C:/Users/Yoshi/Documents/GitHub/Software/01_jrg/03_VCUJR20/2021_06_17_VCU_jr20_Source/2021_06_17_VCU_jr20_Source/Libraries/XMCLib/inc\xmc_gpio.h ****  * Output mode features:
  83:C:/Users/Yoshi/Documents/GitHub/Software/01_jrg/03_VCUJR20/2021_06_17_VCU_jr20_Source/2021_06_17_VCU_jr20_Source/Libraries/XMCLib/inc\xmc_gpio.h ****  * -# Allows the selection of push pull/open drain and Alternate output. Configuration structure XM
  84:C:/Users/Yoshi/Documents/GitHub/Software/01_jrg/03_VCUJR20/2021_06_17_VCU_jr20_Source/2021_06_17_VCU_jr20_Source/Libraries/XMCLib/inc\xmc_gpio.h ****  * \if XMC4
  85:C:/Users/Yoshi/Documents/GitHub/Software/01_jrg/03_VCUJR20/2021_06_17_VCU_jr20_Source/2021_06_17_VCU_jr20_Source/Libraries/XMCLib/inc\xmc_gpio.h ****  * -# Allows the selection of pad driver strength. Configuration structure XMC_GPIO_OUTPUT_STRENGTH
  86:C:/Users/Yoshi/Documents/GitHub/Software/01_jrg/03_VCUJR20/2021_06_17_VCU_jr20_Source/2021_06_17_VCU_jr20_Source/Libraries/XMCLib/inc\xmc_gpio.h ****  * \endif
  87:C:/Users/Yoshi/Documents/GitHub/Software/01_jrg/03_VCUJR20/2021_06_17_VCU_jr20_Source/2021_06_17_VCU_jr20_Source/Libraries/XMCLib/inc\xmc_gpio.h ****  *
  88:C:/Users/Yoshi/Documents/GitHub/Software/01_jrg/03_VCUJR20/2021_06_17_VCU_jr20_Source/2021_06_17_VCU_jr20_Source/Libraries/XMCLib/inc\xmc_gpio.h ****  * -# Allows the selection of initial output level. Configuration structure XMC_GPIO_OUTPUT_LEVEL_t
  89:C:/Users/Yoshi/Documents/GitHub/Software/01_jrg/03_VCUJR20/2021_06_17_VCU_jr20_Source/2021_06_17_VCU_jr20_Source/Libraries/XMCLib/inc\xmc_gpio.h ****  *
  90:C:/Users/Yoshi/Documents/GitHub/Software/01_jrg/03_VCUJR20/2021_06_17_VCU_jr20_Source/2021_06_17_VCU_jr20_Source/Libraries/XMCLib/inc\xmc_gpio.h ****  *@{
  91:C:/Users/Yoshi/Documents/GitHub/Software/01_jrg/03_VCUJR20/2021_06_17_VCU_jr20_Source/2021_06_17_VCU_jr20_Source/Libraries/XMCLib/inc\xmc_gpio.h ****  */
  92:C:/Users/Yoshi/Documents/GitHub/Software/01_jrg/03_VCUJR20/2021_06_17_VCU_jr20_Source/2021_06_17_VCU_jr20_Source/Libraries/XMCLib/inc\xmc_gpio.h ****  
  93:C:/Users/Yoshi/Documents/GitHub/Software/01_jrg/03_VCUJR20/2021_06_17_VCU_jr20_Source/2021_06_17_VCU_jr20_Source/Libraries/XMCLib/inc\xmc_gpio.h **** /**************************************************************************************************
  94:C:/Users/Yoshi/Documents/GitHub/Software/01_jrg/03_VCUJR20/2021_06_17_VCU_jr20_Source/2021_06_17_VCU_jr20_Source/Libraries/XMCLib/inc\xmc_gpio.h ****  * MACROS
  95:C:/Users/Yoshi/Documents/GitHub/Software/01_jrg/03_VCUJR20/2021_06_17_VCU_jr20_Source/2021_06_17_VCU_jr20_Source/Libraries/XMCLib/inc\xmc_gpio.h ****  **************************************************************************************************
  96:C:/Users/Yoshi/Documents/GitHub/Software/01_jrg/03_VCUJR20/2021_06_17_VCU_jr20_Source/2021_06_17_VCU_jr20_Source/Libraries/XMCLib/inc\xmc_gpio.h **** 
  97:C:/Users/Yoshi/Documents/GitHub/Software/01_jrg/03_VCUJR20/2021_06_17_VCU_jr20_Source/2021_06_17_VCU_jr20_Source/Libraries/XMCLib/inc\xmc_gpio.h **** #define PORT_IOCR_PC_Pos PORT0_IOCR0_PC0_Pos
  98:C:/Users/Yoshi/Documents/GitHub/Software/01_jrg/03_VCUJR20/2021_06_17_VCU_jr20_Source/2021_06_17_VCU_jr20_Source/Libraries/XMCLib/inc\xmc_gpio.h **** #define PORT_IOCR_PC_Msk PORT0_IOCR0_PC0_Msk
  99:C:/Users/Yoshi/Documents/GitHub/Software/01_jrg/03_VCUJR20/2021_06_17_VCU_jr20_Source/2021_06_17_VCU_jr20_Source/Libraries/XMCLib/inc\xmc_gpio.h **** 
 100:C:/Users/Yoshi/Documents/GitHub/Software/01_jrg/03_VCUJR20/2021_06_17_VCU_jr20_Source/2021_06_17_VCU_jr20_Source/Libraries/XMCLib/inc\xmc_gpio.h **** #define PORT_IOCR_PC_Size 				(8U)
 101:C:/Users/Yoshi/Documents/GitHub/Software/01_jrg/03_VCUJR20/2021_06_17_VCU_jr20_Source/2021_06_17_VCU_jr20_Source/Libraries/XMCLib/inc\xmc_gpio.h **** 											
 102:C:/Users/Yoshi/Documents/GitHub/Software/01_jrg/03_VCUJR20/2021_06_17_VCU_jr20_Source/2021_06_17_VCU_jr20_Source/Libraries/XMCLib/inc\xmc_gpio.h **** 
 103:C:/Users/Yoshi/Documents/GitHub/Software/01_jrg/03_VCUJR20/2021_06_17_VCU_jr20_Source/2021_06_17_VCU_jr20_Source/Libraries/XMCLib/inc\xmc_gpio.h **** #define XMC_GPIO_CHECK_OUTPUT_LEVEL(level) ((level == XMC_GPIO_OUTPUT_LEVEL_LOW) || \
 104:C:/Users/Yoshi/Documents/GitHub/Software/01_jrg/03_VCUJR20/2021_06_17_VCU_jr20_Source/2021_06_17_VCU_jr20_Source/Libraries/XMCLib/inc\xmc_gpio.h ****                                             (level == XMC_GPIO_OUTPUT_LEVEL_HIGH))
 105:C:/Users/Yoshi/Documents/GitHub/Software/01_jrg/03_VCUJR20/2021_06_17_VCU_jr20_Source/2021_06_17_VCU_jr20_Source/Libraries/XMCLib/inc\xmc_gpio.h ****                                             
 106:C:/Users/Yoshi/Documents/GitHub/Software/01_jrg/03_VCUJR20/2021_06_17_VCU_jr20_Source/2021_06_17_VCU_jr20_Source/Libraries/XMCLib/inc\xmc_gpio.h **** #define XMC_GPIO_CHECK_HWCTRL(hwctrl) ((hwctrl == XMC_GPIO_HWCTRL_DISABLED) || \
 107:C:/Users/Yoshi/Documents/GitHub/Software/01_jrg/03_VCUJR20/2021_06_17_VCU_jr20_Source/2021_06_17_VCU_jr20_Source/Libraries/XMCLib/inc\xmc_gpio.h ****                                        (hwctrl == XMC_GPIO_HWCTRL_PERIPHERAL1) || \
 108:C:/Users/Yoshi/Documents/GitHub/Software/01_jrg/03_VCUJR20/2021_06_17_VCU_jr20_Source/2021_06_17_VCU_jr20_Source/Libraries/XMCLib/inc\xmc_gpio.h ****                                        (hwctrl == XMC_GPIO_HWCTRL_PERIPHERAL2))                    
 109:C:/Users/Yoshi/Documents/GitHub/Software/01_jrg/03_VCUJR20/2021_06_17_VCU_jr20_Source/2021_06_17_VCU_jr20_Source/Libraries/XMCLib/inc\xmc_gpio.h ****                                             
 110:C:/Users/Yoshi/Documents/GitHub/Software/01_jrg/03_VCUJR20/2021_06_17_VCU_jr20_Source/2021_06_17_VCU_jr20_Source/Libraries/XMCLib/inc\xmc_gpio.h **** /**************************************************************************************************
 111:C:/Users/Yoshi/Documents/GitHub/Software/01_jrg/03_VCUJR20/2021_06_17_VCU_jr20_Source/2021_06_17_VCU_jr20_Source/Libraries/XMCLib/inc\xmc_gpio.h ****  * ENUMS
 112:C:/Users/Yoshi/Documents/GitHub/Software/01_jrg/03_VCUJR20/2021_06_17_VCU_jr20_Source/2021_06_17_VCU_jr20_Source/Libraries/XMCLib/inc\xmc_gpio.h ****  **************************************************************************************************
 113:C:/Users/Yoshi/Documents/GitHub/Software/01_jrg/03_VCUJR20/2021_06_17_VCU_jr20_Source/2021_06_17_VCU_jr20_Source/Libraries/XMCLib/inc\xmc_gpio.h **** 
 114:C:/Users/Yoshi/Documents/GitHub/Software/01_jrg/03_VCUJR20/2021_06_17_VCU_jr20_Source/2021_06_17_VCU_jr20_Source/Libraries/XMCLib/inc\xmc_gpio.h **** 
 115:C:/Users/Yoshi/Documents/GitHub/Software/01_jrg/03_VCUJR20/2021_06_17_VCU_jr20_Source/2021_06_17_VCU_jr20_Source/Libraries/XMCLib/inc\xmc_gpio.h **** /**
 116:C:/Users/Yoshi/Documents/GitHub/Software/01_jrg/03_VCUJR20/2021_06_17_VCU_jr20_Source/2021_06_17_VCU_jr20_Source/Libraries/XMCLib/inc\xmc_gpio.h ****  * Defines output level of a pin. Use type \a XMC_GPIO_OUTPUT_LEVEL_t for this enum.
 117:C:/Users/Yoshi/Documents/GitHub/Software/01_jrg/03_VCUJR20/2021_06_17_VCU_jr20_Source/2021_06_17_VCU_jr20_Source/Libraries/XMCLib/inc\xmc_gpio.h ****  */
 118:C:/Users/Yoshi/Documents/GitHub/Software/01_jrg/03_VCUJR20/2021_06_17_VCU_jr20_Source/2021_06_17_VCU_jr20_Source/Libraries/XMCLib/inc\xmc_gpio.h **** typedef enum XMC_GPIO_OUTPUT_LEVEL
 119:C:/Users/Yoshi/Documents/GitHub/Software/01_jrg/03_VCUJR20/2021_06_17_VCU_jr20_Source/2021_06_17_VCU_jr20_Source/Libraries/XMCLib/inc\xmc_gpio.h **** {
 120:C:/Users/Yoshi/Documents/GitHub/Software/01_jrg/03_VCUJR20/2021_06_17_VCU_jr20_Source/2021_06_17_VCU_jr20_Source/Libraries/XMCLib/inc\xmc_gpio.h ****   XMC_GPIO_OUTPUT_LEVEL_LOW  = 0x10000U, /**<  Reset bit */
 121:C:/Users/Yoshi/Documents/GitHub/Software/01_jrg/03_VCUJR20/2021_06_17_VCU_jr20_Source/2021_06_17_VCU_jr20_Source/Libraries/XMCLib/inc\xmc_gpio.h ****   XMC_GPIO_OUTPUT_LEVEL_HIGH = 0x1U, 	/**< Set bit  */
 122:C:/Users/Yoshi/Documents/GitHub/Software/01_jrg/03_VCUJR20/2021_06_17_VCU_jr20_Source/2021_06_17_VCU_jr20_Source/Libraries/XMCLib/inc\xmc_gpio.h **** } XMC_GPIO_OUTPUT_LEVEL_t;
 123:C:/Users/Yoshi/Documents/GitHub/Software/01_jrg/03_VCUJR20/2021_06_17_VCU_jr20_Source/2021_06_17_VCU_jr20_Source/Libraries/XMCLib/inc\xmc_gpio.h **** 
 124:C:/Users/Yoshi/Documents/GitHub/Software/01_jrg/03_VCUJR20/2021_06_17_VCU_jr20_Source/2021_06_17_VCU_jr20_Source/Libraries/XMCLib/inc\xmc_gpio.h **** /**
 125:C:/Users/Yoshi/Documents/GitHub/Software/01_jrg/03_VCUJR20/2021_06_17_VCU_jr20_Source/2021_06_17_VCU_jr20_Source/Libraries/XMCLib/inc\xmc_gpio.h ****  * Defines direct hardware control characteristics of the pin . Use type \a XMC_GPIO_HWCTRL_t for t
 126:C:/Users/Yoshi/Documents/GitHub/Software/01_jrg/03_VCUJR20/2021_06_17_VCU_jr20_Source/2021_06_17_VCU_jr20_Source/Libraries/XMCLib/inc\xmc_gpio.h ****  */
 127:C:/Users/Yoshi/Documents/GitHub/Software/01_jrg/03_VCUJR20/2021_06_17_VCU_jr20_Source/2021_06_17_VCU_jr20_Source/Libraries/XMCLib/inc\xmc_gpio.h **** typedef enum XMC_GPIO_HWCTRL
 128:C:/Users/Yoshi/Documents/GitHub/Software/01_jrg/03_VCUJR20/2021_06_17_VCU_jr20_Source/2021_06_17_VCU_jr20_Source/Libraries/XMCLib/inc\xmc_gpio.h **** {
 129:C:/Users/Yoshi/Documents/GitHub/Software/01_jrg/03_VCUJR20/2021_06_17_VCU_jr20_Source/2021_06_17_VCU_jr20_Source/Libraries/XMCLib/inc\xmc_gpio.h ****   XMC_GPIO_HWCTRL_DISABLED     = 0x0U, /**<  Software control only */
 130:C:/Users/Yoshi/Documents/GitHub/Software/01_jrg/03_VCUJR20/2021_06_17_VCU_jr20_Source/2021_06_17_VCU_jr20_Source/Libraries/XMCLib/inc\xmc_gpio.h ****   XMC_GPIO_HWCTRL_PERIPHERAL1  = 0x1U, /**<  HWI0/HWO0 control path can override the software confi
 131:C:/Users/Yoshi/Documents/GitHub/Software/01_jrg/03_VCUJR20/2021_06_17_VCU_jr20_Source/2021_06_17_VCU_jr20_Source/Libraries/XMCLib/inc\xmc_gpio.h ****   XMC_GPIO_HWCTRL_PERIPHERAL2  = 0x2U  /**<  HWI1/HWO1 control path can override the software confi
 132:C:/Users/Yoshi/Documents/GitHub/Software/01_jrg/03_VCUJR20/2021_06_17_VCU_jr20_Source/2021_06_17_VCU_jr20_Source/Libraries/XMCLib/inc\xmc_gpio.h **** } XMC_GPIO_HWCTRL_t;
 133:C:/Users/Yoshi/Documents/GitHub/Software/01_jrg/03_VCUJR20/2021_06_17_VCU_jr20_Source/2021_06_17_VCU_jr20_Source/Libraries/XMCLib/inc\xmc_gpio.h **** 
 134:C:/Users/Yoshi/Documents/GitHub/Software/01_jrg/03_VCUJR20/2021_06_17_VCU_jr20_Source/2021_06_17_VCU_jr20_Source/Libraries/XMCLib/inc\xmc_gpio.h **** /**************************************************************************************************
 135:C:/Users/Yoshi/Documents/GitHub/Software/01_jrg/03_VCUJR20/2021_06_17_VCU_jr20_Source/2021_06_17_VCU_jr20_Source/Libraries/XMCLib/inc\xmc_gpio.h ****  * DEVICE FAMILY EXTENSIONS
 136:C:/Users/Yoshi/Documents/GitHub/Software/01_jrg/03_VCUJR20/2021_06_17_VCU_jr20_Source/2021_06_17_VCU_jr20_Source/Libraries/XMCLib/inc\xmc_gpio.h ****  **************************************************************************************************
 137:C:/Users/Yoshi/Documents/GitHub/Software/01_jrg/03_VCUJR20/2021_06_17_VCU_jr20_Source/2021_06_17_VCU_jr20_Source/Libraries/XMCLib/inc\xmc_gpio.h **** 
 138:C:/Users/Yoshi/Documents/GitHub/Software/01_jrg/03_VCUJR20/2021_06_17_VCU_jr20_Source/2021_06_17_VCU_jr20_Source/Libraries/XMCLib/inc\xmc_gpio.h ****  #if UC_FAMILY == XMC1
 139:C:/Users/Yoshi/Documents/GitHub/Software/01_jrg/03_VCUJR20/2021_06_17_VCU_jr20_Source/2021_06_17_VCU_jr20_Source/Libraries/XMCLib/inc\xmc_gpio.h **** #include "xmc1_gpio.h"
 140:C:/Users/Yoshi/Documents/GitHub/Software/01_jrg/03_VCUJR20/2021_06_17_VCU_jr20_Source/2021_06_17_VCU_jr20_Source/Libraries/XMCLib/inc\xmc_gpio.h **** #elif UC_FAMILY == XMC4
 141:C:/Users/Yoshi/Documents/GitHub/Software/01_jrg/03_VCUJR20/2021_06_17_VCU_jr20_Source/2021_06_17_VCU_jr20_Source/Libraries/XMCLib/inc\xmc_gpio.h **** #include "xmc4_gpio.h"
 142:C:/Users/Yoshi/Documents/GitHub/Software/01_jrg/03_VCUJR20/2021_06_17_VCU_jr20_Source/2021_06_17_VCU_jr20_Source/Libraries/XMCLib/inc\xmc_gpio.h **** #else
 143:C:/Users/Yoshi/Documents/GitHub/Software/01_jrg/03_VCUJR20/2021_06_17_VCU_jr20_Source/2021_06_17_VCU_jr20_Source/Libraries/XMCLib/inc\xmc_gpio.h **** #error "xmc_gpio.h: family device not supported"
 144:C:/Users/Yoshi/Documents/GitHub/Software/01_jrg/03_VCUJR20/2021_06_17_VCU_jr20_Source/2021_06_17_VCU_jr20_Source/Libraries/XMCLib/inc\xmc_gpio.h **** #endif
 145:C:/Users/Yoshi/Documents/GitHub/Software/01_jrg/03_VCUJR20/2021_06_17_VCU_jr20_Source/2021_06_17_VCU_jr20_Source/Libraries/XMCLib/inc\xmc_gpio.h **** 
 146:C:/Users/Yoshi/Documents/GitHub/Software/01_jrg/03_VCUJR20/2021_06_17_VCU_jr20_Source/2021_06_17_VCU_jr20_Source/Libraries/XMCLib/inc\xmc_gpio.h **** /**************************************************************************************************
 147:C:/Users/Yoshi/Documents/GitHub/Software/01_jrg/03_VCUJR20/2021_06_17_VCU_jr20_Source/2021_06_17_VCU_jr20_Source/Libraries/XMCLib/inc\xmc_gpio.h ****  * API PROTOTYPES
 148:C:/Users/Yoshi/Documents/GitHub/Software/01_jrg/03_VCUJR20/2021_06_17_VCU_jr20_Source/2021_06_17_VCU_jr20_Source/Libraries/XMCLib/inc\xmc_gpio.h ****  **************************************************************************************************
 149:C:/Users/Yoshi/Documents/GitHub/Software/01_jrg/03_VCUJR20/2021_06_17_VCU_jr20_Source/2021_06_17_VCU_jr20_Source/Libraries/XMCLib/inc\xmc_gpio.h **** 
 150:C:/Users/Yoshi/Documents/GitHub/Software/01_jrg/03_VCUJR20/2021_06_17_VCU_jr20_Source/2021_06_17_VCU_jr20_Source/Libraries/XMCLib/inc\xmc_gpio.h **** #ifdef __cplusplus
 151:C:/Users/Yoshi/Documents/GitHub/Software/01_jrg/03_VCUJR20/2021_06_17_VCU_jr20_Source/2021_06_17_VCU_jr20_Source/Libraries/XMCLib/inc\xmc_gpio.h **** extern "C" {
 152:C:/Users/Yoshi/Documents/GitHub/Software/01_jrg/03_VCUJR20/2021_06_17_VCU_jr20_Source/2021_06_17_VCU_jr20_Source/Libraries/XMCLib/inc\xmc_gpio.h **** #endif
 153:C:/Users/Yoshi/Documents/GitHub/Software/01_jrg/03_VCUJR20/2021_06_17_VCU_jr20_Source/2021_06_17_VCU_jr20_Source/Libraries/XMCLib/inc\xmc_gpio.h **** 
 154:C:/Users/Yoshi/Documents/GitHub/Software/01_jrg/03_VCUJR20/2021_06_17_VCU_jr20_Source/2021_06_17_VCU_jr20_Source/Libraries/XMCLib/inc\xmc_gpio.h **** 
 155:C:/Users/Yoshi/Documents/GitHub/Software/01_jrg/03_VCUJR20/2021_06_17_VCU_jr20_Source/2021_06_17_VCU_jr20_Source/Libraries/XMCLib/inc\xmc_gpio.h **** /**
 156:C:/Users/Yoshi/Documents/GitHub/Software/01_jrg/03_VCUJR20/2021_06_17_VCU_jr20_Source/2021_06_17_VCU_jr20_Source/Libraries/XMCLib/inc\xmc_gpio.h ****  * @param  port	  Constant pointer pointing to GPIO port, to access port registers like Pn_OUT,Pn_O
 157:C:/Users/Yoshi/Documents/GitHub/Software/01_jrg/03_VCUJR20/2021_06_17_VCU_jr20_Source/2021_06_17_VCU_jr20_Source/Libraries/XMCLib/inc\xmc_gpio.h ****  * @param  pin	  Port pin number.
 158:C:/Users/Yoshi/Documents/GitHub/Software/01_jrg/03_VCUJR20/2021_06_17_VCU_jr20_Source/2021_06_17_VCU_jr20_Source/Libraries/XMCLib/inc\xmc_gpio.h ****  * @param  config GPIO configuration data structure. Refer data structure @ref XMC_GPIO_CONFIG_t fo
 159:C:/Users/Yoshi/Documents/GitHub/Software/01_jrg/03_VCUJR20/2021_06_17_VCU_jr20_Source/2021_06_17_VCU_jr20_Source/Libraries/XMCLib/inc\xmc_gpio.h ****  *
 160:C:/Users/Yoshi/Documents/GitHub/Software/01_jrg/03_VCUJR20/2021_06_17_VCU_jr20_Source/2021_06_17_VCU_jr20_Source/Libraries/XMCLib/inc\xmc_gpio.h ****  * @return None
 161:C:/Users/Yoshi/Documents/GitHub/Software/01_jrg/03_VCUJR20/2021_06_17_VCU_jr20_Source/2021_06_17_VCU_jr20_Source/Libraries/XMCLib/inc\xmc_gpio.h ****  *
 162:C:/Users/Yoshi/Documents/GitHub/Software/01_jrg/03_VCUJR20/2021_06_17_VCU_jr20_Source/2021_06_17_VCU_jr20_Source/Libraries/XMCLib/inc\xmc_gpio.h ****  * \par<b>Description:</b><br>
 163:C:/Users/Yoshi/Documents/GitHub/Software/01_jrg/03_VCUJR20/2021_06_17_VCU_jr20_Source/2021_06_17_VCU_jr20_Source/Libraries/XMCLib/inc\xmc_gpio.h ****  * \if XMC1
 164:C:/Users/Yoshi/Documents/GitHub/Software/01_jrg/03_VCUJR20/2021_06_17_VCU_jr20_Source/2021_06_17_VCU_jr20_Source/Libraries/XMCLib/inc\xmc_gpio.h ****  * Initializes input / output mode settings like, pull up / pull down devices,hysteresis, push pull
 165:C:/Users/Yoshi/Documents/GitHub/Software/01_jrg/03_VCUJR20/2021_06_17_VCU_jr20_Source/2021_06_17_VCU_jr20_Source/Libraries/XMCLib/inc\xmc_gpio.h ****  * Also configures alternate function outputs and clears hardware port control for a selected \a po
 166:C:/Users/Yoshi/Documents/GitHub/Software/01_jrg/03_VCUJR20/2021_06_17_VCU_jr20_Source/2021_06_17_VCU_jr20_Source/Libraries/XMCLib/inc\xmc_gpio.h ****  * \a config provides selected I/O settings. It configures hardware registers Pn_IOCR,Pn_OUT, Pn_OM
 167:C:/Users/Yoshi/Documents/GitHub/Software/01_jrg/03_VCUJR20/2021_06_17_VCU_jr20_Source/2021_06_17_VCU_jr20_Source/Libraries/XMCLib/inc\xmc_gpio.h ****  * \endif
 168:C:/Users/Yoshi/Documents/GitHub/Software/01_jrg/03_VCUJR20/2021_06_17_VCU_jr20_Source/2021_06_17_VCU_jr20_Source/Libraries/XMCLib/inc\xmc_gpio.h ****  * \if XMC4
 169:C:/Users/Yoshi/Documents/GitHub/Software/01_jrg/03_VCUJR20/2021_06_17_VCU_jr20_Source/2021_06_17_VCU_jr20_Source/Libraries/XMCLib/inc\xmc_gpio.h ****  * Initializes input / output mode settings like, pull up / pull down devices,push pull /open drain
 170:C:/Users/Yoshi/Documents/GitHub/Software/01_jrg/03_VCUJR20/2021_06_17_VCU_jr20_Source/2021_06_17_VCU_jr20_Source/Libraries/XMCLib/inc\xmc_gpio.h ****  * Also configures alternate function outputs and clears hardware port control for selected \a port
 171:C:/Users/Yoshi/Documents/GitHub/Software/01_jrg/03_VCUJR20/2021_06_17_VCU_jr20_Source/2021_06_17_VCU_jr20_Source/Libraries/XMCLib/inc\xmc_gpio.h ****  * It configures hardware registers Pn_IOCR,Pn_OUT,Pn_OMR,Pn_PDISC and Pn_PDR.\n
 172:C:/Users/Yoshi/Documents/GitHub/Software/01_jrg/03_VCUJR20/2021_06_17_VCU_jr20_Source/2021_06_17_VCU_jr20_Source/Libraries/XMCLib/inc\xmc_gpio.h ****  * \endif
 173:C:/Users/Yoshi/Documents/GitHub/Software/01_jrg/03_VCUJR20/2021_06_17_VCU_jr20_Source/2021_06_17_VCU_jr20_Source/Libraries/XMCLib/inc\xmc_gpio.h ****  *
 174:C:/Users/Yoshi/Documents/GitHub/Software/01_jrg/03_VCUJR20/2021_06_17_VCU_jr20_Source/2021_06_17_VCU_jr20_Source/Libraries/XMCLib/inc\xmc_gpio.h ****  * \par<b>Related APIs:</b><BR>
 175:C:/Users/Yoshi/Documents/GitHub/Software/01_jrg/03_VCUJR20/2021_06_17_VCU_jr20_Source/2021_06_17_VCU_jr20_Source/Libraries/XMCLib/inc\xmc_gpio.h ****  *  None
 176:C:/Users/Yoshi/Documents/GitHub/Software/01_jrg/03_VCUJR20/2021_06_17_VCU_jr20_Source/2021_06_17_VCU_jr20_Source/Libraries/XMCLib/inc\xmc_gpio.h ****  *
 177:C:/Users/Yoshi/Documents/GitHub/Software/01_jrg/03_VCUJR20/2021_06_17_VCU_jr20_Source/2021_06_17_VCU_jr20_Source/Libraries/XMCLib/inc\xmc_gpio.h ****  * \par<b>Note:</b><br>
 178:C:/Users/Yoshi/Documents/GitHub/Software/01_jrg/03_VCUJR20/2021_06_17_VCU_jr20_Source/2021_06_17_VCU_jr20_Source/Libraries/XMCLib/inc\xmc_gpio.h ****  * This API is called in definition of DAVE_init by code generation and therefore should not be exp
 179:C:/Users/Yoshi/Documents/GitHub/Software/01_jrg/03_VCUJR20/2021_06_17_VCU_jr20_Source/2021_06_17_VCU_jr20_Source/Libraries/XMCLib/inc\xmc_gpio.h ****  * for the normal operation. Use other APIs only after DAVE_init is called successfully (returns DA
 180:C:/Users/Yoshi/Documents/GitHub/Software/01_jrg/03_VCUJR20/2021_06_17_VCU_jr20_Source/2021_06_17_VCU_jr20_Source/Libraries/XMCLib/inc\xmc_gpio.h ****  *
 181:C:/Users/Yoshi/Documents/GitHub/Software/01_jrg/03_VCUJR20/2021_06_17_VCU_jr20_Source/2021_06_17_VCU_jr20_Source/Libraries/XMCLib/inc\xmc_gpio.h ****  *
 182:C:/Users/Yoshi/Documents/GitHub/Software/01_jrg/03_VCUJR20/2021_06_17_VCU_jr20_Source/2021_06_17_VCU_jr20_Source/Libraries/XMCLib/inc\xmc_gpio.h ****  */
 183:C:/Users/Yoshi/Documents/GitHub/Software/01_jrg/03_VCUJR20/2021_06_17_VCU_jr20_Source/2021_06_17_VCU_jr20_Source/Libraries/XMCLib/inc\xmc_gpio.h **** 
 184:C:/Users/Yoshi/Documents/GitHub/Software/01_jrg/03_VCUJR20/2021_06_17_VCU_jr20_Source/2021_06_17_VCU_jr20_Source/Libraries/XMCLib/inc\xmc_gpio.h ****  
 185:C:/Users/Yoshi/Documents/GitHub/Software/01_jrg/03_VCUJR20/2021_06_17_VCU_jr20_Source/2021_06_17_VCU_jr20_Source/Libraries/XMCLib/inc\xmc_gpio.h **** void XMC_GPIO_Init(XMC_GPIO_PORT_t *const port, const uint8_t pin, const XMC_GPIO_CONFIG_t *const c
 186:C:/Users/Yoshi/Documents/GitHub/Software/01_jrg/03_VCUJR20/2021_06_17_VCU_jr20_Source/2021_06_17_VCU_jr20_Source/Libraries/XMCLib/inc\xmc_gpio.h ****  
 187:C:/Users/Yoshi/Documents/GitHub/Software/01_jrg/03_VCUJR20/2021_06_17_VCU_jr20_Source/2021_06_17_VCU_jr20_Source/Libraries/XMCLib/inc\xmc_gpio.h **** /**
 188:C:/Users/Yoshi/Documents/GitHub/Software/01_jrg/03_VCUJR20/2021_06_17_VCU_jr20_Source/2021_06_17_VCU_jr20_Source/Libraries/XMCLib/inc\xmc_gpio.h ****  *
 189:C:/Users/Yoshi/Documents/GitHub/Software/01_jrg/03_VCUJR20/2021_06_17_VCU_jr20_Source/2021_06_17_VCU_jr20_Source/Libraries/XMCLib/inc\xmc_gpio.h ****  * @param  port	Constant pointer pointing to GPIO port, to access hardware register Pn_IOCR.
 190:C:/Users/Yoshi/Documents/GitHub/Software/01_jrg/03_VCUJR20/2021_06_17_VCU_jr20_Source/2021_06_17_VCU_jr20_Source/Libraries/XMCLib/inc\xmc_gpio.h ****  * @param  pin	Port pin number.
 191:C:/Users/Yoshi/Documents/GitHub/Software/01_jrg/03_VCUJR20/2021_06_17_VCU_jr20_Source/2021_06_17_VCU_jr20_Source/Libraries/XMCLib/inc\xmc_gpio.h ****  * @param  mode input / output functionality selection. Refer @ref XMC_GPIO_MODE_t for valid values
 192:C:/Users/Yoshi/Documents/GitHub/Software/01_jrg/03_VCUJR20/2021_06_17_VCU_jr20_Source/2021_06_17_VCU_jr20_Source/Libraries/XMCLib/inc\xmc_gpio.h ****  *
 193:C:/Users/Yoshi/Documents/GitHub/Software/01_jrg/03_VCUJR20/2021_06_17_VCU_jr20_Source/2021_06_17_VCU_jr20_Source/Libraries/XMCLib/inc\xmc_gpio.h ****  * @return None
 194:C:/Users/Yoshi/Documents/GitHub/Software/01_jrg/03_VCUJR20/2021_06_17_VCU_jr20_Source/2021_06_17_VCU_jr20_Source/Libraries/XMCLib/inc\xmc_gpio.h ****  *
 195:C:/Users/Yoshi/Documents/GitHub/Software/01_jrg/03_VCUJR20/2021_06_17_VCU_jr20_Source/2021_06_17_VCU_jr20_Source/Libraries/XMCLib/inc\xmc_gpio.h ****  * \par<b>Description:</b><br>
 196:C:/Users/Yoshi/Documents/GitHub/Software/01_jrg/03_VCUJR20/2021_06_17_VCU_jr20_Source/2021_06_17_VCU_jr20_Source/Libraries/XMCLib/inc\xmc_gpio.h ****  * Sets digital input and output driver functionality and characteristics of a GPIO port pin. It co
 197:C:/Users/Yoshi/Documents/GitHub/Software/01_jrg/03_VCUJR20/2021_06_17_VCU_jr20_Source/2021_06_17_VCU_jr20_Source/Libraries/XMCLib/inc\xmc_gpio.h ****  * registers Pn_IOCR. \a mode is initially configured during initialization in XMC_GPIO_Init(). Cal
 198:C:/Users/Yoshi/Documents/GitHub/Software/01_jrg/03_VCUJR20/2021_06_17_VCU_jr20_Source/2021_06_17_VCU_jr20_Source/Libraries/XMCLib/inc\xmc_gpio.h ****  * the port direction functionality as needed later in the program.
 199:C:/Users/Yoshi/Documents/GitHub/Software/01_jrg/03_VCUJR20/2021_06_17_VCU_jr20_Source/2021_06_17_VCU_jr20_Source/Libraries/XMCLib/inc\xmc_gpio.h ****  *
 200:C:/Users/Yoshi/Documents/GitHub/Software/01_jrg/03_VCUJR20/2021_06_17_VCU_jr20_Source/2021_06_17_VCU_jr20_Source/Libraries/XMCLib/inc\xmc_gpio.h ****  * \par<b>Related APIs:</b><BR>
 201:C:/Users/Yoshi/Documents/GitHub/Software/01_jrg/03_VCUJR20/2021_06_17_VCU_jr20_Source/2021_06_17_VCU_jr20_Source/Libraries/XMCLib/inc\xmc_gpio.h ****  *  None
 202:C:/Users/Yoshi/Documents/GitHub/Software/01_jrg/03_VCUJR20/2021_06_17_VCU_jr20_Source/2021_06_17_VCU_jr20_Source/Libraries/XMCLib/inc\xmc_gpio.h ****  *
 203:C:/Users/Yoshi/Documents/GitHub/Software/01_jrg/03_VCUJR20/2021_06_17_VCU_jr20_Source/2021_06_17_VCU_jr20_Source/Libraries/XMCLib/inc\xmc_gpio.h ****  */
 204:C:/Users/Yoshi/Documents/GitHub/Software/01_jrg/03_VCUJR20/2021_06_17_VCU_jr20_Source/2021_06_17_VCU_jr20_Source/Libraries/XMCLib/inc\xmc_gpio.h **** 
 205:C:/Users/Yoshi/Documents/GitHub/Software/01_jrg/03_VCUJR20/2021_06_17_VCU_jr20_Source/2021_06_17_VCU_jr20_Source/Libraries/XMCLib/inc\xmc_gpio.h **** void XMC_GPIO_SetMode(XMC_GPIO_PORT_t *const port, const uint8_t pin, const XMC_GPIO_MODE_t mode);
 206:C:/Users/Yoshi/Documents/GitHub/Software/01_jrg/03_VCUJR20/2021_06_17_VCU_jr20_Source/2021_06_17_VCU_jr20_Source/Libraries/XMCLib/inc\xmc_gpio.h **** 
 207:C:/Users/Yoshi/Documents/GitHub/Software/01_jrg/03_VCUJR20/2021_06_17_VCU_jr20_Source/2021_06_17_VCU_jr20_Source/Libraries/XMCLib/inc\xmc_gpio.h **** 
 208:C:/Users/Yoshi/Documents/GitHub/Software/01_jrg/03_VCUJR20/2021_06_17_VCU_jr20_Source/2021_06_17_VCU_jr20_Source/Libraries/XMCLib/inc\xmc_gpio.h **** /**
 209:C:/Users/Yoshi/Documents/GitHub/Software/01_jrg/03_VCUJR20/2021_06_17_VCU_jr20_Source/2021_06_17_VCU_jr20_Source/Libraries/XMCLib/inc\xmc_gpio.h ****  *
 210:C:/Users/Yoshi/Documents/GitHub/Software/01_jrg/03_VCUJR20/2021_06_17_VCU_jr20_Source/2021_06_17_VCU_jr20_Source/Libraries/XMCLib/inc\xmc_gpio.h ****  * @param  port	 Constant pointer pointing to GPIO port, to access hardware register Pn_OMR.
 211:C:/Users/Yoshi/Documents/GitHub/Software/01_jrg/03_VCUJR20/2021_06_17_VCU_jr20_Source/2021_06_17_VCU_jr20_Source/Libraries/XMCLib/inc\xmc_gpio.h ****  * @param  pin	 Port pin number.
 212:C:/Users/Yoshi/Documents/GitHub/Software/01_jrg/03_VCUJR20/2021_06_17_VCU_jr20_Source/2021_06_17_VCU_jr20_Source/Libraries/XMCLib/inc\xmc_gpio.h ****  * @param  level output level selection. Refer @ref XMC_GPIO_OUTPUT_LEVEL_t for valid values.
 213:C:/Users/Yoshi/Documents/GitHub/Software/01_jrg/03_VCUJR20/2021_06_17_VCU_jr20_Source/2021_06_17_VCU_jr20_Source/Libraries/XMCLib/inc\xmc_gpio.h ****  *
 214:C:/Users/Yoshi/Documents/GitHub/Software/01_jrg/03_VCUJR20/2021_06_17_VCU_jr20_Source/2021_06_17_VCU_jr20_Source/Libraries/XMCLib/inc\xmc_gpio.h ****  * @return None
 215:C:/Users/Yoshi/Documents/GitHub/Software/01_jrg/03_VCUJR20/2021_06_17_VCU_jr20_Source/2021_06_17_VCU_jr20_Source/Libraries/XMCLib/inc\xmc_gpio.h ****  *
 216:C:/Users/Yoshi/Documents/GitHub/Software/01_jrg/03_VCUJR20/2021_06_17_VCU_jr20_Source/2021_06_17_VCU_jr20_Source/Libraries/XMCLib/inc\xmc_gpio.h ****  * \par<b>Description:</b><br>
 217:C:/Users/Yoshi/Documents/GitHub/Software/01_jrg/03_VCUJR20/2021_06_17_VCU_jr20_Source/2021_06_17_VCU_jr20_Source/Libraries/XMCLib/inc\xmc_gpio.h ****  * Set port pin output level to high or low.It configures hardware registers Pn_OMR.\a level is ini
 218:C:/Users/Yoshi/Documents/GitHub/Software/01_jrg/03_VCUJR20/2021_06_17_VCU_jr20_Source/2021_06_17_VCU_jr20_Source/Libraries/XMCLib/inc\xmc_gpio.h ****  * configured during initialization in XMC_GPIO_Init(). Call this API to alter output level as need
 219:C:/Users/Yoshi/Documents/GitHub/Software/01_jrg/03_VCUJR20/2021_06_17_VCU_jr20_Source/2021_06_17_VCU_jr20_Source/Libraries/XMCLib/inc\xmc_gpio.h ****  *
 220:C:/Users/Yoshi/Documents/GitHub/Software/01_jrg/03_VCUJR20/2021_06_17_VCU_jr20_Source/2021_06_17_VCU_jr20_Source/Libraries/XMCLib/inc\xmc_gpio.h ****  * \par<b>Related APIs:</b><BR>
 221:C:/Users/Yoshi/Documents/GitHub/Software/01_jrg/03_VCUJR20/2021_06_17_VCU_jr20_Source/2021_06_17_VCU_jr20_Source/Libraries/XMCLib/inc\xmc_gpio.h ****  *  XMC_GPIO_SetOutputHigh(), XMC_GPIO_SetOutputLow().
 222:C:/Users/Yoshi/Documents/GitHub/Software/01_jrg/03_VCUJR20/2021_06_17_VCU_jr20_Source/2021_06_17_VCU_jr20_Source/Libraries/XMCLib/inc\xmc_gpio.h ****  *
 223:C:/Users/Yoshi/Documents/GitHub/Software/01_jrg/03_VCUJR20/2021_06_17_VCU_jr20_Source/2021_06_17_VCU_jr20_Source/Libraries/XMCLib/inc\xmc_gpio.h ****  * \par<b>Note:</b><br>
 224:C:/Users/Yoshi/Documents/GitHub/Software/01_jrg/03_VCUJR20/2021_06_17_VCU_jr20_Source/2021_06_17_VCU_jr20_Source/Libraries/XMCLib/inc\xmc_gpio.h ****  * Prior to this api, user has to configure port pin to output mode using XMC_GPIO_SetMode().
 225:C:/Users/Yoshi/Documents/GitHub/Software/01_jrg/03_VCUJR20/2021_06_17_VCU_jr20_Source/2021_06_17_VCU_jr20_Source/Libraries/XMCLib/inc\xmc_gpio.h ****  *
 226:C:/Users/Yoshi/Documents/GitHub/Software/01_jrg/03_VCUJR20/2021_06_17_VCU_jr20_Source/2021_06_17_VCU_jr20_Source/Libraries/XMCLib/inc\xmc_gpio.h ****  */
 227:C:/Users/Yoshi/Documents/GitHub/Software/01_jrg/03_VCUJR20/2021_06_17_VCU_jr20_Source/2021_06_17_VCU_jr20_Source/Libraries/XMCLib/inc\xmc_gpio.h **** 
 228:C:/Users/Yoshi/Documents/GitHub/Software/01_jrg/03_VCUJR20/2021_06_17_VCU_jr20_Source/2021_06_17_VCU_jr20_Source/Libraries/XMCLib/inc\xmc_gpio.h **** 
 229:C:/Users/Yoshi/Documents/GitHub/Software/01_jrg/03_VCUJR20/2021_06_17_VCU_jr20_Source/2021_06_17_VCU_jr20_Source/Libraries/XMCLib/inc\xmc_gpio.h **** __STATIC_INLINE void XMC_GPIO_SetOutputLevel(XMC_GPIO_PORT_t *const port, const uint8_t pin, const 
 230:C:/Users/Yoshi/Documents/GitHub/Software/01_jrg/03_VCUJR20/2021_06_17_VCU_jr20_Source/2021_06_17_VCU_jr20_Source/Libraries/XMCLib/inc\xmc_gpio.h **** {
 231:C:/Users/Yoshi/Documents/GitHub/Software/01_jrg/03_VCUJR20/2021_06_17_VCU_jr20_Source/2021_06_17_VCU_jr20_Source/Libraries/XMCLib/inc\xmc_gpio.h ****   XMC_ASSERT("XMC_GPIO_SetOutputLevel: Invalid port", XMC_GPIO_CHECK_OUTPUT_PORT(port));
 232:C:/Users/Yoshi/Documents/GitHub/Software/01_jrg/03_VCUJR20/2021_06_17_VCU_jr20_Source/2021_06_17_VCU_jr20_Source/Libraries/XMCLib/inc\xmc_gpio.h ****   XMC_ASSERT("XMC_GPIO_SetOutputLevel: Invalid output level", XMC_GPIO_CHECK_OUTPUT_LEVEL(level));
 233:C:/Users/Yoshi/Documents/GitHub/Software/01_jrg/03_VCUJR20/2021_06_17_VCU_jr20_Source/2021_06_17_VCU_jr20_Source/Libraries/XMCLib/inc\xmc_gpio.h ****   
 234:C:/Users/Yoshi/Documents/GitHub/Software/01_jrg/03_VCUJR20/2021_06_17_VCU_jr20_Source/2021_06_17_VCU_jr20_Source/Libraries/XMCLib/inc\xmc_gpio.h ****   port->OMR = (uint32_t)level << pin;
 235:C:/Users/Yoshi/Documents/GitHub/Software/01_jrg/03_VCUJR20/2021_06_17_VCU_jr20_Source/2021_06_17_VCU_jr20_Source/Libraries/XMCLib/inc\xmc_gpio.h **** }
 236:C:/Users/Yoshi/Documents/GitHub/Software/01_jrg/03_VCUJR20/2021_06_17_VCU_jr20_Source/2021_06_17_VCU_jr20_Source/Libraries/XMCLib/inc\xmc_gpio.h **** 
 237:C:/Users/Yoshi/Documents/GitHub/Software/01_jrg/03_VCUJR20/2021_06_17_VCU_jr20_Source/2021_06_17_VCU_jr20_Source/Libraries/XMCLib/inc\xmc_gpio.h **** 
 238:C:/Users/Yoshi/Documents/GitHub/Software/01_jrg/03_VCUJR20/2021_06_17_VCU_jr20_Source/2021_06_17_VCU_jr20_Source/Libraries/XMCLib/inc\xmc_gpio.h **** /**
 239:C:/Users/Yoshi/Documents/GitHub/Software/01_jrg/03_VCUJR20/2021_06_17_VCU_jr20_Source/2021_06_17_VCU_jr20_Source/Libraries/XMCLib/inc\xmc_gpio.h ****  * @param  port constant pointer pointing to GPIO port, to access hardware register Pn_OMR.
 240:C:/Users/Yoshi/Documents/GitHub/Software/01_jrg/03_VCUJR20/2021_06_17_VCU_jr20_Source/2021_06_17_VCU_jr20_Source/Libraries/XMCLib/inc\xmc_gpio.h ****  * @param  pin	Port pin number.
 241:C:/Users/Yoshi/Documents/GitHub/Software/01_jrg/03_VCUJR20/2021_06_17_VCU_jr20_Source/2021_06_17_VCU_jr20_Source/Libraries/XMCLib/inc\xmc_gpio.h ****  *
 242:C:/Users/Yoshi/Documents/GitHub/Software/01_jrg/03_VCUJR20/2021_06_17_VCU_jr20_Source/2021_06_17_VCU_jr20_Source/Libraries/XMCLib/inc\xmc_gpio.h ****  * @return None
 243:C:/Users/Yoshi/Documents/GitHub/Software/01_jrg/03_VCUJR20/2021_06_17_VCU_jr20_Source/2021_06_17_VCU_jr20_Source/Libraries/XMCLib/inc\xmc_gpio.h ****  *
 244:C:/Users/Yoshi/Documents/GitHub/Software/01_jrg/03_VCUJR20/2021_06_17_VCU_jr20_Source/2021_06_17_VCU_jr20_Source/Libraries/XMCLib/inc\xmc_gpio.h ****  * \par<b>Description:</b><br>
 245:C:/Users/Yoshi/Documents/GitHub/Software/01_jrg/03_VCUJR20/2021_06_17_VCU_jr20_Source/2021_06_17_VCU_jr20_Source/Libraries/XMCLib/inc\xmc_gpio.h ****  *  Sets port pin output to high. It configures hardware registers Pn_OMR.
 246:C:/Users/Yoshi/Documents/GitHub/Software/01_jrg/03_VCUJR20/2021_06_17_VCU_jr20_Source/2021_06_17_VCU_jr20_Source/Libraries/XMCLib/inc\xmc_gpio.h ****  *
 247:C:/Users/Yoshi/Documents/GitHub/Software/01_jrg/03_VCUJR20/2021_06_17_VCU_jr20_Source/2021_06_17_VCU_jr20_Source/Libraries/XMCLib/inc\xmc_gpio.h ****  *  \par<b>Related APIs:</b><BR>
 248:C:/Users/Yoshi/Documents/GitHub/Software/01_jrg/03_VCUJR20/2021_06_17_VCU_jr20_Source/2021_06_17_VCU_jr20_Source/Libraries/XMCLib/inc\xmc_gpio.h ****  *  XMC_GPIO_SetOutputLow()
 249:C:/Users/Yoshi/Documents/GitHub/Software/01_jrg/03_VCUJR20/2021_06_17_VCU_jr20_Source/2021_06_17_VCU_jr20_Source/Libraries/XMCLib/inc\xmc_gpio.h ****  *
 250:C:/Users/Yoshi/Documents/GitHub/Software/01_jrg/03_VCUJR20/2021_06_17_VCU_jr20_Source/2021_06_17_VCU_jr20_Source/Libraries/XMCLib/inc\xmc_gpio.h ****  * \par<b>Note:</b><br>
 251:C:/Users/Yoshi/Documents/GitHub/Software/01_jrg/03_VCUJR20/2021_06_17_VCU_jr20_Source/2021_06_17_VCU_jr20_Source/Libraries/XMCLib/inc\xmc_gpio.h ****  * Prior to this api, user has to configure port pin to output mode using XMC_GPIO_SetMode().\n
 252:C:/Users/Yoshi/Documents/GitHub/Software/01_jrg/03_VCUJR20/2021_06_17_VCU_jr20_Source/2021_06_17_VCU_jr20_Source/Libraries/XMCLib/inc\xmc_gpio.h ****  * Register Pn_OMR is virtual and does not contain any flip-flop. A read action delivers the value 
 253:C:/Users/Yoshi/Documents/GitHub/Software/01_jrg/03_VCUJR20/2021_06_17_VCU_jr20_Source/2021_06_17_VCU_jr20_Source/Libraries/XMCLib/inc\xmc_gpio.h ****  *
 254:C:/Users/Yoshi/Documents/GitHub/Software/01_jrg/03_VCUJR20/2021_06_17_VCU_jr20_Source/2021_06_17_VCU_jr20_Source/Libraries/XMCLib/inc\xmc_gpio.h ****  */
 255:C:/Users/Yoshi/Documents/GitHub/Software/01_jrg/03_VCUJR20/2021_06_17_VCU_jr20_Source/2021_06_17_VCU_jr20_Source/Libraries/XMCLib/inc\xmc_gpio.h **** 
 256:C:/Users/Yoshi/Documents/GitHub/Software/01_jrg/03_VCUJR20/2021_06_17_VCU_jr20_Source/2021_06_17_VCU_jr20_Source/Libraries/XMCLib/inc\xmc_gpio.h **** __STATIC_INLINE void XMC_GPIO_SetOutputHigh(XMC_GPIO_PORT_t *const port, const uint8_t pin)
 257:C:/Users/Yoshi/Documents/GitHub/Software/01_jrg/03_VCUJR20/2021_06_17_VCU_jr20_Source/2021_06_17_VCU_jr20_Source/Libraries/XMCLib/inc\xmc_gpio.h **** {
 258:C:/Users/Yoshi/Documents/GitHub/Software/01_jrg/03_VCUJR20/2021_06_17_VCU_jr20_Source/2021_06_17_VCU_jr20_Source/Libraries/XMCLib/inc\xmc_gpio.h ****   XMC_ASSERT("XMC_GPIO_SetOutputHigh: Invalid port", XMC_GPIO_CHECK_OUTPUT_PORT(port));
 259:C:/Users/Yoshi/Documents/GitHub/Software/01_jrg/03_VCUJR20/2021_06_17_VCU_jr20_Source/2021_06_17_VCU_jr20_Source/Libraries/XMCLib/inc\xmc_gpio.h **** 
 260:C:/Users/Yoshi/Documents/GitHub/Software/01_jrg/03_VCUJR20/2021_06_17_VCU_jr20_Source/2021_06_17_VCU_jr20_Source/Libraries/XMCLib/inc\xmc_gpio.h ****   port->OMR = (uint32_t)0x1U << pin;
 261:C:/Users/Yoshi/Documents/GitHub/Software/01_jrg/03_VCUJR20/2021_06_17_VCU_jr20_Source/2021_06_17_VCU_jr20_Source/Libraries/XMCLib/inc\xmc_gpio.h **** }
 262:C:/Users/Yoshi/Documents/GitHub/Software/01_jrg/03_VCUJR20/2021_06_17_VCU_jr20_Source/2021_06_17_VCU_jr20_Source/Libraries/XMCLib/inc\xmc_gpio.h **** 
 263:C:/Users/Yoshi/Documents/GitHub/Software/01_jrg/03_VCUJR20/2021_06_17_VCU_jr20_Source/2021_06_17_VCU_jr20_Source/Libraries/XMCLib/inc\xmc_gpio.h **** /**
 264:C:/Users/Yoshi/Documents/GitHub/Software/01_jrg/03_VCUJR20/2021_06_17_VCU_jr20_Source/2021_06_17_VCU_jr20_Source/Libraries/XMCLib/inc\xmc_gpio.h ****  *
 265:C:/Users/Yoshi/Documents/GitHub/Software/01_jrg/03_VCUJR20/2021_06_17_VCU_jr20_Source/2021_06_17_VCU_jr20_Source/Libraries/XMCLib/inc\xmc_gpio.h ****  * @param  port	constant pointer pointing to GPIO port, to access hardware register Pn_OMR.
 266:C:/Users/Yoshi/Documents/GitHub/Software/01_jrg/03_VCUJR20/2021_06_17_VCU_jr20_Source/2021_06_17_VCU_jr20_Source/Libraries/XMCLib/inc\xmc_gpio.h ****  * @param  pin	port pin number.
 267:C:/Users/Yoshi/Documents/GitHub/Software/01_jrg/03_VCUJR20/2021_06_17_VCU_jr20_Source/2021_06_17_VCU_jr20_Source/Libraries/XMCLib/inc\xmc_gpio.h ****  *
 268:C:/Users/Yoshi/Documents/GitHub/Software/01_jrg/03_VCUJR20/2021_06_17_VCU_jr20_Source/2021_06_17_VCU_jr20_Source/Libraries/XMCLib/inc\xmc_gpio.h ****  * @return  None
 269:C:/Users/Yoshi/Documents/GitHub/Software/01_jrg/03_VCUJR20/2021_06_17_VCU_jr20_Source/2021_06_17_VCU_jr20_Source/Libraries/XMCLib/inc\xmc_gpio.h ****  *
 270:C:/Users/Yoshi/Documents/GitHub/Software/01_jrg/03_VCUJR20/2021_06_17_VCU_jr20_Source/2021_06_17_VCU_jr20_Source/Libraries/XMCLib/inc\xmc_gpio.h ****  *\par<b>Description:</b><br>
 271:C:/Users/Yoshi/Documents/GitHub/Software/01_jrg/03_VCUJR20/2021_06_17_VCU_jr20_Source/2021_06_17_VCU_jr20_Source/Libraries/XMCLib/inc\xmc_gpio.h ****  * Sets port pin output to low. It configures hardware registers Pn_OMR.\n
 272:C:/Users/Yoshi/Documents/GitHub/Software/01_jrg/03_VCUJR20/2021_06_17_VCU_jr20_Source/2021_06_17_VCU_jr20_Source/Libraries/XMCLib/inc\xmc_gpio.h ****  *
 273:C:/Users/Yoshi/Documents/GitHub/Software/01_jrg/03_VCUJR20/2021_06_17_VCU_jr20_Source/2021_06_17_VCU_jr20_Source/Libraries/XMCLib/inc\xmc_gpio.h ****  * \par<b>Related APIs:</b><BR>>
 274:C:/Users/Yoshi/Documents/GitHub/Software/01_jrg/03_VCUJR20/2021_06_17_VCU_jr20_Source/2021_06_17_VCU_jr20_Source/Libraries/XMCLib/inc\xmc_gpio.h ****  * XMC_GPIO_SetOutputHigh()
 275:C:/Users/Yoshi/Documents/GitHub/Software/01_jrg/03_VCUJR20/2021_06_17_VCU_jr20_Source/2021_06_17_VCU_jr20_Source/Libraries/XMCLib/inc\xmc_gpio.h ****  *
 276:C:/Users/Yoshi/Documents/GitHub/Software/01_jrg/03_VCUJR20/2021_06_17_VCU_jr20_Source/2021_06_17_VCU_jr20_Source/Libraries/XMCLib/inc\xmc_gpio.h ****  *\par<b>Note:</b><br>
 277:C:/Users/Yoshi/Documents/GitHub/Software/01_jrg/03_VCUJR20/2021_06_17_VCU_jr20_Source/2021_06_17_VCU_jr20_Source/Libraries/XMCLib/inc\xmc_gpio.h ****  * Prior to this api, user has to configure port pin to output mode using XMC_GPIO_SetMode().
 278:C:/Users/Yoshi/Documents/GitHub/Software/01_jrg/03_VCUJR20/2021_06_17_VCU_jr20_Source/2021_06_17_VCU_jr20_Source/Libraries/XMCLib/inc\xmc_gpio.h ****  * Register Pn_OMR is virtual and does not contain any flip-flop. A read action delivers the value 
 279:C:/Users/Yoshi/Documents/GitHub/Software/01_jrg/03_VCUJR20/2021_06_17_VCU_jr20_Source/2021_06_17_VCU_jr20_Source/Libraries/XMCLib/inc\xmc_gpio.h ****  *
 280:C:/Users/Yoshi/Documents/GitHub/Software/01_jrg/03_VCUJR20/2021_06_17_VCU_jr20_Source/2021_06_17_VCU_jr20_Source/Libraries/XMCLib/inc\xmc_gpio.h ****  */
 281:C:/Users/Yoshi/Documents/GitHub/Software/01_jrg/03_VCUJR20/2021_06_17_VCU_jr20_Source/2021_06_17_VCU_jr20_Source/Libraries/XMCLib/inc\xmc_gpio.h **** 
 282:C:/Users/Yoshi/Documents/GitHub/Software/01_jrg/03_VCUJR20/2021_06_17_VCU_jr20_Source/2021_06_17_VCU_jr20_Source/Libraries/XMCLib/inc\xmc_gpio.h **** __STATIC_INLINE void XMC_GPIO_SetOutputLow(XMC_GPIO_PORT_t *const port, const uint8_t pin)
 283:C:/Users/Yoshi/Documents/GitHub/Software/01_jrg/03_VCUJR20/2021_06_17_VCU_jr20_Source/2021_06_17_VCU_jr20_Source/Libraries/XMCLib/inc\xmc_gpio.h **** {
  27              	 .loc 1 283 0
  28              	 .cfi_startproc
  29              	 
  30              	 
  31              	 
  32 0000 80B4     	 push {r7}
  33              	.LCFI0:
  34              	 .cfi_def_cfa_offset 4
  35              	 .cfi_offset 7,-4
  36 0002 83B0     	 sub sp,sp,#12
  37              	.LCFI1:
  38              	 .cfi_def_cfa_offset 16
  39 0004 00AF     	 add r7,sp,#0
  40              	.LCFI2:
  41              	 .cfi_def_cfa_register 7
  42 0006 7860     	 str r0,[r7,#4]
  43 0008 0B46     	 mov r3,r1
  44 000a FB70     	 strb r3,[r7,#3]
 284:C:/Users/Yoshi/Documents/GitHub/Software/01_jrg/03_VCUJR20/2021_06_17_VCU_jr20_Source/2021_06_17_VCU_jr20_Source/Libraries/XMCLib/inc\xmc_gpio.h ****   XMC_ASSERT("XMC_GPIO_SetOutputLow: Invalid port", XMC_GPIO_CHECK_OUTPUT_PORT(port));
 285:C:/Users/Yoshi/Documents/GitHub/Software/01_jrg/03_VCUJR20/2021_06_17_VCU_jr20_Source/2021_06_17_VCU_jr20_Source/Libraries/XMCLib/inc\xmc_gpio.h **** 
 286:C:/Users/Yoshi/Documents/GitHub/Software/01_jrg/03_VCUJR20/2021_06_17_VCU_jr20_Source/2021_06_17_VCU_jr20_Source/Libraries/XMCLib/inc\xmc_gpio.h ****   port->OMR = 0x10000U << pin;
  45              	 .loc 1 286 0
  46 000c FB78     	 ldrb r3,[r7,#3]
  47 000e 4FF48032 	 mov r2,#65536
  48 0012 9A40     	 lsls r2,r2,r3
  49 0014 7B68     	 ldr r3,[r7,#4]
  50 0016 5A60     	 str r2,[r3,#4]
 287:C:/Users/Yoshi/Documents/GitHub/Software/01_jrg/03_VCUJR20/2021_06_17_VCU_jr20_Source/2021_06_17_VCU_jr20_Source/Libraries/XMCLib/inc\xmc_gpio.h **** }
  51              	 .loc 1 287 0
  52 0018 0C37     	 adds r7,r7,#12
  53              	.LCFI3:
  54              	 .cfi_def_cfa_offset 4
  55 001a BD46     	 mov sp,r7
  56              	.LCFI4:
  57              	 .cfi_def_cfa_register 13
  58              	 
  59 001c 5DF8047B 	 ldr r7,[sp],#4
  60              	.LCFI5:
  61              	 .cfi_restore 7
  62              	 .cfi_def_cfa_offset 0
  63 0020 7047     	 bx lr
  64              	 .cfi_endproc
  65              	.LFE178:
  67 0022 00BF     	 .section .text.XMC_WDT_Start,"ax",%progbits
  68              	 .align 2
  69              	 .thumb
  70              	 .thumb_func
  72              	XMC_WDT_Start:
  73              	.LFB254:
  74              	 .file 2 "C:/Users/Yoshi/Documents/GitHub/Software/01_jrg/03_VCUJR20/2021_06_17_VCU_jr20_Source/2021_06_17_VCU_jr20_Source/Libraries/XMCLib/inc/xmc_wdt.h"
   1:C:/Users/Yoshi/Documents/GitHub/Software/01_jrg/03_VCUJR20/2021_06_17_VCU_jr20_Source/2021_06_17_VCU_jr20_Source/Libraries/XMCLib/inc\xmc_wdt.h **** /**
   2:C:/Users/Yoshi/Documents/GitHub/Software/01_jrg/03_VCUJR20/2021_06_17_VCU_jr20_Source/2021_06_17_VCU_jr20_Source/Libraries/XMCLib/inc\xmc_wdt.h ****  * @file xmc_wdt.h
   3:C:/Users/Yoshi/Documents/GitHub/Software/01_jrg/03_VCUJR20/2021_06_17_VCU_jr20_Source/2021_06_17_VCU_jr20_Source/Libraries/XMCLib/inc\xmc_wdt.h ****  * @date 2015-08-06
   4:C:/Users/Yoshi/Documents/GitHub/Software/01_jrg/03_VCUJR20/2021_06_17_VCU_jr20_Source/2021_06_17_VCU_jr20_Source/Libraries/XMCLib/inc\xmc_wdt.h ****  *
   5:C:/Users/Yoshi/Documents/GitHub/Software/01_jrg/03_VCUJR20/2021_06_17_VCU_jr20_Source/2021_06_17_VCU_jr20_Source/Libraries/XMCLib/inc\xmc_wdt.h ****  * @cond
   6:C:/Users/Yoshi/Documents/GitHub/Software/01_jrg/03_VCUJR20/2021_06_17_VCU_jr20_Source/2021_06_17_VCU_jr20_Source/Libraries/XMCLib/inc\xmc_wdt.h ****  **************************************************************************************************
   7:C:/Users/Yoshi/Documents/GitHub/Software/01_jrg/03_VCUJR20/2021_06_17_VCU_jr20_Source/2021_06_17_VCU_jr20_Source/Libraries/XMCLib/inc\xmc_wdt.h ****  * XMClib v2.1.24 - XMC Peripheral Driver Library 
   8:C:/Users/Yoshi/Documents/GitHub/Software/01_jrg/03_VCUJR20/2021_06_17_VCU_jr20_Source/2021_06_17_VCU_jr20_Source/Libraries/XMCLib/inc\xmc_wdt.h ****  *
   9:C:/Users/Yoshi/Documents/GitHub/Software/01_jrg/03_VCUJR20/2021_06_17_VCU_jr20_Source/2021_06_17_VCU_jr20_Source/Libraries/XMCLib/inc\xmc_wdt.h ****  * Copyright (c) 2015-2019, Infineon Technologies AG
  10:C:/Users/Yoshi/Documents/GitHub/Software/01_jrg/03_VCUJR20/2021_06_17_VCU_jr20_Source/2021_06_17_VCU_jr20_Source/Libraries/XMCLib/inc\xmc_wdt.h ****  * All rights reserved.                        
  11:C:/Users/Yoshi/Documents/GitHub/Software/01_jrg/03_VCUJR20/2021_06_17_VCU_jr20_Source/2021_06_17_VCU_jr20_Source/Libraries/XMCLib/inc\xmc_wdt.h ****  *                                             
  12:C:/Users/Yoshi/Documents/GitHub/Software/01_jrg/03_VCUJR20/2021_06_17_VCU_jr20_Source/2021_06_17_VCU_jr20_Source/Libraries/XMCLib/inc\xmc_wdt.h ****  * Redistribution and use in source and binary forms, with or without modification,are permitted pr
  13:C:/Users/Yoshi/Documents/GitHub/Software/01_jrg/03_VCUJR20/2021_06_17_VCU_jr20_Source/2021_06_17_VCU_jr20_Source/Libraries/XMCLib/inc\xmc_wdt.h ****  * following conditions are met:   
  14:C:/Users/Yoshi/Documents/GitHub/Software/01_jrg/03_VCUJR20/2021_06_17_VCU_jr20_Source/2021_06_17_VCU_jr20_Source/Libraries/XMCLib/inc\xmc_wdt.h ****  *                                                                              
  15:C:/Users/Yoshi/Documents/GitHub/Software/01_jrg/03_VCUJR20/2021_06_17_VCU_jr20_Source/2021_06_17_VCU_jr20_Source/Libraries/XMCLib/inc\xmc_wdt.h ****  * Redistributions of source code must retain the above copyright notice, this list of conditions a
  16:C:/Users/Yoshi/Documents/GitHub/Software/01_jrg/03_VCUJR20/2021_06_17_VCU_jr20_Source/2021_06_17_VCU_jr20_Source/Libraries/XMCLib/inc\xmc_wdt.h ****  * disclaimer.                        
  17:C:/Users/Yoshi/Documents/GitHub/Software/01_jrg/03_VCUJR20/2021_06_17_VCU_jr20_Source/2021_06_17_VCU_jr20_Source/Libraries/XMCLib/inc\xmc_wdt.h ****  * 
  18:C:/Users/Yoshi/Documents/GitHub/Software/01_jrg/03_VCUJR20/2021_06_17_VCU_jr20_Source/2021_06_17_VCU_jr20_Source/Libraries/XMCLib/inc\xmc_wdt.h ****  * Redistributions in binary form must reproduce the above copyright notice, this list of condition
  19:C:/Users/Yoshi/Documents/GitHub/Software/01_jrg/03_VCUJR20/2021_06_17_VCU_jr20_Source/2021_06_17_VCU_jr20_Source/Libraries/XMCLib/inc\xmc_wdt.h ****  * disclaimer in the documentation and/or other materials provided with the distribution.          
  20:C:/Users/Yoshi/Documents/GitHub/Software/01_jrg/03_VCUJR20/2021_06_17_VCU_jr20_Source/2021_06_17_VCU_jr20_Source/Libraries/XMCLib/inc\xmc_wdt.h ****  * 
  21:C:/Users/Yoshi/Documents/GitHub/Software/01_jrg/03_VCUJR20/2021_06_17_VCU_jr20_Source/2021_06_17_VCU_jr20_Source/Libraries/XMCLib/inc\xmc_wdt.h ****  * Neither the name of the copyright holders nor the names of its contributors may be used to endor
  22:C:/Users/Yoshi/Documents/GitHub/Software/01_jrg/03_VCUJR20/2021_06_17_VCU_jr20_Source/2021_06_17_VCU_jr20_Source/Libraries/XMCLib/inc\xmc_wdt.h ****  * products derived from this software without specific prior written permission.                  
  23:C:/Users/Yoshi/Documents/GitHub/Software/01_jrg/03_VCUJR20/2021_06_17_VCU_jr20_Source/2021_06_17_VCU_jr20_Source/Libraries/XMCLib/inc\xmc_wdt.h ****  *                                                                              
  24:C:/Users/Yoshi/Documents/GitHub/Software/01_jrg/03_VCUJR20/2021_06_17_VCU_jr20_Source/2021_06_17_VCU_jr20_Source/Libraries/XMCLib/inc\xmc_wdt.h ****  * THIS SOFTWARE IS PROVIDED BY THE COPYRIGHT HOLDERS AND CONTRIBUTORS "AS IS" AND ANY EXPRESS OR I
  25:C:/Users/Yoshi/Documents/GitHub/Software/01_jrg/03_VCUJR20/2021_06_17_VCU_jr20_Source/2021_06_17_VCU_jr20_Source/Libraries/XMCLib/inc\xmc_wdt.h ****  * INCLUDING, BUT NOT LIMITED TO, THE IMPLIED WARRANTIES OF MERCHANTABILITY AND FITNESS FOR A PARTI
  26:C:/Users/Yoshi/Documents/GitHub/Software/01_jrg/03_VCUJR20/2021_06_17_VCU_jr20_Source/2021_06_17_VCU_jr20_Source/Libraries/XMCLib/inc\xmc_wdt.h ****  * DISCLAIMED. IN NO EVENT SHALL THE COPYRIGHT HOLDER OR CONTRIBUTORS BE LIABLE  FOR ANY DIRECT, IN
  27:C:/Users/Yoshi/Documents/GitHub/Software/01_jrg/03_VCUJR20/2021_06_17_VCU_jr20_Source/2021_06_17_VCU_jr20_Source/Libraries/XMCLib/inc\xmc_wdt.h ****  * SPECIAL, EXEMPLARY, OR CONSEQUENTIAL DAMAGES (INCLUDING, BUT NOT LIMITED TO, PROCUREMENT OF SUBS
  28:C:/Users/Yoshi/Documents/GitHub/Software/01_jrg/03_VCUJR20/2021_06_17_VCU_jr20_Source/2021_06_17_VCU_jr20_Source/Libraries/XMCLib/inc\xmc_wdt.h ****  * SERVICES; LOSS OF USE, DATA, OR PROFITS; OR BUSINESS INTERRUPTION) HOWEVER CAUSED AND ON ANY THE
  29:C:/Users/Yoshi/Documents/GitHub/Software/01_jrg/03_VCUJR20/2021_06_17_VCU_jr20_Source/2021_06_17_VCU_jr20_Source/Libraries/XMCLib/inc\xmc_wdt.h ****  * WHETHER IN CONTRACT, STRICT LIABILITY,OR TORT (INCLUDING NEGLIGENCE OR OTHERWISE) ARISING IN ANY
  30:C:/Users/Yoshi/Documents/GitHub/Software/01_jrg/03_VCUJR20/2021_06_17_VCU_jr20_Source/2021_06_17_VCU_jr20_Source/Libraries/XMCLib/inc\xmc_wdt.h ****  * OF THIS SOFTWARE, EVEN IF ADVISED OF THE POSSIBILITY OF SUCH DAMAGE.                            
  31:C:/Users/Yoshi/Documents/GitHub/Software/01_jrg/03_VCUJR20/2021_06_17_VCU_jr20_Source/2021_06_17_VCU_jr20_Source/Libraries/XMCLib/inc\xmc_wdt.h ****  *                                                                              
  32:C:/Users/Yoshi/Documents/GitHub/Software/01_jrg/03_VCUJR20/2021_06_17_VCU_jr20_Source/2021_06_17_VCU_jr20_Source/Libraries/XMCLib/inc\xmc_wdt.h ****  * To improve the quality of the software, users are encouraged to share modifications, enhancement
  33:C:/Users/Yoshi/Documents/GitHub/Software/01_jrg/03_VCUJR20/2021_06_17_VCU_jr20_Source/2021_06_17_VCU_jr20_Source/Libraries/XMCLib/inc\xmc_wdt.h ****  * Infineon Technologies AG dave@infineon.com).                                                    
  34:C:/Users/Yoshi/Documents/GitHub/Software/01_jrg/03_VCUJR20/2021_06_17_VCU_jr20_Source/2021_06_17_VCU_jr20_Source/Libraries/XMCLib/inc\xmc_wdt.h ****  **************************************************************************************************
  35:C:/Users/Yoshi/Documents/GitHub/Software/01_jrg/03_VCUJR20/2021_06_17_VCU_jr20_Source/2021_06_17_VCU_jr20_Source/Libraries/XMCLib/inc\xmc_wdt.h ****  *
  36:C:/Users/Yoshi/Documents/GitHub/Software/01_jrg/03_VCUJR20/2021_06_17_VCU_jr20_Source/2021_06_17_VCU_jr20_Source/Libraries/XMCLib/inc\xmc_wdt.h ****  * Change History
  37:C:/Users/Yoshi/Documents/GitHub/Software/01_jrg/03_VCUJR20/2021_06_17_VCU_jr20_Source/2021_06_17_VCU_jr20_Source/Libraries/XMCLib/inc\xmc_wdt.h ****  * --------------
  38:C:/Users/Yoshi/Documents/GitHub/Software/01_jrg/03_VCUJR20/2021_06_17_VCU_jr20_Source/2021_06_17_VCU_jr20_Source/Libraries/XMCLib/inc\xmc_wdt.h ****  *
  39:C:/Users/Yoshi/Documents/GitHub/Software/01_jrg/03_VCUJR20/2021_06_17_VCU_jr20_Source/2021_06_17_VCU_jr20_Source/Libraries/XMCLib/inc\xmc_wdt.h ****  * 2015-02-20:
  40:C:/Users/Yoshi/Documents/GitHub/Software/01_jrg/03_VCUJR20/2021_06_17_VCU_jr20_Source/2021_06_17_VCU_jr20_Source/Libraries/XMCLib/inc\xmc_wdt.h ****  *     - Initial <br>
  41:C:/Users/Yoshi/Documents/GitHub/Software/01_jrg/03_VCUJR20/2021_06_17_VCU_jr20_Source/2021_06_17_VCU_jr20_Source/Libraries/XMCLib/inc\xmc_wdt.h ****  *     - Documentation updates <br>
  42:C:/Users/Yoshi/Documents/GitHub/Software/01_jrg/03_VCUJR20/2021_06_17_VCU_jr20_Source/2021_06_17_VCU_jr20_Source/Libraries/XMCLib/inc\xmc_wdt.h ****  *
  43:C:/Users/Yoshi/Documents/GitHub/Software/01_jrg/03_VCUJR20/2021_06_17_VCU_jr20_Source/2021_06_17_VCU_jr20_Source/Libraries/XMCLib/inc\xmc_wdt.h ****  * 2015-06-20:
  44:C:/Users/Yoshi/Documents/GitHub/Software/01_jrg/03_VCUJR20/2021_06_17_VCU_jr20_Source/2021_06_17_VCU_jr20_Source/Libraries/XMCLib/inc\xmc_wdt.h ****  *     - Removed version macros and declaration of GetDriverVersion API <br>
  45:C:/Users/Yoshi/Documents/GitHub/Software/01_jrg/03_VCUJR20/2021_06_17_VCU_jr20_Source/2021_06_17_VCU_jr20_Source/Libraries/XMCLib/inc\xmc_wdt.h ****  *
  46:C:/Users/Yoshi/Documents/GitHub/Software/01_jrg/03_VCUJR20/2021_06_17_VCU_jr20_Source/2021_06_17_VCU_jr20_Source/Libraries/XMCLib/inc\xmc_wdt.h ****  * 2015-08-06:
  47:C:/Users/Yoshi/Documents/GitHub/Software/01_jrg/03_VCUJR20/2021_06_17_VCU_jr20_Source/2021_06_17_VCU_jr20_Source/Libraries/XMCLib/inc\xmc_wdt.h ****  *     - Bug fix in XMC_WDT_SetDebugMode() API, Wrong register is being configured.<br>
  48:C:/Users/Yoshi/Documents/GitHub/Software/01_jrg/03_VCUJR20/2021_06_17_VCU_jr20_Source/2021_06_17_VCU_jr20_Source/Libraries/XMCLib/inc\xmc_wdt.h ****  * @endcond
  49:C:/Users/Yoshi/Documents/GitHub/Software/01_jrg/03_VCUJR20/2021_06_17_VCU_jr20_Source/2021_06_17_VCU_jr20_Source/Libraries/XMCLib/inc\xmc_wdt.h ****  */
  50:C:/Users/Yoshi/Documents/GitHub/Software/01_jrg/03_VCUJR20/2021_06_17_VCU_jr20_Source/2021_06_17_VCU_jr20_Source/Libraries/XMCLib/inc\xmc_wdt.h **** 
  51:C:/Users/Yoshi/Documents/GitHub/Software/01_jrg/03_VCUJR20/2021_06_17_VCU_jr20_Source/2021_06_17_VCU_jr20_Source/Libraries/XMCLib/inc\xmc_wdt.h **** #ifndef XMC_WDT_H
  52:C:/Users/Yoshi/Documents/GitHub/Software/01_jrg/03_VCUJR20/2021_06_17_VCU_jr20_Source/2021_06_17_VCU_jr20_Source/Libraries/XMCLib/inc\xmc_wdt.h **** #define XMC_WDT_H
  53:C:/Users/Yoshi/Documents/GitHub/Software/01_jrg/03_VCUJR20/2021_06_17_VCU_jr20_Source/2021_06_17_VCU_jr20_Source/Libraries/XMCLib/inc\xmc_wdt.h **** 
  54:C:/Users/Yoshi/Documents/GitHub/Software/01_jrg/03_VCUJR20/2021_06_17_VCU_jr20_Source/2021_06_17_VCU_jr20_Source/Libraries/XMCLib/inc\xmc_wdt.h **** /**************************************************************************************************
  55:C:/Users/Yoshi/Documents/GitHub/Software/01_jrg/03_VCUJR20/2021_06_17_VCU_jr20_Source/2021_06_17_VCU_jr20_Source/Libraries/XMCLib/inc\xmc_wdt.h ****  * HEADER FILES
  56:C:/Users/Yoshi/Documents/GitHub/Software/01_jrg/03_VCUJR20/2021_06_17_VCU_jr20_Source/2021_06_17_VCU_jr20_Source/Libraries/XMCLib/inc\xmc_wdt.h ****  **************************************************************************************************
  57:C:/Users/Yoshi/Documents/GitHub/Software/01_jrg/03_VCUJR20/2021_06_17_VCU_jr20_Source/2021_06_17_VCU_jr20_Source/Libraries/XMCLib/inc\xmc_wdt.h **** 
  58:C:/Users/Yoshi/Documents/GitHub/Software/01_jrg/03_VCUJR20/2021_06_17_VCU_jr20_Source/2021_06_17_VCU_jr20_Source/Libraries/XMCLib/inc\xmc_wdt.h **** #include "xmc_common.h"
  59:C:/Users/Yoshi/Documents/GitHub/Software/01_jrg/03_VCUJR20/2021_06_17_VCU_jr20_Source/2021_06_17_VCU_jr20_Source/Libraries/XMCLib/inc\xmc_wdt.h **** #include "xmc_scu.h"
  60:C:/Users/Yoshi/Documents/GitHub/Software/01_jrg/03_VCUJR20/2021_06_17_VCU_jr20_Source/2021_06_17_VCU_jr20_Source/Libraries/XMCLib/inc\xmc_wdt.h **** /**
  61:C:/Users/Yoshi/Documents/GitHub/Software/01_jrg/03_VCUJR20/2021_06_17_VCU_jr20_Source/2021_06_17_VCU_jr20_Source/Libraries/XMCLib/inc\xmc_wdt.h ****  * @addtogroup XMClib XMC Peripheral Library
  62:C:/Users/Yoshi/Documents/GitHub/Software/01_jrg/03_VCUJR20/2021_06_17_VCU_jr20_Source/2021_06_17_VCU_jr20_Source/Libraries/XMCLib/inc\xmc_wdt.h ****  * @{
  63:C:/Users/Yoshi/Documents/GitHub/Software/01_jrg/03_VCUJR20/2021_06_17_VCU_jr20_Source/2021_06_17_VCU_jr20_Source/Libraries/XMCLib/inc\xmc_wdt.h ****  */
  64:C:/Users/Yoshi/Documents/GitHub/Software/01_jrg/03_VCUJR20/2021_06_17_VCU_jr20_Source/2021_06_17_VCU_jr20_Source/Libraries/XMCLib/inc\xmc_wdt.h **** 
  65:C:/Users/Yoshi/Documents/GitHub/Software/01_jrg/03_VCUJR20/2021_06_17_VCU_jr20_Source/2021_06_17_VCU_jr20_Source/Libraries/XMCLib/inc\xmc_wdt.h **** /**
  66:C:/Users/Yoshi/Documents/GitHub/Software/01_jrg/03_VCUJR20/2021_06_17_VCU_jr20_Source/2021_06_17_VCU_jr20_Source/Libraries/XMCLib/inc\xmc_wdt.h ****  * @addtogroup WDT
  67:C:/Users/Yoshi/Documents/GitHub/Software/01_jrg/03_VCUJR20/2021_06_17_VCU_jr20_Source/2021_06_17_VCU_jr20_Source/Libraries/XMCLib/inc\xmc_wdt.h ****  * @brief Watchdog driver for the XMC microcontroller family.
  68:C:/Users/Yoshi/Documents/GitHub/Software/01_jrg/03_VCUJR20/2021_06_17_VCU_jr20_Source/2021_06_17_VCU_jr20_Source/Libraries/XMCLib/inc\xmc_wdt.h ****  *
  69:C:/Users/Yoshi/Documents/GitHub/Software/01_jrg/03_VCUJR20/2021_06_17_VCU_jr20_Source/2021_06_17_VCU_jr20_Source/Libraries/XMCLib/inc\xmc_wdt.h ****  * The watchdog unit (WDT) improves the system integrity, by triggering the system reset request to
  70:C:/Users/Yoshi/Documents/GitHub/Software/01_jrg/03_VCUJR20/2021_06_17_VCU_jr20_Source/2021_06_17_VCU_jr20_Source/Libraries/XMCLib/inc\xmc_wdt.h ****  * back from the unresponsive state to normal operation.
  71:C:/Users/Yoshi/Documents/GitHub/Software/01_jrg/03_VCUJR20/2021_06_17_VCU_jr20_Source/2021_06_17_VCU_jr20_Source/Libraries/XMCLib/inc\xmc_wdt.h ****  * 
  72:C:/Users/Yoshi/Documents/GitHub/Software/01_jrg/03_VCUJR20/2021_06_17_VCU_jr20_Source/2021_06_17_VCU_jr20_Source/Libraries/XMCLib/inc\xmc_wdt.h ****  * This LLD provides the Configuration structure XMC_WDT_CONFIG_t and initialization function XMC_W
  73:C:/Users/Yoshi/Documents/GitHub/Software/01_jrg/03_VCUJR20/2021_06_17_VCU_jr20_Source/2021_06_17_VCU_jr20_Source/Libraries/XMCLib/inc\xmc_wdt.h ****  * It can be used to:
  74:C:/Users/Yoshi/Documents/GitHub/Software/01_jrg/03_VCUJR20/2021_06_17_VCU_jr20_Source/2021_06_17_VCU_jr20_Source/Libraries/XMCLib/inc\xmc_wdt.h ****  * -# Start or Stop the watchdog timer. (XMC_WDT_Start() and XMC_WDT_Stop())
  75:C:/Users/Yoshi/Documents/GitHub/Software/01_jrg/03_VCUJR20/2021_06_17_VCU_jr20_Source/2021_06_17_VCU_jr20_Source/Libraries/XMCLib/inc\xmc_wdt.h ****  * -# Service the watchdog timer. (XMC_WDT_Service())
  76:C:/Users/Yoshi/Documents/GitHub/Software/01_jrg/03_VCUJR20/2021_06_17_VCU_jr20_Source/2021_06_17_VCU_jr20_Source/Libraries/XMCLib/inc\xmc_wdt.h ****  * -# Configure the service window upper bound and lower bound timing values. (XMC_WDT_SetWindowBou
  77:C:/Users/Yoshi/Documents/GitHub/Software/01_jrg/03_VCUJR20/2021_06_17_VCU_jr20_Source/2021_06_17_VCU_jr20_Source/Libraries/XMCLib/inc\xmc_wdt.h ****  * -# Enable the generation of the pre-warning event for the first overflow of the timer. (XMC_WDT_
  78:C:/Users/Yoshi/Documents/GitHub/Software/01_jrg/03_VCUJR20/2021_06_17_VCU_jr20_Source/2021_06_17_VCU_jr20_Source/Libraries/XMCLib/inc\xmc_wdt.h ****  * -# Clear the pre-warning alarm event. It is mandatory to clear the flag during pre-warning alarm
  79:C:/Users/Yoshi/Documents/GitHub/Software/01_jrg/03_VCUJR20/2021_06_17_VCU_jr20_Source/2021_06_17_VCU_jr20_Source/Libraries/XMCLib/inc\xmc_wdt.h ****       generating reset request for the second overflow of the timer. (XMC_WDT_ClearAlarm())
  80:C:/Users/Yoshi/Documents/GitHub/Software/01_jrg/03_VCUJR20/2021_06_17_VCU_jr20_Source/2021_06_17_VCU_jr20_Source/Libraries/XMCLib/inc\xmc_wdt.h ****  * -# Suspend the watchdog timer during Debug HALT mode. (XMC_WDT_SetDebugMode())
  81:C:/Users/Yoshi/Documents/GitHub/Software/01_jrg/03_VCUJR20/2021_06_17_VCU_jr20_Source/2021_06_17_VCU_jr20_Source/Libraries/XMCLib/inc\xmc_wdt.h ****  * -# Configure service indication pulse width.(XMC_WDT_SetServicePulseWidth())
  82:C:/Users/Yoshi/Documents/GitHub/Software/01_jrg/03_VCUJR20/2021_06_17_VCU_jr20_Source/2021_06_17_VCU_jr20_Source/Libraries/XMCLib/inc\xmc_wdt.h ****  * 
  83:C:/Users/Yoshi/Documents/GitHub/Software/01_jrg/03_VCUJR20/2021_06_17_VCU_jr20_Source/2021_06_17_VCU_jr20_Source/Libraries/XMCLib/inc\xmc_wdt.h ****  * @{
  84:C:/Users/Yoshi/Documents/GitHub/Software/01_jrg/03_VCUJR20/2021_06_17_VCU_jr20_Source/2021_06_17_VCU_jr20_Source/Libraries/XMCLib/inc\xmc_wdt.h ****  */
  85:C:/Users/Yoshi/Documents/GitHub/Software/01_jrg/03_VCUJR20/2021_06_17_VCU_jr20_Source/2021_06_17_VCU_jr20_Source/Libraries/XMCLib/inc\xmc_wdt.h **** 
  86:C:/Users/Yoshi/Documents/GitHub/Software/01_jrg/03_VCUJR20/2021_06_17_VCU_jr20_Source/2021_06_17_VCU_jr20_Source/Libraries/XMCLib/inc\xmc_wdt.h **** /**************************************************************************************************
  87:C:/Users/Yoshi/Documents/GitHub/Software/01_jrg/03_VCUJR20/2021_06_17_VCU_jr20_Source/2021_06_17_VCU_jr20_Source/Libraries/XMCLib/inc\xmc_wdt.h ****  * MACROS
  88:C:/Users/Yoshi/Documents/GitHub/Software/01_jrg/03_VCUJR20/2021_06_17_VCU_jr20_Source/2021_06_17_VCU_jr20_Source/Libraries/XMCLib/inc\xmc_wdt.h ****   *************************************************************************************************
  89:C:/Users/Yoshi/Documents/GitHub/Software/01_jrg/03_VCUJR20/2021_06_17_VCU_jr20_Source/2021_06_17_VCU_jr20_Source/Libraries/XMCLib/inc\xmc_wdt.h **** 
  90:C:/Users/Yoshi/Documents/GitHub/Software/01_jrg/03_VCUJR20/2021_06_17_VCU_jr20_Source/2021_06_17_VCU_jr20_Source/Libraries/XMCLib/inc\xmc_wdt.h **** #define XMC_WDT_MAGIC_WORD             (0xABADCAFEU) /* Magic word to be written in Service Registe
  91:C:/Users/Yoshi/Documents/GitHub/Software/01_jrg/03_VCUJR20/2021_06_17_VCU_jr20_Source/2021_06_17_VCU_jr20_Source/Libraries/XMCLib/inc\xmc_wdt.h ****                                                           to service or feed the watchdog. */
  92:C:/Users/Yoshi/Documents/GitHub/Software/01_jrg/03_VCUJR20/2021_06_17_VCU_jr20_Source/2021_06_17_VCU_jr20_Source/Libraries/XMCLib/inc\xmc_wdt.h **** 
  93:C:/Users/Yoshi/Documents/GitHub/Software/01_jrg/03_VCUJR20/2021_06_17_VCU_jr20_Source/2021_06_17_VCU_jr20_Source/Libraries/XMCLib/inc\xmc_wdt.h **** /**************************************************************************************************
  94:C:/Users/Yoshi/Documents/GitHub/Software/01_jrg/03_VCUJR20/2021_06_17_VCU_jr20_Source/2021_06_17_VCU_jr20_Source/Libraries/XMCLib/inc\xmc_wdt.h ****  * ENUMS
  95:C:/Users/Yoshi/Documents/GitHub/Software/01_jrg/03_VCUJR20/2021_06_17_VCU_jr20_Source/2021_06_17_VCU_jr20_Source/Libraries/XMCLib/inc\xmc_wdt.h ****   *************************************************************************************************
  96:C:/Users/Yoshi/Documents/GitHub/Software/01_jrg/03_VCUJR20/2021_06_17_VCU_jr20_Source/2021_06_17_VCU_jr20_Source/Libraries/XMCLib/inc\xmc_wdt.h **** 
  97:C:/Users/Yoshi/Documents/GitHub/Software/01_jrg/03_VCUJR20/2021_06_17_VCU_jr20_Source/2021_06_17_VCU_jr20_Source/Libraries/XMCLib/inc\xmc_wdt.h **** /**
  98:C:/Users/Yoshi/Documents/GitHub/Software/01_jrg/03_VCUJR20/2021_06_17_VCU_jr20_Source/2021_06_17_VCU_jr20_Source/Libraries/XMCLib/inc\xmc_wdt.h ****  *  Defines working modes for watchdog. Use type XMC_WDT_MODE_t for this enum.
  99:C:/Users/Yoshi/Documents/GitHub/Software/01_jrg/03_VCUJR20/2021_06_17_VCU_jr20_Source/2021_06_17_VCU_jr20_Source/Libraries/XMCLib/inc\xmc_wdt.h ****  */
 100:C:/Users/Yoshi/Documents/GitHub/Software/01_jrg/03_VCUJR20/2021_06_17_VCU_jr20_Source/2021_06_17_VCU_jr20_Source/Libraries/XMCLib/inc\xmc_wdt.h **** typedef enum XMC_WDT_MODE 
 101:C:/Users/Yoshi/Documents/GitHub/Software/01_jrg/03_VCUJR20/2021_06_17_VCU_jr20_Source/2021_06_17_VCU_jr20_Source/Libraries/XMCLib/inc\xmc_wdt.h **** {
 102:C:/Users/Yoshi/Documents/GitHub/Software/01_jrg/03_VCUJR20/2021_06_17_VCU_jr20_Source/2021_06_17_VCU_jr20_Source/Libraries/XMCLib/inc\xmc_wdt.h ****   XMC_WDT_MODE_TIMEOUT    = (uint32_t)0x0 << WDT_CTR_PRE_Pos, /**< Generates reset request as soon 
 103:C:/Users/Yoshi/Documents/GitHub/Software/01_jrg/03_VCUJR20/2021_06_17_VCU_jr20_Source/2021_06_17_VCU_jr20_Source/Libraries/XMCLib/inc\xmc_wdt.h ****                                                                    occurs. */
 104:C:/Users/Yoshi/Documents/GitHub/Software/01_jrg/03_VCUJR20/2021_06_17_VCU_jr20_Source/2021_06_17_VCU_jr20_Source/Libraries/XMCLib/inc\xmc_wdt.h ****   XMC_WDT_MODE_PREWARNING = (uint32_t)0x1 << WDT_CTR_PRE_Pos  /**< Generates an alarm event for the
 105:C:/Users/Yoshi/Documents/GitHub/Software/01_jrg/03_VCUJR20/2021_06_17_VCU_jr20_Source/2021_06_17_VCU_jr20_Source/Libraries/XMCLib/inc\xmc_wdt.h ****                                                                    reset request after subsequent o
 106:C:/Users/Yoshi/Documents/GitHub/Software/01_jrg/03_VCUJR20/2021_06_17_VCU_jr20_Source/2021_06_17_VCU_jr20_Source/Libraries/XMCLib/inc\xmc_wdt.h ****                                                                    serviced after first overflow. *
 107:C:/Users/Yoshi/Documents/GitHub/Software/01_jrg/03_VCUJR20/2021_06_17_VCU_jr20_Source/2021_06_17_VCU_jr20_Source/Libraries/XMCLib/inc\xmc_wdt.h **** } XMC_WDT_MODE_t;
 108:C:/Users/Yoshi/Documents/GitHub/Software/01_jrg/03_VCUJR20/2021_06_17_VCU_jr20_Source/2021_06_17_VCU_jr20_Source/Libraries/XMCLib/inc\xmc_wdt.h **** 
 109:C:/Users/Yoshi/Documents/GitHub/Software/01_jrg/03_VCUJR20/2021_06_17_VCU_jr20_Source/2021_06_17_VCU_jr20_Source/Libraries/XMCLib/inc\xmc_wdt.h **** /**
 110:C:/Users/Yoshi/Documents/GitHub/Software/01_jrg/03_VCUJR20/2021_06_17_VCU_jr20_Source/2021_06_17_VCU_jr20_Source/Libraries/XMCLib/inc\xmc_wdt.h ****  *  Defines debug behaviour of watchdog when the CPU enters HALT mode. Use type XMC_WDT_DEBUG_MODE_
 111:C:/Users/Yoshi/Documents/GitHub/Software/01_jrg/03_VCUJR20/2021_06_17_VCU_jr20_Source/2021_06_17_VCU_jr20_Source/Libraries/XMCLib/inc\xmc_wdt.h ****  */
 112:C:/Users/Yoshi/Documents/GitHub/Software/01_jrg/03_VCUJR20/2021_06_17_VCU_jr20_Source/2021_06_17_VCU_jr20_Source/Libraries/XMCLib/inc\xmc_wdt.h **** typedef enum XMC_WDT_DEBUG_MODE 
 113:C:/Users/Yoshi/Documents/GitHub/Software/01_jrg/03_VCUJR20/2021_06_17_VCU_jr20_Source/2021_06_17_VCU_jr20_Source/Libraries/XMCLib/inc\xmc_wdt.h **** {
 114:C:/Users/Yoshi/Documents/GitHub/Software/01_jrg/03_VCUJR20/2021_06_17_VCU_jr20_Source/2021_06_17_VCU_jr20_Source/Libraries/XMCLib/inc\xmc_wdt.h ****   XMC_WDT_DEBUG_MODE_STOP = (uint32_t)0x0 << WDT_CTR_DSP_Pos, /**< Watchdog counter is paused durin
 115:C:/Users/Yoshi/Documents/GitHub/Software/01_jrg/03_VCUJR20/2021_06_17_VCU_jr20_Source/2021_06_17_VCU_jr20_Source/Libraries/XMCLib/inc\xmc_wdt.h ****   XMC_WDT_DEBUG_MODE_RUN  = (uint32_t)0x1 << WDT_CTR_DSP_Pos  /**< Watchdog counter is not paused d
 116:C:/Users/Yoshi/Documents/GitHub/Software/01_jrg/03_VCUJR20/2021_06_17_VCU_jr20_Source/2021_06_17_VCU_jr20_Source/Libraries/XMCLib/inc\xmc_wdt.h **** } XMC_WDT_DEBUG_MODE_t;
 117:C:/Users/Yoshi/Documents/GitHub/Software/01_jrg/03_VCUJR20/2021_06_17_VCU_jr20_Source/2021_06_17_VCU_jr20_Source/Libraries/XMCLib/inc\xmc_wdt.h **** 
 118:C:/Users/Yoshi/Documents/GitHub/Software/01_jrg/03_VCUJR20/2021_06_17_VCU_jr20_Source/2021_06_17_VCU_jr20_Source/Libraries/XMCLib/inc\xmc_wdt.h **** /**************************************************************************************************
 119:C:/Users/Yoshi/Documents/GitHub/Software/01_jrg/03_VCUJR20/2021_06_17_VCU_jr20_Source/2021_06_17_VCU_jr20_Source/Libraries/XMCLib/inc\xmc_wdt.h ****  * DATA STRUCTURES
 120:C:/Users/Yoshi/Documents/GitHub/Software/01_jrg/03_VCUJR20/2021_06_17_VCU_jr20_Source/2021_06_17_VCU_jr20_Source/Libraries/XMCLib/inc\xmc_wdt.h ****   *************************************************************************************************
 121:C:/Users/Yoshi/Documents/GitHub/Software/01_jrg/03_VCUJR20/2021_06_17_VCU_jr20_Source/2021_06_17_VCU_jr20_Source/Libraries/XMCLib/inc\xmc_wdt.h ****  /* Anonymous structure/union guard start */
 122:C:/Users/Yoshi/Documents/GitHub/Software/01_jrg/03_VCUJR20/2021_06_17_VCU_jr20_Source/2021_06_17_VCU_jr20_Source/Libraries/XMCLib/inc\xmc_wdt.h **** #if defined(__CC_ARM)
 123:C:/Users/Yoshi/Documents/GitHub/Software/01_jrg/03_VCUJR20/2021_06_17_VCU_jr20_Source/2021_06_17_VCU_jr20_Source/Libraries/XMCLib/inc\xmc_wdt.h ****   #pragma push
 124:C:/Users/Yoshi/Documents/GitHub/Software/01_jrg/03_VCUJR20/2021_06_17_VCU_jr20_Source/2021_06_17_VCU_jr20_Source/Libraries/XMCLib/inc\xmc_wdt.h ****   #pragma anon_unions
 125:C:/Users/Yoshi/Documents/GitHub/Software/01_jrg/03_VCUJR20/2021_06_17_VCU_jr20_Source/2021_06_17_VCU_jr20_Source/Libraries/XMCLib/inc\xmc_wdt.h **** #elif defined(__TASKING__)
 126:C:/Users/Yoshi/Documents/GitHub/Software/01_jrg/03_VCUJR20/2021_06_17_VCU_jr20_Source/2021_06_17_VCU_jr20_Source/Libraries/XMCLib/inc\xmc_wdt.h ****   #pragma warning 586
 127:C:/Users/Yoshi/Documents/GitHub/Software/01_jrg/03_VCUJR20/2021_06_17_VCU_jr20_Source/2021_06_17_VCU_jr20_Source/Libraries/XMCLib/inc\xmc_wdt.h **** #endif
 128:C:/Users/Yoshi/Documents/GitHub/Software/01_jrg/03_VCUJR20/2021_06_17_VCU_jr20_Source/2021_06_17_VCU_jr20_Source/Libraries/XMCLib/inc\xmc_wdt.h ****  
 129:C:/Users/Yoshi/Documents/GitHub/Software/01_jrg/03_VCUJR20/2021_06_17_VCU_jr20_Source/2021_06_17_VCU_jr20_Source/Libraries/XMCLib/inc\xmc_wdt.h **** /**
 130:C:/Users/Yoshi/Documents/GitHub/Software/01_jrg/03_VCUJR20/2021_06_17_VCU_jr20_Source/2021_06_17_VCU_jr20_Source/Libraries/XMCLib/inc\xmc_wdt.h ****  * Structure for initializing watchdog timer. Use type XMC_WDT_CONFIG_t for this structure.
 131:C:/Users/Yoshi/Documents/GitHub/Software/01_jrg/03_VCUJR20/2021_06_17_VCU_jr20_Source/2021_06_17_VCU_jr20_Source/Libraries/XMCLib/inc\xmc_wdt.h ****  */
 132:C:/Users/Yoshi/Documents/GitHub/Software/01_jrg/03_VCUJR20/2021_06_17_VCU_jr20_Source/2021_06_17_VCU_jr20_Source/Libraries/XMCLib/inc\xmc_wdt.h **** typedef struct XMC_WDT_CONFIG
 133:C:/Users/Yoshi/Documents/GitHub/Software/01_jrg/03_VCUJR20/2021_06_17_VCU_jr20_Source/2021_06_17_VCU_jr20_Source/Libraries/XMCLib/inc\xmc_wdt.h **** {
 134:C:/Users/Yoshi/Documents/GitHub/Software/01_jrg/03_VCUJR20/2021_06_17_VCU_jr20_Source/2021_06_17_VCU_jr20_Source/Libraries/XMCLib/inc\xmc_wdt.h ****   uint32_t window_upper_bound; /**< Upper bound for service window (WUB). Reset request is generate
 135:C:/Users/Yoshi/Documents/GitHub/Software/01_jrg/03_VCUJR20/2021_06_17_VCU_jr20_Source/2021_06_17_VCU_jr20_Source/Libraries/XMCLib/inc\xmc_wdt.h ****                                     timer. ALways upper bound value has to be more than lower bound
 136:C:/Users/Yoshi/Documents/GitHub/Software/01_jrg/03_VCUJR20/2021_06_17_VCU_jr20_Source/2021_06_17_VCU_jr20_Source/Libraries/XMCLib/inc\xmc_wdt.h ****                                     lower than WLB, triggers a system reset after timer crossed upp
 137:C:/Users/Yoshi/Documents/GitHub/Software/01_jrg/03_VCUJR20/2021_06_17_VCU_jr20_Source/2021_06_17_VCU_jr20_Source/Libraries/XMCLib/inc\xmc_wdt.h ****                                     Range: [0H to FFFFFFFFH] */
 138:C:/Users/Yoshi/Documents/GitHub/Software/01_jrg/03_VCUJR20/2021_06_17_VCU_jr20_Source/2021_06_17_VCU_jr20_Source/Libraries/XMCLib/inc\xmc_wdt.h ****   uint32_t window_lower_bound; /**< Lower bound for servicing window (WLB). Setting the lower bound
 139:C:/Users/Yoshi/Documents/GitHub/Software/01_jrg/03_VCUJR20/2021_06_17_VCU_jr20_Source/2021_06_17_VCU_jr20_Source/Libraries/XMCLib/inc\xmc_wdt.h ****                                     window mechanism.\n 
 140:C:/Users/Yoshi/Documents/GitHub/Software/01_jrg/03_VCUJR20/2021_06_17_VCU_jr20_Source/2021_06_17_VCU_jr20_Source/Libraries/XMCLib/inc\xmc_wdt.h ****                                     Range: [0H to FFFFFFFFH] */
 141:C:/Users/Yoshi/Documents/GitHub/Software/01_jrg/03_VCUJR20/2021_06_17_VCU_jr20_Source/2021_06_17_VCU_jr20_Source/Libraries/XMCLib/inc\xmc_wdt.h ****   union
 142:C:/Users/Yoshi/Documents/GitHub/Software/01_jrg/03_VCUJR20/2021_06_17_VCU_jr20_Source/2021_06_17_VCU_jr20_Source/Libraries/XMCLib/inc\xmc_wdt.h ****   {
 143:C:/Users/Yoshi/Documents/GitHub/Software/01_jrg/03_VCUJR20/2021_06_17_VCU_jr20_Source/2021_06_17_VCU_jr20_Source/Libraries/XMCLib/inc\xmc_wdt.h ****     struct
 144:C:/Users/Yoshi/Documents/GitHub/Software/01_jrg/03_VCUJR20/2021_06_17_VCU_jr20_Source/2021_06_17_VCU_jr20_Source/Libraries/XMCLib/inc\xmc_wdt.h ****     {
 145:C:/Users/Yoshi/Documents/GitHub/Software/01_jrg/03_VCUJR20/2021_06_17_VCU_jr20_Source/2021_06_17_VCU_jr20_Source/Libraries/XMCLib/inc\xmc_wdt.h ****       uint32_t : 1;
 146:C:/Users/Yoshi/Documents/GitHub/Software/01_jrg/03_VCUJR20/2021_06_17_VCU_jr20_Source/2021_06_17_VCU_jr20_Source/Libraries/XMCLib/inc\xmc_wdt.h ****       uint32_t prewarn_mode : 1;        /**< Pre-warning mode (PRE). This accepts boolean values as
 147:C:/Users/Yoshi/Documents/GitHub/Software/01_jrg/03_VCUJR20/2021_06_17_VCU_jr20_Source/2021_06_17_VCU_jr20_Source/Libraries/XMCLib/inc\xmc_wdt.h ****       uint32_t : 2;
 148:C:/Users/Yoshi/Documents/GitHub/Software/01_jrg/03_VCUJR20/2021_06_17_VCU_jr20_Source/2021_06_17_VCU_jr20_Source/Libraries/XMCLib/inc\xmc_wdt.h ****       uint32_t run_in_debug_mode : 1;   /**< Watchdog timer behaviour during debug (DSP). This acce
 149:C:/Users/Yoshi/Documents/GitHub/Software/01_jrg/03_VCUJR20/2021_06_17_VCU_jr20_Source/2021_06_17_VCU_jr20_Source/Libraries/XMCLib/inc\xmc_wdt.h ****       uint32_t : 3;
 150:C:/Users/Yoshi/Documents/GitHub/Software/01_jrg/03_VCUJR20/2021_06_17_VCU_jr20_Source/2021_06_17_VCU_jr20_Source/Libraries/XMCLib/inc\xmc_wdt.h ****       uint32_t service_pulse_width : 8; /**< Service Indication Pulse Width (SPW). Generated Pulse 
 151:C:/Users/Yoshi/Documents/GitHub/Software/01_jrg/03_VCUJR20/2021_06_17_VCU_jr20_Source/2021_06_17_VCU_jr20_Source/Libraries/XMCLib/inc\xmc_wdt.h ****                                              in fwdt cycles.\n
 152:C:/Users/Yoshi/Documents/GitHub/Software/01_jrg/03_VCUJR20/2021_06_17_VCU_jr20_Source/2021_06_17_VCU_jr20_Source/Libraries/XMCLib/inc\xmc_wdt.h ****                                              Range: [0H to FFH] */
 153:C:/Users/Yoshi/Documents/GitHub/Software/01_jrg/03_VCUJR20/2021_06_17_VCU_jr20_Source/2021_06_17_VCU_jr20_Source/Libraries/XMCLib/inc\xmc_wdt.h ****       uint32_t : 16;
 154:C:/Users/Yoshi/Documents/GitHub/Software/01_jrg/03_VCUJR20/2021_06_17_VCU_jr20_Source/2021_06_17_VCU_jr20_Source/Libraries/XMCLib/inc\xmc_wdt.h ****     };
 155:C:/Users/Yoshi/Documents/GitHub/Software/01_jrg/03_VCUJR20/2021_06_17_VCU_jr20_Source/2021_06_17_VCU_jr20_Source/Libraries/XMCLib/inc\xmc_wdt.h ****     uint32_t wdt_ctr; /* Value of operation mode control register (CTR). Its bit fields are repr
 156:C:/Users/Yoshi/Documents/GitHub/Software/01_jrg/03_VCUJR20/2021_06_17_VCU_jr20_Source/2021_06_17_VCU_jr20_Source/Libraries/XMCLib/inc\xmc_wdt.h ****                            union members. */
 157:C:/Users/Yoshi/Documents/GitHub/Software/01_jrg/03_VCUJR20/2021_06_17_VCU_jr20_Source/2021_06_17_VCU_jr20_Source/Libraries/XMCLib/inc\xmc_wdt.h ****   };
 158:C:/Users/Yoshi/Documents/GitHub/Software/01_jrg/03_VCUJR20/2021_06_17_VCU_jr20_Source/2021_06_17_VCU_jr20_Source/Libraries/XMCLib/inc\xmc_wdt.h **** } XMC_WDT_CONFIG_t;
 159:C:/Users/Yoshi/Documents/GitHub/Software/01_jrg/03_VCUJR20/2021_06_17_VCU_jr20_Source/2021_06_17_VCU_jr20_Source/Libraries/XMCLib/inc\xmc_wdt.h **** /* Anonymous structure/union guard end */
 160:C:/Users/Yoshi/Documents/GitHub/Software/01_jrg/03_VCUJR20/2021_06_17_VCU_jr20_Source/2021_06_17_VCU_jr20_Source/Libraries/XMCLib/inc\xmc_wdt.h **** #if defined(__CC_ARM)
 161:C:/Users/Yoshi/Documents/GitHub/Software/01_jrg/03_VCUJR20/2021_06_17_VCU_jr20_Source/2021_06_17_VCU_jr20_Source/Libraries/XMCLib/inc\xmc_wdt.h ****   #pragma pop
 162:C:/Users/Yoshi/Documents/GitHub/Software/01_jrg/03_VCUJR20/2021_06_17_VCU_jr20_Source/2021_06_17_VCU_jr20_Source/Libraries/XMCLib/inc\xmc_wdt.h **** #elif defined(__TASKING__)
 163:C:/Users/Yoshi/Documents/GitHub/Software/01_jrg/03_VCUJR20/2021_06_17_VCU_jr20_Source/2021_06_17_VCU_jr20_Source/Libraries/XMCLib/inc\xmc_wdt.h ****   #pragma warning restore
 164:C:/Users/Yoshi/Documents/GitHub/Software/01_jrg/03_VCUJR20/2021_06_17_VCU_jr20_Source/2021_06_17_VCU_jr20_Source/Libraries/XMCLib/inc\xmc_wdt.h **** #endif
 165:C:/Users/Yoshi/Documents/GitHub/Software/01_jrg/03_VCUJR20/2021_06_17_VCU_jr20_Source/2021_06_17_VCU_jr20_Source/Libraries/XMCLib/inc\xmc_wdt.h **** /**************************************************************************************************
 166:C:/Users/Yoshi/Documents/GitHub/Software/01_jrg/03_VCUJR20/2021_06_17_VCU_jr20_Source/2021_06_17_VCU_jr20_Source/Libraries/XMCLib/inc\xmc_wdt.h ****  * API PROTOTYPES
 167:C:/Users/Yoshi/Documents/GitHub/Software/01_jrg/03_VCUJR20/2021_06_17_VCU_jr20_Source/2021_06_17_VCU_jr20_Source/Libraries/XMCLib/inc\xmc_wdt.h ****   *************************************************************************************************
 168:C:/Users/Yoshi/Documents/GitHub/Software/01_jrg/03_VCUJR20/2021_06_17_VCU_jr20_Source/2021_06_17_VCU_jr20_Source/Libraries/XMCLib/inc\xmc_wdt.h **** 
 169:C:/Users/Yoshi/Documents/GitHub/Software/01_jrg/03_VCUJR20/2021_06_17_VCU_jr20_Source/2021_06_17_VCU_jr20_Source/Libraries/XMCLib/inc\xmc_wdt.h **** #ifdef __cplusplus
 170:C:/Users/Yoshi/Documents/GitHub/Software/01_jrg/03_VCUJR20/2021_06_17_VCU_jr20_Source/2021_06_17_VCU_jr20_Source/Libraries/XMCLib/inc\xmc_wdt.h **** extern "C" {
 171:C:/Users/Yoshi/Documents/GitHub/Software/01_jrg/03_VCUJR20/2021_06_17_VCU_jr20_Source/2021_06_17_VCU_jr20_Source/Libraries/XMCLib/inc\xmc_wdt.h **** #endif
 172:C:/Users/Yoshi/Documents/GitHub/Software/01_jrg/03_VCUJR20/2021_06_17_VCU_jr20_Source/2021_06_17_VCU_jr20_Source/Libraries/XMCLib/inc\xmc_wdt.h **** 
 173:C:/Users/Yoshi/Documents/GitHub/Software/01_jrg/03_VCUJR20/2021_06_17_VCU_jr20_Source/2021_06_17_VCU_jr20_Source/Libraries/XMCLib/inc\xmc_wdt.h **** /**
 174:C:/Users/Yoshi/Documents/GitHub/Software/01_jrg/03_VCUJR20/2021_06_17_VCU_jr20_Source/2021_06_17_VCU_jr20_Source/Libraries/XMCLib/inc\xmc_wdt.h ****  * @param None
 175:C:/Users/Yoshi/Documents/GitHub/Software/01_jrg/03_VCUJR20/2021_06_17_VCU_jr20_Source/2021_06_17_VCU_jr20_Source/Libraries/XMCLib/inc\xmc_wdt.h ****  *
 176:C:/Users/Yoshi/Documents/GitHub/Software/01_jrg/03_VCUJR20/2021_06_17_VCU_jr20_Source/2021_06_17_VCU_jr20_Source/Libraries/XMCLib/inc\xmc_wdt.h ****  * @return None
 177:C:/Users/Yoshi/Documents/GitHub/Software/01_jrg/03_VCUJR20/2021_06_17_VCU_jr20_Source/2021_06_17_VCU_jr20_Source/Libraries/XMCLib/inc\xmc_wdt.h ****  *
 178:C:/Users/Yoshi/Documents/GitHub/Software/01_jrg/03_VCUJR20/2021_06_17_VCU_jr20_Source/2021_06_17_VCU_jr20_Source/Libraries/XMCLib/inc\xmc_wdt.h ****  * \par<b>Description:</b><br>
 179:C:/Users/Yoshi/Documents/GitHub/Software/01_jrg/03_VCUJR20/2021_06_17_VCU_jr20_Source/2021_06_17_VCU_jr20_Source/Libraries/XMCLib/inc\xmc_wdt.h ****  * \if XMC4
 180:C:/Users/Yoshi/Documents/GitHub/Software/01_jrg/03_VCUJR20/2021_06_17_VCU_jr20_Source/2021_06_17_VCU_jr20_Source/Libraries/XMCLib/inc\xmc_wdt.h ****  * Enables watchdog clock and releases watchdog reset.\n
 181:C:/Users/Yoshi/Documents/GitHub/Software/01_jrg/03_VCUJR20/2021_06_17_VCU_jr20_Source/2021_06_17_VCU_jr20_Source/Libraries/XMCLib/inc\xmc_wdt.h ****  * \endif
 182:C:/Users/Yoshi/Documents/GitHub/Software/01_jrg/03_VCUJR20/2021_06_17_VCU_jr20_Source/2021_06_17_VCU_jr20_Source/Libraries/XMCLib/inc\xmc_wdt.h ****  * \if XMC1
 183:C:/Users/Yoshi/Documents/GitHub/Software/01_jrg/03_VCUJR20/2021_06_17_VCU_jr20_Source/2021_06_17_VCU_jr20_Source/Libraries/XMCLib/inc\xmc_wdt.h ****  * Enables watchdog clock.\n
 184:C:/Users/Yoshi/Documents/GitHub/Software/01_jrg/03_VCUJR20/2021_06_17_VCU_jr20_Source/2021_06_17_VCU_jr20_Source/Libraries/XMCLib/inc\xmc_wdt.h ****  * \endif
 185:C:/Users/Yoshi/Documents/GitHub/Software/01_jrg/03_VCUJR20/2021_06_17_VCU_jr20_Source/2021_06_17_VCU_jr20_Source/Libraries/XMCLib/inc\xmc_wdt.h ****  * \par
 186:C:/Users/Yoshi/Documents/GitHub/Software/01_jrg/03_VCUJR20/2021_06_17_VCU_jr20_Source/2021_06_17_VCU_jr20_Source/Libraries/XMCLib/inc\xmc_wdt.h ****  * This API is invoked by XMC_WDT_Init() and therefore no need to call it explicitly during watchdo
 187:C:/Users/Yoshi/Documents/GitHub/Software/01_jrg/03_VCUJR20/2021_06_17_VCU_jr20_Source/2021_06_17_VCU_jr20_Source/Libraries/XMCLib/inc\xmc_wdt.h ****  * sequence. Invoke this API to enable watchdog once again if the watchdog is disabled by invoking 
 188:C:/Users/Yoshi/Documents/GitHub/Software/01_jrg/03_VCUJR20/2021_06_17_VCU_jr20_Source/2021_06_17_VCU_jr20_Source/Libraries/XMCLib/inc\xmc_wdt.h ****  * 
 189:C:/Users/Yoshi/Documents/GitHub/Software/01_jrg/03_VCUJR20/2021_06_17_VCU_jr20_Source/2021_06_17_VCU_jr20_Source/Libraries/XMCLib/inc\xmc_wdt.h ****  * \par<b>Note:</b><br>
 190:C:/Users/Yoshi/Documents/GitHub/Software/01_jrg/03_VCUJR20/2021_06_17_VCU_jr20_Source/2021_06_17_VCU_jr20_Source/Libraries/XMCLib/inc\xmc_wdt.h ****  * \if XMC4
 191:C:/Users/Yoshi/Documents/GitHub/Software/01_jrg/03_VCUJR20/2021_06_17_VCU_jr20_Source/2021_06_17_VCU_jr20_Source/Libraries/XMCLib/inc\xmc_wdt.h ****  * 1. It is required to configure the watchdog, again after invoking XMC_WDT_Disable(). Since all t
 192:C:/Users/Yoshi/Documents/GitHub/Software/01_jrg/03_VCUJR20/2021_06_17_VCU_jr20_Source/2021_06_17_VCU_jr20_Source/Libraries/XMCLib/inc\xmc_wdt.h ****  *    reset with default values.
 193:C:/Users/Yoshi/Documents/GitHub/Software/01_jrg/03_VCUJR20/2021_06_17_VCU_jr20_Source/2021_06_17_VCU_jr20_Source/Libraries/XMCLib/inc\xmc_wdt.h ****  * \endif
 194:C:/Users/Yoshi/Documents/GitHub/Software/01_jrg/03_VCUJR20/2021_06_17_VCU_jr20_Source/2021_06_17_VCU_jr20_Source/Libraries/XMCLib/inc\xmc_wdt.h ****  * \if XMC1
 195:C:/Users/Yoshi/Documents/GitHub/Software/01_jrg/03_VCUJR20/2021_06_17_VCU_jr20_Source/2021_06_17_VCU_jr20_Source/Libraries/XMCLib/inc\xmc_wdt.h ****  * 1. Not required to configure the watchdog again after invoking XMC_WDT_Disable(). Since the regi
 196:C:/Users/Yoshi/Documents/GitHub/Software/01_jrg/03_VCUJR20/2021_06_17_VCU_jr20_Source/2021_06_17_VCU_jr20_Source/Libraries/XMCLib/inc\xmc_wdt.h ****  *    the configured values.
 197:C:/Users/Yoshi/Documents/GitHub/Software/01_jrg/03_VCUJR20/2021_06_17_VCU_jr20_Source/2021_06_17_VCU_jr20_Source/Libraries/XMCLib/inc\xmc_wdt.h ****  * \endif
 198:C:/Users/Yoshi/Documents/GitHub/Software/01_jrg/03_VCUJR20/2021_06_17_VCU_jr20_Source/2021_06_17_VCU_jr20_Source/Libraries/XMCLib/inc\xmc_wdt.h ****  * \par<b>Related APIs:</b><BR>
 199:C:/Users/Yoshi/Documents/GitHub/Software/01_jrg/03_VCUJR20/2021_06_17_VCU_jr20_Source/2021_06_17_VCU_jr20_Source/Libraries/XMCLib/inc\xmc_wdt.h ****  * XMC_WDT_Init(), XMC_WDT_Disable()
 200:C:/Users/Yoshi/Documents/GitHub/Software/01_jrg/03_VCUJR20/2021_06_17_VCU_jr20_Source/2021_06_17_VCU_jr20_Source/Libraries/XMCLib/inc\xmc_wdt.h ****  */
 201:C:/Users/Yoshi/Documents/GitHub/Software/01_jrg/03_VCUJR20/2021_06_17_VCU_jr20_Source/2021_06_17_VCU_jr20_Source/Libraries/XMCLib/inc\xmc_wdt.h **** void XMC_WDT_Enable(void);
 202:C:/Users/Yoshi/Documents/GitHub/Software/01_jrg/03_VCUJR20/2021_06_17_VCU_jr20_Source/2021_06_17_VCU_jr20_Source/Libraries/XMCLib/inc\xmc_wdt.h **** 
 203:C:/Users/Yoshi/Documents/GitHub/Software/01_jrg/03_VCUJR20/2021_06_17_VCU_jr20_Source/2021_06_17_VCU_jr20_Source/Libraries/XMCLib/inc\xmc_wdt.h **** /**
 204:C:/Users/Yoshi/Documents/GitHub/Software/01_jrg/03_VCUJR20/2021_06_17_VCU_jr20_Source/2021_06_17_VCU_jr20_Source/Libraries/XMCLib/inc\xmc_wdt.h ****  * @param None
 205:C:/Users/Yoshi/Documents/GitHub/Software/01_jrg/03_VCUJR20/2021_06_17_VCU_jr20_Source/2021_06_17_VCU_jr20_Source/Libraries/XMCLib/inc\xmc_wdt.h ****  *
 206:C:/Users/Yoshi/Documents/GitHub/Software/01_jrg/03_VCUJR20/2021_06_17_VCU_jr20_Source/2021_06_17_VCU_jr20_Source/Libraries/XMCLib/inc\xmc_wdt.h ****  * @return None
 207:C:/Users/Yoshi/Documents/GitHub/Software/01_jrg/03_VCUJR20/2021_06_17_VCU_jr20_Source/2021_06_17_VCU_jr20_Source/Libraries/XMCLib/inc\xmc_wdt.h ****  *
 208:C:/Users/Yoshi/Documents/GitHub/Software/01_jrg/03_VCUJR20/2021_06_17_VCU_jr20_Source/2021_06_17_VCU_jr20_Source/Libraries/XMCLib/inc\xmc_wdt.h ****  * \par<b>Description:</b><br>
 209:C:/Users/Yoshi/Documents/GitHub/Software/01_jrg/03_VCUJR20/2021_06_17_VCU_jr20_Source/2021_06_17_VCU_jr20_Source/Libraries/XMCLib/inc\xmc_wdt.h ****  * \if XMC4
 210:C:/Users/Yoshi/Documents/GitHub/Software/01_jrg/03_VCUJR20/2021_06_17_VCU_jr20_Source/2021_06_17_VCU_jr20_Source/Libraries/XMCLib/inc\xmc_wdt.h ****  * Disables the clock and resets watchdog timer.\n
 211:C:/Users/Yoshi/Documents/GitHub/Software/01_jrg/03_VCUJR20/2021_06_17_VCU_jr20_Source/2021_06_17_VCU_jr20_Source/Libraries/XMCLib/inc\xmc_wdt.h ****  * \endif
 212:C:/Users/Yoshi/Documents/GitHub/Software/01_jrg/03_VCUJR20/2021_06_17_VCU_jr20_Source/2021_06_17_VCU_jr20_Source/Libraries/XMCLib/inc\xmc_wdt.h ****  * \if XMC1
 213:C:/Users/Yoshi/Documents/GitHub/Software/01_jrg/03_VCUJR20/2021_06_17_VCU_jr20_Source/2021_06_17_VCU_jr20_Source/Libraries/XMCLib/inc\xmc_wdt.h ****  * Disables the clock to the watchdog timer.\n
 214:C:/Users/Yoshi/Documents/GitHub/Software/01_jrg/03_VCUJR20/2021_06_17_VCU_jr20_Source/2021_06_17_VCU_jr20_Source/Libraries/XMCLib/inc\xmc_wdt.h ****  * \endif
 215:C:/Users/Yoshi/Documents/GitHub/Software/01_jrg/03_VCUJR20/2021_06_17_VCU_jr20_Source/2021_06_17_VCU_jr20_Source/Libraries/XMCLib/inc\xmc_wdt.h ****  *
 216:C:/Users/Yoshi/Documents/GitHub/Software/01_jrg/03_VCUJR20/2021_06_17_VCU_jr20_Source/2021_06_17_VCU_jr20_Source/Libraries/XMCLib/inc\xmc_wdt.h ****  * \par<b>Note:</b><br>
 217:C:/Users/Yoshi/Documents/GitHub/Software/01_jrg/03_VCUJR20/2021_06_17_VCU_jr20_Source/2021_06_17_VCU_jr20_Source/Libraries/XMCLib/inc\xmc_wdt.h ****  * \if XMC4
 218:C:/Users/Yoshi/Documents/GitHub/Software/01_jrg/03_VCUJR20/2021_06_17_VCU_jr20_Source/2021_06_17_VCU_jr20_Source/Libraries/XMCLib/inc\xmc_wdt.h ****  * 1. Resets the registers with default values. So XMC_WDT_Init() has to be invoked again to config
 219:C:/Users/Yoshi/Documents/GitHub/Software/01_jrg/03_VCUJR20/2021_06_17_VCU_jr20_Source/2021_06_17_VCU_jr20_Source/Libraries/XMCLib/inc\xmc_wdt.h ****  * \endif
 220:C:/Users/Yoshi/Documents/GitHub/Software/01_jrg/03_VCUJR20/2021_06_17_VCU_jr20_Source/2021_06_17_VCU_jr20_Source/Libraries/XMCLib/inc\xmc_wdt.h ****  * \if XMC1
 221:C:/Users/Yoshi/Documents/GitHub/Software/01_jrg/03_VCUJR20/2021_06_17_VCU_jr20_Source/2021_06_17_VCU_jr20_Source/Libraries/XMCLib/inc\xmc_wdt.h ****  * 1. After invoking XMC_WDT_Disable(), all register values are displayed with 0F in debugger. Once
 222:C:/Users/Yoshi/Documents/GitHub/Software/01_jrg/03_VCUJR20/2021_06_17_VCU_jr20_Source/2021_06_17_VCU_jr20_Source/Libraries/XMCLib/inc\xmc_wdt.h ****       calling XMC_WDT_Enable(), previous configured register values are displayed. No need to invok
 223:C:/Users/Yoshi/Documents/GitHub/Software/01_jrg/03_VCUJR20/2021_06_17_VCU_jr20_Source/2021_06_17_VCU_jr20_Source/Libraries/XMCLib/inc\xmc_wdt.h ****       again.
 224:C:/Users/Yoshi/Documents/GitHub/Software/01_jrg/03_VCUJR20/2021_06_17_VCU_jr20_Source/2021_06_17_VCU_jr20_Source/Libraries/XMCLib/inc\xmc_wdt.h ****  * \endif
 225:C:/Users/Yoshi/Documents/GitHub/Software/01_jrg/03_VCUJR20/2021_06_17_VCU_jr20_Source/2021_06_17_VCU_jr20_Source/Libraries/XMCLib/inc\xmc_wdt.h ****  * \par<b>Related APIs:</b><BR>
 226:C:/Users/Yoshi/Documents/GitHub/Software/01_jrg/03_VCUJR20/2021_06_17_VCU_jr20_Source/2021_06_17_VCU_jr20_Source/Libraries/XMCLib/inc\xmc_wdt.h ****  * XMC_WDT_Enable()
 227:C:/Users/Yoshi/Documents/GitHub/Software/01_jrg/03_VCUJR20/2021_06_17_VCU_jr20_Source/2021_06_17_VCU_jr20_Source/Libraries/XMCLib/inc\xmc_wdt.h ****  */
 228:C:/Users/Yoshi/Documents/GitHub/Software/01_jrg/03_VCUJR20/2021_06_17_VCU_jr20_Source/2021_06_17_VCU_jr20_Source/Libraries/XMCLib/inc\xmc_wdt.h **** void XMC_WDT_Disable(void);
 229:C:/Users/Yoshi/Documents/GitHub/Software/01_jrg/03_VCUJR20/2021_06_17_VCU_jr20_Source/2021_06_17_VCU_jr20_Source/Libraries/XMCLib/inc\xmc_wdt.h **** 
 230:C:/Users/Yoshi/Documents/GitHub/Software/01_jrg/03_VCUJR20/2021_06_17_VCU_jr20_Source/2021_06_17_VCU_jr20_Source/Libraries/XMCLib/inc\xmc_wdt.h **** /**
 231:C:/Users/Yoshi/Documents/GitHub/Software/01_jrg/03_VCUJR20/2021_06_17_VCU_jr20_Source/2021_06_17_VCU_jr20_Source/Libraries/XMCLib/inc\xmc_wdt.h ****  * @param config pointer to a constant watchdog configuration data structure. Refer data structure 
 232:C:/Users/Yoshi/Documents/GitHub/Software/01_jrg/03_VCUJR20/2021_06_17_VCU_jr20_Source/2021_06_17_VCU_jr20_Source/Libraries/XMCLib/inc\xmc_wdt.h ****  *               for detail.
 233:C:/Users/Yoshi/Documents/GitHub/Software/01_jrg/03_VCUJR20/2021_06_17_VCU_jr20_Source/2021_06_17_VCU_jr20_Source/Libraries/XMCLib/inc\xmc_wdt.h ****  *
 234:C:/Users/Yoshi/Documents/GitHub/Software/01_jrg/03_VCUJR20/2021_06_17_VCU_jr20_Source/2021_06_17_VCU_jr20_Source/Libraries/XMCLib/inc\xmc_wdt.h ****  * @return None
 235:C:/Users/Yoshi/Documents/GitHub/Software/01_jrg/03_VCUJR20/2021_06_17_VCU_jr20_Source/2021_06_17_VCU_jr20_Source/Libraries/XMCLib/inc\xmc_wdt.h ****  *
 236:C:/Users/Yoshi/Documents/GitHub/Software/01_jrg/03_VCUJR20/2021_06_17_VCU_jr20_Source/2021_06_17_VCU_jr20_Source/Libraries/XMCLib/inc\xmc_wdt.h ****  * \par<b>Description:</b><br>
 237:C:/Users/Yoshi/Documents/GitHub/Software/01_jrg/03_VCUJR20/2021_06_17_VCU_jr20_Source/2021_06_17_VCU_jr20_Source/Libraries/XMCLib/inc\xmc_wdt.h ****  * Initializes and configures watchdog with configuration data pointed by \a config.\n
 238:C:/Users/Yoshi/Documents/GitHub/Software/01_jrg/03_VCUJR20/2021_06_17_VCU_jr20_Source/2021_06_17_VCU_jr20_Source/Libraries/XMCLib/inc\xmc_wdt.h ****  * \par
 239:C:/Users/Yoshi/Documents/GitHub/Software/01_jrg/03_VCUJR20/2021_06_17_VCU_jr20_Source/2021_06_17_VCU_jr20_Source/Libraries/XMCLib/inc\xmc_wdt.h ****  * It invokes XMC_WDT_Enable() to enable clock and release reset. Then configures the lower and upp
 240:C:/Users/Yoshi/Documents/GitHub/Software/01_jrg/03_VCUJR20/2021_06_17_VCU_jr20_Source/2021_06_17_VCU_jr20_Source/Libraries/XMCLib/inc\xmc_wdt.h ****  * working mode (timeout/pre-warning), debug behaviour and service request indication pulse width.
 241:C:/Users/Yoshi/Documents/GitHub/Software/01_jrg/03_VCUJR20/2021_06_17_VCU_jr20_Source/2021_06_17_VCU_jr20_Source/Libraries/XMCLib/inc\xmc_wdt.h ****  * 
 242:C:/Users/Yoshi/Documents/GitHub/Software/01_jrg/03_VCUJR20/2021_06_17_VCU_jr20_Source/2021_06_17_VCU_jr20_Source/Libraries/XMCLib/inc\xmc_wdt.h ****  * \par<b>Note:</b><br> 
 243:C:/Users/Yoshi/Documents/GitHub/Software/01_jrg/03_VCUJR20/2021_06_17_VCU_jr20_Source/2021_06_17_VCU_jr20_Source/Libraries/XMCLib/inc\xmc_wdt.h ****  * 1. With out invoking this XMC_WDT_Init() or XMC_WDT_Enable(), invocation of other APIs like XMC_
 244:C:/Users/Yoshi/Documents/GitHub/Software/01_jrg/03_VCUJR20/2021_06_17_VCU_jr20_Source/2021_06_17_VCU_jr20_Source/Libraries/XMCLib/inc\xmc_wdt.h ****  *    XMC_WDT_SetMode(), XMC_WDT_SetServicePulseWidth(), XMC_WDT_SetDebugMode(), XMC_WDT_Start(), X
 245:C:/Users/Yoshi/Documents/GitHub/Software/01_jrg/03_VCUJR20/2021_06_17_VCU_jr20_Source/2021_06_17_VCU_jr20_Source/Libraries/XMCLib/inc\xmc_wdt.h ****  *    XMC_WDT_Service(), XMC_WDT_ClearAlarm() has no affect.
 246:C:/Users/Yoshi/Documents/GitHub/Software/01_jrg/03_VCUJR20/2021_06_17_VCU_jr20_Source/2021_06_17_VCU_jr20_Source/Libraries/XMCLib/inc\xmc_wdt.h ****  */
 247:C:/Users/Yoshi/Documents/GitHub/Software/01_jrg/03_VCUJR20/2021_06_17_VCU_jr20_Source/2021_06_17_VCU_jr20_Source/Libraries/XMCLib/inc\xmc_wdt.h **** void XMC_WDT_Init(const XMC_WDT_CONFIG_t *const config);
 248:C:/Users/Yoshi/Documents/GitHub/Software/01_jrg/03_VCUJR20/2021_06_17_VCU_jr20_Source/2021_06_17_VCU_jr20_Source/Libraries/XMCLib/inc\xmc_wdt.h **** 
 249:C:/Users/Yoshi/Documents/GitHub/Software/01_jrg/03_VCUJR20/2021_06_17_VCU_jr20_Source/2021_06_17_VCU_jr20_Source/Libraries/XMCLib/inc\xmc_wdt.h **** /**
 250:C:/Users/Yoshi/Documents/GitHub/Software/01_jrg/03_VCUJR20/2021_06_17_VCU_jr20_Source/2021_06_17_VCU_jr20_Source/Libraries/XMCLib/inc\xmc_wdt.h ****  * @param lower_bound specifies watchdog window lower bound in terms of watchdog clock (fWDT) cycle
 251:C:/Users/Yoshi/Documents/GitHub/Software/01_jrg/03_VCUJR20/2021_06_17_VCU_jr20_Source/2021_06_17_VCU_jr20_Source/Libraries/XMCLib/inc\xmc_wdt.h ****  *                    Range: [0H to FFFFFFFFH].
 252:C:/Users/Yoshi/Documents/GitHub/Software/01_jrg/03_VCUJR20/2021_06_17_VCU_jr20_Source/2021_06_17_VCU_jr20_Source/Libraries/XMCLib/inc\xmc_wdt.h ****  * @param upper_bound specifies watchdog window upper bound in terms of watchdog clock (fWDT) cycle
 253:C:/Users/Yoshi/Documents/GitHub/Software/01_jrg/03_VCUJR20/2021_06_17_VCU_jr20_Source/2021_06_17_VCU_jr20_Source/Libraries/XMCLib/inc\xmc_wdt.h ****  *                    Range: [0H to FFFFFFFFH]. 
 254:C:/Users/Yoshi/Documents/GitHub/Software/01_jrg/03_VCUJR20/2021_06_17_VCU_jr20_Source/2021_06_17_VCU_jr20_Source/Libraries/XMCLib/inc\xmc_wdt.h ****  *
 255:C:/Users/Yoshi/Documents/GitHub/Software/01_jrg/03_VCUJR20/2021_06_17_VCU_jr20_Source/2021_06_17_VCU_jr20_Source/Libraries/XMCLib/inc\xmc_wdt.h ****  * @return None
 256:C:/Users/Yoshi/Documents/GitHub/Software/01_jrg/03_VCUJR20/2021_06_17_VCU_jr20_Source/2021_06_17_VCU_jr20_Source/Libraries/XMCLib/inc\xmc_wdt.h ****  *
 257:C:/Users/Yoshi/Documents/GitHub/Software/01_jrg/03_VCUJR20/2021_06_17_VCU_jr20_Source/2021_06_17_VCU_jr20_Source/Libraries/XMCLib/inc\xmc_wdt.h ****  * \par<b>Description:</b><br>
 258:C:/Users/Yoshi/Documents/GitHub/Software/01_jrg/03_VCUJR20/2021_06_17_VCU_jr20_Source/2021_06_17_VCU_jr20_Source/Libraries/XMCLib/inc\xmc_wdt.h ****  * Sets watchdog window lower and upper bounds by updating WLB and WUB registers.\n
 259:C:/Users/Yoshi/Documents/GitHub/Software/01_jrg/03_VCUJR20/2021_06_17_VCU_jr20_Source/2021_06_17_VCU_jr20_Source/Libraries/XMCLib/inc\xmc_wdt.h ****  * \par
 260:C:/Users/Yoshi/Documents/GitHub/Software/01_jrg/03_VCUJR20/2021_06_17_VCU_jr20_Source/2021_06_17_VCU_jr20_Source/Libraries/XMCLib/inc\xmc_wdt.h ****  * Window lower and upper bounds are set during initialization in XMC_WDT_Init(). Invoke this API t
 261:C:/Users/Yoshi/Documents/GitHub/Software/01_jrg/03_VCUJR20/2021_06_17_VCU_jr20_Source/2021_06_17_VCU_jr20_Source/Libraries/XMCLib/inc\xmc_wdt.h ****  * needed later in the program. This upper bound and lower bound can be calculated by using the bel
 262:C:/Users/Yoshi/Documents/GitHub/Software/01_jrg/03_VCUJR20/2021_06_17_VCU_jr20_Source/2021_06_17_VCU_jr20_Source/Libraries/XMCLib/inc\xmc_wdt.h ****  *       upper_bound or lower_bound = desired_boundary_time(sec) * fwdt(hz)
 263:C:/Users/Yoshi/Documents/GitHub/Software/01_jrg/03_VCUJR20/2021_06_17_VCU_jr20_Source/2021_06_17_VCU_jr20_Source/Libraries/XMCLib/inc\xmc_wdt.h ****  *
 264:C:/Users/Yoshi/Documents/GitHub/Software/01_jrg/03_VCUJR20/2021_06_17_VCU_jr20_Source/2021_06_17_VCU_jr20_Source/Libraries/XMCLib/inc\xmc_wdt.h ****  * \par<b>Note:</b>
 265:C:/Users/Yoshi/Documents/GitHub/Software/01_jrg/03_VCUJR20/2021_06_17_VCU_jr20_Source/2021_06_17_VCU_jr20_Source/Libraries/XMCLib/inc\xmc_wdt.h ****  * 1. Always ensure that upper_bound is greater than the lower_bound value. If not, whenever timer 
 266:C:/Users/Yoshi/Documents/GitHub/Software/01_jrg/03_VCUJR20/2021_06_17_VCU_jr20_Source/2021_06_17_VCU_jr20_Source/Libraries/XMCLib/inc\xmc_wdt.h ****  *    upper_bound value it triggers the reset(wdt_rst_req) of the controller.
 267:C:/Users/Yoshi/Documents/GitHub/Software/01_jrg/03_VCUJR20/2021_06_17_VCU_jr20_Source/2021_06_17_VCU_jr20_Source/Libraries/XMCLib/inc\xmc_wdt.h ****  */
 268:C:/Users/Yoshi/Documents/GitHub/Software/01_jrg/03_VCUJR20/2021_06_17_VCU_jr20_Source/2021_06_17_VCU_jr20_Source/Libraries/XMCLib/inc\xmc_wdt.h **** __STATIC_INLINE void XMC_WDT_SetWindowBounds(uint32_t lower_bound, uint32_t upper_bound)
 269:C:/Users/Yoshi/Documents/GitHub/Software/01_jrg/03_VCUJR20/2021_06_17_VCU_jr20_Source/2021_06_17_VCU_jr20_Source/Libraries/XMCLib/inc\xmc_wdt.h **** {
 270:C:/Users/Yoshi/Documents/GitHub/Software/01_jrg/03_VCUJR20/2021_06_17_VCU_jr20_Source/2021_06_17_VCU_jr20_Source/Libraries/XMCLib/inc\xmc_wdt.h ****   WDT->WLB = lower_bound;
 271:C:/Users/Yoshi/Documents/GitHub/Software/01_jrg/03_VCUJR20/2021_06_17_VCU_jr20_Source/2021_06_17_VCU_jr20_Source/Libraries/XMCLib/inc\xmc_wdt.h ****   WDT->WUB = upper_bound;
 272:C:/Users/Yoshi/Documents/GitHub/Software/01_jrg/03_VCUJR20/2021_06_17_VCU_jr20_Source/2021_06_17_VCU_jr20_Source/Libraries/XMCLib/inc\xmc_wdt.h **** }
 273:C:/Users/Yoshi/Documents/GitHub/Software/01_jrg/03_VCUJR20/2021_06_17_VCU_jr20_Source/2021_06_17_VCU_jr20_Source/Libraries/XMCLib/inc\xmc_wdt.h **** 
 274:C:/Users/Yoshi/Documents/GitHub/Software/01_jrg/03_VCUJR20/2021_06_17_VCU_jr20_Source/2021_06_17_VCU_jr20_Source/Libraries/XMCLib/inc\xmc_wdt.h **** /**
 275:C:/Users/Yoshi/Documents/GitHub/Software/01_jrg/03_VCUJR20/2021_06_17_VCU_jr20_Source/2021_06_17_VCU_jr20_Source/Libraries/XMCLib/inc\xmc_wdt.h ****  * @param mode is one of the working modes of the watchdog timer, i.e timeout or pre-warning. Refer
 276:C:/Users/Yoshi/Documents/GitHub/Software/01_jrg/03_VCUJR20/2021_06_17_VCU_jr20_Source/2021_06_17_VCU_jr20_Source/Libraries/XMCLib/inc\xmc_wdt.h ****  *             for valid values.
 277:C:/Users/Yoshi/Documents/GitHub/Software/01_jrg/03_VCUJR20/2021_06_17_VCU_jr20_Source/2021_06_17_VCU_jr20_Source/Libraries/XMCLib/inc\xmc_wdt.h ****  *
 278:C:/Users/Yoshi/Documents/GitHub/Software/01_jrg/03_VCUJR20/2021_06_17_VCU_jr20_Source/2021_06_17_VCU_jr20_Source/Libraries/XMCLib/inc\xmc_wdt.h ****  * @return None
 279:C:/Users/Yoshi/Documents/GitHub/Software/01_jrg/03_VCUJR20/2021_06_17_VCU_jr20_Source/2021_06_17_VCU_jr20_Source/Libraries/XMCLib/inc\xmc_wdt.h ****  *
 280:C:/Users/Yoshi/Documents/GitHub/Software/01_jrg/03_VCUJR20/2021_06_17_VCU_jr20_Source/2021_06_17_VCU_jr20_Source/Libraries/XMCLib/inc\xmc_wdt.h ****  * \par<b>Description:</b><br>
 281:C:/Users/Yoshi/Documents/GitHub/Software/01_jrg/03_VCUJR20/2021_06_17_VCU_jr20_Source/2021_06_17_VCU_jr20_Source/Libraries/XMCLib/inc\xmc_wdt.h ****  * Sets watchdog working mode (timeout or pre-warning) by updating PRE bit of CTR register.\n
 282:C:/Users/Yoshi/Documents/GitHub/Software/01_jrg/03_VCUJR20/2021_06_17_VCU_jr20_Source/2021_06_17_VCU_jr20_Source/Libraries/XMCLib/inc\xmc_wdt.h ****  * \par
 283:C:/Users/Yoshi/Documents/GitHub/Software/01_jrg/03_VCUJR20/2021_06_17_VCU_jr20_Source/2021_06_17_VCU_jr20_Source/Libraries/XMCLib/inc\xmc_wdt.h ****  * The working mode is set during initialization in XMC_WDT_Init(). Invoke this API to alter the mo
 284:C:/Users/Yoshi/Documents/GitHub/Software/01_jrg/03_VCUJR20/2021_06_17_VCU_jr20_Source/2021_06_17_VCU_jr20_Source/Libraries/XMCLib/inc\xmc_wdt.h ****  * the program.
 285:C:/Users/Yoshi/Documents/GitHub/Software/01_jrg/03_VCUJR20/2021_06_17_VCU_jr20_Source/2021_06_17_VCU_jr20_Source/Libraries/XMCLib/inc\xmc_wdt.h ****  */
 286:C:/Users/Yoshi/Documents/GitHub/Software/01_jrg/03_VCUJR20/2021_06_17_VCU_jr20_Source/2021_06_17_VCU_jr20_Source/Libraries/XMCLib/inc\xmc_wdt.h **** __STATIC_INLINE void XMC_WDT_SetMode(XMC_WDT_MODE_t mode)
 287:C:/Users/Yoshi/Documents/GitHub/Software/01_jrg/03_VCUJR20/2021_06_17_VCU_jr20_Source/2021_06_17_VCU_jr20_Source/Libraries/XMCLib/inc\xmc_wdt.h **** {
 288:C:/Users/Yoshi/Documents/GitHub/Software/01_jrg/03_VCUJR20/2021_06_17_VCU_jr20_Source/2021_06_17_VCU_jr20_Source/Libraries/XMCLib/inc\xmc_wdt.h ****   WDT->CTR = (WDT->CTR & (uint32_t)~WDT_CTR_PRE_Msk) | (uint32_t)mode;
 289:C:/Users/Yoshi/Documents/GitHub/Software/01_jrg/03_VCUJR20/2021_06_17_VCU_jr20_Source/2021_06_17_VCU_jr20_Source/Libraries/XMCLib/inc\xmc_wdt.h **** }
 290:C:/Users/Yoshi/Documents/GitHub/Software/01_jrg/03_VCUJR20/2021_06_17_VCU_jr20_Source/2021_06_17_VCU_jr20_Source/Libraries/XMCLib/inc\xmc_wdt.h **** 
 291:C:/Users/Yoshi/Documents/GitHub/Software/01_jrg/03_VCUJR20/2021_06_17_VCU_jr20_Source/2021_06_17_VCU_jr20_Source/Libraries/XMCLib/inc\xmc_wdt.h **** /**
 292:C:/Users/Yoshi/Documents/GitHub/Software/01_jrg/03_VCUJR20/2021_06_17_VCU_jr20_Source/2021_06_17_VCU_jr20_Source/Libraries/XMCLib/inc\xmc_wdt.h ****  * @param service_pulse_width specifies Service indication pulse width in terms of fwdt. 
 293:C:/Users/Yoshi/Documents/GitHub/Software/01_jrg/03_VCUJR20/2021_06_17_VCU_jr20_Source/2021_06_17_VCU_jr20_Source/Libraries/XMCLib/inc\xmc_wdt.h ****  *                            Range: [0H  FFH].
 294:C:/Users/Yoshi/Documents/GitHub/Software/01_jrg/03_VCUJR20/2021_06_17_VCU_jr20_Source/2021_06_17_VCU_jr20_Source/Libraries/XMCLib/inc\xmc_wdt.h ****  * @return None
 295:C:/Users/Yoshi/Documents/GitHub/Software/01_jrg/03_VCUJR20/2021_06_17_VCU_jr20_Source/2021_06_17_VCU_jr20_Source/Libraries/XMCLib/inc\xmc_wdt.h ****  *
 296:C:/Users/Yoshi/Documents/GitHub/Software/01_jrg/03_VCUJR20/2021_06_17_VCU_jr20_Source/2021_06_17_VCU_jr20_Source/Libraries/XMCLib/inc\xmc_wdt.h ****  * \par<b>Description:</b><br>
 297:C:/Users/Yoshi/Documents/GitHub/Software/01_jrg/03_VCUJR20/2021_06_17_VCU_jr20_Source/2021_06_17_VCU_jr20_Source/Libraries/XMCLib/inc\xmc_wdt.h ****  * Sets service indication pulse width by updating SPW bit field of CTR register.\n
 298:C:/Users/Yoshi/Documents/GitHub/Software/01_jrg/03_VCUJR20/2021_06_17_VCU_jr20_Source/2021_06_17_VCU_jr20_Source/Libraries/XMCLib/inc\xmc_wdt.h ****  * \par
 299:C:/Users/Yoshi/Documents/GitHub/Software/01_jrg/03_VCUJR20/2021_06_17_VCU_jr20_Source/2021_06_17_VCU_jr20_Source/Libraries/XMCLib/inc\xmc_wdt.h ****  * The service indication pulse (with width service_pulse_width + 1 in fwdt cycles) is generated on
 300:C:/Users/Yoshi/Documents/GitHub/Software/01_jrg/03_VCUJR20/2021_06_17_VCU_jr20_Source/2021_06_17_VCU_jr20_Source/Libraries/XMCLib/inc\xmc_wdt.h ****  * or feeding of watchdog. The pulse width is initially set during initialization in XMC_WDT_Init()
 301:C:/Users/Yoshi/Documents/GitHub/Software/01_jrg/03_VCUJR20/2021_06_17_VCU_jr20_Source/2021_06_17_VCU_jr20_Source/Libraries/XMCLib/inc\xmc_wdt.h ****  * alter the width as needed later in the program.
 302:C:/Users/Yoshi/Documents/GitHub/Software/01_jrg/03_VCUJR20/2021_06_17_VCU_jr20_Source/2021_06_17_VCU_jr20_Source/Libraries/XMCLib/inc\xmc_wdt.h ****  */
 303:C:/Users/Yoshi/Documents/GitHub/Software/01_jrg/03_VCUJR20/2021_06_17_VCU_jr20_Source/2021_06_17_VCU_jr20_Source/Libraries/XMCLib/inc\xmc_wdt.h **** __STATIC_INLINE void XMC_WDT_SetServicePulseWidth(uint8_t service_pulse_width)
 304:C:/Users/Yoshi/Documents/GitHub/Software/01_jrg/03_VCUJR20/2021_06_17_VCU_jr20_Source/2021_06_17_VCU_jr20_Source/Libraries/XMCLib/inc\xmc_wdt.h **** {
 305:C:/Users/Yoshi/Documents/GitHub/Software/01_jrg/03_VCUJR20/2021_06_17_VCU_jr20_Source/2021_06_17_VCU_jr20_Source/Libraries/XMCLib/inc\xmc_wdt.h ****   WDT->CTR = (WDT->CTR & (uint32_t)~WDT_CTR_SPW_Msk) | ((uint32_t)service_pulse_width << WDT_CTR_SP
 306:C:/Users/Yoshi/Documents/GitHub/Software/01_jrg/03_VCUJR20/2021_06_17_VCU_jr20_Source/2021_06_17_VCU_jr20_Source/Libraries/XMCLib/inc\xmc_wdt.h **** }
 307:C:/Users/Yoshi/Documents/GitHub/Software/01_jrg/03_VCUJR20/2021_06_17_VCU_jr20_Source/2021_06_17_VCU_jr20_Source/Libraries/XMCLib/inc\xmc_wdt.h **** 
 308:C:/Users/Yoshi/Documents/GitHub/Software/01_jrg/03_VCUJR20/2021_06_17_VCU_jr20_Source/2021_06_17_VCU_jr20_Source/Libraries/XMCLib/inc\xmc_wdt.h **** /**
 309:C:/Users/Yoshi/Documents/GitHub/Software/01_jrg/03_VCUJR20/2021_06_17_VCU_jr20_Source/2021_06_17_VCU_jr20_Source/Libraries/XMCLib/inc\xmc_wdt.h ****  * @param debug_mode running state of watchdog during debug halt mode. Refer @ref XMC_WDT_DEBUG_MOD
 310:C:/Users/Yoshi/Documents/GitHub/Software/01_jrg/03_VCUJR20/2021_06_17_VCU_jr20_Source/2021_06_17_VCU_jr20_Source/Libraries/XMCLib/inc\xmc_wdt.h ****  *                   valid values.
 311:C:/Users/Yoshi/Documents/GitHub/Software/01_jrg/03_VCUJR20/2021_06_17_VCU_jr20_Source/2021_06_17_VCU_jr20_Source/Libraries/XMCLib/inc\xmc_wdt.h ****  *
 312:C:/Users/Yoshi/Documents/GitHub/Software/01_jrg/03_VCUJR20/2021_06_17_VCU_jr20_Source/2021_06_17_VCU_jr20_Source/Libraries/XMCLib/inc\xmc_wdt.h ****  * @return None
 313:C:/Users/Yoshi/Documents/GitHub/Software/01_jrg/03_VCUJR20/2021_06_17_VCU_jr20_Source/2021_06_17_VCU_jr20_Source/Libraries/XMCLib/inc\xmc_wdt.h ****  *
 314:C:/Users/Yoshi/Documents/GitHub/Software/01_jrg/03_VCUJR20/2021_06_17_VCU_jr20_Source/2021_06_17_VCU_jr20_Source/Libraries/XMCLib/inc\xmc_wdt.h ****  * \par<b>Description:</b><br>
 315:C:/Users/Yoshi/Documents/GitHub/Software/01_jrg/03_VCUJR20/2021_06_17_VCU_jr20_Source/2021_06_17_VCU_jr20_Source/Libraries/XMCLib/inc\xmc_wdt.h ****  * Sets debug behaviour of watchdog by modifying DSP bit of CTR register.\n
 316:C:/Users/Yoshi/Documents/GitHub/Software/01_jrg/03_VCUJR20/2021_06_17_VCU_jr20_Source/2021_06_17_VCU_jr20_Source/Libraries/XMCLib/inc\xmc_wdt.h ****  * \par
 317:C:/Users/Yoshi/Documents/GitHub/Software/01_jrg/03_VCUJR20/2021_06_17_VCU_jr20_Source/2021_06_17_VCU_jr20_Source/Libraries/XMCLib/inc\xmc_wdt.h ****  * Depending upon DSP bit, the watchdog timer stops when CPU is in HALT mode. The debug behaviour i
 318:C:/Users/Yoshi/Documents/GitHub/Software/01_jrg/03_VCUJR20/2021_06_17_VCU_jr20_Source/2021_06_17_VCU_jr20_Source/Libraries/XMCLib/inc\xmc_wdt.h ****  * XMC_WDT_DEBUG_MODE_STOP during initialization in XMC_WDT_Init(). Invoke this API to change the d
 319:C:/Users/Yoshi/Documents/GitHub/Software/01_jrg/03_VCUJR20/2021_06_17_VCU_jr20_Source/2021_06_17_VCU_jr20_Source/Libraries/XMCLib/inc\xmc_wdt.h ****  * needed later in the program.
 320:C:/Users/Yoshi/Documents/GitHub/Software/01_jrg/03_VCUJR20/2021_06_17_VCU_jr20_Source/2021_06_17_VCU_jr20_Source/Libraries/XMCLib/inc\xmc_wdt.h ****  */
 321:C:/Users/Yoshi/Documents/GitHub/Software/01_jrg/03_VCUJR20/2021_06_17_VCU_jr20_Source/2021_06_17_VCU_jr20_Source/Libraries/XMCLib/inc\xmc_wdt.h **** __STATIC_INLINE void XMC_WDT_SetDebugMode(const XMC_WDT_DEBUG_MODE_t debug_mode)
 322:C:/Users/Yoshi/Documents/GitHub/Software/01_jrg/03_VCUJR20/2021_06_17_VCU_jr20_Source/2021_06_17_VCU_jr20_Source/Libraries/XMCLib/inc\xmc_wdt.h **** {
 323:C:/Users/Yoshi/Documents/GitHub/Software/01_jrg/03_VCUJR20/2021_06_17_VCU_jr20_Source/2021_06_17_VCU_jr20_Source/Libraries/XMCLib/inc\xmc_wdt.h ****   WDT->CTR = (WDT->CTR & (uint32_t)~WDT_CTR_DSP_Msk) | (uint32_t)debug_mode;
 324:C:/Users/Yoshi/Documents/GitHub/Software/01_jrg/03_VCUJR20/2021_06_17_VCU_jr20_Source/2021_06_17_VCU_jr20_Source/Libraries/XMCLib/inc\xmc_wdt.h **** }
 325:C:/Users/Yoshi/Documents/GitHub/Software/01_jrg/03_VCUJR20/2021_06_17_VCU_jr20_Source/2021_06_17_VCU_jr20_Source/Libraries/XMCLib/inc\xmc_wdt.h **** 
 326:C:/Users/Yoshi/Documents/GitHub/Software/01_jrg/03_VCUJR20/2021_06_17_VCU_jr20_Source/2021_06_17_VCU_jr20_Source/Libraries/XMCLib/inc\xmc_wdt.h **** /**
 327:C:/Users/Yoshi/Documents/GitHub/Software/01_jrg/03_VCUJR20/2021_06_17_VCU_jr20_Source/2021_06_17_VCU_jr20_Source/Libraries/XMCLib/inc\xmc_wdt.h ****  * @param None
 328:C:/Users/Yoshi/Documents/GitHub/Software/01_jrg/03_VCUJR20/2021_06_17_VCU_jr20_Source/2021_06_17_VCU_jr20_Source/Libraries/XMCLib/inc\xmc_wdt.h ****  *
 329:C:/Users/Yoshi/Documents/GitHub/Software/01_jrg/03_VCUJR20/2021_06_17_VCU_jr20_Source/2021_06_17_VCU_jr20_Source/Libraries/XMCLib/inc\xmc_wdt.h ****  * @return None
 330:C:/Users/Yoshi/Documents/GitHub/Software/01_jrg/03_VCUJR20/2021_06_17_VCU_jr20_Source/2021_06_17_VCU_jr20_Source/Libraries/XMCLib/inc\xmc_wdt.h ****  *
 331:C:/Users/Yoshi/Documents/GitHub/Software/01_jrg/03_VCUJR20/2021_06_17_VCU_jr20_Source/2021_06_17_VCU_jr20_Source/Libraries/XMCLib/inc\xmc_wdt.h ****  * \par<b>Description:</b><br>
 332:C:/Users/Yoshi/Documents/GitHub/Software/01_jrg/03_VCUJR20/2021_06_17_VCU_jr20_Source/2021_06_17_VCU_jr20_Source/Libraries/XMCLib/inc\xmc_wdt.h ****  * Start the watchdog timer by setting ENB bit of CTR register.\n
 333:C:/Users/Yoshi/Documents/GitHub/Software/01_jrg/03_VCUJR20/2021_06_17_VCU_jr20_Source/2021_06_17_VCU_jr20_Source/Libraries/XMCLib/inc\xmc_wdt.h ****  * \par
 334:C:/Users/Yoshi/Documents/GitHub/Software/01_jrg/03_VCUJR20/2021_06_17_VCU_jr20_Source/2021_06_17_VCU_jr20_Source/Libraries/XMCLib/inc\xmc_wdt.h ****  * Invoke this API to start the watchdog after initialization, or to resume the watchdog when
 335:C:/Users/Yoshi/Documents/GitHub/Software/01_jrg/03_VCUJR20/2021_06_17_VCU_jr20_Source/2021_06_17_VCU_jr20_Source/Libraries/XMCLib/inc\xmc_wdt.h ****  * paused by invoking XMC_WDT_Stop().
 336:C:/Users/Yoshi/Documents/GitHub/Software/01_jrg/03_VCUJR20/2021_06_17_VCU_jr20_Source/2021_06_17_VCU_jr20_Source/Libraries/XMCLib/inc\xmc_wdt.h ****  *
 337:C:/Users/Yoshi/Documents/GitHub/Software/01_jrg/03_VCUJR20/2021_06_17_VCU_jr20_Source/2021_06_17_VCU_jr20_Source/Libraries/XMCLib/inc\xmc_wdt.h ****  * \par<b>Related APIs:</b><BR>
 338:C:/Users/Yoshi/Documents/GitHub/Software/01_jrg/03_VCUJR20/2021_06_17_VCU_jr20_Source/2021_06_17_VCU_jr20_Source/Libraries/XMCLib/inc\xmc_wdt.h ****  * XMC_WDT_Init(), XMC_WDT_Stop()
 339:C:/Users/Yoshi/Documents/GitHub/Software/01_jrg/03_VCUJR20/2021_06_17_VCU_jr20_Source/2021_06_17_VCU_jr20_Source/Libraries/XMCLib/inc\xmc_wdt.h ****  */
 340:C:/Users/Yoshi/Documents/GitHub/Software/01_jrg/03_VCUJR20/2021_06_17_VCU_jr20_Source/2021_06_17_VCU_jr20_Source/Libraries/XMCLib/inc\xmc_wdt.h **** __STATIC_INLINE void XMC_WDT_Start(void)
 341:C:/Users/Yoshi/Documents/GitHub/Software/01_jrg/03_VCUJR20/2021_06_17_VCU_jr20_Source/2021_06_17_VCU_jr20_Source/Libraries/XMCLib/inc\xmc_wdt.h **** {
  75              	 .loc 2 341 0
  76              	 .cfi_startproc
  77              	 
  78              	 
  79              	 
  80 0000 80B4     	 push {r7}
  81              	.LCFI6:
  82              	 .cfi_def_cfa_offset 4
  83              	 .cfi_offset 7,-4
  84 0002 00AF     	 add r7,sp,#0
  85              	.LCFI7:
  86              	 .cfi_def_cfa_register 7
 342:C:/Users/Yoshi/Documents/GitHub/Software/01_jrg/03_VCUJR20/2021_06_17_VCU_jr20_Source/2021_06_17_VCU_jr20_Source/Libraries/XMCLib/inc\xmc_wdt.h ****   WDT->CTR |= (uint32_t)WDT_CTR_ENB_Msk;
  87              	 .loc 2 342 0
  88 0004 044A     	 ldr r2,.L3
  89 0006 044B     	 ldr r3,.L3
  90 0008 5B68     	 ldr r3,[r3,#4]
  91 000a 43F00103 	 orr r3,r3,#1
  92 000e 5360     	 str r3,[r2,#4]
 343:C:/Users/Yoshi/Documents/GitHub/Software/01_jrg/03_VCUJR20/2021_06_17_VCU_jr20_Source/2021_06_17_VCU_jr20_Source/Libraries/XMCLib/inc\xmc_wdt.h **** }
  93              	 .loc 2 343 0
  94 0010 BD46     	 mov sp,r7
  95              	.LCFI8:
  96              	 .cfi_def_cfa_register 13
  97              	 
  98 0012 5DF8047B 	 ldr r7,[sp],#4
  99              	.LCFI9:
 100              	 .cfi_restore 7
 101              	 .cfi_def_cfa_offset 0
 102 0016 7047     	 bx lr
 103              	.L4:
 104              	 .align 2
 105              	.L3:
 106 0018 00800050 	 .word 1342210048
 107              	 .cfi_endproc
 108              	.LFE254:
 110              	 .section .text.XMC_WDT_Service,"ax",%progbits
 111              	 .align 2
 112              	 .thumb
 113              	 .thumb_func
 115              	XMC_WDT_Service:
 116              	.LFB257:
 344:C:/Users/Yoshi/Documents/GitHub/Software/01_jrg/03_VCUJR20/2021_06_17_VCU_jr20_Source/2021_06_17_VCU_jr20_Source/Libraries/XMCLib/inc\xmc_wdt.h **** 
 345:C:/Users/Yoshi/Documents/GitHub/Software/01_jrg/03_VCUJR20/2021_06_17_VCU_jr20_Source/2021_06_17_VCU_jr20_Source/Libraries/XMCLib/inc\xmc_wdt.h **** /**
 346:C:/Users/Yoshi/Documents/GitHub/Software/01_jrg/03_VCUJR20/2021_06_17_VCU_jr20_Source/2021_06_17_VCU_jr20_Source/Libraries/XMCLib/inc\xmc_wdt.h ****  * @param None
 347:C:/Users/Yoshi/Documents/GitHub/Software/01_jrg/03_VCUJR20/2021_06_17_VCU_jr20_Source/2021_06_17_VCU_jr20_Source/Libraries/XMCLib/inc\xmc_wdt.h ****  *
 348:C:/Users/Yoshi/Documents/GitHub/Software/01_jrg/03_VCUJR20/2021_06_17_VCU_jr20_Source/2021_06_17_VCU_jr20_Source/Libraries/XMCLib/inc\xmc_wdt.h ****  * @return None
 349:C:/Users/Yoshi/Documents/GitHub/Software/01_jrg/03_VCUJR20/2021_06_17_VCU_jr20_Source/2021_06_17_VCU_jr20_Source/Libraries/XMCLib/inc\xmc_wdt.h ****  *
 350:C:/Users/Yoshi/Documents/GitHub/Software/01_jrg/03_VCUJR20/2021_06_17_VCU_jr20_Source/2021_06_17_VCU_jr20_Source/Libraries/XMCLib/inc\xmc_wdt.h ****  * \par<b>Description:</b><br>
 351:C:/Users/Yoshi/Documents/GitHub/Software/01_jrg/03_VCUJR20/2021_06_17_VCU_jr20_Source/2021_06_17_VCU_jr20_Source/Libraries/XMCLib/inc\xmc_wdt.h ****  * Pauses watchdog timer by resetting ENB bit of CTR register.\n
 352:C:/Users/Yoshi/Documents/GitHub/Software/01_jrg/03_VCUJR20/2021_06_17_VCU_jr20_Source/2021_06_17_VCU_jr20_Source/Libraries/XMCLib/inc\xmc_wdt.h ****  * \par
 353:C:/Users/Yoshi/Documents/GitHub/Software/01_jrg/03_VCUJR20/2021_06_17_VCU_jr20_Source/2021_06_17_VCU_jr20_Source/Libraries/XMCLib/inc\xmc_wdt.h ****  * Invoke this API to pause the watchdog as needed in the program e.g. debugging through software c
 354:C:/Users/Yoshi/Documents/GitHub/Software/01_jrg/03_VCUJR20/2021_06_17_VCU_jr20_Source/2021_06_17_VCU_jr20_Source/Libraries/XMCLib/inc\xmc_wdt.h ****  *
 355:C:/Users/Yoshi/Documents/GitHub/Software/01_jrg/03_VCUJR20/2021_06_17_VCU_jr20_Source/2021_06_17_VCU_jr20_Source/Libraries/XMCLib/inc\xmc_wdt.h ****  * \par<b>Related APIs:</b><BR>
 356:C:/Users/Yoshi/Documents/GitHub/Software/01_jrg/03_VCUJR20/2021_06_17_VCU_jr20_Source/2021_06_17_VCU_jr20_Source/Libraries/XMCLib/inc\xmc_wdt.h ****  * XMC_WDT_Init(), XMC_WDT_Stop()
 357:C:/Users/Yoshi/Documents/GitHub/Software/01_jrg/03_VCUJR20/2021_06_17_VCU_jr20_Source/2021_06_17_VCU_jr20_Source/Libraries/XMCLib/inc\xmc_wdt.h ****  */
 358:C:/Users/Yoshi/Documents/GitHub/Software/01_jrg/03_VCUJR20/2021_06_17_VCU_jr20_Source/2021_06_17_VCU_jr20_Source/Libraries/XMCLib/inc\xmc_wdt.h **** __STATIC_INLINE void XMC_WDT_Stop(void)
 359:C:/Users/Yoshi/Documents/GitHub/Software/01_jrg/03_VCUJR20/2021_06_17_VCU_jr20_Source/2021_06_17_VCU_jr20_Source/Libraries/XMCLib/inc\xmc_wdt.h **** {
 360:C:/Users/Yoshi/Documents/GitHub/Software/01_jrg/03_VCUJR20/2021_06_17_VCU_jr20_Source/2021_06_17_VCU_jr20_Source/Libraries/XMCLib/inc\xmc_wdt.h ****   WDT->CTR &= (uint32_t)~WDT_CTR_ENB_Msk;
 361:C:/Users/Yoshi/Documents/GitHub/Software/01_jrg/03_VCUJR20/2021_06_17_VCU_jr20_Source/2021_06_17_VCU_jr20_Source/Libraries/XMCLib/inc\xmc_wdt.h **** }
 362:C:/Users/Yoshi/Documents/GitHub/Software/01_jrg/03_VCUJR20/2021_06_17_VCU_jr20_Source/2021_06_17_VCU_jr20_Source/Libraries/XMCLib/inc\xmc_wdt.h **** 
 363:C:/Users/Yoshi/Documents/GitHub/Software/01_jrg/03_VCUJR20/2021_06_17_VCU_jr20_Source/2021_06_17_VCU_jr20_Source/Libraries/XMCLib/inc\xmc_wdt.h **** /**
 364:C:/Users/Yoshi/Documents/GitHub/Software/01_jrg/03_VCUJR20/2021_06_17_VCU_jr20_Source/2021_06_17_VCU_jr20_Source/Libraries/XMCLib/inc\xmc_wdt.h ****  * @param None
 365:C:/Users/Yoshi/Documents/GitHub/Software/01_jrg/03_VCUJR20/2021_06_17_VCU_jr20_Source/2021_06_17_VCU_jr20_Source/Libraries/XMCLib/inc\xmc_wdt.h ****  *
 366:C:/Users/Yoshi/Documents/GitHub/Software/01_jrg/03_VCUJR20/2021_06_17_VCU_jr20_Source/2021_06_17_VCU_jr20_Source/Libraries/XMCLib/inc\xmc_wdt.h ****  * @return uint32_t Current count value of watchdog timer register (TIM).
 367:C:/Users/Yoshi/Documents/GitHub/Software/01_jrg/03_VCUJR20/2021_06_17_VCU_jr20_Source/2021_06_17_VCU_jr20_Source/Libraries/XMCLib/inc\xmc_wdt.h ****  *                  Range: [0H to FFFFFFFFH]
 368:C:/Users/Yoshi/Documents/GitHub/Software/01_jrg/03_VCUJR20/2021_06_17_VCU_jr20_Source/2021_06_17_VCU_jr20_Source/Libraries/XMCLib/inc\xmc_wdt.h ****  *
 369:C:/Users/Yoshi/Documents/GitHub/Software/01_jrg/03_VCUJR20/2021_06_17_VCU_jr20_Source/2021_06_17_VCU_jr20_Source/Libraries/XMCLib/inc\xmc_wdt.h ****  * \par<b>Description:</b><br>
 370:C:/Users/Yoshi/Documents/GitHub/Software/01_jrg/03_VCUJR20/2021_06_17_VCU_jr20_Source/2021_06_17_VCU_jr20_Source/Libraries/XMCLib/inc\xmc_wdt.h ****  * Reads current count of timer register (TIM).\n
 371:C:/Users/Yoshi/Documents/GitHub/Software/01_jrg/03_VCUJR20/2021_06_17_VCU_jr20_Source/2021_06_17_VCU_jr20_Source/Libraries/XMCLib/inc\xmc_wdt.h ****  * \par
 372:C:/Users/Yoshi/Documents/GitHub/Software/01_jrg/03_VCUJR20/2021_06_17_VCU_jr20_Source/2021_06_17_VCU_jr20_Source/Libraries/XMCLib/inc\xmc_wdt.h ****  * Invoke this API before servicing or feeding the watchdog to check whether count is between lower
 373:C:/Users/Yoshi/Documents/GitHub/Software/01_jrg/03_VCUJR20/2021_06_17_VCU_jr20_Source/2021_06_17_VCU_jr20_Source/Libraries/XMCLib/inc\xmc_wdt.h ****  * window bounds.
 374:C:/Users/Yoshi/Documents/GitHub/Software/01_jrg/03_VCUJR20/2021_06_17_VCU_jr20_Source/2021_06_17_VCU_jr20_Source/Libraries/XMCLib/inc\xmc_wdt.h ****  *
 375:C:/Users/Yoshi/Documents/GitHub/Software/01_jrg/03_VCUJR20/2021_06_17_VCU_jr20_Source/2021_06_17_VCU_jr20_Source/Libraries/XMCLib/inc\xmc_wdt.h ****  * \par<b>Related APIs:</b><BR>
 376:C:/Users/Yoshi/Documents/GitHub/Software/01_jrg/03_VCUJR20/2021_06_17_VCU_jr20_Source/2021_06_17_VCU_jr20_Source/Libraries/XMCLib/inc\xmc_wdt.h ****  * XMC_WDT_Service()
 377:C:/Users/Yoshi/Documents/GitHub/Software/01_jrg/03_VCUJR20/2021_06_17_VCU_jr20_Source/2021_06_17_VCU_jr20_Source/Libraries/XMCLib/inc\xmc_wdt.h ****  */
 378:C:/Users/Yoshi/Documents/GitHub/Software/01_jrg/03_VCUJR20/2021_06_17_VCU_jr20_Source/2021_06_17_VCU_jr20_Source/Libraries/XMCLib/inc\xmc_wdt.h **** __STATIC_INLINE uint32_t XMC_WDT_GetCounter(void)
 379:C:/Users/Yoshi/Documents/GitHub/Software/01_jrg/03_VCUJR20/2021_06_17_VCU_jr20_Source/2021_06_17_VCU_jr20_Source/Libraries/XMCLib/inc\xmc_wdt.h **** {
 380:C:/Users/Yoshi/Documents/GitHub/Software/01_jrg/03_VCUJR20/2021_06_17_VCU_jr20_Source/2021_06_17_VCU_jr20_Source/Libraries/XMCLib/inc\xmc_wdt.h ****   return WDT->TIM;
 381:C:/Users/Yoshi/Documents/GitHub/Software/01_jrg/03_VCUJR20/2021_06_17_VCU_jr20_Source/2021_06_17_VCU_jr20_Source/Libraries/XMCLib/inc\xmc_wdt.h **** }
 382:C:/Users/Yoshi/Documents/GitHub/Software/01_jrg/03_VCUJR20/2021_06_17_VCU_jr20_Source/2021_06_17_VCU_jr20_Source/Libraries/XMCLib/inc\xmc_wdt.h **** 
 383:C:/Users/Yoshi/Documents/GitHub/Software/01_jrg/03_VCUJR20/2021_06_17_VCU_jr20_Source/2021_06_17_VCU_jr20_Source/Libraries/XMCLib/inc\xmc_wdt.h **** /**
 384:C:/Users/Yoshi/Documents/GitHub/Software/01_jrg/03_VCUJR20/2021_06_17_VCU_jr20_Source/2021_06_17_VCU_jr20_Source/Libraries/XMCLib/inc\xmc_wdt.h ****  * @param None
 385:C:/Users/Yoshi/Documents/GitHub/Software/01_jrg/03_VCUJR20/2021_06_17_VCU_jr20_Source/2021_06_17_VCU_jr20_Source/Libraries/XMCLib/inc\xmc_wdt.h ****  *
 386:C:/Users/Yoshi/Documents/GitHub/Software/01_jrg/03_VCUJR20/2021_06_17_VCU_jr20_Source/2021_06_17_VCU_jr20_Source/Libraries/XMCLib/inc\xmc_wdt.h ****  * @return None
 387:C:/Users/Yoshi/Documents/GitHub/Software/01_jrg/03_VCUJR20/2021_06_17_VCU_jr20_Source/2021_06_17_VCU_jr20_Source/Libraries/XMCLib/inc\xmc_wdt.h ****  *
 388:C:/Users/Yoshi/Documents/GitHub/Software/01_jrg/03_VCUJR20/2021_06_17_VCU_jr20_Source/2021_06_17_VCU_jr20_Source/Libraries/XMCLib/inc\xmc_wdt.h ****  * \par<b>Description:</b><br>
 389:C:/Users/Yoshi/Documents/GitHub/Software/01_jrg/03_VCUJR20/2021_06_17_VCU_jr20_Source/2021_06_17_VCU_jr20_Source/Libraries/XMCLib/inc\xmc_wdt.h ****  * Services or feeds the watchdog by writing the Magic word in SRV register.\n
 390:C:/Users/Yoshi/Documents/GitHub/Software/01_jrg/03_VCUJR20/2021_06_17_VCU_jr20_Source/2021_06_17_VCU_jr20_Source/Libraries/XMCLib/inc\xmc_wdt.h ****  * \par
 391:C:/Users/Yoshi/Documents/GitHub/Software/01_jrg/03_VCUJR20/2021_06_17_VCU_jr20_Source/2021_06_17_VCU_jr20_Source/Libraries/XMCLib/inc\xmc_wdt.h ****  * Service watchdog when count value of watchdog timer is between lower and upper window bounds. Su
 392:C:/Users/Yoshi/Documents/GitHub/Software/01_jrg/03_VCUJR20/2021_06_17_VCU_jr20_Source/2021_06_17_VCU_jr20_Source/Libraries/XMCLib/inc\xmc_wdt.h ****  * will reset watchdog timer (TIM register) to 0H and generate service indication pulse.
 393:C:/Users/Yoshi/Documents/GitHub/Software/01_jrg/03_VCUJR20/2021_06_17_VCU_jr20_Source/2021_06_17_VCU_jr20_Source/Libraries/XMCLib/inc\xmc_wdt.h ****  *
 394:C:/Users/Yoshi/Documents/GitHub/Software/01_jrg/03_VCUJR20/2021_06_17_VCU_jr20_Source/2021_06_17_VCU_jr20_Source/Libraries/XMCLib/inc\xmc_wdt.h ****  * \par<b>Note:</b><br>
 395:C:/Users/Yoshi/Documents/GitHub/Software/01_jrg/03_VCUJR20/2021_06_17_VCU_jr20_Source/2021_06_17_VCU_jr20_Source/Libraries/XMCLib/inc\xmc_wdt.h ****  * 1. invoking this API when count value of watchdog timer is less than window lower bound results
 396:C:/Users/Yoshi/Documents/GitHub/Software/01_jrg/03_VCUJR20/2021_06_17_VCU_jr20_Source/2021_06_17_VCU_jr20_Source/Libraries/XMCLib/inc\xmc_wdt.h ****  *    wrong servicing and immediately triggers reset request.
 397:C:/Users/Yoshi/Documents/GitHub/Software/01_jrg/03_VCUJR20/2021_06_17_VCU_jr20_Source/2021_06_17_VCU_jr20_Source/Libraries/XMCLib/inc\xmc_wdt.h ****  *
 398:C:/Users/Yoshi/Documents/GitHub/Software/01_jrg/03_VCUJR20/2021_06_17_VCU_jr20_Source/2021_06_17_VCU_jr20_Source/Libraries/XMCLib/inc\xmc_wdt.h ****  * \par<b>Related APIs:</b><BR>
 399:C:/Users/Yoshi/Documents/GitHub/Software/01_jrg/03_VCUJR20/2021_06_17_VCU_jr20_Source/2021_06_17_VCU_jr20_Source/Libraries/XMCLib/inc\xmc_wdt.h ****  * XMC_WDT_GetCounter(), XMC_WDT_SetWindowBounds(), XMC_WDT_SetServicePulseWidth()
 400:C:/Users/Yoshi/Documents/GitHub/Software/01_jrg/03_VCUJR20/2021_06_17_VCU_jr20_Source/2021_06_17_VCU_jr20_Source/Libraries/XMCLib/inc\xmc_wdt.h ****  */
 401:C:/Users/Yoshi/Documents/GitHub/Software/01_jrg/03_VCUJR20/2021_06_17_VCU_jr20_Source/2021_06_17_VCU_jr20_Source/Libraries/XMCLib/inc\xmc_wdt.h **** __STATIC_INLINE void XMC_WDT_Service(void)
 402:C:/Users/Yoshi/Documents/GitHub/Software/01_jrg/03_VCUJR20/2021_06_17_VCU_jr20_Source/2021_06_17_VCU_jr20_Source/Libraries/XMCLib/inc\xmc_wdt.h **** {
 117              	 .loc 2 402 0
 118              	 .cfi_startproc
 119              	 
 120              	 
 121              	 
 122 0000 80B4     	 push {r7}
 123              	.LCFI10:
 124              	 .cfi_def_cfa_offset 4
 125              	 .cfi_offset 7,-4
 126 0002 00AF     	 add r7,sp,#0
 127              	.LCFI11:
 128              	 .cfi_def_cfa_register 7
 403:C:/Users/Yoshi/Documents/GitHub/Software/01_jrg/03_VCUJR20/2021_06_17_VCU_jr20_Source/2021_06_17_VCU_jr20_Source/Libraries/XMCLib/inc\xmc_wdt.h ****   WDT->SRV = XMC_WDT_MAGIC_WORD;
 129              	 .loc 2 403 0
 130 0004 034B     	 ldr r3,.L6
 131 0006 044A     	 ldr r2,.L6+4
 132 0008 9A60     	 str r2,[r3,#8]
 404:C:/Users/Yoshi/Documents/GitHub/Software/01_jrg/03_VCUJR20/2021_06_17_VCU_jr20_Source/2021_06_17_VCU_jr20_Source/Libraries/XMCLib/inc\xmc_wdt.h **** }
 133              	 .loc 2 404 0
 134 000a BD46     	 mov sp,r7
 135              	.LCFI12:
 136              	 .cfi_def_cfa_register 13
 137              	 
 138 000c 5DF8047B 	 ldr r7,[sp],#4
 139              	.LCFI13:
 140              	 .cfi_restore 7
 141              	 .cfi_def_cfa_offset 0
 142 0010 7047     	 bx lr
 143              	.L7:
 144 0012 00BF     	 .align 2
 145              	.L6:
 146 0014 00800050 	 .word 1342210048
 147 0018 FECAADAB 	 .word -1414673666
 148              	 .cfi_endproc
 149              	.LFE257:
 151              	 .section .text.XMC_WDT_ClearAlarm,"ax",%progbits
 152              	 .align 2
 153              	 .thumb
 154              	 .thumb_func
 156              	XMC_WDT_ClearAlarm:
 157              	.LFB258:
 405:C:/Users/Yoshi/Documents/GitHub/Software/01_jrg/03_VCUJR20/2021_06_17_VCU_jr20_Source/2021_06_17_VCU_jr20_Source/Libraries/XMCLib/inc\xmc_wdt.h **** 
 406:C:/Users/Yoshi/Documents/GitHub/Software/01_jrg/03_VCUJR20/2021_06_17_VCU_jr20_Source/2021_06_17_VCU_jr20_Source/Libraries/XMCLib/inc\xmc_wdt.h **** /**
 407:C:/Users/Yoshi/Documents/GitHub/Software/01_jrg/03_VCUJR20/2021_06_17_VCU_jr20_Source/2021_06_17_VCU_jr20_Source/Libraries/XMCLib/inc\xmc_wdt.h ****  * @param None
 408:C:/Users/Yoshi/Documents/GitHub/Software/01_jrg/03_VCUJR20/2021_06_17_VCU_jr20_Source/2021_06_17_VCU_jr20_Source/Libraries/XMCLib/inc\xmc_wdt.h ****  *
 409:C:/Users/Yoshi/Documents/GitHub/Software/01_jrg/03_VCUJR20/2021_06_17_VCU_jr20_Source/2021_06_17_VCU_jr20_Source/Libraries/XMCLib/inc\xmc_wdt.h ****  * @return None
 410:C:/Users/Yoshi/Documents/GitHub/Software/01_jrg/03_VCUJR20/2021_06_17_VCU_jr20_Source/2021_06_17_VCU_jr20_Source/Libraries/XMCLib/inc\xmc_wdt.h ****  *
 411:C:/Users/Yoshi/Documents/GitHub/Software/01_jrg/03_VCUJR20/2021_06_17_VCU_jr20_Source/2021_06_17_VCU_jr20_Source/Libraries/XMCLib/inc\xmc_wdt.h ****  * \par<b>Description:</b><br>
 412:C:/Users/Yoshi/Documents/GitHub/Software/01_jrg/03_VCUJR20/2021_06_17_VCU_jr20_Source/2021_06_17_VCU_jr20_Source/Libraries/XMCLib/inc\xmc_wdt.h ****  * Clears pre-warning alarm by setting ALMC bit in WDTCLR register.\n
 413:C:/Users/Yoshi/Documents/GitHub/Software/01_jrg/03_VCUJR20/2021_06_17_VCU_jr20_Source/2021_06_17_VCU_jr20_Source/Libraries/XMCLib/inc\xmc_wdt.h ****  * \par
 414:C:/Users/Yoshi/Documents/GitHub/Software/01_jrg/03_VCUJR20/2021_06_17_VCU_jr20_Source/2021_06_17_VCU_jr20_Source/Libraries/XMCLib/inc\xmc_wdt.h ****  * In pre-warning mode, first overflow of the timer upper window bound fires the pre-warning alarm.
 415:C:/Users/Yoshi/Documents/GitHub/Software/01_jrg/03_VCUJR20/2021_06_17_VCU_jr20_Source/2021_06_17_VCU_jr20_Source/Libraries/XMCLib/inc\xmc_wdt.h ****  * must be invoked to clear the alarm alarm. After clearing of the alarm, watchdog timer must be se
 416:C:/Users/Yoshi/Documents/GitHub/Software/01_jrg/03_VCUJR20/2021_06_17_VCU_jr20_Source/2021_06_17_VCU_jr20_Source/Libraries/XMCLib/inc\xmc_wdt.h ****  * time window. Otherwise watchdog timer triggers the reset request up on crossing the upper bound 
 417:C:/Users/Yoshi/Documents/GitHub/Software/01_jrg/03_VCUJR20/2021_06_17_VCU_jr20_Source/2021_06_17_VCU_jr20_Source/Libraries/XMCLib/inc\xmc_wdt.h ****  * cycle.
 418:C:/Users/Yoshi/Documents/GitHub/Software/01_jrg/03_VCUJR20/2021_06_17_VCU_jr20_Source/2021_06_17_VCU_jr20_Source/Libraries/XMCLib/inc\xmc_wdt.h ****  *
 419:C:/Users/Yoshi/Documents/GitHub/Software/01_jrg/03_VCUJR20/2021_06_17_VCU_jr20_Source/2021_06_17_VCU_jr20_Source/Libraries/XMCLib/inc\xmc_wdt.h ****  * \par<b>Related APIs:</b><BR>
 420:C:/Users/Yoshi/Documents/GitHub/Software/01_jrg/03_VCUJR20/2021_06_17_VCU_jr20_Source/2021_06_17_VCU_jr20_Source/Libraries/XMCLib/inc\xmc_wdt.h ****  * XMC_WDT_Service(), XMC_WDT_SetMode()
 421:C:/Users/Yoshi/Documents/GitHub/Software/01_jrg/03_VCUJR20/2021_06_17_VCU_jr20_Source/2021_06_17_VCU_jr20_Source/Libraries/XMCLib/inc\xmc_wdt.h ****  */
 422:C:/Users/Yoshi/Documents/GitHub/Software/01_jrg/03_VCUJR20/2021_06_17_VCU_jr20_Source/2021_06_17_VCU_jr20_Source/Libraries/XMCLib/inc\xmc_wdt.h **** __STATIC_INLINE void XMC_WDT_ClearAlarm(void)
 423:C:/Users/Yoshi/Documents/GitHub/Software/01_jrg/03_VCUJR20/2021_06_17_VCU_jr20_Source/2021_06_17_VCU_jr20_Source/Libraries/XMCLib/inc\xmc_wdt.h **** {
 158              	 .loc 2 423 0
 159              	 .cfi_startproc
 160              	 
 161              	 
 162              	 
 163 0000 80B4     	 push {r7}
 164              	.LCFI14:
 165              	 .cfi_def_cfa_offset 4
 166              	 .cfi_offset 7,-4
 167 0002 00AF     	 add r7,sp,#0
 168              	.LCFI15:
 169              	 .cfi_def_cfa_register 7
 424:C:/Users/Yoshi/Documents/GitHub/Software/01_jrg/03_VCUJR20/2021_06_17_VCU_jr20_Source/2021_06_17_VCU_jr20_Source/Libraries/XMCLib/inc\xmc_wdt.h ****   WDT->WDTCLR = WDT_WDTCLR_ALMC_Msk;
 170              	 .loc 2 424 0
 171 0004 034B     	 ldr r3,.L9
 172 0006 0122     	 movs r2,#1
 173 0008 DA61     	 str r2,[r3,#28]
 425:C:/Users/Yoshi/Documents/GitHub/Software/01_jrg/03_VCUJR20/2021_06_17_VCU_jr20_Source/2021_06_17_VCU_jr20_Source/Libraries/XMCLib/inc\xmc_wdt.h **** }
 174              	 .loc 2 425 0
 175 000a BD46     	 mov sp,r7
 176              	.LCFI16:
 177              	 .cfi_def_cfa_register 13
 178              	 
 179 000c 5DF8047B 	 ldr r7,[sp],#4
 180              	.LCFI17:
 181              	 .cfi_restore 7
 182              	 .cfi_def_cfa_offset 0
 183 0010 7047     	 bx lr
 184              	.L10:
 185 0012 00BF     	 .align 2
 186              	.L9:
 187 0014 00800050 	 .word 1342210048
 188              	 .cfi_endproc
 189              	.LFE258:
 191              	 .section .text.WATCHDOG_Start,"ax",%progbits
 192              	 .align 2
 193              	 .thumb
 194              	 .thumb_func
 196              	WATCHDOG_Start:
 197              	.LFB259:
 198              	 .file 3 "C:/Users/Yoshi/Documents/GitHub/Software/01_jrg/03_VCUJR20/2021_06_17_VCU_jr20_Source/2021_06_17_VCU_jr20_Source/Dave/Generated/WATCHDOG/watchdog.h"
   1:C:/Users/Yoshi/Documents/GitHub/Software/01_jrg/03_VCUJR20/2021_06_17_VCU_jr20_Source/2021_06_17_VCU_jr20_Source/Dave/Generated/WATCHDOG\watchdog.h **** /**
   2:C:/Users/Yoshi/Documents/GitHub/Software/01_jrg/03_VCUJR20/2021_06_17_VCU_jr20_Source/2021_06_17_VCU_jr20_Source/Dave/Generated/WATCHDOG\watchdog.h ****  * @file watchdog.h
   3:C:/Users/Yoshi/Documents/GitHub/Software/01_jrg/03_VCUJR20/2021_06_17_VCU_jr20_Source/2021_06_17_VCU_jr20_Source/Dave/Generated/WATCHDOG\watchdog.h ****  * @date 2016-02-09
   4:C:/Users/Yoshi/Documents/GitHub/Software/01_jrg/03_VCUJR20/2021_06_17_VCU_jr20_Source/2021_06_17_VCU_jr20_Source/Dave/Generated/WATCHDOG\watchdog.h ****  *
   5:C:/Users/Yoshi/Documents/GitHub/Software/01_jrg/03_VCUJR20/2021_06_17_VCU_jr20_Source/2021_06_17_VCU_jr20_Source/Dave/Generated/WATCHDOG\watchdog.h ****  * NOTE:
   6:C:/Users/Yoshi/Documents/GitHub/Software/01_jrg/03_VCUJR20/2021_06_17_VCU_jr20_Source/2021_06_17_VCU_jr20_Source/Dave/Generated/WATCHDOG\watchdog.h ****  * This file is generated by DAVE. Any manual modification done to this file will be lost when the 
   7:C:/Users/Yoshi/Documents/GitHub/Software/01_jrg/03_VCUJR20/2021_06_17_VCU_jr20_Source/2021_06_17_VCU_jr20_Source/Dave/Generated/WATCHDOG\watchdog.h ****  *
   8:C:/Users/Yoshi/Documents/GitHub/Software/01_jrg/03_VCUJR20/2021_06_17_VCU_jr20_Source/2021_06_17_VCU_jr20_Source/Dave/Generated/WATCHDOG\watchdog.h ****  * @cond
   9:C:/Users/Yoshi/Documents/GitHub/Software/01_jrg/03_VCUJR20/2021_06_17_VCU_jr20_Source/2021_06_17_VCU_jr20_Source/Dave/Generated/WATCHDOG\watchdog.h ****  **************************************************************************************************
  10:C:/Users/Yoshi/Documents/GitHub/Software/01_jrg/03_VCUJR20/2021_06_17_VCU_jr20_Source/2021_06_17_VCU_jr20_Source/Dave/Generated/WATCHDOG\watchdog.h ****  * WATCHDOG v4.0.14 - Configures the watchdog peripheral instance.
  11:C:/Users/Yoshi/Documents/GitHub/Software/01_jrg/03_VCUJR20/2021_06_17_VCU_jr20_Source/2021_06_17_VCU_jr20_Source/Dave/Generated/WATCHDOG\watchdog.h ****  *
  12:C:/Users/Yoshi/Documents/GitHub/Software/01_jrg/03_VCUJR20/2021_06_17_VCU_jr20_Source/2021_06_17_VCU_jr20_Source/Dave/Generated/WATCHDOG\watchdog.h ****  * Copyright (c) 2016, Infineon Technologies AG
  13:C:/Users/Yoshi/Documents/GitHub/Software/01_jrg/03_VCUJR20/2021_06_17_VCU_jr20_Source/2021_06_17_VCU_jr20_Source/Dave/Generated/WATCHDOG\watchdog.h ****  * All rights reserved.
  14:C:/Users/Yoshi/Documents/GitHub/Software/01_jrg/03_VCUJR20/2021_06_17_VCU_jr20_Source/2021_06_17_VCU_jr20_Source/Dave/Generated/WATCHDOG\watchdog.h ****  *
  15:C:/Users/Yoshi/Documents/GitHub/Software/01_jrg/03_VCUJR20/2021_06_17_VCU_jr20_Source/2021_06_17_VCU_jr20_Source/Dave/Generated/WATCHDOG\watchdog.h ****  * Redistribution and use in source and binary forms, with or without modification,are permitted pr
  16:C:/Users/Yoshi/Documents/GitHub/Software/01_jrg/03_VCUJR20/2021_06_17_VCU_jr20_Source/2021_06_17_VCU_jr20_Source/Dave/Generated/WATCHDOG\watchdog.h ****  * following conditions are met:
  17:C:/Users/Yoshi/Documents/GitHub/Software/01_jrg/03_VCUJR20/2021_06_17_VCU_jr20_Source/2021_06_17_VCU_jr20_Source/Dave/Generated/WATCHDOG\watchdog.h ****  *
  18:C:/Users/Yoshi/Documents/GitHub/Software/01_jrg/03_VCUJR20/2021_06_17_VCU_jr20_Source/2021_06_17_VCU_jr20_Source/Dave/Generated/WATCHDOG\watchdog.h ****  *   Redistributions of source code must retain the above copyright notice, this list of conditions
  19:C:/Users/Yoshi/Documents/GitHub/Software/01_jrg/03_VCUJR20/2021_06_17_VCU_jr20_Source/2021_06_17_VCU_jr20_Source/Dave/Generated/WATCHDOG\watchdog.h ****  *   disclaimer.
  20:C:/Users/Yoshi/Documents/GitHub/Software/01_jrg/03_VCUJR20/2021_06_17_VCU_jr20_Source/2021_06_17_VCU_jr20_Source/Dave/Generated/WATCHDOG\watchdog.h ****  *
  21:C:/Users/Yoshi/Documents/GitHub/Software/01_jrg/03_VCUJR20/2021_06_17_VCU_jr20_Source/2021_06_17_VCU_jr20_Source/Dave/Generated/WATCHDOG\watchdog.h ****  *   Redistributions in binary form must reproduce the above copyright notice, this list of conditi
  22:C:/Users/Yoshi/Documents/GitHub/Software/01_jrg/03_VCUJR20/2021_06_17_VCU_jr20_Source/2021_06_17_VCU_jr20_Source/Dave/Generated/WATCHDOG\watchdog.h ****  *   following disclaimer in the documentation and/or other materials provided with the distributio
  23:C:/Users/Yoshi/Documents/GitHub/Software/01_jrg/03_VCUJR20/2021_06_17_VCU_jr20_Source/2021_06_17_VCU_jr20_Source/Dave/Generated/WATCHDOG\watchdog.h ****  *
  24:C:/Users/Yoshi/Documents/GitHub/Software/01_jrg/03_VCUJR20/2021_06_17_VCU_jr20_Source/2021_06_17_VCU_jr20_Source/Dave/Generated/WATCHDOG\watchdog.h ****  *   Neither the name of the copyright holders nor the names of its contributors may be used to end
  25:C:/Users/Yoshi/Documents/GitHub/Software/01_jrg/03_VCUJR20/2021_06_17_VCU_jr20_Source/2021_06_17_VCU_jr20_Source/Dave/Generated/WATCHDOG\watchdog.h ****  *   products derived from this software without specific prior written permission.
  26:C:/Users/Yoshi/Documents/GitHub/Software/01_jrg/03_VCUJR20/2021_06_17_VCU_jr20_Source/2021_06_17_VCU_jr20_Source/Dave/Generated/WATCHDOG\watchdog.h ****  *
  27:C:/Users/Yoshi/Documents/GitHub/Software/01_jrg/03_VCUJR20/2021_06_17_VCU_jr20_Source/2021_06_17_VCU_jr20_Source/Dave/Generated/WATCHDOG\watchdog.h ****  * THIS SOFTWARE IS PROVIDED BY THE COPYRIGHT HOLDERS AND CONTRIBUTORS "AS IS" AND ANY EXPRESS OR I
  28:C:/Users/Yoshi/Documents/GitHub/Software/01_jrg/03_VCUJR20/2021_06_17_VCU_jr20_Source/2021_06_17_VCU_jr20_Source/Dave/Generated/WATCHDOG\watchdog.h ****  * INCLUDING, BUT NOT LIMITED TO, THE IMPLIED WARRANTIES OF MERCHANTABILITY AND FITNESS FOR A PARTI
  29:C:/Users/Yoshi/Documents/GitHub/Software/01_jrg/03_VCUJR20/2021_06_17_VCU_jr20_Source/2021_06_17_VCU_jr20_Source/Dave/Generated/WATCHDOG\watchdog.h ****  * DISCLAIMED. IN NO EVENT SHALL THE COPYRIGHT HOLDER OR CONTRIBUTORS BE LIABLE  FOR ANY DIRECT, IN
  30:C:/Users/Yoshi/Documents/GitHub/Software/01_jrg/03_VCUJR20/2021_06_17_VCU_jr20_Source/2021_06_17_VCU_jr20_Source/Dave/Generated/WATCHDOG\watchdog.h ****  * SPECIAL, EXEMPLARY, OR CONSEQUENTIAL DAMAGES (INCLUDING, BUT NOT LIMITED TO, PROCUREMENT OF SUBS
  31:C:/Users/Yoshi/Documents/GitHub/Software/01_jrg/03_VCUJR20/2021_06_17_VCU_jr20_Source/2021_06_17_VCU_jr20_Source/Dave/Generated/WATCHDOG\watchdog.h ****  * SERVICES; LOSS OF USE, DATA, OR PROFITS; OR BUSINESS INTERRUPTION) HOWEVER CAUSED AND ON ANY THE
  32:C:/Users/Yoshi/Documents/GitHub/Software/01_jrg/03_VCUJR20/2021_06_17_VCU_jr20_Source/2021_06_17_VCU_jr20_Source/Dave/Generated/WATCHDOG\watchdog.h ****  * WHETHER IN CONTRACT, STRICT LIABILITY,OR TORT (INCLUDING NEGLIGENCE OR OTHERWISE) ARISING IN ANY
  33:C:/Users/Yoshi/Documents/GitHub/Software/01_jrg/03_VCUJR20/2021_06_17_VCU_jr20_Source/2021_06_17_VCU_jr20_Source/Dave/Generated/WATCHDOG\watchdog.h ****  * USE OF THIS SOFTWARE, EVEN IF ADVISED OF THE POSSIBILITY OF SUCH DAMAGE.
  34:C:/Users/Yoshi/Documents/GitHub/Software/01_jrg/03_VCUJR20/2021_06_17_VCU_jr20_Source/2021_06_17_VCU_jr20_Source/Dave/Generated/WATCHDOG\watchdog.h ****  *
  35:C:/Users/Yoshi/Documents/GitHub/Software/01_jrg/03_VCUJR20/2021_06_17_VCU_jr20_Source/2021_06_17_VCU_jr20_Source/Dave/Generated/WATCHDOG\watchdog.h ****  * To improve the quality of the software, users are encouraged to share modifications, enhancement
  36:C:/Users/Yoshi/Documents/GitHub/Software/01_jrg/03_VCUJR20/2021_06_17_VCU_jr20_Source/2021_06_17_VCU_jr20_Source/Dave/Generated/WATCHDOG\watchdog.h ****  * with Infineon Technologies AG (dave@infineon.com).
  37:C:/Users/Yoshi/Documents/GitHub/Software/01_jrg/03_VCUJR20/2021_06_17_VCU_jr20_Source/2021_06_17_VCU_jr20_Source/Dave/Generated/WATCHDOG\watchdog.h ****  **************************************************************************************************
  38:C:/Users/Yoshi/Documents/GitHub/Software/01_jrg/03_VCUJR20/2021_06_17_VCU_jr20_Source/2021_06_17_VCU_jr20_Source/Dave/Generated/WATCHDOG\watchdog.h ****  *
  39:C:/Users/Yoshi/Documents/GitHub/Software/01_jrg/03_VCUJR20/2021_06_17_VCU_jr20_Source/2021_06_17_VCU_jr20_Source/Dave/Generated/WATCHDOG\watchdog.h ****  * Change History
  40:C:/Users/Yoshi/Documents/GitHub/Software/01_jrg/03_VCUJR20/2021_06_17_VCU_jr20_Source/2021_06_17_VCU_jr20_Source/Dave/Generated/WATCHDOG\watchdog.h ****  * --------------
  41:C:/Users/Yoshi/Documents/GitHub/Software/01_jrg/03_VCUJR20/2021_06_17_VCU_jr20_Source/2021_06_17_VCU_jr20_Source/Dave/Generated/WATCHDOG\watchdog.h ****  *
  42:C:/Users/Yoshi/Documents/GitHub/Software/01_jrg/03_VCUJR20/2021_06_17_VCU_jr20_Source/2021_06_17_VCU_jr20_Source/Dave/Generated/WATCHDOG\watchdog.h ****  * 2015-02-16:
  43:C:/Users/Yoshi/Documents/GitHub/Software/01_jrg/03_VCUJR20/2021_06_17_VCU_jr20_Source/2021_06_17_VCU_jr20_Source/Dave/Generated/WATCHDOG\watchdog.h ****  *     - Initial version<br>
  44:C:/Users/Yoshi/Documents/GitHub/Software/01_jrg/03_VCUJR20/2021_06_17_VCU_jr20_Source/2021_06_17_VCU_jr20_Source/Dave/Generated/WATCHDOG\watchdog.h ****  *
  45:C:/Users/Yoshi/Documents/GitHub/Software/01_jrg/03_VCUJR20/2021_06_17_VCU_jr20_Source/2021_06_17_VCU_jr20_Source/Dave/Generated/WATCHDOG\watchdog.h ****  * 2015-05-08:
  46:C:/Users/Yoshi/Documents/GitHub/Software/01_jrg/03_VCUJR20/2021_06_17_VCU_jr20_Source/2021_06_17_VCU_jr20_Source/Dave/Generated/WATCHDOG\watchdog.h ****  *     - C++ guard applied to only API section<br>
  47:C:/Users/Yoshi/Documents/GitHub/Software/01_jrg/03_VCUJR20/2021_06_17_VCU_jr20_Source/2021_06_17_VCU_jr20_Source/Dave/Generated/WATCHDOG\watchdog.h ****  *     - File guard updated according to the guidelines<br>
  48:C:/Users/Yoshi/Documents/GitHub/Software/01_jrg/03_VCUJR20/2021_06_17_VCU_jr20_Source/2021_06_17_VCU_jr20_Source/Dave/Generated/WATCHDOG\watchdog.h ****  *     - Enum items of "WATCHDOG_EVENT_MODE" are changed to follow coding guidelines<br>
  49:C:/Users/Yoshi/Documents/GitHub/Software/01_jrg/03_VCUJR20/2021_06_17_VCU_jr20_Source/2021_06_17_VCU_jr20_Source/Dave/Generated/WATCHDOG\watchdog.h ****  *
  50:C:/Users/Yoshi/Documents/GitHub/Software/01_jrg/03_VCUJR20/2021_06_17_VCU_jr20_Source/2021_06_17_VCU_jr20_Source/Dave/Generated/WATCHDOG\watchdog.h ****  * 2015-06-20:
  51:C:/Users/Yoshi/Documents/GitHub/Software/01_jrg/03_VCUJR20/2021_06_17_VCU_jr20_Source/2021_06_17_VCU_jr20_Source/Dave/Generated/WATCHDOG\watchdog.h ****  *     - "callback_func_ptr" in APP config structure is updated according to the GLOBAL_SCU APP.
  52:C:/Users/Yoshi/Documents/GitHub/Software/01_jrg/03_VCUJR20/2021_06_17_VCU_jr20_Source/2021_06_17_VCU_jr20_Source/Dave/Generated/WATCHDOG\watchdog.h ****  *
  53:C:/Users/Yoshi/Documents/GitHub/Software/01_jrg/03_VCUJR20/2021_06_17_VCU_jr20_Source/2021_06_17_VCU_jr20_Source/Dave/Generated/WATCHDOG\watchdog.h ****  * 2015-06-20:
  54:C:/Users/Yoshi/Documents/GitHub/Software/01_jrg/03_VCUJR20/2021_06_17_VCU_jr20_Source/2021_06_17_VCU_jr20_Source/Dave/Generated/WATCHDOG\watchdog.h ****  *     - macro WATCHDOG_EVENT_CONFIGURATION is replaced with WATCHDOG_EVENT_VIA_SCU.
  55:C:/Users/Yoshi/Documents/GitHub/Software/01_jrg/03_VCUJR20/2021_06_17_VCU_jr20_Source/2021_06_17_VCU_jr20_Source/Dave/Generated/WATCHDOG\watchdog.h ****  *
  56:C:/Users/Yoshi/Documents/GitHub/Software/01_jrg/03_VCUJR20/2021_06_17_VCU_jr20_Source/2021_06_17_VCU_jr20_Source/Dave/Generated/WATCHDOG\watchdog.h ****  * 2016-02-09:
  57:C:/Users/Yoshi/Documents/GitHub/Software/01_jrg/03_VCUJR20/2021_06_17_VCU_jr20_Source/2021_06_17_VCU_jr20_Source/Dave/Generated/WATCHDOG\watchdog.h ****  *     - Added a check for XMC4 devices, to verify that WATCHDOG clock is enabled or not in CLOCK_X
  58:C:/Users/Yoshi/Documents/GitHub/Software/01_jrg/03_VCUJR20/2021_06_17_VCU_jr20_Source/2021_06_17_VCU_jr20_Source/Dave/Generated/WATCHDOG\watchdog.h ****  *
  59:C:/Users/Yoshi/Documents/GitHub/Software/01_jrg/03_VCUJR20/2021_06_17_VCU_jr20_Source/2021_06_17_VCU_jr20_Source/Dave/Generated/WATCHDOG\watchdog.h ****  * @endcond
  60:C:/Users/Yoshi/Documents/GitHub/Software/01_jrg/03_VCUJR20/2021_06_17_VCU_jr20_Source/2021_06_17_VCU_jr20_Source/Dave/Generated/WATCHDOG\watchdog.h ****  *
  61:C:/Users/Yoshi/Documents/GitHub/Software/01_jrg/03_VCUJR20/2021_06_17_VCU_jr20_Source/2021_06_17_VCU_jr20_Source/Dave/Generated/WATCHDOG\watchdog.h ****  */
  62:C:/Users/Yoshi/Documents/GitHub/Software/01_jrg/03_VCUJR20/2021_06_17_VCU_jr20_Source/2021_06_17_VCU_jr20_Source/Dave/Generated/WATCHDOG\watchdog.h **** 
  63:C:/Users/Yoshi/Documents/GitHub/Software/01_jrg/03_VCUJR20/2021_06_17_VCU_jr20_Source/2021_06_17_VCU_jr20_Source/Dave/Generated/WATCHDOG\watchdog.h **** #ifndef WATCHDOG_H
  64:C:/Users/Yoshi/Documents/GitHub/Software/01_jrg/03_VCUJR20/2021_06_17_VCU_jr20_Source/2021_06_17_VCU_jr20_Source/Dave/Generated/WATCHDOG\watchdog.h **** #define WATCHDOG_H
  65:C:/Users/Yoshi/Documents/GitHub/Software/01_jrg/03_VCUJR20/2021_06_17_VCU_jr20_Source/2021_06_17_VCU_jr20_Source/Dave/Generated/WATCHDOG\watchdog.h **** /**************************************************************************************************
  66:C:/Users/Yoshi/Documents/GitHub/Software/01_jrg/03_VCUJR20/2021_06_17_VCU_jr20_Source/2021_06_17_VCU_jr20_Source/Dave/Generated/WATCHDOG\watchdog.h ****  * HEADER FILES
  67:C:/Users/Yoshi/Documents/GitHub/Software/01_jrg/03_VCUJR20/2021_06_17_VCU_jr20_Source/2021_06_17_VCU_jr20_Source/Dave/Generated/WATCHDOG\watchdog.h ****  **************************************************************************************************
  68:C:/Users/Yoshi/Documents/GitHub/Software/01_jrg/03_VCUJR20/2021_06_17_VCU_jr20_Source/2021_06_17_VCU_jr20_Source/Dave/Generated/WATCHDOG\watchdog.h **** #include <xmc_wdt.h>
  69:C:/Users/Yoshi/Documents/GitHub/Software/01_jrg/03_VCUJR20/2021_06_17_VCU_jr20_Source/2021_06_17_VCU_jr20_Source/Dave/Generated/WATCHDOG\watchdog.h **** #if(UC_FAMILY == XMC4)
  70:C:/Users/Yoshi/Documents/GitHub/Software/01_jrg/03_VCUJR20/2021_06_17_VCU_jr20_Source/2021_06_17_VCU_jr20_Source/Dave/Generated/WATCHDOG\watchdog.h **** #include <CLOCK_XMC4/clock_xmc4.h>
  71:C:/Users/Yoshi/Documents/GitHub/Software/01_jrg/03_VCUJR20/2021_06_17_VCU_jr20_Source/2021_06_17_VCU_jr20_Source/Dave/Generated/WATCHDOG\watchdog.h **** #else
  72:C:/Users/Yoshi/Documents/GitHub/Software/01_jrg/03_VCUJR20/2021_06_17_VCU_jr20_Source/2021_06_17_VCU_jr20_Source/Dave/Generated/WATCHDOG\watchdog.h **** #include <CLOCK_XMC1/clock_xmc1.h>
  73:C:/Users/Yoshi/Documents/GitHub/Software/01_jrg/03_VCUJR20/2021_06_17_VCU_jr20_Source/2021_06_17_VCU_jr20_Source/Dave/Generated/WATCHDOG\watchdog.h **** #endif
  74:C:/Users/Yoshi/Documents/GitHub/Software/01_jrg/03_VCUJR20/2021_06_17_VCU_jr20_Source/2021_06_17_VCU_jr20_Source/Dave/Generated/WATCHDOG\watchdog.h **** #include "watchdog_conf.h"
  75:C:/Users/Yoshi/Documents/GitHub/Software/01_jrg/03_VCUJR20/2021_06_17_VCU_jr20_Source/2021_06_17_VCU_jr20_Source/Dave/Generated/WATCHDOG\watchdog.h **** #include <DAVE_Common.h>
  76:C:/Users/Yoshi/Documents/GitHub/Software/01_jrg/03_VCUJR20/2021_06_17_VCU_jr20_Source/2021_06_17_VCU_jr20_Source/Dave/Generated/WATCHDOG\watchdog.h **** 
  77:C:/Users/Yoshi/Documents/GitHub/Software/01_jrg/03_VCUJR20/2021_06_17_VCU_jr20_Source/2021_06_17_VCU_jr20_Source/Dave/Generated/WATCHDOG\watchdog.h **** /**************************************************************************************************
  78:C:/Users/Yoshi/Documents/GitHub/Software/01_jrg/03_VCUJR20/2021_06_17_VCU_jr20_Source/2021_06_17_VCU_jr20_Source/Dave/Generated/WATCHDOG\watchdog.h ****  * MACROS
  79:C:/Users/Yoshi/Documents/GitHub/Software/01_jrg/03_VCUJR20/2021_06_17_VCU_jr20_Source/2021_06_17_VCU_jr20_Source/Dave/Generated/WATCHDOG\watchdog.h ****  **************************************************************************************************
  80:C:/Users/Yoshi/Documents/GitHub/Software/01_jrg/03_VCUJR20/2021_06_17_VCU_jr20_Source/2021_06_17_VCU_jr20_Source/Dave/Generated/WATCHDOG\watchdog.h **** #if (!((XMC_LIB_MAJOR_VERSION == 2U) && \
  81:C:/Users/Yoshi/Documents/GitHub/Software/01_jrg/03_VCUJR20/2021_06_17_VCU_jr20_Source/2021_06_17_VCU_jr20_Source/Dave/Generated/WATCHDOG\watchdog.h ****        (XMC_LIB_MINOR_VERSION >= 0U) && \
  82:C:/Users/Yoshi/Documents/GitHub/Software/01_jrg/03_VCUJR20/2021_06_17_VCU_jr20_Source/2021_06_17_VCU_jr20_Source/Dave/Generated/WATCHDOG\watchdog.h ****        (XMC_LIB_PATCH_VERSION >= 0U)))
  83:C:/Users/Yoshi/Documents/GitHub/Software/01_jrg/03_VCUJR20/2021_06_17_VCU_jr20_Source/2021_06_17_VCU_jr20_Source/Dave/Generated/WATCHDOG\watchdog.h **** #error "WATCHDOG requires XMC Peripheral Library v2.0.0 or higher"
  84:C:/Users/Yoshi/Documents/GitHub/Software/01_jrg/03_VCUJR20/2021_06_17_VCU_jr20_Source/2021_06_17_VCU_jr20_Source/Dave/Generated/WATCHDOG\watchdog.h **** #endif
  85:C:/Users/Yoshi/Documents/GitHub/Software/01_jrg/03_VCUJR20/2021_06_17_VCU_jr20_Source/2021_06_17_VCU_jr20_Source/Dave/Generated/WATCHDOG\watchdog.h **** 
  86:C:/Users/Yoshi/Documents/GitHub/Software/01_jrg/03_VCUJR20/2021_06_17_VCU_jr20_Source/2021_06_17_VCU_jr20_Source/Dave/Generated/WATCHDOG\watchdog.h **** /**************************************************************************************************
  87:C:/Users/Yoshi/Documents/GitHub/Software/01_jrg/03_VCUJR20/2021_06_17_VCU_jr20_Source/2021_06_17_VCU_jr20_Source/Dave/Generated/WATCHDOG\watchdog.h ****  * ENUMS
  88:C:/Users/Yoshi/Documents/GitHub/Software/01_jrg/03_VCUJR20/2021_06_17_VCU_jr20_Source/2021_06_17_VCU_jr20_Source/Dave/Generated/WATCHDOG\watchdog.h ****  **************************************************************************************************
  89:C:/Users/Yoshi/Documents/GitHub/Software/01_jrg/03_VCUJR20/2021_06_17_VCU_jr20_Source/2021_06_17_VCU_jr20_Source/Dave/Generated/WATCHDOG\watchdog.h **** /**
  90:C:/Users/Yoshi/Documents/GitHub/Software/01_jrg/03_VCUJR20/2021_06_17_VCU_jr20_Source/2021_06_17_VCU_jr20_Source/Dave/Generated/WATCHDOG\watchdog.h ****  * @ingroup WATCHDOG_enumerations
  91:C:/Users/Yoshi/Documents/GitHub/Software/01_jrg/03_VCUJR20/2021_06_17_VCU_jr20_Source/2021_06_17_VCU_jr20_Source/Dave/Generated/WATCHDOG\watchdog.h ****  * @{
  92:C:/Users/Yoshi/Documents/GitHub/Software/01_jrg/03_VCUJR20/2021_06_17_VCU_jr20_Source/2021_06_17_VCU_jr20_Source/Dave/Generated/WATCHDOG\watchdog.h ****  */
  93:C:/Users/Yoshi/Documents/GitHub/Software/01_jrg/03_VCUJR20/2021_06_17_VCU_jr20_Source/2021_06_17_VCU_jr20_Source/Dave/Generated/WATCHDOG\watchdog.h **** 
  94:C:/Users/Yoshi/Documents/GitHub/Software/01_jrg/03_VCUJR20/2021_06_17_VCU_jr20_Source/2021_06_17_VCU_jr20_Source/Dave/Generated/WATCHDOG\watchdog.h **** /**
  95:C:/Users/Yoshi/Documents/GitHub/Software/01_jrg/03_VCUJR20/2021_06_17_VCU_jr20_Source/2021_06_17_VCU_jr20_Source/Dave/Generated/WATCHDOG\watchdog.h ****  *  @brief In case of XMC4000 devices, WatchDog event can be generated as  Regular Interrupt or can
  96:C:/Users/Yoshi/Documents/GitHub/Software/01_jrg/03_VCUJR20/2021_06_17_VCU_jr20_Source/2021_06_17_VCU_jr20_Source/Dave/Generated/WATCHDOG\watchdog.h ****  *         NMI Request. Where as in case of XMC1000 device, it can be generated as Regular Interrup
  97:C:/Users/Yoshi/Documents/GitHub/Software/01_jrg/03_VCUJR20/2021_06_17_VCU_jr20_Source/2021_06_17_VCU_jr20_Source/Dave/Generated/WATCHDOG\watchdog.h ****  */
  98:C:/Users/Yoshi/Documents/GitHub/Software/01_jrg/03_VCUJR20/2021_06_17_VCU_jr20_Source/2021_06_17_VCU_jr20_Source/Dave/Generated/WATCHDOG\watchdog.h **** typedef enum WATCHDOG_EVENT_MODE
  99:C:/Users/Yoshi/Documents/GitHub/Software/01_jrg/03_VCUJR20/2021_06_17_VCU_jr20_Source/2021_06_17_VCU_jr20_Source/Dave/Generated/WATCHDOG\watchdog.h **** {
 100:C:/Users/Yoshi/Documents/GitHub/Software/01_jrg/03_VCUJR20/2021_06_17_VCU_jr20_Source/2021_06_17_VCU_jr20_Source/Dave/Generated/WATCHDOG\watchdog.h ****     WATCHDOG_EVENT_MODE_INTERRUPT   = 0U, /**< Regular Interrupt */
 101:C:/Users/Yoshi/Documents/GitHub/Software/01_jrg/03_VCUJR20/2021_06_17_VCU_jr20_Source/2021_06_17_VCU_jr20_Source/Dave/Generated/WATCHDOG\watchdog.h ****     WATCHDOG_EVENT_MODE_NMI_REQUEST = 1U /**< Promoted to NMI */
 102:C:/Users/Yoshi/Documents/GitHub/Software/01_jrg/03_VCUJR20/2021_06_17_VCU_jr20_Source/2021_06_17_VCU_jr20_Source/Dave/Generated/WATCHDOG\watchdog.h **** } WATCHDOG_EVENT_MODE_t;
 103:C:/Users/Yoshi/Documents/GitHub/Software/01_jrg/03_VCUJR20/2021_06_17_VCU_jr20_Source/2021_06_17_VCU_jr20_Source/Dave/Generated/WATCHDOG\watchdog.h **** 
 104:C:/Users/Yoshi/Documents/GitHub/Software/01_jrg/03_VCUJR20/2021_06_17_VCU_jr20_Source/2021_06_17_VCU_jr20_Source/Dave/Generated/WATCHDOG\watchdog.h **** /**
 105:C:/Users/Yoshi/Documents/GitHub/Software/01_jrg/03_VCUJR20/2021_06_17_VCU_jr20_Source/2021_06_17_VCU_jr20_Source/Dave/Generated/WATCHDOG\watchdog.h ****  *  @brief Initialization status.
 106:C:/Users/Yoshi/Documents/GitHub/Software/01_jrg/03_VCUJR20/2021_06_17_VCU_jr20_Source/2021_06_17_VCU_jr20_Source/Dave/Generated/WATCHDOG\watchdog.h ****  */
 107:C:/Users/Yoshi/Documents/GitHub/Software/01_jrg/03_VCUJR20/2021_06_17_VCU_jr20_Source/2021_06_17_VCU_jr20_Source/Dave/Generated/WATCHDOG\watchdog.h **** typedef enum WATCHDOG_STATUS
 108:C:/Users/Yoshi/Documents/GitHub/Software/01_jrg/03_VCUJR20/2021_06_17_VCU_jr20_Source/2021_06_17_VCU_jr20_Source/Dave/Generated/WATCHDOG\watchdog.h **** {
 109:C:/Users/Yoshi/Documents/GitHub/Software/01_jrg/03_VCUJR20/2021_06_17_VCU_jr20_Source/2021_06_17_VCU_jr20_Source/Dave/Generated/WATCHDOG\watchdog.h ****   WATCHDOG_STATUS_SUCCESS = 0U, /**< Status success */
 110:C:/Users/Yoshi/Documents/GitHub/Software/01_jrg/03_VCUJR20/2021_06_17_VCU_jr20_Source/2021_06_17_VCU_jr20_Source/Dave/Generated/WATCHDOG\watchdog.h ****   WATCHDOG_STATUS_FAILURE, /**< Status failure */
 111:C:/Users/Yoshi/Documents/GitHub/Software/01_jrg/03_VCUJR20/2021_06_17_VCU_jr20_Source/2021_06_17_VCU_jr20_Source/Dave/Generated/WATCHDOG\watchdog.h **** } WATCHDOG_STATUS_t;
 112:C:/Users/Yoshi/Documents/GitHub/Software/01_jrg/03_VCUJR20/2021_06_17_VCU_jr20_Source/2021_06_17_VCU_jr20_Source/Dave/Generated/WATCHDOG\watchdog.h **** /**
 113:C:/Users/Yoshi/Documents/GitHub/Software/01_jrg/03_VCUJR20/2021_06_17_VCU_jr20_Source/2021_06_17_VCU_jr20_Source/Dave/Generated/WATCHDOG\watchdog.h **** * @}
 114:C:/Users/Yoshi/Documents/GitHub/Software/01_jrg/03_VCUJR20/2021_06_17_VCU_jr20_Source/2021_06_17_VCU_jr20_Source/Dave/Generated/WATCHDOG\watchdog.h **** */
 115:C:/Users/Yoshi/Documents/GitHub/Software/01_jrg/03_VCUJR20/2021_06_17_VCU_jr20_Source/2021_06_17_VCU_jr20_Source/Dave/Generated/WATCHDOG\watchdog.h **** 
 116:C:/Users/Yoshi/Documents/GitHub/Software/01_jrg/03_VCUJR20/2021_06_17_VCU_jr20_Source/2021_06_17_VCU_jr20_Source/Dave/Generated/WATCHDOG\watchdog.h **** /**************************************************************************************************
 117:C:/Users/Yoshi/Documents/GitHub/Software/01_jrg/03_VCUJR20/2021_06_17_VCU_jr20_Source/2021_06_17_VCU_jr20_Source/Dave/Generated/WATCHDOG\watchdog.h **** * DATA STRUCTURES
 118:C:/Users/Yoshi/Documents/GitHub/Software/01_jrg/03_VCUJR20/2021_06_17_VCU_jr20_Source/2021_06_17_VCU_jr20_Source/Dave/Generated/WATCHDOG\watchdog.h **** ***************************************************************************************************
 119:C:/Users/Yoshi/Documents/GitHub/Software/01_jrg/03_VCUJR20/2021_06_17_VCU_jr20_Source/2021_06_17_VCU_jr20_Source/Dave/Generated/WATCHDOG\watchdog.h **** /**
 120:C:/Users/Yoshi/Documents/GitHub/Software/01_jrg/03_VCUJR20/2021_06_17_VCU_jr20_Source/2021_06_17_VCU_jr20_Source/Dave/Generated/WATCHDOG\watchdog.h ****  * @ingroup WATCHDOG_datastructures
 121:C:/Users/Yoshi/Documents/GitHub/Software/01_jrg/03_VCUJR20/2021_06_17_VCU_jr20_Source/2021_06_17_VCU_jr20_Source/Dave/Generated/WATCHDOG\watchdog.h ****  * @{
 122:C:/Users/Yoshi/Documents/GitHub/Software/01_jrg/03_VCUJR20/2021_06_17_VCU_jr20_Source/2021_06_17_VCU_jr20_Source/Dave/Generated/WATCHDOG\watchdog.h ****  */
 123:C:/Users/Yoshi/Documents/GitHub/Software/01_jrg/03_VCUJR20/2021_06_17_VCU_jr20_Source/2021_06_17_VCU_jr20_Source/Dave/Generated/WATCHDOG\watchdog.h **** 
 124:C:/Users/Yoshi/Documents/GitHub/Software/01_jrg/03_VCUJR20/2021_06_17_VCU_jr20_Source/2021_06_17_VCU_jr20_Source/Dave/Generated/WATCHDOG\watchdog.h **** /**
 125:C:/Users/Yoshi/Documents/GitHub/Software/01_jrg/03_VCUJR20/2021_06_17_VCU_jr20_Source/2021_06_17_VCU_jr20_Source/Dave/Generated/WATCHDOG\watchdog.h ****  * @brief WATCHDOG_HandleType is  data structure for storing the GUI configured values of a WATCHDO
 126:C:/Users/Yoshi/Documents/GitHub/Software/01_jrg/03_VCUJR20/2021_06_17_VCU_jr20_Source/2021_06_17_VCU_jr20_Source/Dave/Generated/WATCHDOG\watchdog.h ****  */
 127:C:/Users/Yoshi/Documents/GitHub/Software/01_jrg/03_VCUJR20/2021_06_17_VCU_jr20_Source/2021_06_17_VCU_jr20_Source/Dave/Generated/WATCHDOG\watchdog.h **** typedef struct WATCHDOG
 128:C:/Users/Yoshi/Documents/GitHub/Software/01_jrg/03_VCUJR20/2021_06_17_VCU_jr20_Source/2021_06_17_VCU_jr20_Source/Dave/Generated/WATCHDOG\watchdog.h **** {
 129:C:/Users/Yoshi/Documents/GitHub/Software/01_jrg/03_VCUJR20/2021_06_17_VCU_jr20_Source/2021_06_17_VCU_jr20_Source/Dave/Generated/WATCHDOG\watchdog.h ****   const XMC_WDT_CONFIG_t* const config; /**< Configuration of WDT */
 130:C:/Users/Yoshi/Documents/GitHub/Software/01_jrg/03_VCUJR20/2021_06_17_VCU_jr20_Source/2021_06_17_VCU_jr20_Source/Dave/Generated/WATCHDOG\watchdog.h ****   #if ((WATCHDOG_PREWARNING_CHECK == 1U) && (WATCHDOG_EVENT_VIA_SCU == 1U))
 131:C:/Users/Yoshi/Documents/GitHub/Software/01_jrg/03_VCUJR20/2021_06_17_VCU_jr20_Source/2021_06_17_VCU_jr20_Source/Dave/Generated/WATCHDOG\watchdog.h ****   #if(UC_FAMILY == XMC4)
 132:C:/Users/Yoshi/Documents/GitHub/Software/01_jrg/03_VCUJR20/2021_06_17_VCU_jr20_Source/2021_06_17_VCU_jr20_Source/Dave/Generated/WATCHDOG\watchdog.h ****   GLOBAL_SCU_XMC4_t* const scu_global_handler; /**< pointer to SCU_GLOBAL APP instance*/
 133:C:/Users/Yoshi/Documents/GitHub/Software/01_jrg/03_VCUJR20/2021_06_17_VCU_jr20_Source/2021_06_17_VCU_jr20_Source/Dave/Generated/WATCHDOG\watchdog.h ****   GLOBAL_SCU_XMC4_EVENT_HANDLER_t callback_func_ptr; /**< Callback function pointer */
 134:C:/Users/Yoshi/Documents/GitHub/Software/01_jrg/03_VCUJR20/2021_06_17_VCU_jr20_Source/2021_06_17_VCU_jr20_Source/Dave/Generated/WATCHDOG\watchdog.h ****   #else
 135:C:/Users/Yoshi/Documents/GitHub/Software/01_jrg/03_VCUJR20/2021_06_17_VCU_jr20_Source/2021_06_17_VCU_jr20_Source/Dave/Generated/WATCHDOG\watchdog.h ****   GLOBAL_SCU_XMC1_t* const scu_global_handler; /**< pointer to SCU_GLOBAL APP instance*/
 136:C:/Users/Yoshi/Documents/GitHub/Software/01_jrg/03_VCUJR20/2021_06_17_VCU_jr20_Source/2021_06_17_VCU_jr20_Source/Dave/Generated/WATCHDOG\watchdog.h ****   GLOBAL_SCU_XMC1_EVENT_HANDLER_t callback_func_ptr; /**< Callback function pointer */
 137:C:/Users/Yoshi/Documents/GitHub/Software/01_jrg/03_VCUJR20/2021_06_17_VCU_jr20_Source/2021_06_17_VCU_jr20_Source/Dave/Generated/WATCHDOG\watchdog.h ****   #endif
 138:C:/Users/Yoshi/Documents/GitHub/Software/01_jrg/03_VCUJR20/2021_06_17_VCU_jr20_Source/2021_06_17_VCU_jr20_Source/Dave/Generated/WATCHDOG\watchdog.h ****   #endif
 139:C:/Users/Yoshi/Documents/GitHub/Software/01_jrg/03_VCUJR20/2021_06_17_VCU_jr20_Source/2021_06_17_VCU_jr20_Source/Dave/Generated/WATCHDOG\watchdog.h ****   bool  initialized; /**< Holds the initialization status */
 140:C:/Users/Yoshi/Documents/GitHub/Software/01_jrg/03_VCUJR20/2021_06_17_VCU_jr20_Source/2021_06_17_VCU_jr20_Source/Dave/Generated/WATCHDOG\watchdog.h **** } WATCHDOG_t;
 141:C:/Users/Yoshi/Documents/GitHub/Software/01_jrg/03_VCUJR20/2021_06_17_VCU_jr20_Source/2021_06_17_VCU_jr20_Source/Dave/Generated/WATCHDOG\watchdog.h **** 
 142:C:/Users/Yoshi/Documents/GitHub/Software/01_jrg/03_VCUJR20/2021_06_17_VCU_jr20_Source/2021_06_17_VCU_jr20_Source/Dave/Generated/WATCHDOG\watchdog.h **** /**
 143:C:/Users/Yoshi/Documents/GitHub/Software/01_jrg/03_VCUJR20/2021_06_17_VCU_jr20_Source/2021_06_17_VCU_jr20_Source/Dave/Generated/WATCHDOG\watchdog.h **** * @}
 144:C:/Users/Yoshi/Documents/GitHub/Software/01_jrg/03_VCUJR20/2021_06_17_VCU_jr20_Source/2021_06_17_VCU_jr20_Source/Dave/Generated/WATCHDOG\watchdog.h **** */
 145:C:/Users/Yoshi/Documents/GitHub/Software/01_jrg/03_VCUJR20/2021_06_17_VCU_jr20_Source/2021_06_17_VCU_jr20_Source/Dave/Generated/WATCHDOG\watchdog.h **** /**************************************************************************************************
 146:C:/Users/Yoshi/Documents/GitHub/Software/01_jrg/03_VCUJR20/2021_06_17_VCU_jr20_Source/2021_06_17_VCU_jr20_Source/Dave/Generated/WATCHDOG\watchdog.h **** * API Prototypes
 147:C:/Users/Yoshi/Documents/GitHub/Software/01_jrg/03_VCUJR20/2021_06_17_VCU_jr20_Source/2021_06_17_VCU_jr20_Source/Dave/Generated/WATCHDOG\watchdog.h **** ***************************************************************************************************
 148:C:/Users/Yoshi/Documents/GitHub/Software/01_jrg/03_VCUJR20/2021_06_17_VCU_jr20_Source/2021_06_17_VCU_jr20_Source/Dave/Generated/WATCHDOG\watchdog.h **** #ifdef __cplusplus
 149:C:/Users/Yoshi/Documents/GitHub/Software/01_jrg/03_VCUJR20/2021_06_17_VCU_jr20_Source/2021_06_17_VCU_jr20_Source/Dave/Generated/WATCHDOG\watchdog.h **** extern "C" {
 150:C:/Users/Yoshi/Documents/GitHub/Software/01_jrg/03_VCUJR20/2021_06_17_VCU_jr20_Source/2021_06_17_VCU_jr20_Source/Dave/Generated/WATCHDOG\watchdog.h **** #endif
 151:C:/Users/Yoshi/Documents/GitHub/Software/01_jrg/03_VCUJR20/2021_06_17_VCU_jr20_Source/2021_06_17_VCU_jr20_Source/Dave/Generated/WATCHDOG\watchdog.h **** /**
 152:C:/Users/Yoshi/Documents/GitHub/Software/01_jrg/03_VCUJR20/2021_06_17_VCU_jr20_Source/2021_06_17_VCU_jr20_Source/Dave/Generated/WATCHDOG\watchdog.h ****  * @brief Get WATCHDOG APP version
 153:C:/Users/Yoshi/Documents/GitHub/Software/01_jrg/03_VCUJR20/2021_06_17_VCU_jr20_Source/2021_06_17_VCU_jr20_Source/Dave/Generated/WATCHDOG\watchdog.h ****  * @return DAVE_APP_VERSION_t APP version information (major, minor and patch number)
 154:C:/Users/Yoshi/Documents/GitHub/Software/01_jrg/03_VCUJR20/2021_06_17_VCU_jr20_Source/2021_06_17_VCU_jr20_Source/Dave/Generated/WATCHDOG\watchdog.h ****  * <BR>
 155:C:/Users/Yoshi/Documents/GitHub/Software/01_jrg/03_VCUJR20/2021_06_17_VCU_jr20_Source/2021_06_17_VCU_jr20_Source/Dave/Generated/WATCHDOG\watchdog.h ****  * \par<b>Description:</b><br>
 156:C:/Users/Yoshi/Documents/GitHub/Software/01_jrg/03_VCUJR20/2021_06_17_VCU_jr20_Source/2021_06_17_VCU_jr20_Source/Dave/Generated/WATCHDOG\watchdog.h ****  * The function can be used to check application software compatibility with a
 157:C:/Users/Yoshi/Documents/GitHub/Software/01_jrg/03_VCUJR20/2021_06_17_VCU_jr20_Source/2021_06_17_VCU_jr20_Source/Dave/Generated/WATCHDOG\watchdog.h ****  * specific version of the APP.
 158:C:/Users/Yoshi/Documents/GitHub/Software/01_jrg/03_VCUJR20/2021_06_17_VCU_jr20_Source/2021_06_17_VCU_jr20_Source/Dave/Generated/WATCHDOG\watchdog.h ****  *
 159:C:/Users/Yoshi/Documents/GitHub/Software/01_jrg/03_VCUJR20/2021_06_17_VCU_jr20_Source/2021_06_17_VCU_jr20_Source/Dave/Generated/WATCHDOG\watchdog.h ****  * Example Usage:
 160:C:/Users/Yoshi/Documents/GitHub/Software/01_jrg/03_VCUJR20/2021_06_17_VCU_jr20_Source/2021_06_17_VCU_jr20_Source/Dave/Generated/WATCHDOG\watchdog.h ****  *
 161:C:/Users/Yoshi/Documents/GitHub/Software/01_jrg/03_VCUJR20/2021_06_17_VCU_jr20_Source/2021_06_17_VCU_jr20_Source/Dave/Generated/WATCHDOG\watchdog.h ****  * @code
 162:C:/Users/Yoshi/Documents/GitHub/Software/01_jrg/03_VCUJR20/2021_06_17_VCU_jr20_Source/2021_06_17_VCU_jr20_Source/Dave/Generated/WATCHDOG\watchdog.h ****  * #include <DAVE.h>
 163:C:/Users/Yoshi/Documents/GitHub/Software/01_jrg/03_VCUJR20/2021_06_17_VCU_jr20_Source/2021_06_17_VCU_jr20_Source/Dave/Generated/WATCHDOG\watchdog.h ****  * int main(void)
 164:C:/Users/Yoshi/Documents/GitHub/Software/01_jrg/03_VCUJR20/2021_06_17_VCU_jr20_Source/2021_06_17_VCU_jr20_Source/Dave/Generated/WATCHDOG\watchdog.h ****  * {
 165:C:/Users/Yoshi/Documents/GitHub/Software/01_jrg/03_VCUJR20/2021_06_17_VCU_jr20_Source/2021_06_17_VCU_jr20_Source/Dave/Generated/WATCHDOG\watchdog.h ****  *   DAVE_STATUS_t status;
 166:C:/Users/Yoshi/Documents/GitHub/Software/01_jrg/03_VCUJR20/2021_06_17_VCU_jr20_Source/2021_06_17_VCU_jr20_Source/Dave/Generated/WATCHDOG\watchdog.h ****  *   DAVE_APP_VERSION_t app_version;
 167:C:/Users/Yoshi/Documents/GitHub/Software/01_jrg/03_VCUJR20/2021_06_17_VCU_jr20_Source/2021_06_17_VCU_jr20_Source/Dave/Generated/WATCHDOG\watchdog.h ****  *
 168:C:/Users/Yoshi/Documents/GitHub/Software/01_jrg/03_VCUJR20/2021_06_17_VCU_jr20_Source/2021_06_17_VCU_jr20_Source/Dave/Generated/WATCHDOG\watchdog.h ****  *   status = DAVE_Init();    // WATCHDOG_Init() is called from DAVE_Init()
 169:C:/Users/Yoshi/Documents/GitHub/Software/01_jrg/03_VCUJR20/2021_06_17_VCU_jr20_Source/2021_06_17_VCU_jr20_Source/Dave/Generated/WATCHDOG\watchdog.h ****  *
 170:C:/Users/Yoshi/Documents/GitHub/Software/01_jrg/03_VCUJR20/2021_06_17_VCU_jr20_Source/2021_06_17_VCU_jr20_Source/Dave/Generated/WATCHDOG\watchdog.h ****  *   app_version = WATCHDOG_GetAppVersion();
 171:C:/Users/Yoshi/Documents/GitHub/Software/01_jrg/03_VCUJR20/2021_06_17_VCU_jr20_Source/2021_06_17_VCU_jr20_Source/Dave/Generated/WATCHDOG\watchdog.h ****  *
 172:C:/Users/Yoshi/Documents/GitHub/Software/01_jrg/03_VCUJR20/2021_06_17_VCU_jr20_Source/2021_06_17_VCU_jr20_Source/Dave/Generated/WATCHDOG\watchdog.h ****  *   if (app_version.major != 4U)
 173:C:/Users/Yoshi/Documents/GitHub/Software/01_jrg/03_VCUJR20/2021_06_17_VCU_jr20_Source/2021_06_17_VCU_jr20_Source/Dave/Generated/WATCHDOG\watchdog.h ****  *   {
 174:C:/Users/Yoshi/Documents/GitHub/Software/01_jrg/03_VCUJR20/2021_06_17_VCU_jr20_Source/2021_06_17_VCU_jr20_Source/Dave/Generated/WATCHDOG\watchdog.h ****  *     // Probably, not the right version.
 175:C:/Users/Yoshi/Documents/GitHub/Software/01_jrg/03_VCUJR20/2021_06_17_VCU_jr20_Source/2021_06_17_VCU_jr20_Source/Dave/Generated/WATCHDOG\watchdog.h ****  *   }
 176:C:/Users/Yoshi/Documents/GitHub/Software/01_jrg/03_VCUJR20/2021_06_17_VCU_jr20_Source/2021_06_17_VCU_jr20_Source/Dave/Generated/WATCHDOG\watchdog.h ****  *
 177:C:/Users/Yoshi/Documents/GitHub/Software/01_jrg/03_VCUJR20/2021_06_17_VCU_jr20_Source/2021_06_17_VCU_jr20_Source/Dave/Generated/WATCHDOG\watchdog.h ****  *   while(1U)
 178:C:/Users/Yoshi/Documents/GitHub/Software/01_jrg/03_VCUJR20/2021_06_17_VCU_jr20_Source/2021_06_17_VCU_jr20_Source/Dave/Generated/WATCHDOG\watchdog.h ****  *   {
 179:C:/Users/Yoshi/Documents/GitHub/Software/01_jrg/03_VCUJR20/2021_06_17_VCU_jr20_Source/2021_06_17_VCU_jr20_Source/Dave/Generated/WATCHDOG\watchdog.h ****  *   }
 180:C:/Users/Yoshi/Documents/GitHub/Software/01_jrg/03_VCUJR20/2021_06_17_VCU_jr20_Source/2021_06_17_VCU_jr20_Source/Dave/Generated/WATCHDOG\watchdog.h ****  *   return 1;
 181:C:/Users/Yoshi/Documents/GitHub/Software/01_jrg/03_VCUJR20/2021_06_17_VCU_jr20_Source/2021_06_17_VCU_jr20_Source/Dave/Generated/WATCHDOG\watchdog.h ****  * }
 182:C:/Users/Yoshi/Documents/GitHub/Software/01_jrg/03_VCUJR20/2021_06_17_VCU_jr20_Source/2021_06_17_VCU_jr20_Source/Dave/Generated/WATCHDOG\watchdog.h ****  * @endcode<BR>
 183:C:/Users/Yoshi/Documents/GitHub/Software/01_jrg/03_VCUJR20/2021_06_17_VCU_jr20_Source/2021_06_17_VCU_jr20_Source/Dave/Generated/WATCHDOG\watchdog.h ****  */
 184:C:/Users/Yoshi/Documents/GitHub/Software/01_jrg/03_VCUJR20/2021_06_17_VCU_jr20_Source/2021_06_17_VCU_jr20_Source/Dave/Generated/WATCHDOG\watchdog.h **** 
 185:C:/Users/Yoshi/Documents/GitHub/Software/01_jrg/03_VCUJR20/2021_06_17_VCU_jr20_Source/2021_06_17_VCU_jr20_Source/Dave/Generated/WATCHDOG\watchdog.h **** DAVE_APP_VERSION_t WATCHDOG_GetAppVersion(void);
 186:C:/Users/Yoshi/Documents/GitHub/Software/01_jrg/03_VCUJR20/2021_06_17_VCU_jr20_Source/2021_06_17_VCU_jr20_Source/Dave/Generated/WATCHDOG\watchdog.h **** 
 187:C:/Users/Yoshi/Documents/GitHub/Software/01_jrg/03_VCUJR20/2021_06_17_VCU_jr20_Source/2021_06_17_VCU_jr20_Source/Dave/Generated/WATCHDOG\watchdog.h **** /**
 188:C:/Users/Yoshi/Documents/GitHub/Software/01_jrg/03_VCUJR20/2021_06_17_VCU_jr20_Source/2021_06_17_VCU_jr20_Source/Dave/Generated/WATCHDOG\watchdog.h ****  * @ingroup WATCHDOG_apidoc
 189:C:/Users/Yoshi/Documents/GitHub/Software/01_jrg/03_VCUJR20/2021_06_17_VCU_jr20_Source/2021_06_17_VCU_jr20_Source/Dave/Generated/WATCHDOG\watchdog.h ****  * @{
 190:C:/Users/Yoshi/Documents/GitHub/Software/01_jrg/03_VCUJR20/2021_06_17_VCU_jr20_Source/2021_06_17_VCU_jr20_Source/Dave/Generated/WATCHDOG\watchdog.h ****  */
 191:C:/Users/Yoshi/Documents/GitHub/Software/01_jrg/03_VCUJR20/2021_06_17_VCU_jr20_Source/2021_06_17_VCU_jr20_Source/Dave/Generated/WATCHDOG\watchdog.h **** 
 192:C:/Users/Yoshi/Documents/GitHub/Software/01_jrg/03_VCUJR20/2021_06_17_VCU_jr20_Source/2021_06_17_VCU_jr20_Source/Dave/Generated/WATCHDOG\watchdog.h **** /**
 193:C:/Users/Yoshi/Documents/GitHub/Software/01_jrg/03_VCUJR20/2021_06_17_VCU_jr20_Source/2021_06_17_VCU_jr20_Source/Dave/Generated/WATCHDOG\watchdog.h ****  * @brief Initializes a WATCHDOG with generated configuration.
 194:C:/Users/Yoshi/Documents/GitHub/Software/01_jrg/03_VCUJR20/2021_06_17_VCU_jr20_Source/2021_06_17_VCU_jr20_Source/Dave/Generated/WATCHDOG\watchdog.h ****  *
 195:C:/Users/Yoshi/Documents/GitHub/Software/01_jrg/03_VCUJR20/2021_06_17_VCU_jr20_Source/2021_06_17_VCU_jr20_Source/Dave/Generated/WATCHDOG\watchdog.h ****  * @param handle pointer to the WATCHDOG APP handle structure.
 196:C:/Users/Yoshi/Documents/GitHub/Software/01_jrg/03_VCUJR20/2021_06_17_VCU_jr20_Source/2021_06_17_VCU_jr20_Source/Dave/Generated/WATCHDOG\watchdog.h ****  * @return WATCHDOG_STATUS_t\n
 197:C:/Users/Yoshi/Documents/GitHub/Software/01_jrg/03_VCUJR20/2021_06_17_VCU_jr20_Source/2021_06_17_VCU_jr20_Source/Dave/Generated/WATCHDOG\watchdog.h ****  *         WATCHDOG_STATUS_SUCCESS : if initialization is successful\n
 198:C:/Users/Yoshi/Documents/GitHub/Software/01_jrg/03_VCUJR20/2021_06_17_VCU_jr20_Source/2021_06_17_VCU_jr20_Source/Dave/Generated/WATCHDOG\watchdog.h ****  *         WATCHDOG_STATUS_FAILURE : if initialization is failed
 199:C:/Users/Yoshi/Documents/GitHub/Software/01_jrg/03_VCUJR20/2021_06_17_VCU_jr20_Source/2021_06_17_VCU_jr20_Source/Dave/Generated/WATCHDOG\watchdog.h ****  * <BR>
 200:C:/Users/Yoshi/Documents/GitHub/Software/01_jrg/03_VCUJR20/2021_06_17_VCU_jr20_Source/2021_06_17_VCU_jr20_Source/Dave/Generated/WATCHDOG\watchdog.h ****  * \par<b>Description:</b><br>
 201:C:/Users/Yoshi/Documents/GitHub/Software/01_jrg/03_VCUJR20/2021_06_17_VCU_jr20_Source/2021_06_17_VCU_jr20_Source/Dave/Generated/WATCHDOG\watchdog.h ****  * <ul>
 202:C:/Users/Yoshi/Documents/GitHub/Software/01_jrg/03_VCUJR20/2021_06_17_VCU_jr20_Source/2021_06_17_VCU_jr20_Source/Dave/Generated/WATCHDOG\watchdog.h ****  * <li>Enable the WDT module.</li>
 203:C:/Users/Yoshi/Documents/GitHub/Software/01_jrg/03_VCUJR20/2021_06_17_VCU_jr20_Source/2021_06_17_VCU_jr20_Source/Dave/Generated/WATCHDOG\watchdog.h ****  * <li>Configure the service upper and lower bound settings</li>
 204:C:/Users/Yoshi/Documents/GitHub/Software/01_jrg/03_VCUJR20/2021_06_17_VCU_jr20_Source/2021_06_17_VCU_jr20_Source/Dave/Generated/WATCHDOG\watchdog.h ****  * <li>Configure the Pre-warning alarm event, if enabled</li>
 205:C:/Users/Yoshi/Documents/GitHub/Software/01_jrg/03_VCUJR20/2021_06_17_VCU_jr20_Source/2021_06_17_VCU_jr20_Source/Dave/Generated/WATCHDOG\watchdog.h ****  * </ul>
 206:C:/Users/Yoshi/Documents/GitHub/Software/01_jrg/03_VCUJR20/2021_06_17_VCU_jr20_Source/2021_06_17_VCU_jr20_Source/Dave/Generated/WATCHDOG\watchdog.h ****  *
 207:C:/Users/Yoshi/Documents/GitHub/Software/01_jrg/03_VCUJR20/2021_06_17_VCU_jr20_Source/2021_06_17_VCU_jr20_Source/Dave/Generated/WATCHDOG\watchdog.h ****  * Example Usage:
 208:C:/Users/Yoshi/Documents/GitHub/Software/01_jrg/03_VCUJR20/2021_06_17_VCU_jr20_Source/2021_06_17_VCU_jr20_Source/Dave/Generated/WATCHDOG\watchdog.h ****  *
 209:C:/Users/Yoshi/Documents/GitHub/Software/01_jrg/03_VCUJR20/2021_06_17_VCU_jr20_Source/2021_06_17_VCU_jr20_Source/Dave/Generated/WATCHDOG\watchdog.h ****  * @code
 210:C:/Users/Yoshi/Documents/GitHub/Software/01_jrg/03_VCUJR20/2021_06_17_VCU_jr20_Source/2021_06_17_VCU_jr20_Source/Dave/Generated/WATCHDOG\watchdog.h ****  * #include <DAVE.h>
 211:C:/Users/Yoshi/Documents/GitHub/Software/01_jrg/03_VCUJR20/2021_06_17_VCU_jr20_Source/2021_06_17_VCU_jr20_Source/Dave/Generated/WATCHDOG\watchdog.h ****  * int main(void)
 212:C:/Users/Yoshi/Documents/GitHub/Software/01_jrg/03_VCUJR20/2021_06_17_VCU_jr20_Source/2021_06_17_VCU_jr20_Source/Dave/Generated/WATCHDOG\watchdog.h ****  * {
 213:C:/Users/Yoshi/Documents/GitHub/Software/01_jrg/03_VCUJR20/2021_06_17_VCU_jr20_Source/2021_06_17_VCU_jr20_Source/Dave/Generated/WATCHDOG\watchdog.h ****  *  // ... Initializes Apps configurations ...
 214:C:/Users/Yoshi/Documents/GitHub/Software/01_jrg/03_VCUJR20/2021_06_17_VCU_jr20_Source/2021_06_17_VCU_jr20_Source/Dave/Generated/WATCHDOG\watchdog.h ****  *  DAVE_Init(); // WATCHDOG_Init(&WATCHDOG_0) will be called from DAVE_Init()
 215:C:/Users/Yoshi/Documents/GitHub/Software/01_jrg/03_VCUJR20/2021_06_17_VCU_jr20_Source/2021_06_17_VCU_jr20_Source/Dave/Generated/WATCHDOG\watchdog.h ****  *
 216:C:/Users/Yoshi/Documents/GitHub/Software/01_jrg/03_VCUJR20/2021_06_17_VCU_jr20_Source/2021_06_17_VCU_jr20_Source/Dave/Generated/WATCHDOG\watchdog.h ****  *  while(1U)
 217:C:/Users/Yoshi/Documents/GitHub/Software/01_jrg/03_VCUJR20/2021_06_17_VCU_jr20_Source/2021_06_17_VCU_jr20_Source/Dave/Generated/WATCHDOG\watchdog.h ****  *  {
 218:C:/Users/Yoshi/Documents/GitHub/Software/01_jrg/03_VCUJR20/2021_06_17_VCU_jr20_Source/2021_06_17_VCU_jr20_Source/Dave/Generated/WATCHDOG\watchdog.h ****  *  }
 219:C:/Users/Yoshi/Documents/GitHub/Software/01_jrg/03_VCUJR20/2021_06_17_VCU_jr20_Source/2021_06_17_VCU_jr20_Source/Dave/Generated/WATCHDOG\watchdog.h ****  *
 220:C:/Users/Yoshi/Documents/GitHub/Software/01_jrg/03_VCUJR20/2021_06_17_VCU_jr20_Source/2021_06_17_VCU_jr20_Source/Dave/Generated/WATCHDOG\watchdog.h ****  *  return 1;
 221:C:/Users/Yoshi/Documents/GitHub/Software/01_jrg/03_VCUJR20/2021_06_17_VCU_jr20_Source/2021_06_17_VCU_jr20_Source/Dave/Generated/WATCHDOG\watchdog.h ****  * }
 222:C:/Users/Yoshi/Documents/GitHub/Software/01_jrg/03_VCUJR20/2021_06_17_VCU_jr20_Source/2021_06_17_VCU_jr20_Source/Dave/Generated/WATCHDOG\watchdog.h ****  *
 223:C:/Users/Yoshi/Documents/GitHub/Software/01_jrg/03_VCUJR20/2021_06_17_VCU_jr20_Source/2021_06_17_VCU_jr20_Source/Dave/Generated/WATCHDOG\watchdog.h ****  * @endcode<BR> </p>
 224:C:/Users/Yoshi/Documents/GitHub/Software/01_jrg/03_VCUJR20/2021_06_17_VCU_jr20_Source/2021_06_17_VCU_jr20_Source/Dave/Generated/WATCHDOG\watchdog.h ****  */
 225:C:/Users/Yoshi/Documents/GitHub/Software/01_jrg/03_VCUJR20/2021_06_17_VCU_jr20_Source/2021_06_17_VCU_jr20_Source/Dave/Generated/WATCHDOG\watchdog.h **** WATCHDOG_STATUS_t WATCHDOG_Init(WATCHDOG_t *handle);
 226:C:/Users/Yoshi/Documents/GitHub/Software/01_jrg/03_VCUJR20/2021_06_17_VCU_jr20_Source/2021_06_17_VCU_jr20_Source/Dave/Generated/WATCHDOG\watchdog.h **** 
 227:C:/Users/Yoshi/Documents/GitHub/Software/01_jrg/03_VCUJR20/2021_06_17_VCU_jr20_Source/2021_06_17_VCU_jr20_Source/Dave/Generated/WATCHDOG\watchdog.h **** /**
 228:C:/Users/Yoshi/Documents/GitHub/Software/01_jrg/03_VCUJR20/2021_06_17_VCU_jr20_Source/2021_06_17_VCU_jr20_Source/Dave/Generated/WATCHDOG\watchdog.h ****  * @brief Starts the WATCHDOG timer.
 229:C:/Users/Yoshi/Documents/GitHub/Software/01_jrg/03_VCUJR20/2021_06_17_VCU_jr20_Source/2021_06_17_VCU_jr20_Source/Dave/Generated/WATCHDOG\watchdog.h ****  *
 230:C:/Users/Yoshi/Documents/GitHub/Software/01_jrg/03_VCUJR20/2021_06_17_VCU_jr20_Source/2021_06_17_VCU_jr20_Source/Dave/Generated/WATCHDOG\watchdog.h ****  * @return None
 231:C:/Users/Yoshi/Documents/GitHub/Software/01_jrg/03_VCUJR20/2021_06_17_VCU_jr20_Source/2021_06_17_VCU_jr20_Source/Dave/Generated/WATCHDOG\watchdog.h ****  * <BR>
 232:C:/Users/Yoshi/Documents/GitHub/Software/01_jrg/03_VCUJR20/2021_06_17_VCU_jr20_Source/2021_06_17_VCU_jr20_Source/Dave/Generated/WATCHDOG\watchdog.h ****  * 
 233:C:/Users/Yoshi/Documents/GitHub/Software/01_jrg/03_VCUJR20/2021_06_17_VCU_jr20_Source/2021_06_17_VCU_jr20_Source/Dave/Generated/WATCHDOG\watchdog.h ****  * \par<b>Description:</b><br>
 234:C:/Users/Yoshi/Documents/GitHub/Software/01_jrg/03_VCUJR20/2021_06_17_VCU_jr20_Source/2021_06_17_VCU_jr20_Source/Dave/Generated/WATCHDOG\watchdog.h ****  * After starting, WDT has to be serviced with in the specified service window boundary.
 235:C:/Users/Yoshi/Documents/GitHub/Software/01_jrg/03_VCUJR20/2021_06_17_VCU_jr20_Source/2021_06_17_VCU_jr20_Source/Dave/Generated/WATCHDOG\watchdog.h ****  * This can done by invoking WATCHDOG_Service(). If failed service, leads to system reset.
 236:C:/Users/Yoshi/Documents/GitHub/Software/01_jrg/03_VCUJR20/2021_06_17_VCU_jr20_Source/2021_06_17_VCU_jr20_Source/Dave/Generated/WATCHDOG\watchdog.h ****  *
 237:C:/Users/Yoshi/Documents/GitHub/Software/01_jrg/03_VCUJR20/2021_06_17_VCU_jr20_Source/2021_06_17_VCU_jr20_Source/Dave/Generated/WATCHDOG\watchdog.h ****  * Example Usage:
 238:C:/Users/Yoshi/Documents/GitHub/Software/01_jrg/03_VCUJR20/2021_06_17_VCU_jr20_Source/2021_06_17_VCU_jr20_Source/Dave/Generated/WATCHDOG\watchdog.h ****  *
 239:C:/Users/Yoshi/Documents/GitHub/Software/01_jrg/03_VCUJR20/2021_06_17_VCU_jr20_Source/2021_06_17_VCU_jr20_Source/Dave/Generated/WATCHDOG\watchdog.h ****  * @code
 240:C:/Users/Yoshi/Documents/GitHub/Software/01_jrg/03_VCUJR20/2021_06_17_VCU_jr20_Source/2021_06_17_VCU_jr20_Source/Dave/Generated/WATCHDOG\watchdog.h ****  * #include <DAVE.h>
 241:C:/Users/Yoshi/Documents/GitHub/Software/01_jrg/03_VCUJR20/2021_06_17_VCU_jr20_Source/2021_06_17_VCU_jr20_Source/Dave/Generated/WATCHDOG\watchdog.h ****  * int main(void)
 242:C:/Users/Yoshi/Documents/GitHub/Software/01_jrg/03_VCUJR20/2021_06_17_VCU_jr20_Source/2021_06_17_VCU_jr20_Source/Dave/Generated/WATCHDOG\watchdog.h ****  * {
 243:C:/Users/Yoshi/Documents/GitHub/Software/01_jrg/03_VCUJR20/2021_06_17_VCU_jr20_Source/2021_06_17_VCU_jr20_Source/Dave/Generated/WATCHDOG\watchdog.h ****  *   DAVE_STATUS_t status;
 244:C:/Users/Yoshi/Documents/GitHub/Software/01_jrg/03_VCUJR20/2021_06_17_VCU_jr20_Source/2021_06_17_VCU_jr20_Source/Dave/Generated/WATCHDOG\watchdog.h ****  *
 245:C:/Users/Yoshi/Documents/GitHub/Software/01_jrg/03_VCUJR20/2021_06_17_VCU_jr20_Source/2021_06_17_VCU_jr20_Source/Dave/Generated/WATCHDOG\watchdog.h ****  *   status = DAVE_Init();        // Initialization of DAVE Apps
 246:C:/Users/Yoshi/Documents/GitHub/Software/01_jrg/03_VCUJR20/2021_06_17_VCU_jr20_Source/2021_06_17_VCU_jr20_Source/Dave/Generated/WATCHDOG\watchdog.h ****  *
 247:C:/Users/Yoshi/Documents/GitHub/Software/01_jrg/03_VCUJR20/2021_06_17_VCU_jr20_Source/2021_06_17_VCU_jr20_Source/Dave/Generated/WATCHDOG\watchdog.h ****  *   if(status == DAVE_STATUS_SUCCESS)
 248:C:/Users/Yoshi/Documents/GitHub/Software/01_jrg/03_VCUJR20/2021_06_17_VCU_jr20_Source/2021_06_17_VCU_jr20_Source/Dave/Generated/WATCHDOG\watchdog.h ****  *   {
 249:C:/Users/Yoshi/Documents/GitHub/Software/01_jrg/03_VCUJR20/2021_06_17_VCU_jr20_Source/2021_06_17_VCU_jr20_Source/Dave/Generated/WATCHDOG\watchdog.h ****  *     WATCHDOG_Start(); // Start the watchdog timer
 250:C:/Users/Yoshi/Documents/GitHub/Software/01_jrg/03_VCUJR20/2021_06_17_VCU_jr20_Source/2021_06_17_VCU_jr20_Source/Dave/Generated/WATCHDOG\watchdog.h ****  *   }
 251:C:/Users/Yoshi/Documents/GitHub/Software/01_jrg/03_VCUJR20/2021_06_17_VCU_jr20_Source/2021_06_17_VCU_jr20_Source/Dave/Generated/WATCHDOG\watchdog.h ****  *
 252:C:/Users/Yoshi/Documents/GitHub/Software/01_jrg/03_VCUJR20/2021_06_17_VCU_jr20_Source/2021_06_17_VCU_jr20_Source/Dave/Generated/WATCHDOG\watchdog.h ****  *   while(1U)
 253:C:/Users/Yoshi/Documents/GitHub/Software/01_jrg/03_VCUJR20/2021_06_17_VCU_jr20_Source/2021_06_17_VCU_jr20_Source/Dave/Generated/WATCHDOG\watchdog.h ****  *   {
 254:C:/Users/Yoshi/Documents/GitHub/Software/01_jrg/03_VCUJR20/2021_06_17_VCU_jr20_Source/2021_06_17_VCU_jr20_Source/Dave/Generated/WATCHDOG\watchdog.h ****  *   }
 255:C:/Users/Yoshi/Documents/GitHub/Software/01_jrg/03_VCUJR20/2021_06_17_VCU_jr20_Source/2021_06_17_VCU_jr20_Source/Dave/Generated/WATCHDOG\watchdog.h ****  *
 256:C:/Users/Yoshi/Documents/GitHub/Software/01_jrg/03_VCUJR20/2021_06_17_VCU_jr20_Source/2021_06_17_VCU_jr20_Source/Dave/Generated/WATCHDOG\watchdog.h ****  *   return 1;
 257:C:/Users/Yoshi/Documents/GitHub/Software/01_jrg/03_VCUJR20/2021_06_17_VCU_jr20_Source/2021_06_17_VCU_jr20_Source/Dave/Generated/WATCHDOG\watchdog.h ****  * }
 258:C:/Users/Yoshi/Documents/GitHub/Software/01_jrg/03_VCUJR20/2021_06_17_VCU_jr20_Source/2021_06_17_VCU_jr20_Source/Dave/Generated/WATCHDOG\watchdog.h ****  *
 259:C:/Users/Yoshi/Documents/GitHub/Software/01_jrg/03_VCUJR20/2021_06_17_VCU_jr20_Source/2021_06_17_VCU_jr20_Source/Dave/Generated/WATCHDOG\watchdog.h ****  * void Watchdog_Handler(void)
 260:C:/Users/Yoshi/Documents/GitHub/Software/01_jrg/03_VCUJR20/2021_06_17_VCU_jr20_Source/2021_06_17_VCU_jr20_Source/Dave/Generated/WATCHDOG\watchdog.h ****  * {
 261:C:/Users/Yoshi/Documents/GitHub/Software/01_jrg/03_VCUJR20/2021_06_17_VCU_jr20_Source/2021_06_17_VCU_jr20_Source/Dave/Generated/WATCHDOG\watchdog.h ****  *   WATCHDOG_Service(); //service the watchdog timer.
 262:C:/Users/Yoshi/Documents/GitHub/Software/01_jrg/03_VCUJR20/2021_06_17_VCU_jr20_Source/2021_06_17_VCU_jr20_Source/Dave/Generated/WATCHDOG\watchdog.h ****  *   WATCHDOG_Stop();
 263:C:/Users/Yoshi/Documents/GitHub/Software/01_jrg/03_VCUJR20/2021_06_17_VCU_jr20_Source/2021_06_17_VCU_jr20_Source/Dave/Generated/WATCHDOG\watchdog.h ****  * }
 264:C:/Users/Yoshi/Documents/GitHub/Software/01_jrg/03_VCUJR20/2021_06_17_VCU_jr20_Source/2021_06_17_VCU_jr20_Source/Dave/Generated/WATCHDOG\watchdog.h ****  *
 265:C:/Users/Yoshi/Documents/GitHub/Software/01_jrg/03_VCUJR20/2021_06_17_VCU_jr20_Source/2021_06_17_VCU_jr20_Source/Dave/Generated/WATCHDOG\watchdog.h ****  * @endcode<BR> </p>
 266:C:/Users/Yoshi/Documents/GitHub/Software/01_jrg/03_VCUJR20/2021_06_17_VCU_jr20_Source/2021_06_17_VCU_jr20_Source/Dave/Generated/WATCHDOG\watchdog.h ****  */
 267:C:/Users/Yoshi/Documents/GitHub/Software/01_jrg/03_VCUJR20/2021_06_17_VCU_jr20_Source/2021_06_17_VCU_jr20_Source/Dave/Generated/WATCHDOG\watchdog.h **** __STATIC_INLINE void WATCHDOG_Start(void)
 268:C:/Users/Yoshi/Documents/GitHub/Software/01_jrg/03_VCUJR20/2021_06_17_VCU_jr20_Source/2021_06_17_VCU_jr20_Source/Dave/Generated/WATCHDOG\watchdog.h **** {
 199              	 .loc 3 268 0
 200              	 .cfi_startproc
 201              	 
 202              	 
 203 0000 80B5     	 push {r7,lr}
 204              	.LCFI18:
 205              	 .cfi_def_cfa_offset 8
 206              	 .cfi_offset 7,-8
 207              	 .cfi_offset 14,-4
 208 0002 00AF     	 add r7,sp,#0
 209              	.LCFI19:
 210              	 .cfi_def_cfa_register 7
 269:C:/Users/Yoshi/Documents/GitHub/Software/01_jrg/03_VCUJR20/2021_06_17_VCU_jr20_Source/2021_06_17_VCU_jr20_Source/Dave/Generated/WATCHDOG\watchdog.h ****   XMC_WDT_Start();
 211              	 .loc 3 269 0
 212 0004 FFF7FEFF 	 bl XMC_WDT_Start
 270:C:/Users/Yoshi/Documents/GitHub/Software/01_jrg/03_VCUJR20/2021_06_17_VCU_jr20_Source/2021_06_17_VCU_jr20_Source/Dave/Generated/WATCHDOG\watchdog.h **** }
 213              	 .loc 3 270 0
 214 0008 80BD     	 pop {r7,pc}
 215              	 .cfi_endproc
 216              	.LFE259:
 218 000a 00BF     	 .section .text.WATCHDOG_Service,"ax",%progbits
 219              	 .align 2
 220              	 .thumb
 221              	 .thumb_func
 223              	WATCHDOG_Service:
 224              	.LFB261:
 271:C:/Users/Yoshi/Documents/GitHub/Software/01_jrg/03_VCUJR20/2021_06_17_VCU_jr20_Source/2021_06_17_VCU_jr20_Source/Dave/Generated/WATCHDOG\watchdog.h **** 
 272:C:/Users/Yoshi/Documents/GitHub/Software/01_jrg/03_VCUJR20/2021_06_17_VCU_jr20_Source/2021_06_17_VCU_jr20_Source/Dave/Generated/WATCHDOG\watchdog.h **** /**
 273:C:/Users/Yoshi/Documents/GitHub/Software/01_jrg/03_VCUJR20/2021_06_17_VCU_jr20_Source/2021_06_17_VCU_jr20_Source/Dave/Generated/WATCHDOG\watchdog.h ****  * @brief Stops the WATCHDOG timer.
 274:C:/Users/Yoshi/Documents/GitHub/Software/01_jrg/03_VCUJR20/2021_06_17_VCU_jr20_Source/2021_06_17_VCU_jr20_Source/Dave/Generated/WATCHDOG\watchdog.h ****  *
 275:C:/Users/Yoshi/Documents/GitHub/Software/01_jrg/03_VCUJR20/2021_06_17_VCU_jr20_Source/2021_06_17_VCU_jr20_Source/Dave/Generated/WATCHDOG\watchdog.h ****  * @return None
 276:C:/Users/Yoshi/Documents/GitHub/Software/01_jrg/03_VCUJR20/2021_06_17_VCU_jr20_Source/2021_06_17_VCU_jr20_Source/Dave/Generated/WATCHDOG\watchdog.h ****  *            <BR>
 277:C:/Users/Yoshi/Documents/GitHub/Software/01_jrg/03_VCUJR20/2021_06_17_VCU_jr20_Source/2021_06_17_VCU_jr20_Source/Dave/Generated/WATCHDOG\watchdog.h ****  *
 278:C:/Users/Yoshi/Documents/GitHub/Software/01_jrg/03_VCUJR20/2021_06_17_VCU_jr20_Source/2021_06_17_VCU_jr20_Source/Dave/Generated/WATCHDOG\watchdog.h ****  * \par<b>Description:</b><br>
 279:C:/Users/Yoshi/Documents/GitHub/Software/01_jrg/03_VCUJR20/2021_06_17_VCU_jr20_Source/2021_06_17_VCU_jr20_Source/Dave/Generated/WATCHDOG\watchdog.h ****  * WATCHDOG_Stop() can be used to pause the watchog timer as needed. To resume invoke WATCHDOG_Star
 280:C:/Users/Yoshi/Documents/GitHub/Software/01_jrg/03_VCUJR20/2021_06_17_VCU_jr20_Source/2021_06_17_VCU_jr20_Source/Dave/Generated/WATCHDOG\watchdog.h ****  * 
 281:C:/Users/Yoshi/Documents/GitHub/Software/01_jrg/03_VCUJR20/2021_06_17_VCU_jr20_Source/2021_06_17_VCU_jr20_Source/Dave/Generated/WATCHDOG\watchdog.h ****  * Example Usage:
 282:C:/Users/Yoshi/Documents/GitHub/Software/01_jrg/03_VCUJR20/2021_06_17_VCU_jr20_Source/2021_06_17_VCU_jr20_Source/Dave/Generated/WATCHDOG\watchdog.h ****  *
 283:C:/Users/Yoshi/Documents/GitHub/Software/01_jrg/03_VCUJR20/2021_06_17_VCU_jr20_Source/2021_06_17_VCU_jr20_Source/Dave/Generated/WATCHDOG\watchdog.h ****  * @code
 284:C:/Users/Yoshi/Documents/GitHub/Software/01_jrg/03_VCUJR20/2021_06_17_VCU_jr20_Source/2021_06_17_VCU_jr20_Source/Dave/Generated/WATCHDOG\watchdog.h ****  * #include <DAVE.h>
 285:C:/Users/Yoshi/Documents/GitHub/Software/01_jrg/03_VCUJR20/2021_06_17_VCU_jr20_Source/2021_06_17_VCU_jr20_Source/Dave/Generated/WATCHDOG\watchdog.h ****  * int main(void)
 286:C:/Users/Yoshi/Documents/GitHub/Software/01_jrg/03_VCUJR20/2021_06_17_VCU_jr20_Source/2021_06_17_VCU_jr20_Source/Dave/Generated/WATCHDOG\watchdog.h ****  * {
 287:C:/Users/Yoshi/Documents/GitHub/Software/01_jrg/03_VCUJR20/2021_06_17_VCU_jr20_Source/2021_06_17_VCU_jr20_Source/Dave/Generated/WATCHDOG\watchdog.h ****  *   DAVE_STATUS_t status;
 288:C:/Users/Yoshi/Documents/GitHub/Software/01_jrg/03_VCUJR20/2021_06_17_VCU_jr20_Source/2021_06_17_VCU_jr20_Source/Dave/Generated/WATCHDOG\watchdog.h ****  *
 289:C:/Users/Yoshi/Documents/GitHub/Software/01_jrg/03_VCUJR20/2021_06_17_VCU_jr20_Source/2021_06_17_VCU_jr20_Source/Dave/Generated/WATCHDOG\watchdog.h ****  *   status = DAVE_Init();        // Initialization of DAVE Apps
 290:C:/Users/Yoshi/Documents/GitHub/Software/01_jrg/03_VCUJR20/2021_06_17_VCU_jr20_Source/2021_06_17_VCU_jr20_Source/Dave/Generated/WATCHDOG\watchdog.h ****  *
 291:C:/Users/Yoshi/Documents/GitHub/Software/01_jrg/03_VCUJR20/2021_06_17_VCU_jr20_Source/2021_06_17_VCU_jr20_Source/Dave/Generated/WATCHDOG\watchdog.h ****  *   if(status == DAVE_STATUS_SUCCESS)
 292:C:/Users/Yoshi/Documents/GitHub/Software/01_jrg/03_VCUJR20/2021_06_17_VCU_jr20_Source/2021_06_17_VCU_jr20_Source/Dave/Generated/WATCHDOG\watchdog.h ****  *   {
 293:C:/Users/Yoshi/Documents/GitHub/Software/01_jrg/03_VCUJR20/2021_06_17_VCU_jr20_Source/2021_06_17_VCU_jr20_Source/Dave/Generated/WATCHDOG\watchdog.h ****  *     WATCHDOG_Start(); // Start the watchdog timer
 294:C:/Users/Yoshi/Documents/GitHub/Software/01_jrg/03_VCUJR20/2021_06_17_VCU_jr20_Source/2021_06_17_VCU_jr20_Source/Dave/Generated/WATCHDOG\watchdog.h ****  *   }
 295:C:/Users/Yoshi/Documents/GitHub/Software/01_jrg/03_VCUJR20/2021_06_17_VCU_jr20_Source/2021_06_17_VCU_jr20_Source/Dave/Generated/WATCHDOG\watchdog.h ****  *
 296:C:/Users/Yoshi/Documents/GitHub/Software/01_jrg/03_VCUJR20/2021_06_17_VCU_jr20_Source/2021_06_17_VCU_jr20_Source/Dave/Generated/WATCHDOG\watchdog.h ****  *   while(1U)
 297:C:/Users/Yoshi/Documents/GitHub/Software/01_jrg/03_VCUJR20/2021_06_17_VCU_jr20_Source/2021_06_17_VCU_jr20_Source/Dave/Generated/WATCHDOG\watchdog.h ****  *   {
 298:C:/Users/Yoshi/Documents/GitHub/Software/01_jrg/03_VCUJR20/2021_06_17_VCU_jr20_Source/2021_06_17_VCU_jr20_Source/Dave/Generated/WATCHDOG\watchdog.h ****  *   }
 299:C:/Users/Yoshi/Documents/GitHub/Software/01_jrg/03_VCUJR20/2021_06_17_VCU_jr20_Source/2021_06_17_VCU_jr20_Source/Dave/Generated/WATCHDOG\watchdog.h ****  *
 300:C:/Users/Yoshi/Documents/GitHub/Software/01_jrg/03_VCUJR20/2021_06_17_VCU_jr20_Source/2021_06_17_VCU_jr20_Source/Dave/Generated/WATCHDOG\watchdog.h ****  *   return 1;
 301:C:/Users/Yoshi/Documents/GitHub/Software/01_jrg/03_VCUJR20/2021_06_17_VCU_jr20_Source/2021_06_17_VCU_jr20_Source/Dave/Generated/WATCHDOG\watchdog.h ****  * }
 302:C:/Users/Yoshi/Documents/GitHub/Software/01_jrg/03_VCUJR20/2021_06_17_VCU_jr20_Source/2021_06_17_VCU_jr20_Source/Dave/Generated/WATCHDOG\watchdog.h ****  *
 303:C:/Users/Yoshi/Documents/GitHub/Software/01_jrg/03_VCUJR20/2021_06_17_VCU_jr20_Source/2021_06_17_VCU_jr20_Source/Dave/Generated/WATCHDOG\watchdog.h ****  * void Watchdog_Handler(void)
 304:C:/Users/Yoshi/Documents/GitHub/Software/01_jrg/03_VCUJR20/2021_06_17_VCU_jr20_Source/2021_06_17_VCU_jr20_Source/Dave/Generated/WATCHDOG\watchdog.h ****  * {
 305:C:/Users/Yoshi/Documents/GitHub/Software/01_jrg/03_VCUJR20/2021_06_17_VCU_jr20_Source/2021_06_17_VCU_jr20_Source/Dave/Generated/WATCHDOG\watchdog.h ****  *   WATCHDOG_ClearAlarm(); //clears the alarm flag
 306:C:/Users/Yoshi/Documents/GitHub/Software/01_jrg/03_VCUJR20/2021_06_17_VCU_jr20_Source/2021_06_17_VCU_jr20_Source/Dave/Generated/WATCHDOG\watchdog.h ****  *   WATCHDOG_Service(); //service the watchdog timer.
 307:C:/Users/Yoshi/Documents/GitHub/Software/01_jrg/03_VCUJR20/2021_06_17_VCU_jr20_Source/2021_06_17_VCU_jr20_Source/Dave/Generated/WATCHDOG\watchdog.h ****  *   WATCHDOG_Stop(); //Stop the watchdog timer
 308:C:/Users/Yoshi/Documents/GitHub/Software/01_jrg/03_VCUJR20/2021_06_17_VCU_jr20_Source/2021_06_17_VCU_jr20_Source/Dave/Generated/WATCHDOG\watchdog.h ****  * }
 309:C:/Users/Yoshi/Documents/GitHub/Software/01_jrg/03_VCUJR20/2021_06_17_VCU_jr20_Source/2021_06_17_VCU_jr20_Source/Dave/Generated/WATCHDOG\watchdog.h ****  *
 310:C:/Users/Yoshi/Documents/GitHub/Software/01_jrg/03_VCUJR20/2021_06_17_VCU_jr20_Source/2021_06_17_VCU_jr20_Source/Dave/Generated/WATCHDOG\watchdog.h ****  * @endcode<BR> </p>
 311:C:/Users/Yoshi/Documents/GitHub/Software/01_jrg/03_VCUJR20/2021_06_17_VCU_jr20_Source/2021_06_17_VCU_jr20_Source/Dave/Generated/WATCHDOG\watchdog.h ****  */
 312:C:/Users/Yoshi/Documents/GitHub/Software/01_jrg/03_VCUJR20/2021_06_17_VCU_jr20_Source/2021_06_17_VCU_jr20_Source/Dave/Generated/WATCHDOG\watchdog.h **** __STATIC_INLINE void WATCHDOG_Stop(void)
 313:C:/Users/Yoshi/Documents/GitHub/Software/01_jrg/03_VCUJR20/2021_06_17_VCU_jr20_Source/2021_06_17_VCU_jr20_Source/Dave/Generated/WATCHDOG\watchdog.h **** {
 314:C:/Users/Yoshi/Documents/GitHub/Software/01_jrg/03_VCUJR20/2021_06_17_VCU_jr20_Source/2021_06_17_VCU_jr20_Source/Dave/Generated/WATCHDOG\watchdog.h ****   XMC_WDT_Stop();
 315:C:/Users/Yoshi/Documents/GitHub/Software/01_jrg/03_VCUJR20/2021_06_17_VCU_jr20_Source/2021_06_17_VCU_jr20_Source/Dave/Generated/WATCHDOG\watchdog.h **** }
 316:C:/Users/Yoshi/Documents/GitHub/Software/01_jrg/03_VCUJR20/2021_06_17_VCU_jr20_Source/2021_06_17_VCU_jr20_Source/Dave/Generated/WATCHDOG\watchdog.h **** 
 317:C:/Users/Yoshi/Documents/GitHub/Software/01_jrg/03_VCUJR20/2021_06_17_VCU_jr20_Source/2021_06_17_VCU_jr20_Source/Dave/Generated/WATCHDOG\watchdog.h **** /**
 318:C:/Users/Yoshi/Documents/GitHub/Software/01_jrg/03_VCUJR20/2021_06_17_VCU_jr20_Source/2021_06_17_VCU_jr20_Source/Dave/Generated/WATCHDOG\watchdog.h ****  * @brief Service the WATCHDOG timer.
 319:C:/Users/Yoshi/Documents/GitHub/Software/01_jrg/03_VCUJR20/2021_06_17_VCU_jr20_Source/2021_06_17_VCU_jr20_Source/Dave/Generated/WATCHDOG\watchdog.h ****  *
 320:C:/Users/Yoshi/Documents/GitHub/Software/01_jrg/03_VCUJR20/2021_06_17_VCU_jr20_Source/2021_06_17_VCU_jr20_Source/Dave/Generated/WATCHDOG\watchdog.h ****  * @return    None                           
 321:C:/Users/Yoshi/Documents/GitHub/Software/01_jrg/03_VCUJR20/2021_06_17_VCU_jr20_Source/2021_06_17_VCU_jr20_Source/Dave/Generated/WATCHDOG\watchdog.h ****  *            <BR>
 322:C:/Users/Yoshi/Documents/GitHub/Software/01_jrg/03_VCUJR20/2021_06_17_VCU_jr20_Source/2021_06_17_VCU_jr20_Source/Dave/Generated/WATCHDOG\watchdog.h ****  *
 323:C:/Users/Yoshi/Documents/GitHub/Software/01_jrg/03_VCUJR20/2021_06_17_VCU_jr20_Source/2021_06_17_VCU_jr20_Source/Dave/Generated/WATCHDOG\watchdog.h ****  * \par<b>Description:</b><br>
 324:C:/Users/Yoshi/Documents/GitHub/Software/01_jrg/03_VCUJR20/2021_06_17_VCU_jr20_Source/2021_06_17_VCU_jr20_Source/Dave/Generated/WATCHDOG\watchdog.h ****  * WATCHDOG_Service() will reset the watchdog timer.
 325:C:/Users/Yoshi/Documents/GitHub/Software/01_jrg/03_VCUJR20/2021_06_17_VCU_jr20_Source/2021_06_17_VCU_jr20_Source/Dave/Generated/WATCHDOG\watchdog.h ****  *
 326:C:/Users/Yoshi/Documents/GitHub/Software/01_jrg/03_VCUJR20/2021_06_17_VCU_jr20_Source/2021_06_17_VCU_jr20_Source/Dave/Generated/WATCHDOG\watchdog.h ****  * Example Usage:
 327:C:/Users/Yoshi/Documents/GitHub/Software/01_jrg/03_VCUJR20/2021_06_17_VCU_jr20_Source/2021_06_17_VCU_jr20_Source/Dave/Generated/WATCHDOG\watchdog.h ****  * 
 328:C:/Users/Yoshi/Documents/GitHub/Software/01_jrg/03_VCUJR20/2021_06_17_VCU_jr20_Source/2021_06_17_VCU_jr20_Source/Dave/Generated/WATCHDOG\watchdog.h ****  * @code
 329:C:/Users/Yoshi/Documents/GitHub/Software/01_jrg/03_VCUJR20/2021_06_17_VCU_jr20_Source/2021_06_17_VCU_jr20_Source/Dave/Generated/WATCHDOG\watchdog.h ****  * #include <DAVE.h>
 330:C:/Users/Yoshi/Documents/GitHub/Software/01_jrg/03_VCUJR20/2021_06_17_VCU_jr20_Source/2021_06_17_VCU_jr20_Source/Dave/Generated/WATCHDOG\watchdog.h ****  * int main(void)
 331:C:/Users/Yoshi/Documents/GitHub/Software/01_jrg/03_VCUJR20/2021_06_17_VCU_jr20_Source/2021_06_17_VCU_jr20_Source/Dave/Generated/WATCHDOG\watchdog.h ****  * {
 332:C:/Users/Yoshi/Documents/GitHub/Software/01_jrg/03_VCUJR20/2021_06_17_VCU_jr20_Source/2021_06_17_VCU_jr20_Source/Dave/Generated/WATCHDOG\watchdog.h ****  *   DAVE_STATUS_t status;
 333:C:/Users/Yoshi/Documents/GitHub/Software/01_jrg/03_VCUJR20/2021_06_17_VCU_jr20_Source/2021_06_17_VCU_jr20_Source/Dave/Generated/WATCHDOG\watchdog.h ****  *
 334:C:/Users/Yoshi/Documents/GitHub/Software/01_jrg/03_VCUJR20/2021_06_17_VCU_jr20_Source/2021_06_17_VCU_jr20_Source/Dave/Generated/WATCHDOG\watchdog.h ****  *   status = DAVE_Init();        // Initialization of DAVE Apps
 335:C:/Users/Yoshi/Documents/GitHub/Software/01_jrg/03_VCUJR20/2021_06_17_VCU_jr20_Source/2021_06_17_VCU_jr20_Source/Dave/Generated/WATCHDOG\watchdog.h ****  *
 336:C:/Users/Yoshi/Documents/GitHub/Software/01_jrg/03_VCUJR20/2021_06_17_VCU_jr20_Source/2021_06_17_VCU_jr20_Source/Dave/Generated/WATCHDOG\watchdog.h ****  *   if(status == DAVE_STATUS_SUCCESS)
 337:C:/Users/Yoshi/Documents/GitHub/Software/01_jrg/03_VCUJR20/2021_06_17_VCU_jr20_Source/2021_06_17_VCU_jr20_Source/Dave/Generated/WATCHDOG\watchdog.h ****  *   {
 338:C:/Users/Yoshi/Documents/GitHub/Software/01_jrg/03_VCUJR20/2021_06_17_VCU_jr20_Source/2021_06_17_VCU_jr20_Source/Dave/Generated/WATCHDOG\watchdog.h ****  *     WATCHDOG_Start(); // Start the watchdog timer
 339:C:/Users/Yoshi/Documents/GitHub/Software/01_jrg/03_VCUJR20/2021_06_17_VCU_jr20_Source/2021_06_17_VCU_jr20_Source/Dave/Generated/WATCHDOG\watchdog.h ****  *   }
 340:C:/Users/Yoshi/Documents/GitHub/Software/01_jrg/03_VCUJR20/2021_06_17_VCU_jr20_Source/2021_06_17_VCU_jr20_Source/Dave/Generated/WATCHDOG\watchdog.h ****  *
 341:C:/Users/Yoshi/Documents/GitHub/Software/01_jrg/03_VCUJR20/2021_06_17_VCU_jr20_Source/2021_06_17_VCU_jr20_Source/Dave/Generated/WATCHDOG\watchdog.h ****  *   while(1U)
 342:C:/Users/Yoshi/Documents/GitHub/Software/01_jrg/03_VCUJR20/2021_06_17_VCU_jr20_Source/2021_06_17_VCU_jr20_Source/Dave/Generated/WATCHDOG\watchdog.h ****  *   {
 343:C:/Users/Yoshi/Documents/GitHub/Software/01_jrg/03_VCUJR20/2021_06_17_VCU_jr20_Source/2021_06_17_VCU_jr20_Source/Dave/Generated/WATCHDOG\watchdog.h ****  *   }
 344:C:/Users/Yoshi/Documents/GitHub/Software/01_jrg/03_VCUJR20/2021_06_17_VCU_jr20_Source/2021_06_17_VCU_jr20_Source/Dave/Generated/WATCHDOG\watchdog.h ****  *
 345:C:/Users/Yoshi/Documents/GitHub/Software/01_jrg/03_VCUJR20/2021_06_17_VCU_jr20_Source/2021_06_17_VCU_jr20_Source/Dave/Generated/WATCHDOG\watchdog.h ****  *   return 1;
 346:C:/Users/Yoshi/Documents/GitHub/Software/01_jrg/03_VCUJR20/2021_06_17_VCU_jr20_Source/2021_06_17_VCU_jr20_Source/Dave/Generated/WATCHDOG\watchdog.h ****  * }
 347:C:/Users/Yoshi/Documents/GitHub/Software/01_jrg/03_VCUJR20/2021_06_17_VCU_jr20_Source/2021_06_17_VCU_jr20_Source/Dave/Generated/WATCHDOG\watchdog.h ****  *
 348:C:/Users/Yoshi/Documents/GitHub/Software/01_jrg/03_VCUJR20/2021_06_17_VCU_jr20_Source/2021_06_17_VCU_jr20_Source/Dave/Generated/WATCHDOG\watchdog.h ****  * void Watchdog_Handler(void)
 349:C:/Users/Yoshi/Documents/GitHub/Software/01_jrg/03_VCUJR20/2021_06_17_VCU_jr20_Source/2021_06_17_VCU_jr20_Source/Dave/Generated/WATCHDOG\watchdog.h ****  * {
 350:C:/Users/Yoshi/Documents/GitHub/Software/01_jrg/03_VCUJR20/2021_06_17_VCU_jr20_Source/2021_06_17_VCU_jr20_Source/Dave/Generated/WATCHDOG\watchdog.h ****  *   WATCHDOG_ClearAlarm(); //clears the alarm flag
 351:C:/Users/Yoshi/Documents/GitHub/Software/01_jrg/03_VCUJR20/2021_06_17_VCU_jr20_Source/2021_06_17_VCU_jr20_Source/Dave/Generated/WATCHDOG\watchdog.h ****  *   WATCHDOG_Service(); //service the watchdog timer.
 352:C:/Users/Yoshi/Documents/GitHub/Software/01_jrg/03_VCUJR20/2021_06_17_VCU_jr20_Source/2021_06_17_VCU_jr20_Source/Dave/Generated/WATCHDOG\watchdog.h ****  *   WATCHDOG_Stop();
 353:C:/Users/Yoshi/Documents/GitHub/Software/01_jrg/03_VCUJR20/2021_06_17_VCU_jr20_Source/2021_06_17_VCU_jr20_Source/Dave/Generated/WATCHDOG\watchdog.h ****  * }
 354:C:/Users/Yoshi/Documents/GitHub/Software/01_jrg/03_VCUJR20/2021_06_17_VCU_jr20_Source/2021_06_17_VCU_jr20_Source/Dave/Generated/WATCHDOG\watchdog.h ****  *
 355:C:/Users/Yoshi/Documents/GitHub/Software/01_jrg/03_VCUJR20/2021_06_17_VCU_jr20_Source/2021_06_17_VCU_jr20_Source/Dave/Generated/WATCHDOG\watchdog.h ****  * @endcode<BR> </p>
 356:C:/Users/Yoshi/Documents/GitHub/Software/01_jrg/03_VCUJR20/2021_06_17_VCU_jr20_Source/2021_06_17_VCU_jr20_Source/Dave/Generated/WATCHDOG\watchdog.h ****  */
 357:C:/Users/Yoshi/Documents/GitHub/Software/01_jrg/03_VCUJR20/2021_06_17_VCU_jr20_Source/2021_06_17_VCU_jr20_Source/Dave/Generated/WATCHDOG\watchdog.h **** __STATIC_INLINE void WATCHDOG_Service(void)
 358:C:/Users/Yoshi/Documents/GitHub/Software/01_jrg/03_VCUJR20/2021_06_17_VCU_jr20_Source/2021_06_17_VCU_jr20_Source/Dave/Generated/WATCHDOG\watchdog.h **** {
 225              	 .loc 3 358 0
 226              	 .cfi_startproc
 227              	 
 228              	 
 229 0000 80B5     	 push {r7,lr}
 230              	.LCFI20:
 231              	 .cfi_def_cfa_offset 8
 232              	 .cfi_offset 7,-8
 233              	 .cfi_offset 14,-4
 234 0002 00AF     	 add r7,sp,#0
 235              	.LCFI21:
 236              	 .cfi_def_cfa_register 7
 359:C:/Users/Yoshi/Documents/GitHub/Software/01_jrg/03_VCUJR20/2021_06_17_VCU_jr20_Source/2021_06_17_VCU_jr20_Source/Dave/Generated/WATCHDOG\watchdog.h ****   XMC_WDT_Service();
 237              	 .loc 3 359 0
 238 0004 FFF7FEFF 	 bl XMC_WDT_Service
 360:C:/Users/Yoshi/Documents/GitHub/Software/01_jrg/03_VCUJR20/2021_06_17_VCU_jr20_Source/2021_06_17_VCU_jr20_Source/Dave/Generated/WATCHDOG\watchdog.h **** }
 239              	 .loc 3 360 0
 240 0008 80BD     	 pop {r7,pc}
 241              	 .cfi_endproc
 242              	.LFE261:
 244 000a 00BF     	 .section .text.WATCHDOG_ClearAlarm,"ax",%progbits
 245              	 .align 2
 246              	 .thumb
 247              	 .thumb_func
 249              	WATCHDOG_ClearAlarm:
 250              	.LFB262:
 361:C:/Users/Yoshi/Documents/GitHub/Software/01_jrg/03_VCUJR20/2021_06_17_VCU_jr20_Source/2021_06_17_VCU_jr20_Source/Dave/Generated/WATCHDOG\watchdog.h **** 
 362:C:/Users/Yoshi/Documents/GitHub/Software/01_jrg/03_VCUJR20/2021_06_17_VCU_jr20_Source/2021_06_17_VCU_jr20_Source/Dave/Generated/WATCHDOG\watchdog.h **** /**
 363:C:/Users/Yoshi/Documents/GitHub/Software/01_jrg/03_VCUJR20/2021_06_17_VCU_jr20_Source/2021_06_17_VCU_jr20_Source/Dave/Generated/WATCHDOG\watchdog.h ****  * @brief Clears the alarm flag.
 364:C:/Users/Yoshi/Documents/GitHub/Software/01_jrg/03_VCUJR20/2021_06_17_VCU_jr20_Source/2021_06_17_VCU_jr20_Source/Dave/Generated/WATCHDOG\watchdog.h ****  *
 365:C:/Users/Yoshi/Documents/GitHub/Software/01_jrg/03_VCUJR20/2021_06_17_VCU_jr20_Source/2021_06_17_VCU_jr20_Source/Dave/Generated/WATCHDOG\watchdog.h ****  * @return None
 366:C:/Users/Yoshi/Documents/GitHub/Software/01_jrg/03_VCUJR20/2021_06_17_VCU_jr20_Source/2021_06_17_VCU_jr20_Source/Dave/Generated/WATCHDOG\watchdog.h ****  * <BR>
 367:C:/Users/Yoshi/Documents/GitHub/Software/01_jrg/03_VCUJR20/2021_06_17_VCU_jr20_Source/2021_06_17_VCU_jr20_Source/Dave/Generated/WATCHDOG\watchdog.h ****  * \par<b>Description:</b><br>
 368:C:/Users/Yoshi/Documents/GitHub/Software/01_jrg/03_VCUJR20/2021_06_17_VCU_jr20_Source/2021_06_17_VCU_jr20_Source/Dave/Generated/WATCHDOG\watchdog.h ****  * After occurrence of Pre-warning alarm event, the timer has to be serviced with in second over fl
 369:C:/Users/Yoshi/Documents/GitHub/Software/01_jrg/03_VCUJR20/2021_06_17_VCU_jr20_Source/2021_06_17_VCU_jr20_Source/Dave/Generated/WATCHDOG\watchdog.h ****  * clearing the alarm flag. Otherwise it will lead to system reset.
 370:C:/Users/Yoshi/Documents/GitHub/Software/01_jrg/03_VCUJR20/2021_06_17_VCU_jr20_Source/2021_06_17_VCU_jr20_Source/Dave/Generated/WATCHDOG\watchdog.h ****  *
 371:C:/Users/Yoshi/Documents/GitHub/Software/01_jrg/03_VCUJR20/2021_06_17_VCU_jr20_Source/2021_06_17_VCU_jr20_Source/Dave/Generated/WATCHDOG\watchdog.h ****  * Example Usage:
 372:C:/Users/Yoshi/Documents/GitHub/Software/01_jrg/03_VCUJR20/2021_06_17_VCU_jr20_Source/2021_06_17_VCU_jr20_Source/Dave/Generated/WATCHDOG\watchdog.h ****  *
 373:C:/Users/Yoshi/Documents/GitHub/Software/01_jrg/03_VCUJR20/2021_06_17_VCU_jr20_Source/2021_06_17_VCU_jr20_Source/Dave/Generated/WATCHDOG\watchdog.h ****  * @code
 374:C:/Users/Yoshi/Documents/GitHub/Software/01_jrg/03_VCUJR20/2021_06_17_VCU_jr20_Source/2021_06_17_VCU_jr20_Source/Dave/Generated/WATCHDOG\watchdog.h ****  * #include <DAVE.h>
 375:C:/Users/Yoshi/Documents/GitHub/Software/01_jrg/03_VCUJR20/2021_06_17_VCU_jr20_Source/2021_06_17_VCU_jr20_Source/Dave/Generated/WATCHDOG\watchdog.h ****  * int main(void)
 376:C:/Users/Yoshi/Documents/GitHub/Software/01_jrg/03_VCUJR20/2021_06_17_VCU_jr20_Source/2021_06_17_VCU_jr20_Source/Dave/Generated/WATCHDOG\watchdog.h ****  * {
 377:C:/Users/Yoshi/Documents/GitHub/Software/01_jrg/03_VCUJR20/2021_06_17_VCU_jr20_Source/2021_06_17_VCU_jr20_Source/Dave/Generated/WATCHDOG\watchdog.h ****  *   DAVE_STATUS_t status;
 378:C:/Users/Yoshi/Documents/GitHub/Software/01_jrg/03_VCUJR20/2021_06_17_VCU_jr20_Source/2021_06_17_VCU_jr20_Source/Dave/Generated/WATCHDOG\watchdog.h ****  *
 379:C:/Users/Yoshi/Documents/GitHub/Software/01_jrg/03_VCUJR20/2021_06_17_VCU_jr20_Source/2021_06_17_VCU_jr20_Source/Dave/Generated/WATCHDOG\watchdog.h ****  *   status = DAVE_Init();        // Initialization of DAVE Apps
 380:C:/Users/Yoshi/Documents/GitHub/Software/01_jrg/03_VCUJR20/2021_06_17_VCU_jr20_Source/2021_06_17_VCU_jr20_Source/Dave/Generated/WATCHDOG\watchdog.h ****  *
 381:C:/Users/Yoshi/Documents/GitHub/Software/01_jrg/03_VCUJR20/2021_06_17_VCU_jr20_Source/2021_06_17_VCU_jr20_Source/Dave/Generated/WATCHDOG\watchdog.h ****  *   if(status == DAVE_STATUS_SUCCESS)
 382:C:/Users/Yoshi/Documents/GitHub/Software/01_jrg/03_VCUJR20/2021_06_17_VCU_jr20_Source/2021_06_17_VCU_jr20_Source/Dave/Generated/WATCHDOG\watchdog.h ****  *   {
 383:C:/Users/Yoshi/Documents/GitHub/Software/01_jrg/03_VCUJR20/2021_06_17_VCU_jr20_Source/2021_06_17_VCU_jr20_Source/Dave/Generated/WATCHDOG\watchdog.h ****  *     WATCHDOG_Start(); // Start the watchdog timer
 384:C:/Users/Yoshi/Documents/GitHub/Software/01_jrg/03_VCUJR20/2021_06_17_VCU_jr20_Source/2021_06_17_VCU_jr20_Source/Dave/Generated/WATCHDOG\watchdog.h ****  *   }
 385:C:/Users/Yoshi/Documents/GitHub/Software/01_jrg/03_VCUJR20/2021_06_17_VCU_jr20_Source/2021_06_17_VCU_jr20_Source/Dave/Generated/WATCHDOG\watchdog.h ****  *
 386:C:/Users/Yoshi/Documents/GitHub/Software/01_jrg/03_VCUJR20/2021_06_17_VCU_jr20_Source/2021_06_17_VCU_jr20_Source/Dave/Generated/WATCHDOG\watchdog.h ****  *   while(1U)
 387:C:/Users/Yoshi/Documents/GitHub/Software/01_jrg/03_VCUJR20/2021_06_17_VCU_jr20_Source/2021_06_17_VCU_jr20_Source/Dave/Generated/WATCHDOG\watchdog.h ****  *   {
 388:C:/Users/Yoshi/Documents/GitHub/Software/01_jrg/03_VCUJR20/2021_06_17_VCU_jr20_Source/2021_06_17_VCU_jr20_Source/Dave/Generated/WATCHDOG\watchdog.h ****  *   }
 389:C:/Users/Yoshi/Documents/GitHub/Software/01_jrg/03_VCUJR20/2021_06_17_VCU_jr20_Source/2021_06_17_VCU_jr20_Source/Dave/Generated/WATCHDOG\watchdog.h ****  *
 390:C:/Users/Yoshi/Documents/GitHub/Software/01_jrg/03_VCUJR20/2021_06_17_VCU_jr20_Source/2021_06_17_VCU_jr20_Source/Dave/Generated/WATCHDOG\watchdog.h ****  *   return 1;
 391:C:/Users/Yoshi/Documents/GitHub/Software/01_jrg/03_VCUJR20/2021_06_17_VCU_jr20_Source/2021_06_17_VCU_jr20_Source/Dave/Generated/WATCHDOG\watchdog.h ****  * }
 392:C:/Users/Yoshi/Documents/GitHub/Software/01_jrg/03_VCUJR20/2021_06_17_VCU_jr20_Source/2021_06_17_VCU_jr20_Source/Dave/Generated/WATCHDOG\watchdog.h ****  *
 393:C:/Users/Yoshi/Documents/GitHub/Software/01_jrg/03_VCUJR20/2021_06_17_VCU_jr20_Source/2021_06_17_VCU_jr20_Source/Dave/Generated/WATCHDOG\watchdog.h ****  * void Watchdog_Handler(void)
 394:C:/Users/Yoshi/Documents/GitHub/Software/01_jrg/03_VCUJR20/2021_06_17_VCU_jr20_Source/2021_06_17_VCU_jr20_Source/Dave/Generated/WATCHDOG\watchdog.h ****  * {
 395:C:/Users/Yoshi/Documents/GitHub/Software/01_jrg/03_VCUJR20/2021_06_17_VCU_jr20_Source/2021_06_17_VCU_jr20_Source/Dave/Generated/WATCHDOG\watchdog.h ****  *   WATCHDOG_ClearAlarm(); //clears the alarm flag
 396:C:/Users/Yoshi/Documents/GitHub/Software/01_jrg/03_VCUJR20/2021_06_17_VCU_jr20_Source/2021_06_17_VCU_jr20_Source/Dave/Generated/WATCHDOG\watchdog.h ****  *   WATCHDOG_Service(); //service the watchdog timer.
 397:C:/Users/Yoshi/Documents/GitHub/Software/01_jrg/03_VCUJR20/2021_06_17_VCU_jr20_Source/2021_06_17_VCU_jr20_Source/Dave/Generated/WATCHDOG\watchdog.h ****  * }
 398:C:/Users/Yoshi/Documents/GitHub/Software/01_jrg/03_VCUJR20/2021_06_17_VCU_jr20_Source/2021_06_17_VCU_jr20_Source/Dave/Generated/WATCHDOG\watchdog.h ****  *
 399:C:/Users/Yoshi/Documents/GitHub/Software/01_jrg/03_VCUJR20/2021_06_17_VCU_jr20_Source/2021_06_17_VCU_jr20_Source/Dave/Generated/WATCHDOG\watchdog.h ****  * @endcode<BR> </p>
 400:C:/Users/Yoshi/Documents/GitHub/Software/01_jrg/03_VCUJR20/2021_06_17_VCU_jr20_Source/2021_06_17_VCU_jr20_Source/Dave/Generated/WATCHDOG\watchdog.h ****  */
 401:C:/Users/Yoshi/Documents/GitHub/Software/01_jrg/03_VCUJR20/2021_06_17_VCU_jr20_Source/2021_06_17_VCU_jr20_Source/Dave/Generated/WATCHDOG\watchdog.h **** __STATIC_INLINE void WATCHDOG_ClearAlarm(void)
 402:C:/Users/Yoshi/Documents/GitHub/Software/01_jrg/03_VCUJR20/2021_06_17_VCU_jr20_Source/2021_06_17_VCU_jr20_Source/Dave/Generated/WATCHDOG\watchdog.h **** {
 251              	 .loc 3 402 0
 252              	 .cfi_startproc
 253              	 
 254              	 
 255 0000 80B5     	 push {r7,lr}
 256              	.LCFI22:
 257              	 .cfi_def_cfa_offset 8
 258              	 .cfi_offset 7,-8
 259              	 .cfi_offset 14,-4
 260 0002 00AF     	 add r7,sp,#0
 261              	.LCFI23:
 262              	 .cfi_def_cfa_register 7
 403:C:/Users/Yoshi/Documents/GitHub/Software/01_jrg/03_VCUJR20/2021_06_17_VCU_jr20_Source/2021_06_17_VCU_jr20_Source/Dave/Generated/WATCHDOG\watchdog.h ****   XMC_WDT_ClearAlarm();
 263              	 .loc 3 403 0
 264 0004 FFF7FEFF 	 bl XMC_WDT_ClearAlarm
 404:C:/Users/Yoshi/Documents/GitHub/Software/01_jrg/03_VCUJR20/2021_06_17_VCU_jr20_Source/2021_06_17_VCU_jr20_Source/Dave/Generated/WATCHDOG\watchdog.h **** }
 265              	 .loc 3 404 0
 266 0008 80BD     	 pop {r7,pc}
 267              	 .cfi_endproc
 268              	.LFE262:
 270 000a 00BF     	 .section .text.DIGITAL_IO_SetOutputLow,"ax",%progbits
 271              	 .align 2
 272              	 .thumb
 273              	 .thumb_func
 275              	DIGITAL_IO_SetOutputLow:
 276              	.LFB265:
 277              	 .file 4 "C:/Users/Yoshi/Documents/GitHub/Software/01_jrg/03_VCUJR20/2021_06_17_VCU_jr20_Source/2021_06_17_VCU_jr20_Source/Dave/Generated/DIGITAL_IO/digital_io.h"
   1:C:/Users/Yoshi/Documents/GitHub/Software/01_jrg/03_VCUJR20/2021_06_17_VCU_jr20_Source/2021_06_17_VCU_jr20_Source/Dave/Generated/DIGITAL_IO\digital_io.h **** /*
   2:C:/Users/Yoshi/Documents/GitHub/Software/01_jrg/03_VCUJR20/2021_06_17_VCU_jr20_Source/2021_06_17_VCU_jr20_Source/Dave/Generated/DIGITAL_IO\digital_io.h ****  *
   3:C:/Users/Yoshi/Documents/GitHub/Software/01_jrg/03_VCUJR20/2021_06_17_VCU_jr20_Source/2021_06_17_VCU_jr20_Source/Dave/Generated/DIGITAL_IO\digital_io.h ****  * @file digital_io.h
   4:C:/Users/Yoshi/Documents/GitHub/Software/01_jrg/03_VCUJR20/2021_06_17_VCU_jr20_Source/2021_06_17_VCU_jr20_Source/Dave/Generated/DIGITAL_IO\digital_io.h ****  * @date 2016-07-08
   5:C:/Users/Yoshi/Documents/GitHub/Software/01_jrg/03_VCUJR20/2021_06_17_VCU_jr20_Source/2021_06_17_VCU_jr20_Source/Dave/Generated/DIGITAL_IO\digital_io.h ****  *
   6:C:/Users/Yoshi/Documents/GitHub/Software/01_jrg/03_VCUJR20/2021_06_17_VCU_jr20_Source/2021_06_17_VCU_jr20_Source/Dave/Generated/DIGITAL_IO\digital_io.h ****  * NOTE:
   7:C:/Users/Yoshi/Documents/GitHub/Software/01_jrg/03_VCUJR20/2021_06_17_VCU_jr20_Source/2021_06_17_VCU_jr20_Source/Dave/Generated/DIGITAL_IO\digital_io.h ****  * This file is generated by DAVE. Any manual modification done to this file will be lost when the 
   8:C:/Users/Yoshi/Documents/GitHub/Software/01_jrg/03_VCUJR20/2021_06_17_VCU_jr20_Source/2021_06_17_VCU_jr20_Source/Dave/Generated/DIGITAL_IO\digital_io.h ****  *
   9:C:/Users/Yoshi/Documents/GitHub/Software/01_jrg/03_VCUJR20/2021_06_17_VCU_jr20_Source/2021_06_17_VCU_jr20_Source/Dave/Generated/DIGITAL_IO\digital_io.h ****  * @cond
  10:C:/Users/Yoshi/Documents/GitHub/Software/01_jrg/03_VCUJR20/2021_06_17_VCU_jr20_Source/2021_06_17_VCU_jr20_Source/Dave/Generated/DIGITAL_IO\digital_io.h ****  **************************************************************************************************
  11:C:/Users/Yoshi/Documents/GitHub/Software/01_jrg/03_VCUJR20/2021_06_17_VCU_jr20_Source/2021_06_17_VCU_jr20_Source/Dave/Generated/DIGITAL_IO\digital_io.h ****  * DIGITAL_IO v4.0.16 - The DIGITAL_IO APP is used to configure a port pin as digital Input/Output.
  12:C:/Users/Yoshi/Documents/GitHub/Software/01_jrg/03_VCUJR20/2021_06_17_VCU_jr20_Source/2021_06_17_VCU_jr20_Source/Dave/Generated/DIGITAL_IO\digital_io.h ****  *
  13:C:/Users/Yoshi/Documents/GitHub/Software/01_jrg/03_VCUJR20/2021_06_17_VCU_jr20_Source/2021_06_17_VCU_jr20_Source/Dave/Generated/DIGITAL_IO\digital_io.h ****  * Copyright (c) 2015-2016, Infineon Technologies AG
  14:C:/Users/Yoshi/Documents/GitHub/Software/01_jrg/03_VCUJR20/2021_06_17_VCU_jr20_Source/2021_06_17_VCU_jr20_Source/Dave/Generated/DIGITAL_IO\digital_io.h ****  * All rights reserved.
  15:C:/Users/Yoshi/Documents/GitHub/Software/01_jrg/03_VCUJR20/2021_06_17_VCU_jr20_Source/2021_06_17_VCU_jr20_Source/Dave/Generated/DIGITAL_IO\digital_io.h ****  *
  16:C:/Users/Yoshi/Documents/GitHub/Software/01_jrg/03_VCUJR20/2021_06_17_VCU_jr20_Source/2021_06_17_VCU_jr20_Source/Dave/Generated/DIGITAL_IO\digital_io.h ****  * Redistribution and use in source and binary forms, with or without modification,are permitted pr
  17:C:/Users/Yoshi/Documents/GitHub/Software/01_jrg/03_VCUJR20/2021_06_17_VCU_jr20_Source/2021_06_17_VCU_jr20_Source/Dave/Generated/DIGITAL_IO\digital_io.h ****  * following conditions are met:
  18:C:/Users/Yoshi/Documents/GitHub/Software/01_jrg/03_VCUJR20/2021_06_17_VCU_jr20_Source/2021_06_17_VCU_jr20_Source/Dave/Generated/DIGITAL_IO\digital_io.h ****  *
  19:C:/Users/Yoshi/Documents/GitHub/Software/01_jrg/03_VCUJR20/2021_06_17_VCU_jr20_Source/2021_06_17_VCU_jr20_Source/Dave/Generated/DIGITAL_IO\digital_io.h ****  *   Redistributions of source code must retain the above copyright notice, this list of conditions
  20:C:/Users/Yoshi/Documents/GitHub/Software/01_jrg/03_VCUJR20/2021_06_17_VCU_jr20_Source/2021_06_17_VCU_jr20_Source/Dave/Generated/DIGITAL_IO\digital_io.h ****  *   disclaimer.
  21:C:/Users/Yoshi/Documents/GitHub/Software/01_jrg/03_VCUJR20/2021_06_17_VCU_jr20_Source/2021_06_17_VCU_jr20_Source/Dave/Generated/DIGITAL_IO\digital_io.h ****  *
  22:C:/Users/Yoshi/Documents/GitHub/Software/01_jrg/03_VCUJR20/2021_06_17_VCU_jr20_Source/2021_06_17_VCU_jr20_Source/Dave/Generated/DIGITAL_IO\digital_io.h ****  *   Redistributions in binary form must reproduce the above copyright notice, this list of conditi
  23:C:/Users/Yoshi/Documents/GitHub/Software/01_jrg/03_VCUJR20/2021_06_17_VCU_jr20_Source/2021_06_17_VCU_jr20_Source/Dave/Generated/DIGITAL_IO\digital_io.h ****  *   following disclaimer in the documentation and/or other materials provided with the distributio
  24:C:/Users/Yoshi/Documents/GitHub/Software/01_jrg/03_VCUJR20/2021_06_17_VCU_jr20_Source/2021_06_17_VCU_jr20_Source/Dave/Generated/DIGITAL_IO\digital_io.h ****  *
  25:C:/Users/Yoshi/Documents/GitHub/Software/01_jrg/03_VCUJR20/2021_06_17_VCU_jr20_Source/2021_06_17_VCU_jr20_Source/Dave/Generated/DIGITAL_IO\digital_io.h ****  *   Neither the name of the copyright holders nor the names of its contributors may be used to end
  26:C:/Users/Yoshi/Documents/GitHub/Software/01_jrg/03_VCUJR20/2021_06_17_VCU_jr20_Source/2021_06_17_VCU_jr20_Source/Dave/Generated/DIGITAL_IO\digital_io.h ****  *   products derived from this software without specific prior written permission.
  27:C:/Users/Yoshi/Documents/GitHub/Software/01_jrg/03_VCUJR20/2021_06_17_VCU_jr20_Source/2021_06_17_VCU_jr20_Source/Dave/Generated/DIGITAL_IO\digital_io.h ****  *
  28:C:/Users/Yoshi/Documents/GitHub/Software/01_jrg/03_VCUJR20/2021_06_17_VCU_jr20_Source/2021_06_17_VCU_jr20_Source/Dave/Generated/DIGITAL_IO\digital_io.h ****  * THIS SOFTWARE IS PROVIDED BY THE COPYRIGHT HOLDERS AND CONTRIBUTORS "AS IS" AND ANY EXPRESS OR I
  29:C:/Users/Yoshi/Documents/GitHub/Software/01_jrg/03_VCUJR20/2021_06_17_VCU_jr20_Source/2021_06_17_VCU_jr20_Source/Dave/Generated/DIGITAL_IO\digital_io.h ****  * INCLUDING, BUT NOT LIMITED TO, THE IMPLIED WARRANTIES OF MERCHANTABILITY AND FITNESS FOR A PARTI
  30:C:/Users/Yoshi/Documents/GitHub/Software/01_jrg/03_VCUJR20/2021_06_17_VCU_jr20_Source/2021_06_17_VCU_jr20_Source/Dave/Generated/DIGITAL_IO\digital_io.h ****  * DISCLAIMED. IN NO EVENT SHALL THE COPYRIGHT HOLDER OR CONTRIBUTORS BE LIABLE  FOR ANY DIRECT, IN
  31:C:/Users/Yoshi/Documents/GitHub/Software/01_jrg/03_VCUJR20/2021_06_17_VCU_jr20_Source/2021_06_17_VCU_jr20_Source/Dave/Generated/DIGITAL_IO\digital_io.h ****  * SPECIAL, EXEMPLARY, OR CONSEQUENTIAL DAMAGES (INCLUDING, BUT NOT LIMITED TO, PROCUREMENT OF SUBS
  32:C:/Users/Yoshi/Documents/GitHub/Software/01_jrg/03_VCUJR20/2021_06_17_VCU_jr20_Source/2021_06_17_VCU_jr20_Source/Dave/Generated/DIGITAL_IO\digital_io.h ****  * SERVICES; LOSS OF USE, DATA, OR PROFITS; OR BUSINESS INTERRUPTION) HOWEVER CAUSED AND ON ANY THE
  33:C:/Users/Yoshi/Documents/GitHub/Software/01_jrg/03_VCUJR20/2021_06_17_VCU_jr20_Source/2021_06_17_VCU_jr20_Source/Dave/Generated/DIGITAL_IO\digital_io.h ****  * WHETHER IN CONTRACT, STRICT LIABILITY,OR TORT (INCLUDING NEGLIGENCE OR OTHERWISE) ARISING IN ANY
  34:C:/Users/Yoshi/Documents/GitHub/Software/01_jrg/03_VCUJR20/2021_06_17_VCU_jr20_Source/2021_06_17_VCU_jr20_Source/Dave/Generated/DIGITAL_IO\digital_io.h ****  * USE OF THIS SOFTWARE, EVEN IF ADVISED OF THE POSSIBILITY OF SUCH DAMAGE.
  35:C:/Users/Yoshi/Documents/GitHub/Software/01_jrg/03_VCUJR20/2021_06_17_VCU_jr20_Source/2021_06_17_VCU_jr20_Source/Dave/Generated/DIGITAL_IO\digital_io.h ****  *
  36:C:/Users/Yoshi/Documents/GitHub/Software/01_jrg/03_VCUJR20/2021_06_17_VCU_jr20_Source/2021_06_17_VCU_jr20_Source/Dave/Generated/DIGITAL_IO\digital_io.h ****  * To improve the quality of the software, users are encouraged to share modifications, enhancement
  37:C:/Users/Yoshi/Documents/GitHub/Software/01_jrg/03_VCUJR20/2021_06_17_VCU_jr20_Source/2021_06_17_VCU_jr20_Source/Dave/Generated/DIGITAL_IO\digital_io.h ****  * with Infineon Technologies AG (dave@infineon.com).
  38:C:/Users/Yoshi/Documents/GitHub/Software/01_jrg/03_VCUJR20/2021_06_17_VCU_jr20_Source/2021_06_17_VCU_jr20_Source/Dave/Generated/DIGITAL_IO\digital_io.h ****  **************************************************************************************************
  39:C:/Users/Yoshi/Documents/GitHub/Software/01_jrg/03_VCUJR20/2021_06_17_VCU_jr20_Source/2021_06_17_VCU_jr20_Source/Dave/Generated/DIGITAL_IO\digital_io.h ****  *
  40:C:/Users/Yoshi/Documents/GitHub/Software/01_jrg/03_VCUJR20/2021_06_17_VCU_jr20_Source/2021_06_17_VCU_jr20_Source/Dave/Generated/DIGITAL_IO\digital_io.h ****  * Change History
  41:C:/Users/Yoshi/Documents/GitHub/Software/01_jrg/03_VCUJR20/2021_06_17_VCU_jr20_Source/2021_06_17_VCU_jr20_Source/Dave/Generated/DIGITAL_IO\digital_io.h ****  * --------------
  42:C:/Users/Yoshi/Documents/GitHub/Software/01_jrg/03_VCUJR20/2021_06_17_VCU_jr20_Source/2021_06_17_VCU_jr20_Source/Dave/Generated/DIGITAL_IO\digital_io.h ****  *
  43:C:/Users/Yoshi/Documents/GitHub/Software/01_jrg/03_VCUJR20/2021_06_17_VCU_jr20_Source/2021_06_17_VCU_jr20_Source/Dave/Generated/DIGITAL_IO\digital_io.h ****  * 2015-02-16
  44:C:/Users/Yoshi/Documents/GitHub/Software/01_jrg/03_VCUJR20/2021_06_17_VCU_jr20_Source/2021_06_17_VCU_jr20_Source/Dave/Generated/DIGITAL_IO\digital_io.h ****  *     - Initial version
  45:C:/Users/Yoshi/Documents/GitHub/Software/01_jrg/03_VCUJR20/2021_06_17_VCU_jr20_Source/2021_06_17_VCU_jr20_Source/Dave/Generated/DIGITAL_IO\digital_io.h ****  *
  46:C:/Users/Yoshi/Documents/GitHub/Software/01_jrg/03_VCUJR20/2021_06_17_VCU_jr20_Source/2021_06_17_VCU_jr20_Source/Dave/Generated/DIGITAL_IO\digital_io.h ****  * 2015-04-22
  47:C:/Users/Yoshi/Documents/GitHub/Software/01_jrg/03_VCUJR20/2021_06_17_VCU_jr20_Source/2021_06_17_VCU_jr20_Source/Dave/Generated/DIGITAL_IO\digital_io.h ****  *     - XMC_ASSERT is added in static inline functions.<br>
  48:C:/Users/Yoshi/Documents/GitHub/Software/01_jrg/03_VCUJR20/2021_06_17_VCU_jr20_Source/2021_06_17_VCU_jr20_Source/Dave/Generated/DIGITAL_IO\digital_io.h ****  *
  49:C:/Users/Yoshi/Documents/GitHub/Software/01_jrg/03_VCUJR20/2021_06_17_VCU_jr20_Source/2021_06_17_VCU_jr20_Source/Dave/Generated/DIGITAL_IO\digital_io.h ****  * 2015-06-20
  50:C:/Users/Yoshi/Documents/GitHub/Software/01_jrg/03_VCUJR20/2021_06_17_VCU_jr20_Source/2021_06_17_VCU_jr20_Source/Dave/Generated/DIGITAL_IO\digital_io.h ****  *     - Version check added for XMCLib dependency.<br>
  51:C:/Users/Yoshi/Documents/GitHub/Software/01_jrg/03_VCUJR20/2021_06_17_VCU_jr20_Source/2021_06_17_VCU_jr20_Source/Dave/Generated/DIGITAL_IO\digital_io.h ****  *
  52:C:/Users/Yoshi/Documents/GitHub/Software/01_jrg/03_VCUJR20/2021_06_17_VCU_jr20_Source/2021_06_17_VCU_jr20_Source/Dave/Generated/DIGITAL_IO\digital_io.h ****  * 2015-12-22
  53:C:/Users/Yoshi/Documents/GitHub/Software/01_jrg/03_VCUJR20/2021_06_17_VCU_jr20_Source/2021_06_17_VCU_jr20_Source/Dave/Generated/DIGITAL_IO\digital_io.h ****  *     - Added hardware controlled IO feature.
  54:C:/Users/Yoshi/Documents/GitHub/Software/01_jrg/03_VCUJR20/2021_06_17_VCU_jr20_Source/2021_06_17_VCU_jr20_Source/Dave/Generated/DIGITAL_IO\digital_io.h ****  * 2016-07-08:
  55:C:/Users/Yoshi/Documents/GitHub/Software/01_jrg/03_VCUJR20/2021_06_17_VCU_jr20_Source/2021_06_17_VCU_jr20_Source/Dave/Generated/DIGITAL_IO\digital_io.h ****  *     - Fixed incorrect case for an included header.<br>
  56:C:/Users/Yoshi/Documents/GitHub/Software/01_jrg/03_VCUJR20/2021_06_17_VCU_jr20_Source/2021_06_17_VCU_jr20_Source/Dave/Generated/DIGITAL_IO\digital_io.h ****  *
  57:C:/Users/Yoshi/Documents/GitHub/Software/01_jrg/03_VCUJR20/2021_06_17_VCU_jr20_Source/2021_06_17_VCU_jr20_Source/Dave/Generated/DIGITAL_IO\digital_io.h ****  * @endcond
  58:C:/Users/Yoshi/Documents/GitHub/Software/01_jrg/03_VCUJR20/2021_06_17_VCU_jr20_Source/2021_06_17_VCU_jr20_Source/Dave/Generated/DIGITAL_IO\digital_io.h ****  *
  59:C:/Users/Yoshi/Documents/GitHub/Software/01_jrg/03_VCUJR20/2021_06_17_VCU_jr20_Source/2021_06_17_VCU_jr20_Source/Dave/Generated/DIGITAL_IO\digital_io.h ****  */
  60:C:/Users/Yoshi/Documents/GitHub/Software/01_jrg/03_VCUJR20/2021_06_17_VCU_jr20_Source/2021_06_17_VCU_jr20_Source/Dave/Generated/DIGITAL_IO\digital_io.h **** 
  61:C:/Users/Yoshi/Documents/GitHub/Software/01_jrg/03_VCUJR20/2021_06_17_VCU_jr20_Source/2021_06_17_VCU_jr20_Source/Dave/Generated/DIGITAL_IO\digital_io.h **** /**************************************************************************************************
  62:C:/Users/Yoshi/Documents/GitHub/Software/01_jrg/03_VCUJR20/2021_06_17_VCU_jr20_Source/2021_06_17_VCU_jr20_Source/Dave/Generated/DIGITAL_IO\digital_io.h ****  * HEADER FILES
  63:C:/Users/Yoshi/Documents/GitHub/Software/01_jrg/03_VCUJR20/2021_06_17_VCU_jr20_Source/2021_06_17_VCU_jr20_Source/Dave/Generated/DIGITAL_IO\digital_io.h ****  **************************************************************************************************
  64:C:/Users/Yoshi/Documents/GitHub/Software/01_jrg/03_VCUJR20/2021_06_17_VCU_jr20_Source/2021_06_17_VCU_jr20_Source/Dave/Generated/DIGITAL_IO\digital_io.h **** 
  65:C:/Users/Yoshi/Documents/GitHub/Software/01_jrg/03_VCUJR20/2021_06_17_VCU_jr20_Source/2021_06_17_VCU_jr20_Source/Dave/Generated/DIGITAL_IO\digital_io.h **** #ifndef DIGITAL_IO_H
  66:C:/Users/Yoshi/Documents/GitHub/Software/01_jrg/03_VCUJR20/2021_06_17_VCU_jr20_Source/2021_06_17_VCU_jr20_Source/Dave/Generated/DIGITAL_IO\digital_io.h **** #define DIGITAL_IO_H
  67:C:/Users/Yoshi/Documents/GitHub/Software/01_jrg/03_VCUJR20/2021_06_17_VCU_jr20_Source/2021_06_17_VCU_jr20_Source/Dave/Generated/DIGITAL_IO\digital_io.h **** 
  68:C:/Users/Yoshi/Documents/GitHub/Software/01_jrg/03_VCUJR20/2021_06_17_VCU_jr20_Source/2021_06_17_VCU_jr20_Source/Dave/Generated/DIGITAL_IO\digital_io.h **** #include <xmc_gpio.h>
  69:C:/Users/Yoshi/Documents/GitHub/Software/01_jrg/03_VCUJR20/2021_06_17_VCU_jr20_Source/2021_06_17_VCU_jr20_Source/Dave/Generated/DIGITAL_IO\digital_io.h **** #include <DAVE_Common.h>
  70:C:/Users/Yoshi/Documents/GitHub/Software/01_jrg/03_VCUJR20/2021_06_17_VCU_jr20_Source/2021_06_17_VCU_jr20_Source/Dave/Generated/DIGITAL_IO\digital_io.h **** #include "digital_io_conf.h"
  71:C:/Users/Yoshi/Documents/GitHub/Software/01_jrg/03_VCUJR20/2021_06_17_VCU_jr20_Source/2021_06_17_VCU_jr20_Source/Dave/Generated/DIGITAL_IO\digital_io.h **** 
  72:C:/Users/Yoshi/Documents/GitHub/Software/01_jrg/03_VCUJR20/2021_06_17_VCU_jr20_Source/2021_06_17_VCU_jr20_Source/Dave/Generated/DIGITAL_IO\digital_io.h **** /**************************************************************************************************
  73:C:/Users/Yoshi/Documents/GitHub/Software/01_jrg/03_VCUJR20/2021_06_17_VCU_jr20_Source/2021_06_17_VCU_jr20_Source/Dave/Generated/DIGITAL_IO\digital_io.h ****  * MACROS
  74:C:/Users/Yoshi/Documents/GitHub/Software/01_jrg/03_VCUJR20/2021_06_17_VCU_jr20_Source/2021_06_17_VCU_jr20_Source/Dave/Generated/DIGITAL_IO\digital_io.h ****  **************************************************************************************************
  75:C:/Users/Yoshi/Documents/GitHub/Software/01_jrg/03_VCUJR20/2021_06_17_VCU_jr20_Source/2021_06_17_VCU_jr20_Source/Dave/Generated/DIGITAL_IO\digital_io.h **** #if (!((XMC_LIB_MAJOR_VERSION == 2U) && \
  76:C:/Users/Yoshi/Documents/GitHub/Software/01_jrg/03_VCUJR20/2021_06_17_VCU_jr20_Source/2021_06_17_VCU_jr20_Source/Dave/Generated/DIGITAL_IO\digital_io.h ****        (XMC_LIB_MINOR_VERSION >= 0U) && \
  77:C:/Users/Yoshi/Documents/GitHub/Software/01_jrg/03_VCUJR20/2021_06_17_VCU_jr20_Source/2021_06_17_VCU_jr20_Source/Dave/Generated/DIGITAL_IO\digital_io.h ****        (XMC_LIB_PATCH_VERSION >= 0U)))
  78:C:/Users/Yoshi/Documents/GitHub/Software/01_jrg/03_VCUJR20/2021_06_17_VCU_jr20_Source/2021_06_17_VCU_jr20_Source/Dave/Generated/DIGITAL_IO\digital_io.h **** #error "DIGITAL_IO requires XMC Peripheral Library v2.0.0 or higher"
  79:C:/Users/Yoshi/Documents/GitHub/Software/01_jrg/03_VCUJR20/2021_06_17_VCU_jr20_Source/2021_06_17_VCU_jr20_Source/Dave/Generated/DIGITAL_IO\digital_io.h **** #endif
  80:C:/Users/Yoshi/Documents/GitHub/Software/01_jrg/03_VCUJR20/2021_06_17_VCU_jr20_Source/2021_06_17_VCU_jr20_Source/Dave/Generated/DIGITAL_IO\digital_io.h **** 
  81:C:/Users/Yoshi/Documents/GitHub/Software/01_jrg/03_VCUJR20/2021_06_17_VCU_jr20_Source/2021_06_17_VCU_jr20_Source/Dave/Generated/DIGITAL_IO\digital_io.h ****  /*************************************************************************************************
  82:C:/Users/Yoshi/Documents/GitHub/Software/01_jrg/03_VCUJR20/2021_06_17_VCU_jr20_Source/2021_06_17_VCU_jr20_Source/Dave/Generated/DIGITAL_IO\digital_io.h ****  * ENUMS
  83:C:/Users/Yoshi/Documents/GitHub/Software/01_jrg/03_VCUJR20/2021_06_17_VCU_jr20_Source/2021_06_17_VCU_jr20_Source/Dave/Generated/DIGITAL_IO\digital_io.h ****  **************************************************************************************************
  84:C:/Users/Yoshi/Documents/GitHub/Software/01_jrg/03_VCUJR20/2021_06_17_VCU_jr20_Source/2021_06_17_VCU_jr20_Source/Dave/Generated/DIGITAL_IO\digital_io.h **** 
  85:C:/Users/Yoshi/Documents/GitHub/Software/01_jrg/03_VCUJR20/2021_06_17_VCU_jr20_Source/2021_06_17_VCU_jr20_Source/Dave/Generated/DIGITAL_IO\digital_io.h **** /**
  86:C:/Users/Yoshi/Documents/GitHub/Software/01_jrg/03_VCUJR20/2021_06_17_VCU_jr20_Source/2021_06_17_VCU_jr20_Source/Dave/Generated/DIGITAL_IO\digital_io.h **** * @ingroup DIGITAL_IO_enumerations
  87:C:/Users/Yoshi/Documents/GitHub/Software/01_jrg/03_VCUJR20/2021_06_17_VCU_jr20_Source/2021_06_17_VCU_jr20_Source/Dave/Generated/DIGITAL_IO\digital_io.h **** * @{
  88:C:/Users/Yoshi/Documents/GitHub/Software/01_jrg/03_VCUJR20/2021_06_17_VCU_jr20_Source/2021_06_17_VCU_jr20_Source/Dave/Generated/DIGITAL_IO\digital_io.h **** */
  89:C:/Users/Yoshi/Documents/GitHub/Software/01_jrg/03_VCUJR20/2021_06_17_VCU_jr20_Source/2021_06_17_VCU_jr20_Source/Dave/Generated/DIGITAL_IO\digital_io.h **** 
  90:C:/Users/Yoshi/Documents/GitHub/Software/01_jrg/03_VCUJR20/2021_06_17_VCU_jr20_Source/2021_06_17_VCU_jr20_Source/Dave/Generated/DIGITAL_IO\digital_io.h **** /**
  91:C:/Users/Yoshi/Documents/GitHub/Software/01_jrg/03_VCUJR20/2021_06_17_VCU_jr20_Source/2021_06_17_VCU_jr20_Source/Dave/Generated/DIGITAL_IO\digital_io.h **** * @brief Initialization status of DIGITAL_IO APP.
  92:C:/Users/Yoshi/Documents/GitHub/Software/01_jrg/03_VCUJR20/2021_06_17_VCU_jr20_Source/2021_06_17_VCU_jr20_Source/Dave/Generated/DIGITAL_IO\digital_io.h **** */
  93:C:/Users/Yoshi/Documents/GitHub/Software/01_jrg/03_VCUJR20/2021_06_17_VCU_jr20_Source/2021_06_17_VCU_jr20_Source/Dave/Generated/DIGITAL_IO\digital_io.h **** typedef enum DIGITAL_IO_STATUS
  94:C:/Users/Yoshi/Documents/GitHub/Software/01_jrg/03_VCUJR20/2021_06_17_VCU_jr20_Source/2021_06_17_VCU_jr20_Source/Dave/Generated/DIGITAL_IO\digital_io.h **** {
  95:C:/Users/Yoshi/Documents/GitHub/Software/01_jrg/03_VCUJR20/2021_06_17_VCU_jr20_Source/2021_06_17_VCU_jr20_Source/Dave/Generated/DIGITAL_IO\digital_io.h ****   DIGITAL_IO_STATUS_OK = 0U,/**< 0=Status OK */
  96:C:/Users/Yoshi/Documents/GitHub/Software/01_jrg/03_VCUJR20/2021_06_17_VCU_jr20_Source/2021_06_17_VCU_jr20_Source/Dave/Generated/DIGITAL_IO\digital_io.h ****   DIGITAL_IO_STATUS_FAILURE = 1U/**< 1=Status Failed */
  97:C:/Users/Yoshi/Documents/GitHub/Software/01_jrg/03_VCUJR20/2021_06_17_VCU_jr20_Source/2021_06_17_VCU_jr20_Source/Dave/Generated/DIGITAL_IO\digital_io.h **** } DIGITAL_IO_STATUS_t;
  98:C:/Users/Yoshi/Documents/GitHub/Software/01_jrg/03_VCUJR20/2021_06_17_VCU_jr20_Source/2021_06_17_VCU_jr20_Source/Dave/Generated/DIGITAL_IO\digital_io.h **** 
  99:C:/Users/Yoshi/Documents/GitHub/Software/01_jrg/03_VCUJR20/2021_06_17_VCU_jr20_Source/2021_06_17_VCU_jr20_Source/Dave/Generated/DIGITAL_IO\digital_io.h **** /**
 100:C:/Users/Yoshi/Documents/GitHub/Software/01_jrg/03_VCUJR20/2021_06_17_VCU_jr20_Source/2021_06_17_VCU_jr20_Source/Dave/Generated/DIGITAL_IO\digital_io.h **** * @}
 101:C:/Users/Yoshi/Documents/GitHub/Software/01_jrg/03_VCUJR20/2021_06_17_VCU_jr20_Source/2021_06_17_VCU_jr20_Source/Dave/Generated/DIGITAL_IO\digital_io.h **** */
 102:C:/Users/Yoshi/Documents/GitHub/Software/01_jrg/03_VCUJR20/2021_06_17_VCU_jr20_Source/2021_06_17_VCU_jr20_Source/Dave/Generated/DIGITAL_IO\digital_io.h **** 
 103:C:/Users/Yoshi/Documents/GitHub/Software/01_jrg/03_VCUJR20/2021_06_17_VCU_jr20_Source/2021_06_17_VCU_jr20_Source/Dave/Generated/DIGITAL_IO\digital_io.h **** /**************************************************************************************************
 104:C:/Users/Yoshi/Documents/GitHub/Software/01_jrg/03_VCUJR20/2021_06_17_VCU_jr20_Source/2021_06_17_VCU_jr20_Source/Dave/Generated/DIGITAL_IO\digital_io.h ****  * DATA STRUCTURES
 105:C:/Users/Yoshi/Documents/GitHub/Software/01_jrg/03_VCUJR20/2021_06_17_VCU_jr20_Source/2021_06_17_VCU_jr20_Source/Dave/Generated/DIGITAL_IO\digital_io.h ****  **************************************************************************************************
 106:C:/Users/Yoshi/Documents/GitHub/Software/01_jrg/03_VCUJR20/2021_06_17_VCU_jr20_Source/2021_06_17_VCU_jr20_Source/Dave/Generated/DIGITAL_IO\digital_io.h **** /**
 107:C:/Users/Yoshi/Documents/GitHub/Software/01_jrg/03_VCUJR20/2021_06_17_VCU_jr20_Source/2021_06_17_VCU_jr20_Source/Dave/Generated/DIGITAL_IO\digital_io.h **** * @ingroup DIGITAL_IO_datastructures
 108:C:/Users/Yoshi/Documents/GitHub/Software/01_jrg/03_VCUJR20/2021_06_17_VCU_jr20_Source/2021_06_17_VCU_jr20_Source/Dave/Generated/DIGITAL_IO\digital_io.h **** * @{
 109:C:/Users/Yoshi/Documents/GitHub/Software/01_jrg/03_VCUJR20/2021_06_17_VCU_jr20_Source/2021_06_17_VCU_jr20_Source/Dave/Generated/DIGITAL_IO\digital_io.h **** */
 110:C:/Users/Yoshi/Documents/GitHub/Software/01_jrg/03_VCUJR20/2021_06_17_VCU_jr20_Source/2021_06_17_VCU_jr20_Source/Dave/Generated/DIGITAL_IO\digital_io.h **** 
 111:C:/Users/Yoshi/Documents/GitHub/Software/01_jrg/03_VCUJR20/2021_06_17_VCU_jr20_Source/2021_06_17_VCU_jr20_Source/Dave/Generated/DIGITAL_IO\digital_io.h **** /**
 112:C:/Users/Yoshi/Documents/GitHub/Software/01_jrg/03_VCUJR20/2021_06_17_VCU_jr20_Source/2021_06_17_VCU_jr20_Source/Dave/Generated/DIGITAL_IO\digital_io.h **** * @brief Initialization data structure of DIGITAL_IO APP
 113:C:/Users/Yoshi/Documents/GitHub/Software/01_jrg/03_VCUJR20/2021_06_17_VCU_jr20_Source/2021_06_17_VCU_jr20_Source/Dave/Generated/DIGITAL_IO\digital_io.h **** */
 114:C:/Users/Yoshi/Documents/GitHub/Software/01_jrg/03_VCUJR20/2021_06_17_VCU_jr20_Source/2021_06_17_VCU_jr20_Source/Dave/Generated/DIGITAL_IO\digital_io.h **** typedef struct DIGITAL_IO
 115:C:/Users/Yoshi/Documents/GitHub/Software/01_jrg/03_VCUJR20/2021_06_17_VCU_jr20_Source/2021_06_17_VCU_jr20_Source/Dave/Generated/DIGITAL_IO\digital_io.h **** {
 116:C:/Users/Yoshi/Documents/GitHub/Software/01_jrg/03_VCUJR20/2021_06_17_VCU_jr20_Source/2021_06_17_VCU_jr20_Source/Dave/Generated/DIGITAL_IO\digital_io.h ****   XMC_GPIO_PORT_t *const gpio_port;             /**< port number */
 117:C:/Users/Yoshi/Documents/GitHub/Software/01_jrg/03_VCUJR20/2021_06_17_VCU_jr20_Source/2021_06_17_VCU_jr20_Source/Dave/Generated/DIGITAL_IO\digital_io.h ****   const XMC_GPIO_CONFIG_t gpio_config;          /**< mode, initial output level and pad driver stre
 118:C:/Users/Yoshi/Documents/GitHub/Software/01_jrg/03_VCUJR20/2021_06_17_VCU_jr20_Source/2021_06_17_VCU_jr20_Source/Dave/Generated/DIGITAL_IO\digital_io.h ****   const uint8_t gpio_pin;                       /**< pin number */
 119:C:/Users/Yoshi/Documents/GitHub/Software/01_jrg/03_VCUJR20/2021_06_17_VCU_jr20_Source/2021_06_17_VCU_jr20_Source/Dave/Generated/DIGITAL_IO\digital_io.h ****   const XMC_GPIO_HWCTRL_t hwctrl;               /**< Hardware port control */
 120:C:/Users/Yoshi/Documents/GitHub/Software/01_jrg/03_VCUJR20/2021_06_17_VCU_jr20_Source/2021_06_17_VCU_jr20_Source/Dave/Generated/DIGITAL_IO\digital_io.h **** } DIGITAL_IO_t;
 121:C:/Users/Yoshi/Documents/GitHub/Software/01_jrg/03_VCUJR20/2021_06_17_VCU_jr20_Source/2021_06_17_VCU_jr20_Source/Dave/Generated/DIGITAL_IO\digital_io.h **** 
 122:C:/Users/Yoshi/Documents/GitHub/Software/01_jrg/03_VCUJR20/2021_06_17_VCU_jr20_Source/2021_06_17_VCU_jr20_Source/Dave/Generated/DIGITAL_IO\digital_io.h **** 
 123:C:/Users/Yoshi/Documents/GitHub/Software/01_jrg/03_VCUJR20/2021_06_17_VCU_jr20_Source/2021_06_17_VCU_jr20_Source/Dave/Generated/DIGITAL_IO\digital_io.h **** /**
 124:C:/Users/Yoshi/Documents/GitHub/Software/01_jrg/03_VCUJR20/2021_06_17_VCU_jr20_Source/2021_06_17_VCU_jr20_Source/Dave/Generated/DIGITAL_IO\digital_io.h **** * @}
 125:C:/Users/Yoshi/Documents/GitHub/Software/01_jrg/03_VCUJR20/2021_06_17_VCU_jr20_Source/2021_06_17_VCU_jr20_Source/Dave/Generated/DIGITAL_IO\digital_io.h **** */
 126:C:/Users/Yoshi/Documents/GitHub/Software/01_jrg/03_VCUJR20/2021_06_17_VCU_jr20_Source/2021_06_17_VCU_jr20_Source/Dave/Generated/DIGITAL_IO\digital_io.h **** 
 127:C:/Users/Yoshi/Documents/GitHub/Software/01_jrg/03_VCUJR20/2021_06_17_VCU_jr20_Source/2021_06_17_VCU_jr20_Source/Dave/Generated/DIGITAL_IO\digital_io.h **** 
 128:C:/Users/Yoshi/Documents/GitHub/Software/01_jrg/03_VCUJR20/2021_06_17_VCU_jr20_Source/2021_06_17_VCU_jr20_Source/Dave/Generated/DIGITAL_IO\digital_io.h **** /**************************************************************************************************
 129:C:/Users/Yoshi/Documents/GitHub/Software/01_jrg/03_VCUJR20/2021_06_17_VCU_jr20_Source/2021_06_17_VCU_jr20_Source/Dave/Generated/DIGITAL_IO\digital_io.h ****  * API Prototypes
 130:C:/Users/Yoshi/Documents/GitHub/Software/01_jrg/03_VCUJR20/2021_06_17_VCU_jr20_Source/2021_06_17_VCU_jr20_Source/Dave/Generated/DIGITAL_IO\digital_io.h ****  **************************************************************************************************
 131:C:/Users/Yoshi/Documents/GitHub/Software/01_jrg/03_VCUJR20/2021_06_17_VCU_jr20_Source/2021_06_17_VCU_jr20_Source/Dave/Generated/DIGITAL_IO\digital_io.h **** 
 132:C:/Users/Yoshi/Documents/GitHub/Software/01_jrg/03_VCUJR20/2021_06_17_VCU_jr20_Source/2021_06_17_VCU_jr20_Source/Dave/Generated/DIGITAL_IO\digital_io.h **** 
 133:C:/Users/Yoshi/Documents/GitHub/Software/01_jrg/03_VCUJR20/2021_06_17_VCU_jr20_Source/2021_06_17_VCU_jr20_Source/Dave/Generated/DIGITAL_IO\digital_io.h **** #ifdef __cplusplus
 134:C:/Users/Yoshi/Documents/GitHub/Software/01_jrg/03_VCUJR20/2021_06_17_VCU_jr20_Source/2021_06_17_VCU_jr20_Source/Dave/Generated/DIGITAL_IO\digital_io.h **** extern "C" {
 135:C:/Users/Yoshi/Documents/GitHub/Software/01_jrg/03_VCUJR20/2021_06_17_VCU_jr20_Source/2021_06_17_VCU_jr20_Source/Dave/Generated/DIGITAL_IO\digital_io.h **** #endif
 136:C:/Users/Yoshi/Documents/GitHub/Software/01_jrg/03_VCUJR20/2021_06_17_VCU_jr20_Source/2021_06_17_VCU_jr20_Source/Dave/Generated/DIGITAL_IO\digital_io.h **** 
 137:C:/Users/Yoshi/Documents/GitHub/Software/01_jrg/03_VCUJR20/2021_06_17_VCU_jr20_Source/2021_06_17_VCU_jr20_Source/Dave/Generated/DIGITAL_IO\digital_io.h **** /**
 138:C:/Users/Yoshi/Documents/GitHub/Software/01_jrg/03_VCUJR20/2021_06_17_VCU_jr20_Source/2021_06_17_VCU_jr20_Source/Dave/Generated/DIGITAL_IO\digital_io.h **** * @ingroup DIGITAL_IO_apidoc
 139:C:/Users/Yoshi/Documents/GitHub/Software/01_jrg/03_VCUJR20/2021_06_17_VCU_jr20_Source/2021_06_17_VCU_jr20_Source/Dave/Generated/DIGITAL_IO\digital_io.h **** * @{
 140:C:/Users/Yoshi/Documents/GitHub/Software/01_jrg/03_VCUJR20/2021_06_17_VCU_jr20_Source/2021_06_17_VCU_jr20_Source/Dave/Generated/DIGITAL_IO\digital_io.h **** */
 141:C:/Users/Yoshi/Documents/GitHub/Software/01_jrg/03_VCUJR20/2021_06_17_VCU_jr20_Source/2021_06_17_VCU_jr20_Source/Dave/Generated/DIGITAL_IO\digital_io.h **** 
 142:C:/Users/Yoshi/Documents/GitHub/Software/01_jrg/03_VCUJR20/2021_06_17_VCU_jr20_Source/2021_06_17_VCU_jr20_Source/Dave/Generated/DIGITAL_IO\digital_io.h **** 
 143:C:/Users/Yoshi/Documents/GitHub/Software/01_jrg/03_VCUJR20/2021_06_17_VCU_jr20_Source/2021_06_17_VCU_jr20_Source/Dave/Generated/DIGITAL_IO\digital_io.h **** 
 144:C:/Users/Yoshi/Documents/GitHub/Software/01_jrg/03_VCUJR20/2021_06_17_VCU_jr20_Source/2021_06_17_VCU_jr20_Source/Dave/Generated/DIGITAL_IO\digital_io.h **** /**
 145:C:/Users/Yoshi/Documents/GitHub/Software/01_jrg/03_VCUJR20/2021_06_17_VCU_jr20_Source/2021_06_17_VCU_jr20_Source/Dave/Generated/DIGITAL_IO\digital_io.h **** * @brief Get DIGITAL_IO APP version
 146:C:/Users/Yoshi/Documents/GitHub/Software/01_jrg/03_VCUJR20/2021_06_17_VCU_jr20_Source/2021_06_17_VCU_jr20_Source/Dave/Generated/DIGITAL_IO\digital_io.h **** * @return DAVE_APP_VERSION_t APP version information (major, minor and patch number)
 147:C:/Users/Yoshi/Documents/GitHub/Software/01_jrg/03_VCUJR20/2021_06_17_VCU_jr20_Source/2021_06_17_VCU_jr20_Source/Dave/Generated/DIGITAL_IO\digital_io.h **** *
 148:C:/Users/Yoshi/Documents/GitHub/Software/01_jrg/03_VCUJR20/2021_06_17_VCU_jr20_Source/2021_06_17_VCU_jr20_Source/Dave/Generated/DIGITAL_IO\digital_io.h **** * \par<b>Description: </b><br>
 149:C:/Users/Yoshi/Documents/GitHub/Software/01_jrg/03_VCUJR20/2021_06_17_VCU_jr20_Source/2021_06_17_VCU_jr20_Source/Dave/Generated/DIGITAL_IO\digital_io.h **** * The function can be used to check application software compatibility with a
