   1              	 .syntax unified
   2              	 .cpu cortex-m4
   3              	 .eabi_attribute 27,3
   4              	 .fpu fpv4-sp-d16
   5              	 .eabi_attribute 20,1
   6              	 .eabi_attribute 21,1
   7              	 .eabi_attribute 23,3
   8              	 .eabi_attribute 24,1
   9              	 .eabi_attribute 25,1
  10              	 .eabi_attribute 26,1
  11              	 .eabi_attribute 30,6
  12              	 .eabi_attribute 34,1
  13              	 .eabi_attribute 18,4
  14              	 .thumb
  15              	 .file "tasks.c"
  16              	 .text
  17              	.Ltext0:
  18              	 .cfi_sections .debug_frame
  19              	 .global pxCurrentTCB
  20              	 .section .bss.pxCurrentTCB,"aw",%nobits
  21              	 .align 2
  24              	pxCurrentTCB:
  25 0000 00000000 	 .space 4
  26              	 .section .bss.pxReadyTasksLists,"aw",%nobits
  27              	 .align 2
  30              	pxReadyTasksLists:
  31 0000 00000000 	 .space 100
  31      00000000 
  31      00000000 
  31      00000000 
  31      00000000 
  32              	 .section .bss.xDelayedTaskList1,"aw",%nobits
  33              	 .align 2
  36              	xDelayedTaskList1:
  37 0000 00000000 	 .space 20
  37      00000000 
  37      00000000 
  37      00000000 
  37      00000000 
  38              	 .section .bss.xDelayedTaskList2,"aw",%nobits
  39              	 .align 2
  42              	xDelayedTaskList2:
  43 0000 00000000 	 .space 20
  43      00000000 
  43      00000000 
  43      00000000 
  43      00000000 
  44              	 .section .bss.pxDelayedTaskList,"aw",%nobits
  45              	 .align 2
  48              	pxDelayedTaskList:
  49 0000 00000000 	 .space 4
  50              	 .section .bss.pxOverflowDelayedTaskList,"aw",%nobits
  51              	 .align 2
  54              	pxOverflowDelayedTaskList:
  55 0000 00000000 	 .space 4
  56              	 .section .bss.xPendingReadyList,"aw",%nobits
  57              	 .align 2
  60              	xPendingReadyList:
  61 0000 00000000 	 .space 20
  61      00000000 
  61      00000000 
  61      00000000 
  61      00000000 
  62              	 .section .bss.xTasksWaitingTermination,"aw",%nobits
  63              	 .align 2
  66              	xTasksWaitingTermination:
  67 0000 00000000 	 .space 20
  67      00000000 
  67      00000000 
  67      00000000 
  67      00000000 
  68              	 .section .bss.uxDeletedTasksWaitingCleanUp,"aw",%nobits
  69              	 .align 2
  72              	uxDeletedTasksWaitingCleanUp:
  73 0000 00000000 	 .space 4
  74              	 .section .bss.xSuspendedTaskList,"aw",%nobits
  75              	 .align 2
  78              	xSuspendedTaskList:
  79 0000 00000000 	 .space 20
  79      00000000 
  79      00000000 
  79      00000000 
  79      00000000 
  80              	 .section .bss.uxCurrentNumberOfTasks,"aw",%nobits
  81              	 .align 2
  84              	uxCurrentNumberOfTasks:
  85 0000 00000000 	 .space 4
  86              	 .section .bss.xTickCount,"aw",%nobits
  87              	 .align 2
  90              	xTickCount:
  91 0000 00000000 	 .space 4
  92              	 .section .bss.uxTopReadyPriority,"aw",%nobits
  93              	 .align 2
  96              	uxTopReadyPriority:
  97 0000 00000000 	 .space 4
  98              	 .section .bss.xSchedulerRunning,"aw",%nobits
  99              	 .align 2
 102              	xSchedulerRunning:
 103 0000 00000000 	 .space 4
 104              	 .section .bss.xPendedTicks,"aw",%nobits
 105              	 .align 2
 108              	xPendedTicks:
 109 0000 00000000 	 .space 4
 110              	 .section .bss.xYieldPending,"aw",%nobits
 111              	 .align 2
 114              	xYieldPending:
 115 0000 00000000 	 .space 4
 116              	 .section .bss.xNumOfOverflows,"aw",%nobits
 117              	 .align 2
 120              	xNumOfOverflows:
 121 0000 00000000 	 .space 4
 122              	 .section .bss.uxTaskNumber,"aw",%nobits
 123              	 .align 2
 126              	uxTaskNumber:
 127 0000 00000000 	 .space 4
 128              	 .section .bss.xNextTaskUnblockTime,"aw",%nobits
 129              	 .align 2
 132              	xNextTaskUnblockTime:
 133 0000 00000000 	 .space 4
 134              	 .section .bss.xIdleTaskHandle,"aw",%nobits
 135              	 .align 2
 138              	xIdleTaskHandle:
 139 0000 00000000 	 .space 4
 140              	 .global uxTopUsedPriority
 141              	 .section .data.uxTopUsedPriority,"aw",%progbits
 142              	 .align 2
 145              	uxTopUsedPriority:
 146 0000 04000000 	 .word 4
 147              	 .section .bss.uxSchedulerSuspended,"aw",%nobits
 148              	 .align 2
 151              	uxSchedulerSuspended:
 152 0000 00000000 	 .space 4
 153              	 .section .text.xTaskCreate,"ax",%progbits
 154              	 .align 2
 155              	 .global xTaskCreate
 156              	 .thumb
 157              	 .thumb_func
 159              	xTaskCreate:
 160              	.LFB138:
 161              	 .file 1 "../Dave/Generated/FREERTOS/tasks.c"
   1:../Dave/Generated/FREERTOS/tasks.c **** /*
   2:../Dave/Generated/FREERTOS/tasks.c ****  * FreeRTOS Kernel V10.4.3
   3:../Dave/Generated/FREERTOS/tasks.c ****  * Copyright (C) 2020 Amazon.com, Inc. or its affiliates.  All Rights Reserved.
   4:../Dave/Generated/FREERTOS/tasks.c ****  *
   5:../Dave/Generated/FREERTOS/tasks.c ****  * Permission is hereby granted, free of charge, to any person obtaining a copy of
   6:../Dave/Generated/FREERTOS/tasks.c ****  * this software and associated documentation files (the "Software"), to deal in
   7:../Dave/Generated/FREERTOS/tasks.c ****  * the Software without restriction, including without limitation the rights to
   8:../Dave/Generated/FREERTOS/tasks.c ****  * use, copy, modify, merge, publish, distribute, sublicense, and/or sell copies of
   9:../Dave/Generated/FREERTOS/tasks.c ****  * the Software, and to permit persons to whom the Software is furnished to do so,
  10:../Dave/Generated/FREERTOS/tasks.c ****  * subject to the following conditions:
  11:../Dave/Generated/FREERTOS/tasks.c ****  *
  12:../Dave/Generated/FREERTOS/tasks.c ****  * The above copyright notice and this permission notice shall be included in all
  13:../Dave/Generated/FREERTOS/tasks.c ****  * copies or substantial portions of the Software.
  14:../Dave/Generated/FREERTOS/tasks.c ****  *
  15:../Dave/Generated/FREERTOS/tasks.c ****  * THE SOFTWARE IS PROVIDED "AS IS", WITHOUT WARRANTY OF ANY KIND, EXPRESS OR
  16:../Dave/Generated/FREERTOS/tasks.c ****  * IMPLIED, INCLUDING BUT NOT LIMITED TO THE WARRANTIES OF MERCHANTABILITY, FITNESS
  17:../Dave/Generated/FREERTOS/tasks.c ****  * FOR A PARTICULAR PURPOSE AND NONINFRINGEMENT. IN NO EVENT SHALL THE AUTHORS OR
  18:../Dave/Generated/FREERTOS/tasks.c ****  * COPYRIGHT HOLDERS BE LIABLE FOR ANY CLAIM, DAMAGES OR OTHER LIABILITY, WHETHER
  19:../Dave/Generated/FREERTOS/tasks.c ****  * IN AN ACTION OF CONTRACT, TORT OR OTHERWISE, ARISING FROM, OUT OF OR IN
  20:../Dave/Generated/FREERTOS/tasks.c ****  * CONNECTION WITH THE SOFTWARE OR THE USE OR OTHER DEALINGS IN THE SOFTWARE.
  21:../Dave/Generated/FREERTOS/tasks.c ****  *
  22:../Dave/Generated/FREERTOS/tasks.c ****  * https://www.FreeRTOS.org
  23:../Dave/Generated/FREERTOS/tasks.c ****  * https://github.com/FreeRTOS
  24:../Dave/Generated/FREERTOS/tasks.c ****  *
  25:../Dave/Generated/FREERTOS/tasks.c ****  */
  26:../Dave/Generated/FREERTOS/tasks.c **** 
  27:../Dave/Generated/FREERTOS/tasks.c **** /* Standard includes. */
  28:../Dave/Generated/FREERTOS/tasks.c **** #include <stdlib.h>
  29:../Dave/Generated/FREERTOS/tasks.c **** #include <string.h>
  30:../Dave/Generated/FREERTOS/tasks.c **** 
  31:../Dave/Generated/FREERTOS/tasks.c **** /* Defining MPU_WRAPPERS_INCLUDED_FROM_API_FILE prevents task.h from redefining
  32:../Dave/Generated/FREERTOS/tasks.c ****  * all the API functions to use the MPU wrappers.  That should only be done when
  33:../Dave/Generated/FREERTOS/tasks.c ****  * task.h is included from an application file. */
  34:../Dave/Generated/FREERTOS/tasks.c **** #define MPU_WRAPPERS_INCLUDED_FROM_API_FILE
  35:../Dave/Generated/FREERTOS/tasks.c **** 
  36:../Dave/Generated/FREERTOS/tasks.c **** /* FreeRTOS includes. */
  37:../Dave/Generated/FREERTOS/tasks.c **** #include "FreeRTOS.h"
  38:../Dave/Generated/FREERTOS/tasks.c **** #include "task.h"
  39:../Dave/Generated/FREERTOS/tasks.c **** #include "timers.h"
  40:../Dave/Generated/FREERTOS/tasks.c **** #include "stack_macros.h"
  41:../Dave/Generated/FREERTOS/tasks.c **** 
  42:../Dave/Generated/FREERTOS/tasks.c **** /* Lint e9021, e961 and e750 are suppressed as a MISRA exception justified
  43:../Dave/Generated/FREERTOS/tasks.c ****  * because the MPU ports require MPU_WRAPPERS_INCLUDED_FROM_API_FILE to be defined
  44:../Dave/Generated/FREERTOS/tasks.c ****  * for the header files above, but not in this file, in order to generate the
  45:../Dave/Generated/FREERTOS/tasks.c ****  * correct privileged Vs unprivileged linkage and placement. */
  46:../Dave/Generated/FREERTOS/tasks.c **** #undef MPU_WRAPPERS_INCLUDED_FROM_API_FILE /*lint !e961 !e750 !e9021. */
  47:../Dave/Generated/FREERTOS/tasks.c **** 
  48:../Dave/Generated/FREERTOS/tasks.c **** /* Set configUSE_STATS_FORMATTING_FUNCTIONS to 2 to include the stats formatting
  49:../Dave/Generated/FREERTOS/tasks.c ****  * functions but without including stdio.h here. */
  50:../Dave/Generated/FREERTOS/tasks.c **** #if ( configUSE_STATS_FORMATTING_FUNCTIONS == 1 )
  51:../Dave/Generated/FREERTOS/tasks.c **** 
  52:../Dave/Generated/FREERTOS/tasks.c **** /* At the bottom of this file are two optional functions that can be used
  53:../Dave/Generated/FREERTOS/tasks.c ****  * to generate human readable text from the raw data generated by the
  54:../Dave/Generated/FREERTOS/tasks.c ****  * uxTaskGetSystemState() function.  Note the formatting functions are provided
  55:../Dave/Generated/FREERTOS/tasks.c ****  * for convenience only, and are NOT considered part of the kernel. */
  56:../Dave/Generated/FREERTOS/tasks.c ****     #include <stdio.h>
  57:../Dave/Generated/FREERTOS/tasks.c **** #endif /* configUSE_STATS_FORMATTING_FUNCTIONS == 1 ) */
  58:../Dave/Generated/FREERTOS/tasks.c **** 
  59:../Dave/Generated/FREERTOS/tasks.c **** #if ( configUSE_PREEMPTION == 0 )
  60:../Dave/Generated/FREERTOS/tasks.c **** 
  61:../Dave/Generated/FREERTOS/tasks.c **** /* If the cooperative scheduler is being used then a yield should not be
  62:../Dave/Generated/FREERTOS/tasks.c ****  * performed just because a higher priority task has been woken. */
  63:../Dave/Generated/FREERTOS/tasks.c ****     #define taskYIELD_IF_USING_PREEMPTION()
  64:../Dave/Generated/FREERTOS/tasks.c **** #else
  65:../Dave/Generated/FREERTOS/tasks.c ****     #define taskYIELD_IF_USING_PREEMPTION()    portYIELD_WITHIN_API()
  66:../Dave/Generated/FREERTOS/tasks.c **** #endif
  67:../Dave/Generated/FREERTOS/tasks.c **** 
  68:../Dave/Generated/FREERTOS/tasks.c **** /* Values that can be assigned to the ucNotifyState member of the TCB. */
  69:../Dave/Generated/FREERTOS/tasks.c **** #define taskNOT_WAITING_NOTIFICATION              ( ( uint8_t ) 0 ) /* Must be zero as it is the in
  70:../Dave/Generated/FREERTOS/tasks.c **** #define taskWAITING_NOTIFICATION                  ( ( uint8_t ) 1 )
  71:../Dave/Generated/FREERTOS/tasks.c **** #define taskNOTIFICATION_RECEIVED                 ( ( uint8_t ) 2 )
  72:../Dave/Generated/FREERTOS/tasks.c **** 
  73:../Dave/Generated/FREERTOS/tasks.c **** /*
  74:../Dave/Generated/FREERTOS/tasks.c ****  * The value used to fill the stack of a task when the task is created.  This
  75:../Dave/Generated/FREERTOS/tasks.c ****  * is used purely for checking the high water mark for tasks.
  76:../Dave/Generated/FREERTOS/tasks.c ****  */
  77:../Dave/Generated/FREERTOS/tasks.c **** #define tskSTACK_FILL_BYTE                        ( 0xa5U )
  78:../Dave/Generated/FREERTOS/tasks.c **** 
  79:../Dave/Generated/FREERTOS/tasks.c **** /* Bits used to recored how a task's stack and TCB were allocated. */
  80:../Dave/Generated/FREERTOS/tasks.c **** #define tskDYNAMICALLY_ALLOCATED_STACK_AND_TCB    ( ( uint8_t ) 0 )
  81:../Dave/Generated/FREERTOS/tasks.c **** #define tskSTATICALLY_ALLOCATED_STACK_ONLY        ( ( uint8_t ) 1 )
  82:../Dave/Generated/FREERTOS/tasks.c **** #define tskSTATICALLY_ALLOCATED_STACK_AND_TCB     ( ( uint8_t ) 2 )
  83:../Dave/Generated/FREERTOS/tasks.c **** 
  84:../Dave/Generated/FREERTOS/tasks.c **** /* If any of the following are set then task stacks are filled with a known
  85:../Dave/Generated/FREERTOS/tasks.c ****  * value so the high water mark can be determined.  If none of the following are
  86:../Dave/Generated/FREERTOS/tasks.c ****  * set then don't fill the stack so there is no unnecessary dependency on memset. */
  87:../Dave/Generated/FREERTOS/tasks.c **** #if ( ( configCHECK_FOR_STACK_OVERFLOW > 1 ) || ( configUSE_TRACE_FACILITY == 1 ) || ( INCLUDE_uxTa
  88:../Dave/Generated/FREERTOS/tasks.c ****     #define tskSET_NEW_STACKS_TO_KNOWN_VALUE    1
  89:../Dave/Generated/FREERTOS/tasks.c **** #else
  90:../Dave/Generated/FREERTOS/tasks.c ****     #define tskSET_NEW_STACKS_TO_KNOWN_VALUE    0
  91:../Dave/Generated/FREERTOS/tasks.c **** #endif
  92:../Dave/Generated/FREERTOS/tasks.c **** 
  93:../Dave/Generated/FREERTOS/tasks.c **** /*
  94:../Dave/Generated/FREERTOS/tasks.c ****  * Macros used by vListTask to indicate which state a task is in.
  95:../Dave/Generated/FREERTOS/tasks.c ****  */
  96:../Dave/Generated/FREERTOS/tasks.c **** #define tskRUNNING_CHAR      ( 'X' )
  97:../Dave/Generated/FREERTOS/tasks.c **** #define tskBLOCKED_CHAR      ( 'B' )
  98:../Dave/Generated/FREERTOS/tasks.c **** #define tskREADY_CHAR        ( 'R' )
  99:../Dave/Generated/FREERTOS/tasks.c **** #define tskDELETED_CHAR      ( 'D' )
 100:../Dave/Generated/FREERTOS/tasks.c **** #define tskSUSPENDED_CHAR    ( 'S' )
 101:../Dave/Generated/FREERTOS/tasks.c **** 
 102:../Dave/Generated/FREERTOS/tasks.c **** /*
 103:../Dave/Generated/FREERTOS/tasks.c ****  * Some kernel aware debuggers require the data the debugger needs access to be
 104:../Dave/Generated/FREERTOS/tasks.c ****  * global, rather than file scope.
 105:../Dave/Generated/FREERTOS/tasks.c ****  */
 106:../Dave/Generated/FREERTOS/tasks.c **** #ifdef portREMOVE_STATIC_QUALIFIER
 107:../Dave/Generated/FREERTOS/tasks.c ****     #define static
 108:../Dave/Generated/FREERTOS/tasks.c **** #endif
 109:../Dave/Generated/FREERTOS/tasks.c **** 
 110:../Dave/Generated/FREERTOS/tasks.c **** /* The name allocated to the Idle task.  This can be overridden by defining
 111:../Dave/Generated/FREERTOS/tasks.c ****  * configIDLE_TASK_NAME in FreeRTOSConfig.h. */
 112:../Dave/Generated/FREERTOS/tasks.c **** #ifndef configIDLE_TASK_NAME
 113:../Dave/Generated/FREERTOS/tasks.c ****     #define configIDLE_TASK_NAME    "IDLE"
 114:../Dave/Generated/FREERTOS/tasks.c **** #endif
 115:../Dave/Generated/FREERTOS/tasks.c **** 
 116:../Dave/Generated/FREERTOS/tasks.c **** #if ( configUSE_PORT_OPTIMISED_TASK_SELECTION == 0 )
 117:../Dave/Generated/FREERTOS/tasks.c **** 
 118:../Dave/Generated/FREERTOS/tasks.c **** /* If configUSE_PORT_OPTIMISED_TASK_SELECTION is 0 then task selection is
 119:../Dave/Generated/FREERTOS/tasks.c ****  * performed in a generic way that is not optimised to any particular
 120:../Dave/Generated/FREERTOS/tasks.c ****  * microcontroller architecture. */
 121:../Dave/Generated/FREERTOS/tasks.c **** 
 122:../Dave/Generated/FREERTOS/tasks.c **** /* uxTopReadyPriority holds the priority of the highest priority ready
 123:../Dave/Generated/FREERTOS/tasks.c ****  * state task. */
 124:../Dave/Generated/FREERTOS/tasks.c ****     #define taskRECORD_READY_PRIORITY( uxPriority ) \
 125:../Dave/Generated/FREERTOS/tasks.c ****     {                                               \
 126:../Dave/Generated/FREERTOS/tasks.c ****         if( ( uxPriority ) > uxTopReadyPriority )   \
 127:../Dave/Generated/FREERTOS/tasks.c ****         {                                           \
 128:../Dave/Generated/FREERTOS/tasks.c ****             uxTopReadyPriority = ( uxPriority );    \
 129:../Dave/Generated/FREERTOS/tasks.c ****         }                                           \
 130:../Dave/Generated/FREERTOS/tasks.c ****     } /* taskRECORD_READY_PRIORITY */
 131:../Dave/Generated/FREERTOS/tasks.c **** 
 132:../Dave/Generated/FREERTOS/tasks.c **** /*-----------------------------------------------------------*/
 133:../Dave/Generated/FREERTOS/tasks.c **** 
 134:../Dave/Generated/FREERTOS/tasks.c ****     #define taskSELECT_HIGHEST_PRIORITY_TASK()                                \
 135:../Dave/Generated/FREERTOS/tasks.c ****     {                                                                         \
 136:../Dave/Generated/FREERTOS/tasks.c ****         UBaseType_t uxTopPriority = uxTopReadyPriority;                       \
 137:../Dave/Generated/FREERTOS/tasks.c ****                                                                               \
 138:../Dave/Generated/FREERTOS/tasks.c ****         /* Find the highest priority queue that contains ready tasks. */      \
 139:../Dave/Generated/FREERTOS/tasks.c ****         while( listLIST_IS_EMPTY( &( pxReadyTasksLists[ uxTopPriority ] ) ) ) \
 140:../Dave/Generated/FREERTOS/tasks.c ****         {                                                                     \
 141:../Dave/Generated/FREERTOS/tasks.c ****             configASSERT( uxTopPriority );                                    \
 142:../Dave/Generated/FREERTOS/tasks.c ****             --uxTopPriority;                                                  \
 143:../Dave/Generated/FREERTOS/tasks.c ****         }                                                                     \
 144:../Dave/Generated/FREERTOS/tasks.c ****                                                                               \
 145:../Dave/Generated/FREERTOS/tasks.c ****         /* listGET_OWNER_OF_NEXT_ENTRY indexes through the list, so the tasks of \
 146:../Dave/Generated/FREERTOS/tasks.c ****          * the  same priority get an equal share of the processor time. */                    \
 147:../Dave/Generated/FREERTOS/tasks.c ****         listGET_OWNER_OF_NEXT_ENTRY( pxCurrentTCB, &( pxReadyTasksLists[ uxTopPriority ] ) ); \
 148:../Dave/Generated/FREERTOS/tasks.c ****         uxTopReadyPriority = uxTopPriority;                                                   \
 149:../Dave/Generated/FREERTOS/tasks.c ****     } /* taskSELECT_HIGHEST_PRIORITY_TASK */
 150:../Dave/Generated/FREERTOS/tasks.c **** 
 151:../Dave/Generated/FREERTOS/tasks.c **** /*-----------------------------------------------------------*/
 152:../Dave/Generated/FREERTOS/tasks.c **** 
 153:../Dave/Generated/FREERTOS/tasks.c **** /* Define away taskRESET_READY_PRIORITY() and portRESET_READY_PRIORITY() as
 154:../Dave/Generated/FREERTOS/tasks.c ****  * they are only required when a port optimised method of task selection is
 155:../Dave/Generated/FREERTOS/tasks.c ****  * being used. */
 156:../Dave/Generated/FREERTOS/tasks.c ****     #define taskRESET_READY_PRIORITY( uxPriority )
 157:../Dave/Generated/FREERTOS/tasks.c ****     #define portRESET_READY_PRIORITY( uxPriority, uxTopReadyPriority )
 158:../Dave/Generated/FREERTOS/tasks.c **** 
 159:../Dave/Generated/FREERTOS/tasks.c **** #else /* configUSE_PORT_OPTIMISED_TASK_SELECTION */
 160:../Dave/Generated/FREERTOS/tasks.c **** 
 161:../Dave/Generated/FREERTOS/tasks.c **** /* If configUSE_PORT_OPTIMISED_TASK_SELECTION is 1 then task selection is
 162:../Dave/Generated/FREERTOS/tasks.c ****  * performed in a way that is tailored to the particular microcontroller
 163:../Dave/Generated/FREERTOS/tasks.c ****  * architecture being used. */
 164:../Dave/Generated/FREERTOS/tasks.c **** 
 165:../Dave/Generated/FREERTOS/tasks.c **** /* A port optimised version is provided.  Call the port defined macros. */
 166:../Dave/Generated/FREERTOS/tasks.c ****     #define taskRECORD_READY_PRIORITY( uxPriority )    portRECORD_READY_PRIORITY( uxPriority, uxTop
 167:../Dave/Generated/FREERTOS/tasks.c **** 
 168:../Dave/Generated/FREERTOS/tasks.c **** /*-----------------------------------------------------------*/
 169:../Dave/Generated/FREERTOS/tasks.c **** 
 170:../Dave/Generated/FREERTOS/tasks.c ****     #define taskSELECT_HIGHEST_PRIORITY_TASK()                                                  \
 171:../Dave/Generated/FREERTOS/tasks.c ****     {                                                                                           \
 172:../Dave/Generated/FREERTOS/tasks.c ****         UBaseType_t uxTopPriority;                                                              \
 173:../Dave/Generated/FREERTOS/tasks.c ****                                                                                                 \
 174:../Dave/Generated/FREERTOS/tasks.c ****         /* Find the highest priority list that contains ready tasks. */                         \
 175:../Dave/Generated/FREERTOS/tasks.c ****         portGET_HIGHEST_PRIORITY( uxTopPriority, uxTopReadyPriority );                          \
 176:../Dave/Generated/FREERTOS/tasks.c ****         configASSERT( listCURRENT_LIST_LENGTH( &( pxReadyTasksLists[ uxTopPriority ] ) ) > 0 ); \
 177:../Dave/Generated/FREERTOS/tasks.c ****         listGET_OWNER_OF_NEXT_ENTRY( pxCurrentTCB, &( pxReadyTasksLists[ uxTopPriority ] ) );   \
 178:../Dave/Generated/FREERTOS/tasks.c ****     } /* taskSELECT_HIGHEST_PRIORITY_TASK() */
 179:../Dave/Generated/FREERTOS/tasks.c **** 
 180:../Dave/Generated/FREERTOS/tasks.c **** /*-----------------------------------------------------------*/
 181:../Dave/Generated/FREERTOS/tasks.c **** 
 182:../Dave/Generated/FREERTOS/tasks.c **** /* A port optimised version is provided, call it only if the TCB being reset
 183:../Dave/Generated/FREERTOS/tasks.c ****  * is being referenced from a ready list.  If it is referenced from a delayed
 184:../Dave/Generated/FREERTOS/tasks.c ****  * or suspended list then it won't be in a ready list. */
 185:../Dave/Generated/FREERTOS/tasks.c ****     #define taskRESET_READY_PRIORITY( uxPriority )                                                 
 186:../Dave/Generated/FREERTOS/tasks.c ****     {                                                                                              
 187:../Dave/Generated/FREERTOS/tasks.c ****         if( listCURRENT_LIST_LENGTH( &( pxReadyTasksLists[ ( uxPriority ) ] ) ) == ( UBaseType_t ) 
 188:../Dave/Generated/FREERTOS/tasks.c ****         {                                                                                          
 189:../Dave/Generated/FREERTOS/tasks.c ****             portRESET_READY_PRIORITY( ( uxPriority ), ( uxTopReadyPriority ) );                    
 190:../Dave/Generated/FREERTOS/tasks.c ****         }                                                                                          
 191:../Dave/Generated/FREERTOS/tasks.c ****     }
 192:../Dave/Generated/FREERTOS/tasks.c **** 
 193:../Dave/Generated/FREERTOS/tasks.c **** #endif /* configUSE_PORT_OPTIMISED_TASK_SELECTION */
 194:../Dave/Generated/FREERTOS/tasks.c **** 
 195:../Dave/Generated/FREERTOS/tasks.c **** /*-----------------------------------------------------------*/
 196:../Dave/Generated/FREERTOS/tasks.c **** 
 197:../Dave/Generated/FREERTOS/tasks.c **** /* pxDelayedTaskList and pxOverflowDelayedTaskList are switched when the tick
 198:../Dave/Generated/FREERTOS/tasks.c ****  * count overflows. */
 199:../Dave/Generated/FREERTOS/tasks.c **** #define taskSWITCH_DELAYED_LISTS()                                                \
 200:../Dave/Generated/FREERTOS/tasks.c ****     {                                                                             \
 201:../Dave/Generated/FREERTOS/tasks.c ****         List_t * pxTemp;                                                          \
 202:../Dave/Generated/FREERTOS/tasks.c ****                                                                                   \
 203:../Dave/Generated/FREERTOS/tasks.c ****         /* The delayed tasks list should be empty when the lists are switched. */ \
 204:../Dave/Generated/FREERTOS/tasks.c ****         configASSERT( ( listLIST_IS_EMPTY( pxDelayedTaskList ) ) );               \
 205:../Dave/Generated/FREERTOS/tasks.c ****                                                                                   \
 206:../Dave/Generated/FREERTOS/tasks.c ****         pxTemp = pxDelayedTaskList;                                               \
 207:../Dave/Generated/FREERTOS/tasks.c ****         pxDelayedTaskList = pxOverflowDelayedTaskList;                            \
 208:../Dave/Generated/FREERTOS/tasks.c ****         pxOverflowDelayedTaskList = pxTemp;                                       \
 209:../Dave/Generated/FREERTOS/tasks.c ****         xNumOfOverflows++;                                                        \
 210:../Dave/Generated/FREERTOS/tasks.c ****         prvResetNextTaskUnblockTime();                                            \
 211:../Dave/Generated/FREERTOS/tasks.c ****     }
 212:../Dave/Generated/FREERTOS/tasks.c **** 
 213:../Dave/Generated/FREERTOS/tasks.c **** /*-----------------------------------------------------------*/
 214:../Dave/Generated/FREERTOS/tasks.c **** 
 215:../Dave/Generated/FREERTOS/tasks.c **** /*
 216:../Dave/Generated/FREERTOS/tasks.c ****  * Place the task represented by pxTCB into the appropriate ready list for
 217:../Dave/Generated/FREERTOS/tasks.c ****  * the task.  It is inserted at the end of the list.
 218:../Dave/Generated/FREERTOS/tasks.c ****  */
 219:../Dave/Generated/FREERTOS/tasks.c **** #define prvAddTaskToReadyList( pxTCB )                                                             
 220:../Dave/Generated/FREERTOS/tasks.c ****     traceMOVED_TASK_TO_READY_STATE( pxTCB );                                                       
 221:../Dave/Generated/FREERTOS/tasks.c ****     taskRECORD_READY_PRIORITY( ( pxTCB )->uxPriority );                                            
 222:../Dave/Generated/FREERTOS/tasks.c ****     vListInsertEnd( &( pxReadyTasksLists[ ( pxTCB )->uxPriority ] ), &( ( pxTCB )->xStateListItem )
 223:../Dave/Generated/FREERTOS/tasks.c ****     tracePOST_MOVED_TASK_TO_READY_STATE( pxTCB )
 224:../Dave/Generated/FREERTOS/tasks.c **** /*-----------------------------------------------------------*/
 225:../Dave/Generated/FREERTOS/tasks.c **** 
 226:../Dave/Generated/FREERTOS/tasks.c **** /*
 227:../Dave/Generated/FREERTOS/tasks.c ****  * Several functions take an TaskHandle_t parameter that can optionally be NULL,
 228:../Dave/Generated/FREERTOS/tasks.c ****  * where NULL is used to indicate that the handle of the currently executing
 229:../Dave/Generated/FREERTOS/tasks.c ****  * task should be used in place of the parameter.  This macro simply checks to
 230:../Dave/Generated/FREERTOS/tasks.c ****  * see if the parameter is NULL and returns a pointer to the appropriate TCB.
 231:../Dave/Generated/FREERTOS/tasks.c ****  */
 232:../Dave/Generated/FREERTOS/tasks.c **** #define prvGetTCBFromHandle( pxHandle )    ( ( ( pxHandle ) == NULL ) ? pxCurrentTCB : ( pxHandle )
 233:../Dave/Generated/FREERTOS/tasks.c **** 
 234:../Dave/Generated/FREERTOS/tasks.c **** /* The item value of the event list item is normally used to hold the priority
 235:../Dave/Generated/FREERTOS/tasks.c ****  * of the task to which it belongs (coded to allow it to be held in reverse
 236:../Dave/Generated/FREERTOS/tasks.c ****  * priority order).  However, it is occasionally borrowed for other purposes.  It
 237:../Dave/Generated/FREERTOS/tasks.c ****  * is important its value is not updated due to a task priority change while it is
 238:../Dave/Generated/FREERTOS/tasks.c ****  * being used for another purpose.  The following bit definition is used to inform
 239:../Dave/Generated/FREERTOS/tasks.c ****  * the scheduler that the value should not be changed - in which case it is the
 240:../Dave/Generated/FREERTOS/tasks.c ****  * responsibility of whichever module is using the value to ensure it gets set back
 241:../Dave/Generated/FREERTOS/tasks.c ****  * to its original value when it is released. */
 242:../Dave/Generated/FREERTOS/tasks.c **** #if ( configUSE_16_BIT_TICKS == 1 )
 243:../Dave/Generated/FREERTOS/tasks.c ****     #define taskEVENT_LIST_ITEM_VALUE_IN_USE    0x8000U
 244:../Dave/Generated/FREERTOS/tasks.c **** #else
 245:../Dave/Generated/FREERTOS/tasks.c ****     #define taskEVENT_LIST_ITEM_VALUE_IN_USE    0x80000000UL
 246:../Dave/Generated/FREERTOS/tasks.c **** #endif
 247:../Dave/Generated/FREERTOS/tasks.c **** 
 248:../Dave/Generated/FREERTOS/tasks.c **** /*
 249:../Dave/Generated/FREERTOS/tasks.c ****  * Task control block.  A task control block (TCB) is allocated for each task,
 250:../Dave/Generated/FREERTOS/tasks.c ****  * and stores task state information, including a pointer to the task's context
 251:../Dave/Generated/FREERTOS/tasks.c ****  * (the task's run time environment, including register values)
 252:../Dave/Generated/FREERTOS/tasks.c ****  */
 253:../Dave/Generated/FREERTOS/tasks.c **** typedef struct tskTaskControlBlock       /* The old naming convention is used to prevent breaking k
 254:../Dave/Generated/FREERTOS/tasks.c **** {
 255:../Dave/Generated/FREERTOS/tasks.c ****     volatile StackType_t * pxTopOfStack; /*< Points to the location of the last item placed on the 
 256:../Dave/Generated/FREERTOS/tasks.c **** 
 257:../Dave/Generated/FREERTOS/tasks.c ****     #if ( portUSING_MPU_WRAPPERS == 1 )
 258:../Dave/Generated/FREERTOS/tasks.c ****         xMPU_SETTINGS xMPUSettings; /*< The MPU settings are defined as part of the port layer.  TH
 259:../Dave/Generated/FREERTOS/tasks.c ****     #endif
 260:../Dave/Generated/FREERTOS/tasks.c **** 
 261:../Dave/Generated/FREERTOS/tasks.c ****     ListItem_t xStateListItem;                  /*< The list that the state list item of a task is 
 262:../Dave/Generated/FREERTOS/tasks.c ****     ListItem_t xEventListItem;                  /*< Used to reference a task from an event list. */
 263:../Dave/Generated/FREERTOS/tasks.c ****     UBaseType_t uxPriority;                     /*< The priority of the task.  0 is the lowest prio
 264:../Dave/Generated/FREERTOS/tasks.c ****     StackType_t * pxStack;                      /*< Points to the start of the stack. */
 265:../Dave/Generated/FREERTOS/tasks.c ****     char pcTaskName[ configMAX_TASK_NAME_LEN ]; /*< Descriptive name given to the task when created
 266:../Dave/Generated/FREERTOS/tasks.c **** 
 267:../Dave/Generated/FREERTOS/tasks.c ****     #if ( ( portSTACK_GROWTH > 0 ) || ( configRECORD_STACK_HIGH_ADDRESS == 1 ) )
 268:../Dave/Generated/FREERTOS/tasks.c ****         StackType_t * pxEndOfStack; /*< Points to the highest valid address for the stack. */
 269:../Dave/Generated/FREERTOS/tasks.c ****     #endif
 270:../Dave/Generated/FREERTOS/tasks.c **** 
 271:../Dave/Generated/FREERTOS/tasks.c ****     #if ( portCRITICAL_NESTING_IN_TCB == 1 )
 272:../Dave/Generated/FREERTOS/tasks.c ****         UBaseType_t uxCriticalNesting; /*< Holds the critical section nesting depth for ports that 
 273:../Dave/Generated/FREERTOS/tasks.c ****     #endif
 274:../Dave/Generated/FREERTOS/tasks.c **** 
 275:../Dave/Generated/FREERTOS/tasks.c ****     #if ( configUSE_TRACE_FACILITY == 1 )
 276:../Dave/Generated/FREERTOS/tasks.c ****         UBaseType_t uxTCBNumber;  /*< Stores a number that increments each time a TCB is created.  
 277:../Dave/Generated/FREERTOS/tasks.c ****         UBaseType_t uxTaskNumber; /*< Stores a number specifically for use by third party trace cod
 278:../Dave/Generated/FREERTOS/tasks.c ****     #endif
 279:../Dave/Generated/FREERTOS/tasks.c **** 
 280:../Dave/Generated/FREERTOS/tasks.c ****     #if ( configUSE_MUTEXES == 1 )
 281:../Dave/Generated/FREERTOS/tasks.c ****         UBaseType_t uxBasePriority; /*< The priority last assigned to the task - used by the priori
 282:../Dave/Generated/FREERTOS/tasks.c ****         UBaseType_t uxMutexesHeld;
 283:../Dave/Generated/FREERTOS/tasks.c ****     #endif
 284:../Dave/Generated/FREERTOS/tasks.c **** 
 285:../Dave/Generated/FREERTOS/tasks.c ****     #if ( configUSE_APPLICATION_TASK_TAG == 1 )
 286:../Dave/Generated/FREERTOS/tasks.c ****         TaskHookFunction_t pxTaskTag;
 287:../Dave/Generated/FREERTOS/tasks.c ****     #endif
 288:../Dave/Generated/FREERTOS/tasks.c **** 
 289:../Dave/Generated/FREERTOS/tasks.c ****     #if ( configNUM_THREAD_LOCAL_STORAGE_POINTERS > 0 )
 290:../Dave/Generated/FREERTOS/tasks.c ****         void * pvThreadLocalStoragePointers[ configNUM_THREAD_LOCAL_STORAGE_POINTERS ];
 291:../Dave/Generated/FREERTOS/tasks.c ****     #endif
 292:../Dave/Generated/FREERTOS/tasks.c **** 
 293:../Dave/Generated/FREERTOS/tasks.c ****     #if ( configGENERATE_RUN_TIME_STATS == 1 )
 294:../Dave/Generated/FREERTOS/tasks.c ****         uint32_t ulRunTimeCounter; /*< Stores the amount of time the task has spent in the Running 
 295:../Dave/Generated/FREERTOS/tasks.c ****     #endif
 296:../Dave/Generated/FREERTOS/tasks.c **** 
 297:../Dave/Generated/FREERTOS/tasks.c ****     #if ( configUSE_NEWLIB_REENTRANT == 1 )
 298:../Dave/Generated/FREERTOS/tasks.c **** 
 299:../Dave/Generated/FREERTOS/tasks.c ****         /* Allocate a Newlib reent structure that is specific to this task.
 300:../Dave/Generated/FREERTOS/tasks.c ****          * Note Newlib support has been included by popular demand, but is not
 301:../Dave/Generated/FREERTOS/tasks.c ****          * used by the FreeRTOS maintainers themselves.  FreeRTOS is not
 302:../Dave/Generated/FREERTOS/tasks.c ****          * responsible for resulting newlib operation.  User must be familiar with
 303:../Dave/Generated/FREERTOS/tasks.c ****          * newlib and must provide system-wide implementations of the necessary
 304:../Dave/Generated/FREERTOS/tasks.c ****          * stubs. Be warned that (at the time of writing) the current newlib design
 305:../Dave/Generated/FREERTOS/tasks.c ****          * implements a system-wide malloc() that must be provided with locks.
 306:../Dave/Generated/FREERTOS/tasks.c ****          *
 307:../Dave/Generated/FREERTOS/tasks.c ****          * See the third party link http://www.nadler.com/embedded/newlibAndFreeRTOS.html
 308:../Dave/Generated/FREERTOS/tasks.c ****          * for additional information. */
 309:../Dave/Generated/FREERTOS/tasks.c ****         struct  _reent xNewLib_reent;
 310:../Dave/Generated/FREERTOS/tasks.c ****     #endif
 311:../Dave/Generated/FREERTOS/tasks.c **** 
 312:../Dave/Generated/FREERTOS/tasks.c ****     #if ( configUSE_TASK_NOTIFICATIONS == 1 )
 313:../Dave/Generated/FREERTOS/tasks.c ****         volatile uint32_t ulNotifiedValue[ configTASK_NOTIFICATION_ARRAY_ENTRIES ];
 314:../Dave/Generated/FREERTOS/tasks.c ****         volatile uint8_t ucNotifyState[ configTASK_NOTIFICATION_ARRAY_ENTRIES ];
 315:../Dave/Generated/FREERTOS/tasks.c ****     #endif
 316:../Dave/Generated/FREERTOS/tasks.c **** 
 317:../Dave/Generated/FREERTOS/tasks.c ****     /* See the comments in FreeRTOS.h with the definition of
 318:../Dave/Generated/FREERTOS/tasks.c ****      * tskSTATIC_AND_DYNAMIC_ALLOCATION_POSSIBLE. */
 319:../Dave/Generated/FREERTOS/tasks.c ****     #if ( tskSTATIC_AND_DYNAMIC_ALLOCATION_POSSIBLE != 0 ) /*lint !e731 !e9029 Macro has been conso
 320:../Dave/Generated/FREERTOS/tasks.c ****         uint8_t ucStaticallyAllocated;                     /*< Set to pdTRUE if the task is a stati
 321:../Dave/Generated/FREERTOS/tasks.c ****     #endif
 322:../Dave/Generated/FREERTOS/tasks.c **** 
 323:../Dave/Generated/FREERTOS/tasks.c ****     #if ( INCLUDE_xTaskAbortDelay == 1 )
 324:../Dave/Generated/FREERTOS/tasks.c ****         uint8_t ucDelayAborted;
 325:../Dave/Generated/FREERTOS/tasks.c ****     #endif
 326:../Dave/Generated/FREERTOS/tasks.c **** 
 327:../Dave/Generated/FREERTOS/tasks.c ****     #if ( configUSE_POSIX_ERRNO == 1 )
 328:../Dave/Generated/FREERTOS/tasks.c ****         int iTaskErrno;
 329:../Dave/Generated/FREERTOS/tasks.c ****     #endif
 330:../Dave/Generated/FREERTOS/tasks.c **** } tskTCB;
 331:../Dave/Generated/FREERTOS/tasks.c **** 
 332:../Dave/Generated/FREERTOS/tasks.c **** /* The old tskTCB name is maintained above then typedefed to the new TCB_t name
 333:../Dave/Generated/FREERTOS/tasks.c ****  * below to enable the use of older kernel aware debuggers. */
 334:../Dave/Generated/FREERTOS/tasks.c **** typedef tskTCB TCB_t;
 335:../Dave/Generated/FREERTOS/tasks.c **** 
 336:../Dave/Generated/FREERTOS/tasks.c **** /*lint -save -e956 A manual analysis and inspection has been used to determine
 337:../Dave/Generated/FREERTOS/tasks.c ****  * which static variables must be declared volatile. */
 338:../Dave/Generated/FREERTOS/tasks.c **** PRIVILEGED_DATA TCB_t * volatile pxCurrentTCB = NULL;
 339:../Dave/Generated/FREERTOS/tasks.c **** 
 340:../Dave/Generated/FREERTOS/tasks.c **** /* Lists for ready and blocked tasks. --------------------
 341:../Dave/Generated/FREERTOS/tasks.c ****  * xDelayedTaskList1 and xDelayedTaskList2 could be move to function scople but
 342:../Dave/Generated/FREERTOS/tasks.c ****  * doing so breaks some kernel aware debuggers and debuggers that rely on removing
 343:../Dave/Generated/FREERTOS/tasks.c ****  * the static qualifier. */
 344:../Dave/Generated/FREERTOS/tasks.c **** PRIVILEGED_DATA static List_t pxReadyTasksLists[ configMAX_PRIORITIES ]; /*< Prioritised ready task
 345:../Dave/Generated/FREERTOS/tasks.c **** PRIVILEGED_DATA static List_t xDelayedTaskList1;                         /*< Delayed tasks. */
 346:../Dave/Generated/FREERTOS/tasks.c **** PRIVILEGED_DATA static List_t xDelayedTaskList2;                         /*< Delayed tasks (two lis
 347:../Dave/Generated/FREERTOS/tasks.c **** PRIVILEGED_DATA static List_t * volatile pxDelayedTaskList;              /*< Points to the delayed 
 348:../Dave/Generated/FREERTOS/tasks.c **** PRIVILEGED_DATA static List_t * volatile pxOverflowDelayedTaskList;      /*< Points to the delayed 
 349:../Dave/Generated/FREERTOS/tasks.c **** PRIVILEGED_DATA static List_t xPendingReadyList;                         /*< Tasks that have been r
 350:../Dave/Generated/FREERTOS/tasks.c **** 
 351:../Dave/Generated/FREERTOS/tasks.c **** #if ( INCLUDE_vTaskDelete == 1 )
 352:../Dave/Generated/FREERTOS/tasks.c **** 
 353:../Dave/Generated/FREERTOS/tasks.c ****     PRIVILEGED_DATA static List_t xTasksWaitingTermination; /*< Tasks that have been deleted - but 
 354:../Dave/Generated/FREERTOS/tasks.c ****     PRIVILEGED_DATA static volatile UBaseType_t uxDeletedTasksWaitingCleanUp = ( UBaseType_t ) 0U;
 355:../Dave/Generated/FREERTOS/tasks.c **** 
 356:../Dave/Generated/FREERTOS/tasks.c **** #endif
 357:../Dave/Generated/FREERTOS/tasks.c **** 
 358:../Dave/Generated/FREERTOS/tasks.c **** #if ( INCLUDE_vTaskSuspend == 1 )
 359:../Dave/Generated/FREERTOS/tasks.c **** 
 360:../Dave/Generated/FREERTOS/tasks.c ****     PRIVILEGED_DATA static List_t xSuspendedTaskList; /*< Tasks that are currently suspended. */
 361:../Dave/Generated/FREERTOS/tasks.c **** 
 362:../Dave/Generated/FREERTOS/tasks.c **** #endif
 363:../Dave/Generated/FREERTOS/tasks.c **** 
 364:../Dave/Generated/FREERTOS/tasks.c **** /* Global POSIX errno. Its value is changed upon context switching to match
 365:../Dave/Generated/FREERTOS/tasks.c ****  * the errno of the currently running task. */
 366:../Dave/Generated/FREERTOS/tasks.c **** #if ( configUSE_POSIX_ERRNO == 1 )
 367:../Dave/Generated/FREERTOS/tasks.c ****     int FreeRTOS_errno = 0;
 368:../Dave/Generated/FREERTOS/tasks.c **** #endif
 369:../Dave/Generated/FREERTOS/tasks.c **** 
 370:../Dave/Generated/FREERTOS/tasks.c **** /* Other file private variables. --------------------------------*/
 371:../Dave/Generated/FREERTOS/tasks.c **** PRIVILEGED_DATA static volatile UBaseType_t uxCurrentNumberOfTasks = ( UBaseType_t ) 0U;
 372:../Dave/Generated/FREERTOS/tasks.c **** PRIVILEGED_DATA static volatile TickType_t xTickCount = ( TickType_t ) configINITIAL_TICK_COUNT;
 373:../Dave/Generated/FREERTOS/tasks.c **** PRIVILEGED_DATA static volatile UBaseType_t uxTopReadyPriority = tskIDLE_PRIORITY;
 374:../Dave/Generated/FREERTOS/tasks.c **** PRIVILEGED_DATA static volatile BaseType_t xSchedulerRunning = pdFALSE;
 375:../Dave/Generated/FREERTOS/tasks.c **** PRIVILEGED_DATA static volatile TickType_t xPendedTicks = ( TickType_t ) 0U;
 376:../Dave/Generated/FREERTOS/tasks.c **** PRIVILEGED_DATA static volatile BaseType_t xYieldPending = pdFALSE;
 377:../Dave/Generated/FREERTOS/tasks.c **** PRIVILEGED_DATA static volatile BaseType_t xNumOfOverflows = ( BaseType_t ) 0;
 378:../Dave/Generated/FREERTOS/tasks.c **** PRIVILEGED_DATA static UBaseType_t uxTaskNumber = ( UBaseType_t ) 0U;
 379:../Dave/Generated/FREERTOS/tasks.c **** PRIVILEGED_DATA static volatile TickType_t xNextTaskUnblockTime = ( TickType_t ) 0U; /* Initialised
 380:../Dave/Generated/FREERTOS/tasks.c **** PRIVILEGED_DATA static TaskHandle_t xIdleTaskHandle = NULL;                          /*< Holds the 
 381:../Dave/Generated/FREERTOS/tasks.c **** 
 382:../Dave/Generated/FREERTOS/tasks.c **** /* Improve support for OpenOCD. The kernel tracks Ready tasks via priority lists.
 383:../Dave/Generated/FREERTOS/tasks.c ****  * For tracking the state of remote threads, OpenOCD uses uxTopUsedPriority
 384:../Dave/Generated/FREERTOS/tasks.c ****  * to determine the number of priority lists to read back from the remote target. */
 385:../Dave/Generated/FREERTOS/tasks.c **** const volatile UBaseType_t uxTopUsedPriority = configMAX_PRIORITIES - 1U;
 386:../Dave/Generated/FREERTOS/tasks.c **** 
 387:../Dave/Generated/FREERTOS/tasks.c **** /* Context switches are held pending while the scheduler is suspended.  Also,
 388:../Dave/Generated/FREERTOS/tasks.c ****  * interrupts must not manipulate the xStateListItem of a TCB, or any of the
 389:../Dave/Generated/FREERTOS/tasks.c ****  * lists the xStateListItem can be referenced from, if the scheduler is suspended.
 390:../Dave/Generated/FREERTOS/tasks.c ****  * If an interrupt needs to unblock a task while the scheduler is suspended then it
 391:../Dave/Generated/FREERTOS/tasks.c ****  * moves the task's event list item into the xPendingReadyList, ready for the
 392:../Dave/Generated/FREERTOS/tasks.c ****  * kernel to move the task from the pending ready list into the real ready list
 393:../Dave/Generated/FREERTOS/tasks.c ****  * when the scheduler is unsuspended.  The pending ready list itself can only be
 394:../Dave/Generated/FREERTOS/tasks.c ****  * accessed from a critical section. */
 395:../Dave/Generated/FREERTOS/tasks.c **** PRIVILEGED_DATA static volatile UBaseType_t uxSchedulerSuspended = ( UBaseType_t ) pdFALSE;
 396:../Dave/Generated/FREERTOS/tasks.c **** 
 397:../Dave/Generated/FREERTOS/tasks.c **** #if ( configGENERATE_RUN_TIME_STATS == 1 )
 398:../Dave/Generated/FREERTOS/tasks.c **** 
 399:../Dave/Generated/FREERTOS/tasks.c **** /* Do not move these variables to function scope as doing so prevents the
 400:../Dave/Generated/FREERTOS/tasks.c ****  * code working with debuggers that need to remove the static qualifier. */
 401:../Dave/Generated/FREERTOS/tasks.c ****     PRIVILEGED_DATA static uint32_t ulTaskSwitchedInTime = 0UL;    /*< Holds the value of a timer/c
 402:../Dave/Generated/FREERTOS/tasks.c ****     PRIVILEGED_DATA static volatile uint32_t ulTotalRunTime = 0UL; /*< Holds the total amount of ex
 403:../Dave/Generated/FREERTOS/tasks.c **** 
 404:../Dave/Generated/FREERTOS/tasks.c **** #endif
 405:../Dave/Generated/FREERTOS/tasks.c **** 
 406:../Dave/Generated/FREERTOS/tasks.c **** /*lint -restore */
 407:../Dave/Generated/FREERTOS/tasks.c **** 
 408:../Dave/Generated/FREERTOS/tasks.c **** /*-----------------------------------------------------------*/
 409:../Dave/Generated/FREERTOS/tasks.c **** 
 410:../Dave/Generated/FREERTOS/tasks.c **** /* File private functions. --------------------------------*/
 411:../Dave/Generated/FREERTOS/tasks.c **** 
 412:../Dave/Generated/FREERTOS/tasks.c **** /**
 413:../Dave/Generated/FREERTOS/tasks.c ****  * Utility task that simply returns pdTRUE if the task referenced by xTask is
 414:../Dave/Generated/FREERTOS/tasks.c ****  * currently in the Suspended state, or pdFALSE if the task referenced by xTask
 415:../Dave/Generated/FREERTOS/tasks.c ****  * is in any other state.
 416:../Dave/Generated/FREERTOS/tasks.c ****  */
 417:../Dave/Generated/FREERTOS/tasks.c **** #if ( INCLUDE_vTaskSuspend == 1 )
 418:../Dave/Generated/FREERTOS/tasks.c **** 
 419:../Dave/Generated/FREERTOS/tasks.c ****     static BaseType_t prvTaskIsTaskSuspended( const TaskHandle_t xTask ) PRIVILEGED_FUNCTION;
 420:../Dave/Generated/FREERTOS/tasks.c **** 
 421:../Dave/Generated/FREERTOS/tasks.c **** #endif /* INCLUDE_vTaskSuspend */
 422:../Dave/Generated/FREERTOS/tasks.c **** 
 423:../Dave/Generated/FREERTOS/tasks.c **** /*
 424:../Dave/Generated/FREERTOS/tasks.c ****  * Utility to ready all the lists used by the scheduler.  This is called
 425:../Dave/Generated/FREERTOS/tasks.c ****  * automatically upon the creation of the first task.
 426:../Dave/Generated/FREERTOS/tasks.c ****  */
 427:../Dave/Generated/FREERTOS/tasks.c **** static void prvInitialiseTaskLists( void ) PRIVILEGED_FUNCTION;
 428:../Dave/Generated/FREERTOS/tasks.c **** 
 429:../Dave/Generated/FREERTOS/tasks.c **** /*
 430:../Dave/Generated/FREERTOS/tasks.c ****  * The idle task, which as all tasks is implemented as a never ending loop.
 431:../Dave/Generated/FREERTOS/tasks.c ****  * The idle task is automatically created and added to the ready lists upon
 432:../Dave/Generated/FREERTOS/tasks.c ****  * creation of the first user task.
 433:../Dave/Generated/FREERTOS/tasks.c ****  *
 434:../Dave/Generated/FREERTOS/tasks.c ****  * The portTASK_FUNCTION_PROTO() macro is used to allow port/compiler specific
 435:../Dave/Generated/FREERTOS/tasks.c ****  * language extensions.  The equivalent prototype for this function is:
 436:../Dave/Generated/FREERTOS/tasks.c ****  *
 437:../Dave/Generated/FREERTOS/tasks.c ****  * void prvIdleTask( void *pvParameters );
 438:../Dave/Generated/FREERTOS/tasks.c ****  *
 439:../Dave/Generated/FREERTOS/tasks.c ****  */
 440:../Dave/Generated/FREERTOS/tasks.c **** static portTASK_FUNCTION_PROTO( prvIdleTask, pvParameters ) PRIVILEGED_FUNCTION;
 441:../Dave/Generated/FREERTOS/tasks.c **** 
 442:../Dave/Generated/FREERTOS/tasks.c **** /*
 443:../Dave/Generated/FREERTOS/tasks.c ****  * Utility to free all memory allocated by the scheduler to hold a TCB,
 444:../Dave/Generated/FREERTOS/tasks.c ****  * including the stack pointed to by the TCB.
 445:../Dave/Generated/FREERTOS/tasks.c ****  *
 446:../Dave/Generated/FREERTOS/tasks.c ****  * This does not free memory allocated by the task itself (i.e. memory
 447:../Dave/Generated/FREERTOS/tasks.c ****  * allocated by calls to pvPortMalloc from within the tasks application code).
 448:../Dave/Generated/FREERTOS/tasks.c ****  */
 449:../Dave/Generated/FREERTOS/tasks.c **** #if ( INCLUDE_vTaskDelete == 1 )
 450:../Dave/Generated/FREERTOS/tasks.c **** 
 451:../Dave/Generated/FREERTOS/tasks.c ****     static void prvDeleteTCB( TCB_t * pxTCB ) PRIVILEGED_FUNCTION;
 452:../Dave/Generated/FREERTOS/tasks.c **** 
 453:../Dave/Generated/FREERTOS/tasks.c **** #endif
 454:../Dave/Generated/FREERTOS/tasks.c **** 
 455:../Dave/Generated/FREERTOS/tasks.c **** /*
 456:../Dave/Generated/FREERTOS/tasks.c ****  * Used only by the idle task.  This checks to see if anything has been placed
 457:../Dave/Generated/FREERTOS/tasks.c ****  * in the list of tasks waiting to be deleted.  If so the task is cleaned up
 458:../Dave/Generated/FREERTOS/tasks.c ****  * and its TCB deleted.
 459:../Dave/Generated/FREERTOS/tasks.c ****  */
 460:../Dave/Generated/FREERTOS/tasks.c **** static void prvCheckTasksWaitingTermination( void ) PRIVILEGED_FUNCTION;
 461:../Dave/Generated/FREERTOS/tasks.c **** 
 462:../Dave/Generated/FREERTOS/tasks.c **** /*
 463:../Dave/Generated/FREERTOS/tasks.c ****  * The currently executing task is entering the Blocked state.  Add the task to
 464:../Dave/Generated/FREERTOS/tasks.c ****  * either the current or the overflow delayed task list.
 465:../Dave/Generated/FREERTOS/tasks.c ****  */
 466:../Dave/Generated/FREERTOS/tasks.c **** static void prvAddCurrentTaskToDelayedList( TickType_t xTicksToWait,
 467:../Dave/Generated/FREERTOS/tasks.c ****                                             const BaseType_t xCanBlockIndefinitely ) PRIVILEGED_FUN
 468:../Dave/Generated/FREERTOS/tasks.c **** 
 469:../Dave/Generated/FREERTOS/tasks.c **** /*
 470:../Dave/Generated/FREERTOS/tasks.c ****  * Fills an TaskStatus_t structure with information on each task that is
 471:../Dave/Generated/FREERTOS/tasks.c ****  * referenced from the pxList list (which may be a ready list, a delayed list,
 472:../Dave/Generated/FREERTOS/tasks.c ****  * a suspended list, etc.).
 473:../Dave/Generated/FREERTOS/tasks.c ****  *
 474:../Dave/Generated/FREERTOS/tasks.c ****  * THIS FUNCTION IS INTENDED FOR DEBUGGING ONLY, AND SHOULD NOT BE CALLED FROM
 475:../Dave/Generated/FREERTOS/tasks.c ****  * NORMAL APPLICATION CODE.
 476:../Dave/Generated/FREERTOS/tasks.c ****  */
 477:../Dave/Generated/FREERTOS/tasks.c **** #if ( configUSE_TRACE_FACILITY == 1 )
 478:../Dave/Generated/FREERTOS/tasks.c **** 
 479:../Dave/Generated/FREERTOS/tasks.c ****     static UBaseType_t prvListTasksWithinSingleList( TaskStatus_t * pxTaskStatusArray,
 480:../Dave/Generated/FREERTOS/tasks.c ****                                                      List_t * pxList,
 481:../Dave/Generated/FREERTOS/tasks.c ****                                                      eTaskState eState ) PRIVILEGED_FUNCTION;
 482:../Dave/Generated/FREERTOS/tasks.c **** 
 483:../Dave/Generated/FREERTOS/tasks.c **** #endif
 484:../Dave/Generated/FREERTOS/tasks.c **** 
 485:../Dave/Generated/FREERTOS/tasks.c **** /*
 486:../Dave/Generated/FREERTOS/tasks.c ****  * Searches pxList for a task with name pcNameToQuery - returning a handle to
 487:../Dave/Generated/FREERTOS/tasks.c ****  * the task if it is found, or NULL if the task is not found.
 488:../Dave/Generated/FREERTOS/tasks.c ****  */
 489:../Dave/Generated/FREERTOS/tasks.c **** #if ( INCLUDE_xTaskGetHandle == 1 )
 490:../Dave/Generated/FREERTOS/tasks.c **** 
 491:../Dave/Generated/FREERTOS/tasks.c ****     static TCB_t * prvSearchForNameWithinSingleList( List_t * pxList,
 492:../Dave/Generated/FREERTOS/tasks.c ****                                                      const char pcNameToQuery[] ) PRIVILEGED_FUNCTI
 493:../Dave/Generated/FREERTOS/tasks.c **** 
 494:../Dave/Generated/FREERTOS/tasks.c **** #endif
 495:../Dave/Generated/FREERTOS/tasks.c **** 
 496:../Dave/Generated/FREERTOS/tasks.c **** /*
 497:../Dave/Generated/FREERTOS/tasks.c ****  * When a task is created, the stack of the task is filled with a known value.
 498:../Dave/Generated/FREERTOS/tasks.c ****  * This function determines the 'high water mark' of the task stack by
 499:../Dave/Generated/FREERTOS/tasks.c ****  * determining how much of the stack remains at the original preset value.
 500:../Dave/Generated/FREERTOS/tasks.c ****  */
 501:../Dave/Generated/FREERTOS/tasks.c **** #if ( ( configUSE_TRACE_FACILITY == 1 ) || ( INCLUDE_uxTaskGetStackHighWaterMark == 1 ) || ( INCLUD
 502:../Dave/Generated/FREERTOS/tasks.c **** 
 503:../Dave/Generated/FREERTOS/tasks.c ****     static configSTACK_DEPTH_TYPE prvTaskCheckFreeStackSpace( const uint8_t * pucStackByte ) PRIVIL
 504:../Dave/Generated/FREERTOS/tasks.c **** 
 505:../Dave/Generated/FREERTOS/tasks.c **** #endif
 506:../Dave/Generated/FREERTOS/tasks.c **** 
 507:../Dave/Generated/FREERTOS/tasks.c **** /*
 508:../Dave/Generated/FREERTOS/tasks.c ****  * Return the amount of time, in ticks, that will pass before the kernel will
 509:../Dave/Generated/FREERTOS/tasks.c ****  * next move a task from the Blocked state to the Running state.
 510:../Dave/Generated/FREERTOS/tasks.c ****  *
 511:../Dave/Generated/FREERTOS/tasks.c ****  * This conditional compilation should use inequality to 0, not equality to 1.
 512:../Dave/Generated/FREERTOS/tasks.c ****  * This is to ensure portSUPPRESS_TICKS_AND_SLEEP() can be called when user
 513:../Dave/Generated/FREERTOS/tasks.c ****  * defined low power mode implementations require configUSE_TICKLESS_IDLE to be
 514:../Dave/Generated/FREERTOS/tasks.c ****  * set to a value other than 1.
 515:../Dave/Generated/FREERTOS/tasks.c ****  */
 516:../Dave/Generated/FREERTOS/tasks.c **** #if ( configUSE_TICKLESS_IDLE != 0 )
 517:../Dave/Generated/FREERTOS/tasks.c **** 
 518:../Dave/Generated/FREERTOS/tasks.c ****     static TickType_t prvGetExpectedIdleTime( void ) PRIVILEGED_FUNCTION;
 519:../Dave/Generated/FREERTOS/tasks.c **** 
 520:../Dave/Generated/FREERTOS/tasks.c **** #endif
 521:../Dave/Generated/FREERTOS/tasks.c **** 
 522:../Dave/Generated/FREERTOS/tasks.c **** /*
 523:../Dave/Generated/FREERTOS/tasks.c ****  * Set xNextTaskUnblockTime to the time at which the next Blocked state task
 524:../Dave/Generated/FREERTOS/tasks.c ****  * will exit the Blocked state.
 525:../Dave/Generated/FREERTOS/tasks.c ****  */
 526:../Dave/Generated/FREERTOS/tasks.c **** static void prvResetNextTaskUnblockTime( void ) PRIVILEGED_FUNCTION;
 527:../Dave/Generated/FREERTOS/tasks.c **** 
 528:../Dave/Generated/FREERTOS/tasks.c **** #if ( ( configUSE_TRACE_FACILITY == 1 ) && ( configUSE_STATS_FORMATTING_FUNCTIONS > 0 ) )
 529:../Dave/Generated/FREERTOS/tasks.c **** 
 530:../Dave/Generated/FREERTOS/tasks.c **** /*
 531:../Dave/Generated/FREERTOS/tasks.c ****  * Helper function used to pad task names with spaces when printing out
 532:../Dave/Generated/FREERTOS/tasks.c ****  * human readable tables of task information.
 533:../Dave/Generated/FREERTOS/tasks.c ****  */
 534:../Dave/Generated/FREERTOS/tasks.c ****     static char * prvWriteNameToBuffer( char * pcBuffer,
 535:../Dave/Generated/FREERTOS/tasks.c ****                                         const char * pcTaskName ) PRIVILEGED_FUNCTION;
 536:../Dave/Generated/FREERTOS/tasks.c **** 
 537:../Dave/Generated/FREERTOS/tasks.c **** #endif
 538:../Dave/Generated/FREERTOS/tasks.c **** 
 539:../Dave/Generated/FREERTOS/tasks.c **** /*
 540:../Dave/Generated/FREERTOS/tasks.c ****  * Called after a Task_t structure has been allocated either statically or
 541:../Dave/Generated/FREERTOS/tasks.c ****  * dynamically to fill in the structure's members.
 542:../Dave/Generated/FREERTOS/tasks.c ****  */
 543:../Dave/Generated/FREERTOS/tasks.c **** static void prvInitialiseNewTask( TaskFunction_t pxTaskCode,
 544:../Dave/Generated/FREERTOS/tasks.c ****                                   const char * const pcName, /*lint !e971 Unqualified char types ar
 545:../Dave/Generated/FREERTOS/tasks.c ****                                   const uint32_t ulStackDepth,
 546:../Dave/Generated/FREERTOS/tasks.c ****                                   void * const pvParameters,
 547:../Dave/Generated/FREERTOS/tasks.c ****                                   UBaseType_t uxPriority,
 548:../Dave/Generated/FREERTOS/tasks.c ****                                   TaskHandle_t * const pxCreatedTask,
 549:../Dave/Generated/FREERTOS/tasks.c ****                                   TCB_t * pxNewTCB,
 550:../Dave/Generated/FREERTOS/tasks.c ****                                   const MemoryRegion_t * const xRegions ) PRIVILEGED_FUNCTION;
 551:../Dave/Generated/FREERTOS/tasks.c **** 
 552:../Dave/Generated/FREERTOS/tasks.c **** /*
 553:../Dave/Generated/FREERTOS/tasks.c ****  * Called after a new task has been created and initialised to place the task
 554:../Dave/Generated/FREERTOS/tasks.c ****  * under the control of the scheduler.
 555:../Dave/Generated/FREERTOS/tasks.c ****  */
 556:../Dave/Generated/FREERTOS/tasks.c **** static void prvAddNewTaskToReadyList( TCB_t * pxNewTCB ) PRIVILEGED_FUNCTION;
 557:../Dave/Generated/FREERTOS/tasks.c **** 
 558:../Dave/Generated/FREERTOS/tasks.c **** /*
 559:../Dave/Generated/FREERTOS/tasks.c ****  * freertos_tasks_c_additions_init() should only be called if the user definable
 560:../Dave/Generated/FREERTOS/tasks.c ****  * macro FREERTOS_TASKS_C_ADDITIONS_INIT() is defined, as that is the only macro
 561:../Dave/Generated/FREERTOS/tasks.c ****  * called by the function.
 562:../Dave/Generated/FREERTOS/tasks.c ****  */
 563:../Dave/Generated/FREERTOS/tasks.c **** #ifdef FREERTOS_TASKS_C_ADDITIONS_INIT
 564:../Dave/Generated/FREERTOS/tasks.c **** 
 565:../Dave/Generated/FREERTOS/tasks.c ****     static void freertos_tasks_c_additions_init( void ) PRIVILEGED_FUNCTION;
 566:../Dave/Generated/FREERTOS/tasks.c **** 
 567:../Dave/Generated/FREERTOS/tasks.c **** #endif
 568:../Dave/Generated/FREERTOS/tasks.c **** 
 569:../Dave/Generated/FREERTOS/tasks.c **** /*-----------------------------------------------------------*/
 570:../Dave/Generated/FREERTOS/tasks.c **** 
 571:../Dave/Generated/FREERTOS/tasks.c **** #if ( configSUPPORT_STATIC_ALLOCATION == 1 )
 572:../Dave/Generated/FREERTOS/tasks.c **** 
 573:../Dave/Generated/FREERTOS/tasks.c ****     TaskHandle_t xTaskCreateStatic( TaskFunction_t pxTaskCode,
 574:../Dave/Generated/FREERTOS/tasks.c ****                                     const char * const pcName, /*lint !e971 Unqualified char types 
 575:../Dave/Generated/FREERTOS/tasks.c ****                                     const uint32_t ulStackDepth,
 576:../Dave/Generated/FREERTOS/tasks.c ****                                     void * const pvParameters,
 577:../Dave/Generated/FREERTOS/tasks.c ****                                     UBaseType_t uxPriority,
 578:../Dave/Generated/FREERTOS/tasks.c ****                                     StackType_t * const puxStackBuffer,
 579:../Dave/Generated/FREERTOS/tasks.c ****                                     StaticTask_t * const pxTaskBuffer )
 580:../Dave/Generated/FREERTOS/tasks.c ****     {
 581:../Dave/Generated/FREERTOS/tasks.c ****         TCB_t * pxNewTCB;
 582:../Dave/Generated/FREERTOS/tasks.c ****         TaskHandle_t xReturn;
 583:../Dave/Generated/FREERTOS/tasks.c **** 
 584:../Dave/Generated/FREERTOS/tasks.c ****         configASSERT( puxStackBuffer != NULL );
 585:../Dave/Generated/FREERTOS/tasks.c ****         configASSERT( pxTaskBuffer != NULL );
 586:../Dave/Generated/FREERTOS/tasks.c **** 
 587:../Dave/Generated/FREERTOS/tasks.c ****         #if ( configASSERT_DEFINED == 1 )
 588:../Dave/Generated/FREERTOS/tasks.c ****             {
 589:../Dave/Generated/FREERTOS/tasks.c ****                 /* Sanity check that the size of the structure used to declare a
 590:../Dave/Generated/FREERTOS/tasks.c ****                  * variable of type StaticTask_t equals the size of the real task
 591:../Dave/Generated/FREERTOS/tasks.c ****                  * structure. */
 592:../Dave/Generated/FREERTOS/tasks.c ****                 volatile size_t xSize = sizeof( StaticTask_t );
 593:../Dave/Generated/FREERTOS/tasks.c ****                 configASSERT( xSize == sizeof( TCB_t ) );
 594:../Dave/Generated/FREERTOS/tasks.c ****                 ( void ) xSize; /* Prevent lint warning when configASSERT() is not used. */
 595:../Dave/Generated/FREERTOS/tasks.c ****             }
 596:../Dave/Generated/FREERTOS/tasks.c ****         #endif /* configASSERT_DEFINED */
 597:../Dave/Generated/FREERTOS/tasks.c **** 
 598:../Dave/Generated/FREERTOS/tasks.c ****         if( ( pxTaskBuffer != NULL ) && ( puxStackBuffer != NULL ) )
 599:../Dave/Generated/FREERTOS/tasks.c ****         {
 600:../Dave/Generated/FREERTOS/tasks.c ****             /* The memory used for the task's TCB and stack are passed into this
 601:../Dave/Generated/FREERTOS/tasks.c ****              * function - use them. */
 602:../Dave/Generated/FREERTOS/tasks.c ****             pxNewTCB = ( TCB_t * ) pxTaskBuffer; /*lint !e740 !e9087 Unusual cast is ok as the stru
 603:../Dave/Generated/FREERTOS/tasks.c ****             pxNewTCB->pxStack = ( StackType_t * ) puxStackBuffer;
 604:../Dave/Generated/FREERTOS/tasks.c **** 
 605:../Dave/Generated/FREERTOS/tasks.c ****             #if ( tskSTATIC_AND_DYNAMIC_ALLOCATION_POSSIBLE != 0 ) /*lint !e731 !e9029 Macro has be
 606:../Dave/Generated/FREERTOS/tasks.c ****                 {
 607:../Dave/Generated/FREERTOS/tasks.c ****                     /* Tasks can be created statically or dynamically, so note this
 608:../Dave/Generated/FREERTOS/tasks.c ****                      * task was created statically in case the task is later deleted. */
 609:../Dave/Generated/FREERTOS/tasks.c ****                     pxNewTCB->ucStaticallyAllocated = tskSTATICALLY_ALLOCATED_STACK_AND_TCB;
 610:../Dave/Generated/FREERTOS/tasks.c ****                 }
 611:../Dave/Generated/FREERTOS/tasks.c ****             #endif /* tskSTATIC_AND_DYNAMIC_ALLOCATION_POSSIBLE */
 612:../Dave/Generated/FREERTOS/tasks.c **** 
 613:../Dave/Generated/FREERTOS/tasks.c ****             prvInitialiseNewTask( pxTaskCode, pcName, ulStackDepth, pvParameters, uxPriority, &xRet
 614:../Dave/Generated/FREERTOS/tasks.c ****             prvAddNewTaskToReadyList( pxNewTCB );
 615:../Dave/Generated/FREERTOS/tasks.c ****         }
 616:../Dave/Generated/FREERTOS/tasks.c ****         else
 617:../Dave/Generated/FREERTOS/tasks.c ****         {
 618:../Dave/Generated/FREERTOS/tasks.c ****             xReturn = NULL;
 619:../Dave/Generated/FREERTOS/tasks.c ****         }
 620:../Dave/Generated/FREERTOS/tasks.c **** 
 621:../Dave/Generated/FREERTOS/tasks.c ****         return xReturn;
 622:../Dave/Generated/FREERTOS/tasks.c ****     }
 623:../Dave/Generated/FREERTOS/tasks.c **** 
 624:../Dave/Generated/FREERTOS/tasks.c **** #endif /* SUPPORT_STATIC_ALLOCATION */
 625:../Dave/Generated/FREERTOS/tasks.c **** /*-----------------------------------------------------------*/
 626:../Dave/Generated/FREERTOS/tasks.c **** 
 627:../Dave/Generated/FREERTOS/tasks.c **** #if ( ( portUSING_MPU_WRAPPERS == 1 ) && ( configSUPPORT_STATIC_ALLOCATION == 1 ) )
 628:../Dave/Generated/FREERTOS/tasks.c **** 
 629:../Dave/Generated/FREERTOS/tasks.c ****     BaseType_t xTaskCreateRestrictedStatic( const TaskParameters_t * const pxTaskDefinition,
 630:../Dave/Generated/FREERTOS/tasks.c ****                                             TaskHandle_t * pxCreatedTask )
 631:../Dave/Generated/FREERTOS/tasks.c ****     {
 632:../Dave/Generated/FREERTOS/tasks.c ****         TCB_t * pxNewTCB;
 633:../Dave/Generated/FREERTOS/tasks.c ****         BaseType_t xReturn = errCOULD_NOT_ALLOCATE_REQUIRED_MEMORY;
 634:../Dave/Generated/FREERTOS/tasks.c **** 
 635:../Dave/Generated/FREERTOS/tasks.c ****         configASSERT( pxTaskDefinition->puxStackBuffer != NULL );
 636:../Dave/Generated/FREERTOS/tasks.c ****         configASSERT( pxTaskDefinition->pxTaskBuffer != NULL );
 637:../Dave/Generated/FREERTOS/tasks.c **** 
 638:../Dave/Generated/FREERTOS/tasks.c ****         if( ( pxTaskDefinition->puxStackBuffer != NULL ) && ( pxTaskDefinition->pxTaskBuffer != NUL
 639:../Dave/Generated/FREERTOS/tasks.c ****         {
 640:../Dave/Generated/FREERTOS/tasks.c ****             /* Allocate space for the TCB.  Where the memory comes from depends
 641:../Dave/Generated/FREERTOS/tasks.c ****              * on the implementation of the port malloc function and whether or
 642:../Dave/Generated/FREERTOS/tasks.c ****              * not static allocation is being used. */
 643:../Dave/Generated/FREERTOS/tasks.c ****             pxNewTCB = ( TCB_t * ) pxTaskDefinition->pxTaskBuffer;
 644:../Dave/Generated/FREERTOS/tasks.c **** 
 645:../Dave/Generated/FREERTOS/tasks.c ****             /* Store the stack location in the TCB. */
 646:../Dave/Generated/FREERTOS/tasks.c ****             pxNewTCB->pxStack = pxTaskDefinition->puxStackBuffer;
 647:../Dave/Generated/FREERTOS/tasks.c **** 
 648:../Dave/Generated/FREERTOS/tasks.c ****             #if ( tskSTATIC_AND_DYNAMIC_ALLOCATION_POSSIBLE != 0 )
 649:../Dave/Generated/FREERTOS/tasks.c ****                 {
 650:../Dave/Generated/FREERTOS/tasks.c ****                     /* Tasks can be created statically or dynamically, so note this
 651:../Dave/Generated/FREERTOS/tasks.c ****                      * task was created statically in case the task is later deleted. */
 652:../Dave/Generated/FREERTOS/tasks.c ****                     pxNewTCB->ucStaticallyAllocated = tskSTATICALLY_ALLOCATED_STACK_AND_TCB;
 653:../Dave/Generated/FREERTOS/tasks.c ****                 }
 654:../Dave/Generated/FREERTOS/tasks.c ****             #endif /* tskSTATIC_AND_DYNAMIC_ALLOCATION_POSSIBLE */
 655:../Dave/Generated/FREERTOS/tasks.c **** 
 656:../Dave/Generated/FREERTOS/tasks.c ****             prvInitialiseNewTask( pxTaskDefinition->pvTaskCode,
 657:../Dave/Generated/FREERTOS/tasks.c ****                                   pxTaskDefinition->pcName,
 658:../Dave/Generated/FREERTOS/tasks.c ****                                   ( uint32_t ) pxTaskDefinition->usStackDepth,
 659:../Dave/Generated/FREERTOS/tasks.c ****                                   pxTaskDefinition->pvParameters,
 660:../Dave/Generated/FREERTOS/tasks.c ****                                   pxTaskDefinition->uxPriority,
 661:../Dave/Generated/FREERTOS/tasks.c ****                                   pxCreatedTask, pxNewTCB,
 662:../Dave/Generated/FREERTOS/tasks.c ****                                   pxTaskDefinition->xRegions );
 663:../Dave/Generated/FREERTOS/tasks.c **** 
 664:../Dave/Generated/FREERTOS/tasks.c ****             prvAddNewTaskToReadyList( pxNewTCB );
 665:../Dave/Generated/FREERTOS/tasks.c ****             xReturn = pdPASS;
 666:../Dave/Generated/FREERTOS/tasks.c ****         }
 667:../Dave/Generated/FREERTOS/tasks.c **** 
 668:../Dave/Generated/FREERTOS/tasks.c ****         return xReturn;
 669:../Dave/Generated/FREERTOS/tasks.c ****     }
 670:../Dave/Generated/FREERTOS/tasks.c **** 
 671:../Dave/Generated/FREERTOS/tasks.c **** #endif /* ( portUSING_MPU_WRAPPERS == 1 ) && ( configSUPPORT_STATIC_ALLOCATION == 1 ) */
 672:../Dave/Generated/FREERTOS/tasks.c **** /*-----------------------------------------------------------*/
 673:../Dave/Generated/FREERTOS/tasks.c **** 
 674:../Dave/Generated/FREERTOS/tasks.c **** #if ( ( portUSING_MPU_WRAPPERS == 1 ) && ( configSUPPORT_DYNAMIC_ALLOCATION == 1 ) )
 675:../Dave/Generated/FREERTOS/tasks.c **** 
 676:../Dave/Generated/FREERTOS/tasks.c ****     BaseType_t xTaskCreateRestricted( const TaskParameters_t * const pxTaskDefinition,
 677:../Dave/Generated/FREERTOS/tasks.c ****                                       TaskHandle_t * pxCreatedTask )
 678:../Dave/Generated/FREERTOS/tasks.c ****     {
 679:../Dave/Generated/FREERTOS/tasks.c ****         TCB_t * pxNewTCB;
 680:../Dave/Generated/FREERTOS/tasks.c ****         BaseType_t xReturn = errCOULD_NOT_ALLOCATE_REQUIRED_MEMORY;
 681:../Dave/Generated/FREERTOS/tasks.c **** 
 682:../Dave/Generated/FREERTOS/tasks.c ****         configASSERT( pxTaskDefinition->puxStackBuffer );
 683:../Dave/Generated/FREERTOS/tasks.c **** 
 684:../Dave/Generated/FREERTOS/tasks.c ****         if( pxTaskDefinition->puxStackBuffer != NULL )
 685:../Dave/Generated/FREERTOS/tasks.c ****         {
 686:../Dave/Generated/FREERTOS/tasks.c ****             /* Allocate space for the TCB.  Where the memory comes from depends
 687:../Dave/Generated/FREERTOS/tasks.c ****              * on the implementation of the port malloc function and whether or
 688:../Dave/Generated/FREERTOS/tasks.c ****              * not static allocation is being used. */
 689:../Dave/Generated/FREERTOS/tasks.c ****             pxNewTCB = ( TCB_t * ) pvPortMalloc( sizeof( TCB_t ) );
 690:../Dave/Generated/FREERTOS/tasks.c **** 
 691:../Dave/Generated/FREERTOS/tasks.c ****             if( pxNewTCB != NULL )
 692:../Dave/Generated/FREERTOS/tasks.c ****             {
 693:../Dave/Generated/FREERTOS/tasks.c ****                 /* Store the stack location in the TCB. */
 694:../Dave/Generated/FREERTOS/tasks.c ****                 pxNewTCB->pxStack = pxTaskDefinition->puxStackBuffer;
 695:../Dave/Generated/FREERTOS/tasks.c **** 
 696:../Dave/Generated/FREERTOS/tasks.c ****                 #if ( tskSTATIC_AND_DYNAMIC_ALLOCATION_POSSIBLE != 0 )
 697:../Dave/Generated/FREERTOS/tasks.c ****                     {
 698:../Dave/Generated/FREERTOS/tasks.c ****                         /* Tasks can be created statically or dynamically, so note
 699:../Dave/Generated/FREERTOS/tasks.c ****                          * this task had a statically allocated stack in case it is
 700:../Dave/Generated/FREERTOS/tasks.c ****                          * later deleted.  The TCB was allocated dynamically. */
 701:../Dave/Generated/FREERTOS/tasks.c ****                         pxNewTCB->ucStaticallyAllocated = tskSTATICALLY_ALLOCATED_STACK_ONLY;
 702:../Dave/Generated/FREERTOS/tasks.c ****                     }
 703:../Dave/Generated/FREERTOS/tasks.c ****                 #endif /* tskSTATIC_AND_DYNAMIC_ALLOCATION_POSSIBLE */
 704:../Dave/Generated/FREERTOS/tasks.c **** 
 705:../Dave/Generated/FREERTOS/tasks.c ****                 prvInitialiseNewTask( pxTaskDefinition->pvTaskCode,
 706:../Dave/Generated/FREERTOS/tasks.c ****                                       pxTaskDefinition->pcName,
 707:../Dave/Generated/FREERTOS/tasks.c ****                                       ( uint32_t ) pxTaskDefinition->usStackDepth,
 708:../Dave/Generated/FREERTOS/tasks.c ****                                       pxTaskDefinition->pvParameters,
 709:../Dave/Generated/FREERTOS/tasks.c ****                                       pxTaskDefinition->uxPriority,
 710:../Dave/Generated/FREERTOS/tasks.c ****                                       pxCreatedTask, pxNewTCB,
 711:../Dave/Generated/FREERTOS/tasks.c ****                                       pxTaskDefinition->xRegions );
 712:../Dave/Generated/FREERTOS/tasks.c **** 
 713:../Dave/Generated/FREERTOS/tasks.c ****                 prvAddNewTaskToReadyList( pxNewTCB );
 714:../Dave/Generated/FREERTOS/tasks.c ****                 xReturn = pdPASS;
 715:../Dave/Generated/FREERTOS/tasks.c ****             }
 716:../Dave/Generated/FREERTOS/tasks.c ****         }
 717:../Dave/Generated/FREERTOS/tasks.c **** 
 718:../Dave/Generated/FREERTOS/tasks.c ****         return xReturn;
 719:../Dave/Generated/FREERTOS/tasks.c ****     }
 720:../Dave/Generated/FREERTOS/tasks.c **** 
 721:../Dave/Generated/FREERTOS/tasks.c **** #endif /* portUSING_MPU_WRAPPERS */
 722:../Dave/Generated/FREERTOS/tasks.c **** /*-----------------------------------------------------------*/
 723:../Dave/Generated/FREERTOS/tasks.c **** 
 724:../Dave/Generated/FREERTOS/tasks.c **** #if ( configSUPPORT_DYNAMIC_ALLOCATION == 1 )
 725:../Dave/Generated/FREERTOS/tasks.c **** 
 726:../Dave/Generated/FREERTOS/tasks.c ****     BaseType_t xTaskCreate( TaskFunction_t pxTaskCode,
 727:../Dave/Generated/FREERTOS/tasks.c ****                             const char * const pcName, /*lint !e971 Unqualified char types are allo
 728:../Dave/Generated/FREERTOS/tasks.c ****                             const configSTACK_DEPTH_TYPE usStackDepth,
 729:../Dave/Generated/FREERTOS/tasks.c ****                             void * const pvParameters,
 730:../Dave/Generated/FREERTOS/tasks.c ****                             UBaseType_t uxPriority,
 731:../Dave/Generated/FREERTOS/tasks.c ****                             TaskHandle_t * const pxCreatedTask )
 732:../Dave/Generated/FREERTOS/tasks.c ****     {
 162              	 .loc 1 732 0
 163              	 .cfi_startproc
 164              	 
 165              	 
 166 0000 80B5     	 push {r7,lr}
 167              	.LCFI0:
 168              	 .cfi_def_cfa_offset 8
 169              	 .cfi_offset 7,-8
 170              	 .cfi_offset 14,-4
 171 0002 8CB0     	 sub sp,sp,#48
 172              	.LCFI1:
 173              	 .cfi_def_cfa_offset 56
 174 0004 04AF     	 add r7,sp,#16
 175              	.LCFI2:
 176              	 .cfi_def_cfa 7,40
 177 0006 F860     	 str r0,[r7,#12]
 178 0008 B960     	 str r1,[r7,#8]
 179 000a 3B60     	 str r3,[r7]
 180 000c 1346     	 mov r3,r2
 181 000e FB80     	 strh r3,[r7,#6]
 182              	.LBB133:
 733:../Dave/Generated/FREERTOS/tasks.c ****         TCB_t * pxNewTCB;
 734:../Dave/Generated/FREERTOS/tasks.c ****         BaseType_t xReturn;
 735:../Dave/Generated/FREERTOS/tasks.c **** 
 736:../Dave/Generated/FREERTOS/tasks.c ****         /* If the stack grows down then allocate the stack then the TCB so the stack
 737:../Dave/Generated/FREERTOS/tasks.c ****          * does not grow into the TCB.  Likewise if the stack grows up then allocate
 738:../Dave/Generated/FREERTOS/tasks.c ****          * the TCB then the stack. */
 739:../Dave/Generated/FREERTOS/tasks.c ****         #if ( portSTACK_GROWTH > 0 )
 740:../Dave/Generated/FREERTOS/tasks.c ****             {
 741:../Dave/Generated/FREERTOS/tasks.c ****                 /* Allocate space for the TCB.  Where the memory comes from depends on
 742:../Dave/Generated/FREERTOS/tasks.c ****                  * the implementation of the port malloc function and whether or not static
 743:../Dave/Generated/FREERTOS/tasks.c ****                  * allocation is being used. */
 744:../Dave/Generated/FREERTOS/tasks.c ****                 pxNewTCB = ( TCB_t * ) pvPortMalloc( sizeof( TCB_t ) );
 745:../Dave/Generated/FREERTOS/tasks.c **** 
 746:../Dave/Generated/FREERTOS/tasks.c ****                 if( pxNewTCB != NULL )
 747:../Dave/Generated/FREERTOS/tasks.c ****                 {
 748:../Dave/Generated/FREERTOS/tasks.c ****                     /* Allocate space for the stack used by the task being created.
 749:../Dave/Generated/FREERTOS/tasks.c ****                      * The base of the stack memory stored in the TCB so the task can
 750:../Dave/Generated/FREERTOS/tasks.c ****                      * be deleted later if required. */
 751:../Dave/Generated/FREERTOS/tasks.c ****                     pxNewTCB->pxStack = ( StackType_t * ) pvPortMalloc( ( ( ( size_t ) usStackDepth
 752:../Dave/Generated/FREERTOS/tasks.c **** 
 753:../Dave/Generated/FREERTOS/tasks.c ****                     if( pxNewTCB->pxStack == NULL )
 754:../Dave/Generated/FREERTOS/tasks.c ****                     {
 755:../Dave/Generated/FREERTOS/tasks.c ****                         /* Could not allocate the stack.  Delete the allocated TCB. */
 756:../Dave/Generated/FREERTOS/tasks.c ****                         vPortFree( pxNewTCB );
 757:../Dave/Generated/FREERTOS/tasks.c ****                         pxNewTCB = NULL;
 758:../Dave/Generated/FREERTOS/tasks.c ****                     }
 759:../Dave/Generated/FREERTOS/tasks.c ****                 }
 760:../Dave/Generated/FREERTOS/tasks.c ****             }
 761:../Dave/Generated/FREERTOS/tasks.c ****         #else /* portSTACK_GROWTH */
 762:../Dave/Generated/FREERTOS/tasks.c ****             {
 763:../Dave/Generated/FREERTOS/tasks.c ****                 StackType_t * pxStack;
 764:../Dave/Generated/FREERTOS/tasks.c **** 
 765:../Dave/Generated/FREERTOS/tasks.c ****                 /* Allocate space for the stack used by the task being created. */
 766:../Dave/Generated/FREERTOS/tasks.c ****                 pxStack = pvPortMalloc( ( ( ( size_t ) usStackDepth ) * sizeof( StackType_t ) ) ); 
 183              	 .loc 1 766 0
 184 0010 FB88     	 ldrh r3,[r7,#6]
 185 0012 9B00     	 lsls r3,r3,#2
 186 0014 1846     	 mov r0,r3
 187 0016 FFF7FEFF 	 bl pvPortMalloc
 188 001a 7861     	 str r0,[r7,#20]
 767:../Dave/Generated/FREERTOS/tasks.c **** 
 768:../Dave/Generated/FREERTOS/tasks.c ****                 if( pxStack != NULL )
 189              	 .loc 1 768 0
 190 001c 7B69     	 ldr r3,[r7,#20]
 191 001e 002B     	 cmp r3,#0
 192 0020 0ED0     	 beq .L2
 769:../Dave/Generated/FREERTOS/tasks.c ****                 {
 770:../Dave/Generated/FREERTOS/tasks.c ****                     /* Allocate space for the TCB. */
 771:../Dave/Generated/FREERTOS/tasks.c ****                     pxNewTCB = ( TCB_t * ) pvPortMalloc( sizeof( TCB_t ) ); /*lint !e9087 !e9079 Al
 193              	 .loc 1 771 0
 194 0022 7020     	 movs r0,#112
 195 0024 FFF7FEFF 	 bl pvPortMalloc
 196 0028 F861     	 str r0,[r7,#28]
 772:../Dave/Generated/FREERTOS/tasks.c **** 
 773:../Dave/Generated/FREERTOS/tasks.c ****                     if( pxNewTCB != NULL )
 197              	 .loc 1 773 0
 198 002a FB69     	 ldr r3,[r7,#28]
 199 002c 002B     	 cmp r3,#0
 200 002e 03D0     	 beq .L3
 774:../Dave/Generated/FREERTOS/tasks.c ****                     {
 775:../Dave/Generated/FREERTOS/tasks.c ****                         /* Store the stack location in the TCB. */
 776:../Dave/Generated/FREERTOS/tasks.c ****                         pxNewTCB->pxStack = pxStack;
 201              	 .loc 1 776 0
 202 0030 FB69     	 ldr r3,[r7,#28]
 203 0032 7A69     	 ldr r2,[r7,#20]
 204 0034 1A63     	 str r2,[r3,#48]
 205 0036 05E0     	 b .L5
 206              	.L3:
 777:../Dave/Generated/FREERTOS/tasks.c ****                     }
 778:../Dave/Generated/FREERTOS/tasks.c ****                     else
 779:../Dave/Generated/FREERTOS/tasks.c ****                     {
 780:../Dave/Generated/FREERTOS/tasks.c ****                         /* The stack cannot be used as the TCB was not created.  Free
 781:../Dave/Generated/FREERTOS/tasks.c ****                          * it again. */
 782:../Dave/Generated/FREERTOS/tasks.c ****                         vPortFree( pxStack );
 207              	 .loc 1 782 0
 208 0038 7869     	 ldr r0,[r7,#20]
 209 003a FFF7FEFF 	 bl vPortFree
 210 003e 01E0     	 b .L5
 211              	.L2:
 783:../Dave/Generated/FREERTOS/tasks.c ****                     }
 784:../Dave/Generated/FREERTOS/tasks.c ****                 }
 785:../Dave/Generated/FREERTOS/tasks.c ****                 else
 786:../Dave/Generated/FREERTOS/tasks.c ****                 {
 787:../Dave/Generated/FREERTOS/tasks.c ****                     pxNewTCB = NULL;
 212              	 .loc 1 787 0
 213 0040 0023     	 movs r3,#0
 214 0042 FB61     	 str r3,[r7,#28]
 215              	.L5:
 216              	.LBE133:
 788:../Dave/Generated/FREERTOS/tasks.c ****                 }
 789:../Dave/Generated/FREERTOS/tasks.c ****             }
 790:../Dave/Generated/FREERTOS/tasks.c ****         #endif /* portSTACK_GROWTH */
 791:../Dave/Generated/FREERTOS/tasks.c **** 
 792:../Dave/Generated/FREERTOS/tasks.c ****         if( pxNewTCB != NULL )
 217              	 .loc 1 792 0
 218 0044 FB69     	 ldr r3,[r7,#28]
 219 0046 002B     	 cmp r3,#0
 220 0048 13D0     	 beq .L6
 793:../Dave/Generated/FREERTOS/tasks.c ****         {
 794:../Dave/Generated/FREERTOS/tasks.c ****             #if ( tskSTATIC_AND_DYNAMIC_ALLOCATION_POSSIBLE != 0 ) /*lint !e9029 !e731 Macro has be
 795:../Dave/Generated/FREERTOS/tasks.c ****                 {
 796:../Dave/Generated/FREERTOS/tasks.c ****                     /* Tasks can be created statically or dynamically, so note this
 797:../Dave/Generated/FREERTOS/tasks.c ****                      * task was created dynamically in case it is later deleted. */
 798:../Dave/Generated/FREERTOS/tasks.c ****                     pxNewTCB->ucStaticallyAllocated = tskDYNAMICALLY_ALLOCATED_STACK_AND_TCB;
 799:../Dave/Generated/FREERTOS/tasks.c ****                 }
 800:../Dave/Generated/FREERTOS/tasks.c ****             #endif /* tskSTATIC_AND_DYNAMIC_ALLOCATION_POSSIBLE */
 801:../Dave/Generated/FREERTOS/tasks.c **** 
 802:../Dave/Generated/FREERTOS/tasks.c ****             prvInitialiseNewTask( pxTaskCode, pcName, ( uint32_t ) usStackDepth, pvParameters, uxPr
 221              	 .loc 1 802 0
 222 004a FA88     	 ldrh r2,[r7,#6]
 223 004c BB6A     	 ldr r3,[r7,#40]
 224 004e 0093     	 str r3,[sp]
 225 0050 FB6A     	 ldr r3,[r7,#44]
 226 0052 0193     	 str r3,[sp,#4]
 227 0054 FB69     	 ldr r3,[r7,#28]
 228 0056 0293     	 str r3,[sp,#8]
 229 0058 0023     	 movs r3,#0
 230 005a 0393     	 str r3,[sp,#12]
 231 005c F868     	 ldr r0,[r7,#12]
 232 005e B968     	 ldr r1,[r7,#8]
 233 0060 3B68     	 ldr r3,[r7]
 234 0062 FFF7FEFF 	 bl prvInitialiseNewTask
 803:../Dave/Generated/FREERTOS/tasks.c ****             prvAddNewTaskToReadyList( pxNewTCB );
 235              	 .loc 1 803 0
 236 0066 F869     	 ldr r0,[r7,#28]
 237 0068 FFF7FEFF 	 bl prvAddNewTaskToReadyList
 804:../Dave/Generated/FREERTOS/tasks.c ****             xReturn = pdPASS;
 238              	 .loc 1 804 0
 239 006c 0123     	 movs r3,#1
 240 006e BB61     	 str r3,[r7,#24]
 241 0070 02E0     	 b .L7
 242              	.L6:
 805:../Dave/Generated/FREERTOS/tasks.c ****         }
 806:../Dave/Generated/FREERTOS/tasks.c ****         else
 807:../Dave/Generated/FREERTOS/tasks.c ****         {
 808:../Dave/Generated/FREERTOS/tasks.c ****             xReturn = errCOULD_NOT_ALLOCATE_REQUIRED_MEMORY;
 243              	 .loc 1 808 0
 244 0072 4FF0FF33 	 mov r3,#-1
 245 0076 BB61     	 str r3,[r7,#24]
 246              	.L7:
 809:../Dave/Generated/FREERTOS/tasks.c ****         }
 810:../Dave/Generated/FREERTOS/tasks.c **** 
 811:../Dave/Generated/FREERTOS/tasks.c ****         return xReturn;
 247              	 .loc 1 811 0
 248 0078 BB69     	 ldr r3,[r7,#24]
 812:../Dave/Generated/FREERTOS/tasks.c ****     }
 249              	 .loc 1 812 0
 250 007a 1846     	 mov r0,r3
 251 007c 2037     	 adds r7,r7,#32
 252              	.LCFI3:
 253              	 .cfi_def_cfa_offset 8
 254 007e BD46     	 mov sp,r7
 255              	.LCFI4:
 256              	 .cfi_def_cfa_register 13
 257              	 
 258 0080 80BD     	 pop {r7,pc}
 259              	 .cfi_endproc
 260              	.LFE138:
 262 0082 00BF     	 .section .text.prvInitialiseNewTask,"ax",%progbits
 263              	 .align 2
 264              	 .thumb
 265              	 .thumb_func
 267              	prvInitialiseNewTask:
 268              	.LFB139:
 813:../Dave/Generated/FREERTOS/tasks.c **** 
 814:../Dave/Generated/FREERTOS/tasks.c **** #endif /* configSUPPORT_DYNAMIC_ALLOCATION */
 815:../Dave/Generated/FREERTOS/tasks.c **** /*-----------------------------------------------------------*/
 816:../Dave/Generated/FREERTOS/tasks.c **** 
 817:../Dave/Generated/FREERTOS/tasks.c **** static void prvInitialiseNewTask( TaskFunction_t pxTaskCode,
 818:../Dave/Generated/FREERTOS/tasks.c ****                                   const char * const pcName, /*lint !e971 Unqualified char types ar
 819:../Dave/Generated/FREERTOS/tasks.c ****                                   const uint32_t ulStackDepth,
 820:../Dave/Generated/FREERTOS/tasks.c ****                                   void * const pvParameters,
 821:../Dave/Generated/FREERTOS/tasks.c ****                                   UBaseType_t uxPriority,
 822:../Dave/Generated/FREERTOS/tasks.c ****                                   TaskHandle_t * const pxCreatedTask,
 823:../Dave/Generated/FREERTOS/tasks.c ****                                   TCB_t * pxNewTCB,
 824:../Dave/Generated/FREERTOS/tasks.c ****                                   const MemoryRegion_t * const xRegions )
 825:../Dave/Generated/FREERTOS/tasks.c **** {
 269              	 .loc 1 825 0
 270              	 .cfi_startproc
 271              	 
 272              	 
 273 0000 80B5     	 push {r7,lr}
 274              	.LCFI5:
 275              	 .cfi_def_cfa_offset 8
 276              	 .cfi_offset 7,-8
 277              	 .cfi_offset 14,-4
 278 0002 88B0     	 sub sp,sp,#32
 279              	.LCFI6:
 280              	 .cfi_def_cfa_offset 40
 281 0004 00AF     	 add r7,sp,#0
 282              	.LCFI7:
 283              	 .cfi_def_cfa_register 7
 284 0006 F860     	 str r0,[r7,#12]
 285 0008 B960     	 str r1,[r7,#8]
 286 000a 7A60     	 str r2,[r7,#4]
 287 000c 3B60     	 str r3,[r7]
 826:../Dave/Generated/FREERTOS/tasks.c ****     StackType_t * pxTopOfStack;
 827:../Dave/Generated/FREERTOS/tasks.c ****     UBaseType_t x;
 828:../Dave/Generated/FREERTOS/tasks.c **** 
 829:../Dave/Generated/FREERTOS/tasks.c ****     #if ( portUSING_MPU_WRAPPERS == 1 )
 830:../Dave/Generated/FREERTOS/tasks.c ****         /* Should the task be created in privileged mode? */
 831:../Dave/Generated/FREERTOS/tasks.c ****         BaseType_t xRunPrivileged;
 832:../Dave/Generated/FREERTOS/tasks.c **** 
 833:../Dave/Generated/FREERTOS/tasks.c ****         if( ( uxPriority & portPRIVILEGE_BIT ) != 0U )
 834:../Dave/Generated/FREERTOS/tasks.c ****         {
 835:../Dave/Generated/FREERTOS/tasks.c ****             xRunPrivileged = pdTRUE;
 836:../Dave/Generated/FREERTOS/tasks.c ****         }
 837:../Dave/Generated/FREERTOS/tasks.c ****         else
 838:../Dave/Generated/FREERTOS/tasks.c ****         {
 839:../Dave/Generated/FREERTOS/tasks.c ****             xRunPrivileged = pdFALSE;
 840:../Dave/Generated/FREERTOS/tasks.c ****         }
 841:../Dave/Generated/FREERTOS/tasks.c ****         uxPriority &= ~portPRIVILEGE_BIT;
 842:../Dave/Generated/FREERTOS/tasks.c ****     #endif /* portUSING_MPU_WRAPPERS == 1 */
 843:../Dave/Generated/FREERTOS/tasks.c **** 
 844:../Dave/Generated/FREERTOS/tasks.c ****     /* Avoid dependency on memset() if it is not required. */
 845:../Dave/Generated/FREERTOS/tasks.c ****     #if ( tskSET_NEW_STACKS_TO_KNOWN_VALUE == 1 )
 846:../Dave/Generated/FREERTOS/tasks.c ****         {
 847:../Dave/Generated/FREERTOS/tasks.c ****             /* Fill the stack with a known value to assist debugging. */
 848:../Dave/Generated/FREERTOS/tasks.c ****             ( void ) memset( pxNewTCB->pxStack, ( int ) tskSTACK_FILL_BYTE, ( size_t ) ulStackDepth
 288              	 .loc 1 848 0
 289 000e 3B6B     	 ldr r3,[r7,#48]
 290 0010 1A6B     	 ldr r2,[r3,#48]
 291 0012 7B68     	 ldr r3,[r7,#4]
 292 0014 9B00     	 lsls r3,r3,#2
 293 0016 1046     	 mov r0,r2
 294 0018 A521     	 movs r1,#165
 295 001a 1A46     	 mov r2,r3
 296 001c FFF7FEFF 	 bl memset
 849:../Dave/Generated/FREERTOS/tasks.c ****         }
 850:../Dave/Generated/FREERTOS/tasks.c ****     #endif /* tskSET_NEW_STACKS_TO_KNOWN_VALUE */
 851:../Dave/Generated/FREERTOS/tasks.c **** 
 852:../Dave/Generated/FREERTOS/tasks.c ****     /* Calculate the top of stack address.  This depends on whether the stack
 853:../Dave/Generated/FREERTOS/tasks.c ****      * grows from high memory to low (as per the 80x86) or vice versa.
 854:../Dave/Generated/FREERTOS/tasks.c ****      * portSTACK_GROWTH is used to make the result positive or negative as required
 855:../Dave/Generated/FREERTOS/tasks.c ****      * by the port. */
 856:../Dave/Generated/FREERTOS/tasks.c ****     #if ( portSTACK_GROWTH < 0 )
 857:../Dave/Generated/FREERTOS/tasks.c ****         {
 858:../Dave/Generated/FREERTOS/tasks.c ****             pxTopOfStack = &( pxNewTCB->pxStack[ ulStackDepth - ( uint32_t ) 1 ] );
 297              	 .loc 1 858 0
 298 0020 3B6B     	 ldr r3,[r7,#48]
 299 0022 1A6B     	 ldr r2,[r3,#48]
 300 0024 7B68     	 ldr r3,[r7,#4]
 301 0026 03F18043 	 add r3,r3,#1073741824
 302 002a 013B     	 subs r3,r3,#1
 303 002c 9B00     	 lsls r3,r3,#2
 304 002e 1344     	 add r3,r3,r2
 305 0030 BB61     	 str r3,[r7,#24]
 859:../Dave/Generated/FREERTOS/tasks.c ****             pxTopOfStack = ( StackType_t * ) ( ( ( portPOINTER_SIZE_TYPE ) pxTopOfStack ) & ( ~( ( 
 306              	 .loc 1 859 0
 307 0032 BB69     	 ldr r3,[r7,#24]
 308 0034 23F00703 	 bic r3,r3,#7
 309 0038 BB61     	 str r3,[r7,#24]
 860:../Dave/Generated/FREERTOS/tasks.c **** 
 861:../Dave/Generated/FREERTOS/tasks.c ****             /* Check the alignment of the calculated top of stack is correct. */
 862:../Dave/Generated/FREERTOS/tasks.c ****             configASSERT( ( ( ( portPOINTER_SIZE_TYPE ) pxTopOfStack & ( portPOINTER_SIZE_TYPE ) po
 310              	 .loc 1 862 0
 311 003a BB69     	 ldr r3,[r7,#24]
 312 003c 03F00703 	 and r3,r3,#7
 313 0040 002B     	 cmp r3,#0
 314 0042 09D0     	 beq .L10
 315              	.LBB134:
 316              	.LBB135:
 317              	 .file 2 "C:/Users/Yoshi/Documents/GitHub/Software/01_jrg/06_XMC/ADC_RTOS/Dave/Generated/FREERTOS/portable/GCC/portmacro.h"
   1:C:/Users/Yoshi/Documents/GitHub/Software/01_jrg/06_XMC/ADC_RTOS/Dave/Generated/FREERTOS/portable/GCC\portmacro.h **** /*
   2:C:/Users/Yoshi/Documents/GitHub/Software/01_jrg/06_XMC/ADC_RTOS/Dave/Generated/FREERTOS/portable/GCC\portmacro.h ****  * FreeRTOS Kernel V10.4.3
   3:C:/Users/Yoshi/Documents/GitHub/Software/01_jrg/06_XMC/ADC_RTOS/Dave/Generated/FREERTOS/portable/GCC\portmacro.h ****  * Copyright (C) 2020 Amazon.com, Inc. or its affiliates.  All Rights Reserved.
   4:C:/Users/Yoshi/Documents/GitHub/Software/01_jrg/06_XMC/ADC_RTOS/Dave/Generated/FREERTOS/portable/GCC\portmacro.h ****  *
   5:C:/Users/Yoshi/Documents/GitHub/Software/01_jrg/06_XMC/ADC_RTOS/Dave/Generated/FREERTOS/portable/GCC\portmacro.h ****  * Permission is hereby granted, free of charge, to any person obtaining a copy of
   6:C:/Users/Yoshi/Documents/GitHub/Software/01_jrg/06_XMC/ADC_RTOS/Dave/Generated/FREERTOS/portable/GCC\portmacro.h ****  * this software and associated documentation files (the "Software"), to deal in
   7:C:/Users/Yoshi/Documents/GitHub/Software/01_jrg/06_XMC/ADC_RTOS/Dave/Generated/FREERTOS/portable/GCC\portmacro.h ****  * the Software without restriction, including without limitation the rights to
   8:C:/Users/Yoshi/Documents/GitHub/Software/01_jrg/06_XMC/ADC_RTOS/Dave/Generated/FREERTOS/portable/GCC\portmacro.h ****  * use, copy, modify, merge, publish, distribute, sublicense, and/or sell copies of
   9:C:/Users/Yoshi/Documents/GitHub/Software/01_jrg/06_XMC/ADC_RTOS/Dave/Generated/FREERTOS/portable/GCC\portmacro.h ****  * the Software, and to permit persons to whom the Software is furnished to do so,
  10:C:/Users/Yoshi/Documents/GitHub/Software/01_jrg/06_XMC/ADC_RTOS/Dave/Generated/FREERTOS/portable/GCC\portmacro.h ****  * subject to the following conditions:
  11:C:/Users/Yoshi/Documents/GitHub/Software/01_jrg/06_XMC/ADC_RTOS/Dave/Generated/FREERTOS/portable/GCC\portmacro.h ****  *
  12:C:/Users/Yoshi/Documents/GitHub/Software/01_jrg/06_XMC/ADC_RTOS/Dave/Generated/FREERTOS/portable/GCC\portmacro.h ****  * The above copyright notice and this permission notice shall be included in all
  13:C:/Users/Yoshi/Documents/GitHub/Software/01_jrg/06_XMC/ADC_RTOS/Dave/Generated/FREERTOS/portable/GCC\portmacro.h ****  * copies or substantial portions of the Software.
  14:C:/Users/Yoshi/Documents/GitHub/Software/01_jrg/06_XMC/ADC_RTOS/Dave/Generated/FREERTOS/portable/GCC\portmacro.h ****  *
  15:C:/Users/Yoshi/Documents/GitHub/Software/01_jrg/06_XMC/ADC_RTOS/Dave/Generated/FREERTOS/portable/GCC\portmacro.h ****  * THE SOFTWARE IS PROVIDED "AS IS", WITHOUT WARRANTY OF ANY KIND, EXPRESS OR
  16:C:/Users/Yoshi/Documents/GitHub/Software/01_jrg/06_XMC/ADC_RTOS/Dave/Generated/FREERTOS/portable/GCC\portmacro.h ****  * IMPLIED, INCLUDING BUT NOT LIMITED TO THE WARRANTIES OF MERCHANTABILITY, FITNESS
  17:C:/Users/Yoshi/Documents/GitHub/Software/01_jrg/06_XMC/ADC_RTOS/Dave/Generated/FREERTOS/portable/GCC\portmacro.h ****  * FOR A PARTICULAR PURPOSE AND NONINFRINGEMENT. IN NO EVENT SHALL THE AUTHORS OR
  18:C:/Users/Yoshi/Documents/GitHub/Software/01_jrg/06_XMC/ADC_RTOS/Dave/Generated/FREERTOS/portable/GCC\portmacro.h ****  * COPYRIGHT HOLDERS BE LIABLE FOR ANY CLAIM, DAMAGES OR OTHER LIABILITY, WHETHER
  19:C:/Users/Yoshi/Documents/GitHub/Software/01_jrg/06_XMC/ADC_RTOS/Dave/Generated/FREERTOS/portable/GCC\portmacro.h ****  * IN AN ACTION OF CONTRACT, TORT OR OTHERWISE, ARISING FROM, OUT OF OR IN
  20:C:/Users/Yoshi/Documents/GitHub/Software/01_jrg/06_XMC/ADC_RTOS/Dave/Generated/FREERTOS/portable/GCC\portmacro.h ****  * CONNECTION WITH THE SOFTWARE OR THE USE OR OTHER DEALINGS IN THE SOFTWARE.
  21:C:/Users/Yoshi/Documents/GitHub/Software/01_jrg/06_XMC/ADC_RTOS/Dave/Generated/FREERTOS/portable/GCC\portmacro.h ****  *
  22:C:/Users/Yoshi/Documents/GitHub/Software/01_jrg/06_XMC/ADC_RTOS/Dave/Generated/FREERTOS/portable/GCC\portmacro.h ****  * https://www.FreeRTOS.org
  23:C:/Users/Yoshi/Documents/GitHub/Software/01_jrg/06_XMC/ADC_RTOS/Dave/Generated/FREERTOS/portable/GCC\portmacro.h ****  * https://github.com/FreeRTOS
  24:C:/Users/Yoshi/Documents/GitHub/Software/01_jrg/06_XMC/ADC_RTOS/Dave/Generated/FREERTOS/portable/GCC\portmacro.h ****  *
  25:C:/Users/Yoshi/Documents/GitHub/Software/01_jrg/06_XMC/ADC_RTOS/Dave/Generated/FREERTOS/portable/GCC\portmacro.h ****  * 1 tab == 4 spaces!
  26:C:/Users/Yoshi/Documents/GitHub/Software/01_jrg/06_XMC/ADC_RTOS/Dave/Generated/FREERTOS/portable/GCC\portmacro.h ****  */
  27:C:/Users/Yoshi/Documents/GitHub/Software/01_jrg/06_XMC/ADC_RTOS/Dave/Generated/FREERTOS/portable/GCC\portmacro.h **** 
  28:C:/Users/Yoshi/Documents/GitHub/Software/01_jrg/06_XMC/ADC_RTOS/Dave/Generated/FREERTOS/portable/GCC\portmacro.h **** 
  29:C:/Users/Yoshi/Documents/GitHub/Software/01_jrg/06_XMC/ADC_RTOS/Dave/Generated/FREERTOS/portable/GCC\portmacro.h **** #ifndef PORTMACRO_H
  30:C:/Users/Yoshi/Documents/GitHub/Software/01_jrg/06_XMC/ADC_RTOS/Dave/Generated/FREERTOS/portable/GCC\portmacro.h ****     #define PORTMACRO_H
  31:C:/Users/Yoshi/Documents/GitHub/Software/01_jrg/06_XMC/ADC_RTOS/Dave/Generated/FREERTOS/portable/GCC\portmacro.h **** 
  32:C:/Users/Yoshi/Documents/GitHub/Software/01_jrg/06_XMC/ADC_RTOS/Dave/Generated/FREERTOS/portable/GCC\portmacro.h ****     #ifdef __cplusplus
  33:C:/Users/Yoshi/Documents/GitHub/Software/01_jrg/06_XMC/ADC_RTOS/Dave/Generated/FREERTOS/portable/GCC\portmacro.h ****         extern "C" {
  34:C:/Users/Yoshi/Documents/GitHub/Software/01_jrg/06_XMC/ADC_RTOS/Dave/Generated/FREERTOS/portable/GCC\portmacro.h ****     #endif
  35:C:/Users/Yoshi/Documents/GitHub/Software/01_jrg/06_XMC/ADC_RTOS/Dave/Generated/FREERTOS/portable/GCC\portmacro.h **** 
  36:C:/Users/Yoshi/Documents/GitHub/Software/01_jrg/06_XMC/ADC_RTOS/Dave/Generated/FREERTOS/portable/GCC\portmacro.h **** /*-----------------------------------------------------------
  37:C:/Users/Yoshi/Documents/GitHub/Software/01_jrg/06_XMC/ADC_RTOS/Dave/Generated/FREERTOS/portable/GCC\portmacro.h ****  * Port specific definitions.
  38:C:/Users/Yoshi/Documents/GitHub/Software/01_jrg/06_XMC/ADC_RTOS/Dave/Generated/FREERTOS/portable/GCC\portmacro.h ****  *
  39:C:/Users/Yoshi/Documents/GitHub/Software/01_jrg/06_XMC/ADC_RTOS/Dave/Generated/FREERTOS/portable/GCC\portmacro.h ****  * The settings in this file configure FreeRTOS correctly for the
  40:C:/Users/Yoshi/Documents/GitHub/Software/01_jrg/06_XMC/ADC_RTOS/Dave/Generated/FREERTOS/portable/GCC\portmacro.h ****  * given hardware and compiler.
  41:C:/Users/Yoshi/Documents/GitHub/Software/01_jrg/06_XMC/ADC_RTOS/Dave/Generated/FREERTOS/portable/GCC\portmacro.h ****  *
  42:C:/Users/Yoshi/Documents/GitHub/Software/01_jrg/06_XMC/ADC_RTOS/Dave/Generated/FREERTOS/portable/GCC\portmacro.h ****  * These settings should not be altered.
  43:C:/Users/Yoshi/Documents/GitHub/Software/01_jrg/06_XMC/ADC_RTOS/Dave/Generated/FREERTOS/portable/GCC\portmacro.h ****  *-----------------------------------------------------------
  44:C:/Users/Yoshi/Documents/GitHub/Software/01_jrg/06_XMC/ADC_RTOS/Dave/Generated/FREERTOS/portable/GCC\portmacro.h ****  */
  45:C:/Users/Yoshi/Documents/GitHub/Software/01_jrg/06_XMC/ADC_RTOS/Dave/Generated/FREERTOS/portable/GCC\portmacro.h **** 
  46:C:/Users/Yoshi/Documents/GitHub/Software/01_jrg/06_XMC/ADC_RTOS/Dave/Generated/FREERTOS/portable/GCC\portmacro.h **** /* Type definitions. */
  47:C:/Users/Yoshi/Documents/GitHub/Software/01_jrg/06_XMC/ADC_RTOS/Dave/Generated/FREERTOS/portable/GCC\portmacro.h ****     #define portCHAR          char
  48:C:/Users/Yoshi/Documents/GitHub/Software/01_jrg/06_XMC/ADC_RTOS/Dave/Generated/FREERTOS/portable/GCC\portmacro.h ****     #define portFLOAT         float
  49:C:/Users/Yoshi/Documents/GitHub/Software/01_jrg/06_XMC/ADC_RTOS/Dave/Generated/FREERTOS/portable/GCC\portmacro.h ****     #define portDOUBLE        double
  50:C:/Users/Yoshi/Documents/GitHub/Software/01_jrg/06_XMC/ADC_RTOS/Dave/Generated/FREERTOS/portable/GCC\portmacro.h ****     #define portLONG          long
  51:C:/Users/Yoshi/Documents/GitHub/Software/01_jrg/06_XMC/ADC_RTOS/Dave/Generated/FREERTOS/portable/GCC\portmacro.h ****     #define portSHORT         short
  52:C:/Users/Yoshi/Documents/GitHub/Software/01_jrg/06_XMC/ADC_RTOS/Dave/Generated/FREERTOS/portable/GCC\portmacro.h ****     #define portSTACK_TYPE    uint32_t
  53:C:/Users/Yoshi/Documents/GitHub/Software/01_jrg/06_XMC/ADC_RTOS/Dave/Generated/FREERTOS/portable/GCC\portmacro.h ****     #define portBASE_TYPE     long
  54:C:/Users/Yoshi/Documents/GitHub/Software/01_jrg/06_XMC/ADC_RTOS/Dave/Generated/FREERTOS/portable/GCC\portmacro.h **** 
  55:C:/Users/Yoshi/Documents/GitHub/Software/01_jrg/06_XMC/ADC_RTOS/Dave/Generated/FREERTOS/portable/GCC\portmacro.h ****     typedef portSTACK_TYPE   StackType_t;
  56:C:/Users/Yoshi/Documents/GitHub/Software/01_jrg/06_XMC/ADC_RTOS/Dave/Generated/FREERTOS/portable/GCC\portmacro.h ****     typedef long             BaseType_t;
  57:C:/Users/Yoshi/Documents/GitHub/Software/01_jrg/06_XMC/ADC_RTOS/Dave/Generated/FREERTOS/portable/GCC\portmacro.h ****     typedef unsigned long    UBaseType_t;
  58:C:/Users/Yoshi/Documents/GitHub/Software/01_jrg/06_XMC/ADC_RTOS/Dave/Generated/FREERTOS/portable/GCC\portmacro.h **** 
  59:C:/Users/Yoshi/Documents/GitHub/Software/01_jrg/06_XMC/ADC_RTOS/Dave/Generated/FREERTOS/portable/GCC\portmacro.h ****     #if ( configUSE_16_BIT_TICKS == 1 )
  60:C:/Users/Yoshi/Documents/GitHub/Software/01_jrg/06_XMC/ADC_RTOS/Dave/Generated/FREERTOS/portable/GCC\portmacro.h ****         typedef uint16_t     TickType_t;
  61:C:/Users/Yoshi/Documents/GitHub/Software/01_jrg/06_XMC/ADC_RTOS/Dave/Generated/FREERTOS/portable/GCC\portmacro.h ****         #define portMAX_DELAY              ( TickType_t ) 0xffff
  62:C:/Users/Yoshi/Documents/GitHub/Software/01_jrg/06_XMC/ADC_RTOS/Dave/Generated/FREERTOS/portable/GCC\portmacro.h ****     #else
  63:C:/Users/Yoshi/Documents/GitHub/Software/01_jrg/06_XMC/ADC_RTOS/Dave/Generated/FREERTOS/portable/GCC\portmacro.h ****         typedef uint32_t     TickType_t;
  64:C:/Users/Yoshi/Documents/GitHub/Software/01_jrg/06_XMC/ADC_RTOS/Dave/Generated/FREERTOS/portable/GCC\portmacro.h ****         #define portMAX_DELAY              ( TickType_t ) 0xffffffffUL
  65:C:/Users/Yoshi/Documents/GitHub/Software/01_jrg/06_XMC/ADC_RTOS/Dave/Generated/FREERTOS/portable/GCC\portmacro.h **** 
  66:C:/Users/Yoshi/Documents/GitHub/Software/01_jrg/06_XMC/ADC_RTOS/Dave/Generated/FREERTOS/portable/GCC\portmacro.h **** /* 32-bit tick type on a 32-bit architecture, so reads of the tick count do
  67:C:/Users/Yoshi/Documents/GitHub/Software/01_jrg/06_XMC/ADC_RTOS/Dave/Generated/FREERTOS/portable/GCC\portmacro.h ****  * not need to be guarded with a critical section. */
  68:C:/Users/Yoshi/Documents/GitHub/Software/01_jrg/06_XMC/ADC_RTOS/Dave/Generated/FREERTOS/portable/GCC\portmacro.h ****         #define portTICK_TYPE_IS_ATOMIC    1
  69:C:/Users/Yoshi/Documents/GitHub/Software/01_jrg/06_XMC/ADC_RTOS/Dave/Generated/FREERTOS/portable/GCC\portmacro.h ****     #endif
  70:C:/Users/Yoshi/Documents/GitHub/Software/01_jrg/06_XMC/ADC_RTOS/Dave/Generated/FREERTOS/portable/GCC\portmacro.h **** /*-----------------------------------------------------------*/
  71:C:/Users/Yoshi/Documents/GitHub/Software/01_jrg/06_XMC/ADC_RTOS/Dave/Generated/FREERTOS/portable/GCC\portmacro.h **** 
  72:C:/Users/Yoshi/Documents/GitHub/Software/01_jrg/06_XMC/ADC_RTOS/Dave/Generated/FREERTOS/portable/GCC\portmacro.h **** /* Architecture specifics. */
  73:C:/Users/Yoshi/Documents/GitHub/Software/01_jrg/06_XMC/ADC_RTOS/Dave/Generated/FREERTOS/portable/GCC\portmacro.h ****     #define portSTACK_GROWTH      ( -1 )
  74:C:/Users/Yoshi/Documents/GitHub/Software/01_jrg/06_XMC/ADC_RTOS/Dave/Generated/FREERTOS/portable/GCC\portmacro.h ****     #define portTICK_PERIOD_MS    ( ( TickType_t ) 1000 / configTICK_RATE_HZ )
  75:C:/Users/Yoshi/Documents/GitHub/Software/01_jrg/06_XMC/ADC_RTOS/Dave/Generated/FREERTOS/portable/GCC\portmacro.h ****     #define portBYTE_ALIGNMENT    8
  76:C:/Users/Yoshi/Documents/GitHub/Software/01_jrg/06_XMC/ADC_RTOS/Dave/Generated/FREERTOS/portable/GCC\portmacro.h ****     #define portDONT_DISCARD      __attribute__( ( used ) )
  77:C:/Users/Yoshi/Documents/GitHub/Software/01_jrg/06_XMC/ADC_RTOS/Dave/Generated/FREERTOS/portable/GCC\portmacro.h **** /*-----------------------------------------------------------*/
  78:C:/Users/Yoshi/Documents/GitHub/Software/01_jrg/06_XMC/ADC_RTOS/Dave/Generated/FREERTOS/portable/GCC\portmacro.h **** 
  79:C:/Users/Yoshi/Documents/GitHub/Software/01_jrg/06_XMC/ADC_RTOS/Dave/Generated/FREERTOS/portable/GCC\portmacro.h **** /* Scheduler utilities. */
  80:C:/Users/Yoshi/Documents/GitHub/Software/01_jrg/06_XMC/ADC_RTOS/Dave/Generated/FREERTOS/portable/GCC\portmacro.h ****     #define portYIELD()                                 \
  81:C:/Users/Yoshi/Documents/GitHub/Software/01_jrg/06_XMC/ADC_RTOS/Dave/Generated/FREERTOS/portable/GCC\portmacro.h ****     {                                                   \
  82:C:/Users/Yoshi/Documents/GitHub/Software/01_jrg/06_XMC/ADC_RTOS/Dave/Generated/FREERTOS/portable/GCC\portmacro.h ****         /* Set a PendSV to request a context switch. */ \
  83:C:/Users/Yoshi/Documents/GitHub/Software/01_jrg/06_XMC/ADC_RTOS/Dave/Generated/FREERTOS/portable/GCC\portmacro.h ****         portNVIC_INT_CTRL_REG = portNVIC_PENDSVSET_BIT; \
  84:C:/Users/Yoshi/Documents/GitHub/Software/01_jrg/06_XMC/ADC_RTOS/Dave/Generated/FREERTOS/portable/GCC\portmacro.h ****                                                         \
  85:C:/Users/Yoshi/Documents/GitHub/Software/01_jrg/06_XMC/ADC_RTOS/Dave/Generated/FREERTOS/portable/GCC\portmacro.h ****         /* Barriers are normally not required but do ensure the code is completely \
  86:C:/Users/Yoshi/Documents/GitHub/Software/01_jrg/06_XMC/ADC_RTOS/Dave/Generated/FREERTOS/portable/GCC\portmacro.h ****          * within the specified behaviour for the architecture. */ \
  87:C:/Users/Yoshi/Documents/GitHub/Software/01_jrg/06_XMC/ADC_RTOS/Dave/Generated/FREERTOS/portable/GCC\portmacro.h ****         __asm volatile ( "dsb" ::: "memory" );                     \
  88:C:/Users/Yoshi/Documents/GitHub/Software/01_jrg/06_XMC/ADC_RTOS/Dave/Generated/FREERTOS/portable/GCC\portmacro.h ****         __asm volatile ( "isb" );                                  \
  89:C:/Users/Yoshi/Documents/GitHub/Software/01_jrg/06_XMC/ADC_RTOS/Dave/Generated/FREERTOS/portable/GCC\portmacro.h ****     }
  90:C:/Users/Yoshi/Documents/GitHub/Software/01_jrg/06_XMC/ADC_RTOS/Dave/Generated/FREERTOS/portable/GCC\portmacro.h **** 
  91:C:/Users/Yoshi/Documents/GitHub/Software/01_jrg/06_XMC/ADC_RTOS/Dave/Generated/FREERTOS/portable/GCC\portmacro.h ****     #define portNVIC_INT_CTRL_REG     ( *( ( volatile uint32_t * ) 0xe000ed04 ) )
  92:C:/Users/Yoshi/Documents/GitHub/Software/01_jrg/06_XMC/ADC_RTOS/Dave/Generated/FREERTOS/portable/GCC\portmacro.h ****     #define portNVIC_PENDSVSET_BIT    ( 1UL << 28UL )
  93:C:/Users/Yoshi/Documents/GitHub/Software/01_jrg/06_XMC/ADC_RTOS/Dave/Generated/FREERTOS/portable/GCC\portmacro.h ****     #define portEND_SWITCHING_ISR( xSwitchRequired )    if( xSwitchRequired != pdFALSE ) portYIELD(
  94:C:/Users/Yoshi/Documents/GitHub/Software/01_jrg/06_XMC/ADC_RTOS/Dave/Generated/FREERTOS/portable/GCC\portmacro.h ****     #define portYIELD_FROM_ISR( x )                     portEND_SWITCHING_ISR( x )
  95:C:/Users/Yoshi/Documents/GitHub/Software/01_jrg/06_XMC/ADC_RTOS/Dave/Generated/FREERTOS/portable/GCC\portmacro.h **** /*-----------------------------------------------------------*/
  96:C:/Users/Yoshi/Documents/GitHub/Software/01_jrg/06_XMC/ADC_RTOS/Dave/Generated/FREERTOS/portable/GCC\portmacro.h **** 
  97:C:/Users/Yoshi/Documents/GitHub/Software/01_jrg/06_XMC/ADC_RTOS/Dave/Generated/FREERTOS/portable/GCC\portmacro.h **** /* Critical section management. */
  98:C:/Users/Yoshi/Documents/GitHub/Software/01_jrg/06_XMC/ADC_RTOS/Dave/Generated/FREERTOS/portable/GCC\portmacro.h ****     extern void vPortEnterCritical( void );
  99:C:/Users/Yoshi/Documents/GitHub/Software/01_jrg/06_XMC/ADC_RTOS/Dave/Generated/FREERTOS/portable/GCC\portmacro.h ****     extern void vPortExitCritical( void );
 100:C:/Users/Yoshi/Documents/GitHub/Software/01_jrg/06_XMC/ADC_RTOS/Dave/Generated/FREERTOS/portable/GCC\portmacro.h ****     #define portSET_INTERRUPT_MASK_FROM_ISR()         ulPortRaiseBASEPRI()
 101:C:/Users/Yoshi/Documents/GitHub/Software/01_jrg/06_XMC/ADC_RTOS/Dave/Generated/FREERTOS/portable/GCC\portmacro.h ****     #define portCLEAR_INTERRUPT_MASK_FROM_ISR( x )    vPortSetBASEPRI( x )
 102:C:/Users/Yoshi/Documents/GitHub/Software/01_jrg/06_XMC/ADC_RTOS/Dave/Generated/FREERTOS/portable/GCC\portmacro.h ****     #define portDISABLE_INTERRUPTS()                  vPortRaiseBASEPRI()
 103:C:/Users/Yoshi/Documents/GitHub/Software/01_jrg/06_XMC/ADC_RTOS/Dave/Generated/FREERTOS/portable/GCC\portmacro.h ****     #define portENABLE_INTERRUPTS()                   vPortSetBASEPRI( 0 )
 104:C:/Users/Yoshi/Documents/GitHub/Software/01_jrg/06_XMC/ADC_RTOS/Dave/Generated/FREERTOS/portable/GCC\portmacro.h ****     #define portENTER_CRITICAL()                      vPortEnterCritical()
 105:C:/Users/Yoshi/Documents/GitHub/Software/01_jrg/06_XMC/ADC_RTOS/Dave/Generated/FREERTOS/portable/GCC\portmacro.h ****     #define portEXIT_CRITICAL()                       vPortExitCritical()
 106:C:/Users/Yoshi/Documents/GitHub/Software/01_jrg/06_XMC/ADC_RTOS/Dave/Generated/FREERTOS/portable/GCC\portmacro.h **** 
 107:C:/Users/Yoshi/Documents/GitHub/Software/01_jrg/06_XMC/ADC_RTOS/Dave/Generated/FREERTOS/portable/GCC\portmacro.h **** /*-----------------------------------------------------------*/
 108:C:/Users/Yoshi/Documents/GitHub/Software/01_jrg/06_XMC/ADC_RTOS/Dave/Generated/FREERTOS/portable/GCC\portmacro.h **** 
 109:C:/Users/Yoshi/Documents/GitHub/Software/01_jrg/06_XMC/ADC_RTOS/Dave/Generated/FREERTOS/portable/GCC\portmacro.h **** /* Task function macros as described on the FreeRTOS.org WEB site.  These are
 110:C:/Users/Yoshi/Documents/GitHub/Software/01_jrg/06_XMC/ADC_RTOS/Dave/Generated/FREERTOS/portable/GCC\portmacro.h ****  * not necessary for to use this port.  They are defined so the common demo files
 111:C:/Users/Yoshi/Documents/GitHub/Software/01_jrg/06_XMC/ADC_RTOS/Dave/Generated/FREERTOS/portable/GCC\portmacro.h ****  * (which build with all the ports) will build. */
 112:C:/Users/Yoshi/Documents/GitHub/Software/01_jrg/06_XMC/ADC_RTOS/Dave/Generated/FREERTOS/portable/GCC\portmacro.h ****     #define portTASK_FUNCTION_PROTO( vFunction, pvParameters )    void vFunction( void * pvParamete
 113:C:/Users/Yoshi/Documents/GitHub/Software/01_jrg/06_XMC/ADC_RTOS/Dave/Generated/FREERTOS/portable/GCC\portmacro.h ****     #define portTASK_FUNCTION( vFunction, pvParameters )          void vFunction( void * pvParamete
 114:C:/Users/Yoshi/Documents/GitHub/Software/01_jrg/06_XMC/ADC_RTOS/Dave/Generated/FREERTOS/portable/GCC\portmacro.h **** /*-----------------------------------------------------------*/
 115:C:/Users/Yoshi/Documents/GitHub/Software/01_jrg/06_XMC/ADC_RTOS/Dave/Generated/FREERTOS/portable/GCC\portmacro.h **** 
 116:C:/Users/Yoshi/Documents/GitHub/Software/01_jrg/06_XMC/ADC_RTOS/Dave/Generated/FREERTOS/portable/GCC\portmacro.h **** /* Tickless idle/low power functionality. */
 117:C:/Users/Yoshi/Documents/GitHub/Software/01_jrg/06_XMC/ADC_RTOS/Dave/Generated/FREERTOS/portable/GCC\portmacro.h ****     #ifndef portSUPPRESS_TICKS_AND_SLEEP
 118:C:/Users/Yoshi/Documents/GitHub/Software/01_jrg/06_XMC/ADC_RTOS/Dave/Generated/FREERTOS/portable/GCC\portmacro.h ****         extern void vPortSuppressTicksAndSleep( TickType_t xExpectedIdleTime );
 119:C:/Users/Yoshi/Documents/GitHub/Software/01_jrg/06_XMC/ADC_RTOS/Dave/Generated/FREERTOS/portable/GCC\portmacro.h ****         #define portSUPPRESS_TICKS_AND_SLEEP( xExpectedIdleTime )    vPortSuppressTicksAndSleep( xE
 120:C:/Users/Yoshi/Documents/GitHub/Software/01_jrg/06_XMC/ADC_RTOS/Dave/Generated/FREERTOS/portable/GCC\portmacro.h ****     #endif
 121:C:/Users/Yoshi/Documents/GitHub/Software/01_jrg/06_XMC/ADC_RTOS/Dave/Generated/FREERTOS/portable/GCC\portmacro.h **** /*-----------------------------------------------------------*/
 122:C:/Users/Yoshi/Documents/GitHub/Software/01_jrg/06_XMC/ADC_RTOS/Dave/Generated/FREERTOS/portable/GCC\portmacro.h **** 
 123:C:/Users/Yoshi/Documents/GitHub/Software/01_jrg/06_XMC/ADC_RTOS/Dave/Generated/FREERTOS/portable/GCC\portmacro.h **** /* Architecture specific optimisations. */
 124:C:/Users/Yoshi/Documents/GitHub/Software/01_jrg/06_XMC/ADC_RTOS/Dave/Generated/FREERTOS/portable/GCC\portmacro.h ****     #ifndef configUSE_PORT_OPTIMISED_TASK_SELECTION
 125:C:/Users/Yoshi/Documents/GitHub/Software/01_jrg/06_XMC/ADC_RTOS/Dave/Generated/FREERTOS/portable/GCC\portmacro.h ****         #define configUSE_PORT_OPTIMISED_TASK_SELECTION    1
 126:C:/Users/Yoshi/Documents/GitHub/Software/01_jrg/06_XMC/ADC_RTOS/Dave/Generated/FREERTOS/portable/GCC\portmacro.h ****     #endif
 127:C:/Users/Yoshi/Documents/GitHub/Software/01_jrg/06_XMC/ADC_RTOS/Dave/Generated/FREERTOS/portable/GCC\portmacro.h **** 
 128:C:/Users/Yoshi/Documents/GitHub/Software/01_jrg/06_XMC/ADC_RTOS/Dave/Generated/FREERTOS/portable/GCC\portmacro.h ****     #if configUSE_PORT_OPTIMISED_TASK_SELECTION == 1
 129:C:/Users/Yoshi/Documents/GitHub/Software/01_jrg/06_XMC/ADC_RTOS/Dave/Generated/FREERTOS/portable/GCC\portmacro.h **** 
 130:C:/Users/Yoshi/Documents/GitHub/Software/01_jrg/06_XMC/ADC_RTOS/Dave/Generated/FREERTOS/portable/GCC\portmacro.h **** /* Generic helper function. */
 131:C:/Users/Yoshi/Documents/GitHub/Software/01_jrg/06_XMC/ADC_RTOS/Dave/Generated/FREERTOS/portable/GCC\portmacro.h ****         __attribute__( ( always_inline ) ) static inline uint8_t ucPortCountLeadingZeros( uint32_t 
 132:C:/Users/Yoshi/Documents/GitHub/Software/01_jrg/06_XMC/ADC_RTOS/Dave/Generated/FREERTOS/portable/GCC\portmacro.h ****         {
 133:C:/Users/Yoshi/Documents/GitHub/Software/01_jrg/06_XMC/ADC_RTOS/Dave/Generated/FREERTOS/portable/GCC\portmacro.h ****             uint8_t ucReturn;
 134:C:/Users/Yoshi/Documents/GitHub/Software/01_jrg/06_XMC/ADC_RTOS/Dave/Generated/FREERTOS/portable/GCC\portmacro.h **** 
 135:C:/Users/Yoshi/Documents/GitHub/Software/01_jrg/06_XMC/ADC_RTOS/Dave/Generated/FREERTOS/portable/GCC\portmacro.h ****             __asm volatile ( "clz %0, %1" : "=r" ( ucReturn ) : "r" ( ulBitmap ) : "memory" );
 136:C:/Users/Yoshi/Documents/GitHub/Software/01_jrg/06_XMC/ADC_RTOS/Dave/Generated/FREERTOS/portable/GCC\portmacro.h **** 
 137:C:/Users/Yoshi/Documents/GitHub/Software/01_jrg/06_XMC/ADC_RTOS/Dave/Generated/FREERTOS/portable/GCC\portmacro.h ****             return ucReturn;
 138:C:/Users/Yoshi/Documents/GitHub/Software/01_jrg/06_XMC/ADC_RTOS/Dave/Generated/FREERTOS/portable/GCC\portmacro.h ****         }
 139:C:/Users/Yoshi/Documents/GitHub/Software/01_jrg/06_XMC/ADC_RTOS/Dave/Generated/FREERTOS/portable/GCC\portmacro.h **** 
 140:C:/Users/Yoshi/Documents/GitHub/Software/01_jrg/06_XMC/ADC_RTOS/Dave/Generated/FREERTOS/portable/GCC\portmacro.h **** /* Check the configuration. */
 141:C:/Users/Yoshi/Documents/GitHub/Software/01_jrg/06_XMC/ADC_RTOS/Dave/Generated/FREERTOS/portable/GCC\portmacro.h ****         #if ( configMAX_PRIORITIES > 32 )
 142:C:/Users/Yoshi/Documents/GitHub/Software/01_jrg/06_XMC/ADC_RTOS/Dave/Generated/FREERTOS/portable/GCC\portmacro.h ****             #error configUSE_PORT_OPTIMISED_TASK_SELECTION can only be set to 1 when configMAX_PRIO
 143:C:/Users/Yoshi/Documents/GitHub/Software/01_jrg/06_XMC/ADC_RTOS/Dave/Generated/FREERTOS/portable/GCC\portmacro.h ****         #endif
 144:C:/Users/Yoshi/Documents/GitHub/Software/01_jrg/06_XMC/ADC_RTOS/Dave/Generated/FREERTOS/portable/GCC\portmacro.h **** 
 145:C:/Users/Yoshi/Documents/GitHub/Software/01_jrg/06_XMC/ADC_RTOS/Dave/Generated/FREERTOS/portable/GCC\portmacro.h **** /* Store/clear the ready priorities in a bit map. */
 146:C:/Users/Yoshi/Documents/GitHub/Software/01_jrg/06_XMC/ADC_RTOS/Dave/Generated/FREERTOS/portable/GCC\portmacro.h ****         #define portRECORD_READY_PRIORITY( uxPriority, uxReadyPriorities )    ( uxReadyPriorities )
 147:C:/Users/Yoshi/Documents/GitHub/Software/01_jrg/06_XMC/ADC_RTOS/Dave/Generated/FREERTOS/portable/GCC\portmacro.h ****         #define portRESET_READY_PRIORITY( uxPriority, uxReadyPriorities )     ( uxReadyPriorities )
 148:C:/Users/Yoshi/Documents/GitHub/Software/01_jrg/06_XMC/ADC_RTOS/Dave/Generated/FREERTOS/portable/GCC\portmacro.h **** 
 149:C:/Users/Yoshi/Documents/GitHub/Software/01_jrg/06_XMC/ADC_RTOS/Dave/Generated/FREERTOS/portable/GCC\portmacro.h **** /*-----------------------------------------------------------*/
 150:C:/Users/Yoshi/Documents/GitHub/Software/01_jrg/06_XMC/ADC_RTOS/Dave/Generated/FREERTOS/portable/GCC\portmacro.h **** 
 151:C:/Users/Yoshi/Documents/GitHub/Software/01_jrg/06_XMC/ADC_RTOS/Dave/Generated/FREERTOS/portable/GCC\portmacro.h ****         #define portGET_HIGHEST_PRIORITY( uxTopPriority, uxReadyPriorities )    uxTopPriority = ( 3
 152:C:/Users/Yoshi/Documents/GitHub/Software/01_jrg/06_XMC/ADC_RTOS/Dave/Generated/FREERTOS/portable/GCC\portmacro.h **** 
 153:C:/Users/Yoshi/Documents/GitHub/Software/01_jrg/06_XMC/ADC_RTOS/Dave/Generated/FREERTOS/portable/GCC\portmacro.h ****     #endif /* configUSE_PORT_OPTIMISED_TASK_SELECTION */
 154:C:/Users/Yoshi/Documents/GitHub/Software/01_jrg/06_XMC/ADC_RTOS/Dave/Generated/FREERTOS/portable/GCC\portmacro.h **** 
 155:C:/Users/Yoshi/Documents/GitHub/Software/01_jrg/06_XMC/ADC_RTOS/Dave/Generated/FREERTOS/portable/GCC\portmacro.h **** /*-----------------------------------------------------------*/
 156:C:/Users/Yoshi/Documents/GitHub/Software/01_jrg/06_XMC/ADC_RTOS/Dave/Generated/FREERTOS/portable/GCC\portmacro.h **** 
 157:C:/Users/Yoshi/Documents/GitHub/Software/01_jrg/06_XMC/ADC_RTOS/Dave/Generated/FREERTOS/portable/GCC\portmacro.h ****     #ifdef configASSERT
 158:C:/Users/Yoshi/Documents/GitHub/Software/01_jrg/06_XMC/ADC_RTOS/Dave/Generated/FREERTOS/portable/GCC\portmacro.h ****         void vPortValidateInterruptPriority( void );
 159:C:/Users/Yoshi/Documents/GitHub/Software/01_jrg/06_XMC/ADC_RTOS/Dave/Generated/FREERTOS/portable/GCC\portmacro.h ****         #define portASSERT_IF_INTERRUPT_PRIORITY_INVALID()    vPortValidateInterruptPriority()
 160:C:/Users/Yoshi/Documents/GitHub/Software/01_jrg/06_XMC/ADC_RTOS/Dave/Generated/FREERTOS/portable/GCC\portmacro.h ****     #endif
 161:C:/Users/Yoshi/Documents/GitHub/Software/01_jrg/06_XMC/ADC_RTOS/Dave/Generated/FREERTOS/portable/GCC\portmacro.h **** 
 162:C:/Users/Yoshi/Documents/GitHub/Software/01_jrg/06_XMC/ADC_RTOS/Dave/Generated/FREERTOS/portable/GCC\portmacro.h **** /* portNOP() is not required by this port. */
 163:C:/Users/Yoshi/Documents/GitHub/Software/01_jrg/06_XMC/ADC_RTOS/Dave/Generated/FREERTOS/portable/GCC\portmacro.h ****     #define portNOP()
 164:C:/Users/Yoshi/Documents/GitHub/Software/01_jrg/06_XMC/ADC_RTOS/Dave/Generated/FREERTOS/portable/GCC\portmacro.h **** 
 165:C:/Users/Yoshi/Documents/GitHub/Software/01_jrg/06_XMC/ADC_RTOS/Dave/Generated/FREERTOS/portable/GCC\portmacro.h ****     #define portINLINE              __inline
 166:C:/Users/Yoshi/Documents/GitHub/Software/01_jrg/06_XMC/ADC_RTOS/Dave/Generated/FREERTOS/portable/GCC\portmacro.h **** 
 167:C:/Users/Yoshi/Documents/GitHub/Software/01_jrg/06_XMC/ADC_RTOS/Dave/Generated/FREERTOS/portable/GCC\portmacro.h ****     #ifndef portFORCE_INLINE
 168:C:/Users/Yoshi/Documents/GitHub/Software/01_jrg/06_XMC/ADC_RTOS/Dave/Generated/FREERTOS/portable/GCC\portmacro.h ****         #define portFORCE_INLINE    inline __attribute__( ( always_inline ) )
 169:C:/Users/Yoshi/Documents/GitHub/Software/01_jrg/06_XMC/ADC_RTOS/Dave/Generated/FREERTOS/portable/GCC\portmacro.h ****     #endif
 170:C:/Users/Yoshi/Documents/GitHub/Software/01_jrg/06_XMC/ADC_RTOS/Dave/Generated/FREERTOS/portable/GCC\portmacro.h **** 
 171:C:/Users/Yoshi/Documents/GitHub/Software/01_jrg/06_XMC/ADC_RTOS/Dave/Generated/FREERTOS/portable/GCC\portmacro.h ****     portFORCE_INLINE static BaseType_t xPortIsInsideInterrupt( void )
 172:C:/Users/Yoshi/Documents/GitHub/Software/01_jrg/06_XMC/ADC_RTOS/Dave/Generated/FREERTOS/portable/GCC\portmacro.h ****     {
 173:C:/Users/Yoshi/Documents/GitHub/Software/01_jrg/06_XMC/ADC_RTOS/Dave/Generated/FREERTOS/portable/GCC\portmacro.h ****         uint32_t ulCurrentInterrupt;
 174:C:/Users/Yoshi/Documents/GitHub/Software/01_jrg/06_XMC/ADC_RTOS/Dave/Generated/FREERTOS/portable/GCC\portmacro.h ****         BaseType_t xReturn;
 175:C:/Users/Yoshi/Documents/GitHub/Software/01_jrg/06_XMC/ADC_RTOS/Dave/Generated/FREERTOS/portable/GCC\portmacro.h **** 
 176:C:/Users/Yoshi/Documents/GitHub/Software/01_jrg/06_XMC/ADC_RTOS/Dave/Generated/FREERTOS/portable/GCC\portmacro.h ****         /* Obtain the number of the currently executing interrupt. */
 177:C:/Users/Yoshi/Documents/GitHub/Software/01_jrg/06_XMC/ADC_RTOS/Dave/Generated/FREERTOS/portable/GCC\portmacro.h ****         __asm volatile ( "mrs %0, ipsr" : "=r" ( ulCurrentInterrupt )::"memory" );
 178:C:/Users/Yoshi/Documents/GitHub/Software/01_jrg/06_XMC/ADC_RTOS/Dave/Generated/FREERTOS/portable/GCC\portmacro.h **** 
 179:C:/Users/Yoshi/Documents/GitHub/Software/01_jrg/06_XMC/ADC_RTOS/Dave/Generated/FREERTOS/portable/GCC\portmacro.h ****         if( ulCurrentInterrupt == 0 )
 180:C:/Users/Yoshi/Documents/GitHub/Software/01_jrg/06_XMC/ADC_RTOS/Dave/Generated/FREERTOS/portable/GCC\portmacro.h ****         {
 181:C:/Users/Yoshi/Documents/GitHub/Software/01_jrg/06_XMC/ADC_RTOS/Dave/Generated/FREERTOS/portable/GCC\portmacro.h ****             xReturn = pdFALSE;
 182:C:/Users/Yoshi/Documents/GitHub/Software/01_jrg/06_XMC/ADC_RTOS/Dave/Generated/FREERTOS/portable/GCC\portmacro.h ****         }
 183:C:/Users/Yoshi/Documents/GitHub/Software/01_jrg/06_XMC/ADC_RTOS/Dave/Generated/FREERTOS/portable/GCC\portmacro.h ****         else
 184:C:/Users/Yoshi/Documents/GitHub/Software/01_jrg/06_XMC/ADC_RTOS/Dave/Generated/FREERTOS/portable/GCC\portmacro.h ****         {
 185:C:/Users/Yoshi/Documents/GitHub/Software/01_jrg/06_XMC/ADC_RTOS/Dave/Generated/FREERTOS/portable/GCC\portmacro.h ****             xReturn = pdTRUE;
 186:C:/Users/Yoshi/Documents/GitHub/Software/01_jrg/06_XMC/ADC_RTOS/Dave/Generated/FREERTOS/portable/GCC\portmacro.h ****         }
 187:C:/Users/Yoshi/Documents/GitHub/Software/01_jrg/06_XMC/ADC_RTOS/Dave/Generated/FREERTOS/portable/GCC\portmacro.h **** 
 188:C:/Users/Yoshi/Documents/GitHub/Software/01_jrg/06_XMC/ADC_RTOS/Dave/Generated/FREERTOS/portable/GCC\portmacro.h ****         return xReturn;
 189:C:/Users/Yoshi/Documents/GitHub/Software/01_jrg/06_XMC/ADC_RTOS/Dave/Generated/FREERTOS/portable/GCC\portmacro.h ****     }
 190:C:/Users/Yoshi/Documents/GitHub/Software/01_jrg/06_XMC/ADC_RTOS/Dave/Generated/FREERTOS/portable/GCC\portmacro.h **** 
 191:C:/Users/Yoshi/Documents/GitHub/Software/01_jrg/06_XMC/ADC_RTOS/Dave/Generated/FREERTOS/portable/GCC\portmacro.h **** /*-----------------------------------------------------------*/
 192:C:/Users/Yoshi/Documents/GitHub/Software/01_jrg/06_XMC/ADC_RTOS/Dave/Generated/FREERTOS/portable/GCC\portmacro.h **** 
 193:C:/Users/Yoshi/Documents/GitHub/Software/01_jrg/06_XMC/ADC_RTOS/Dave/Generated/FREERTOS/portable/GCC\portmacro.h ****     portFORCE_INLINE static void vPortRaiseBASEPRI( void )
 194:C:/Users/Yoshi/Documents/GitHub/Software/01_jrg/06_XMC/ADC_RTOS/Dave/Generated/FREERTOS/portable/GCC\portmacro.h ****     {
 195:C:/Users/Yoshi/Documents/GitHub/Software/01_jrg/06_XMC/ADC_RTOS/Dave/Generated/FREERTOS/portable/GCC\portmacro.h ****         uint32_t ulNewBASEPRI;
 196:C:/Users/Yoshi/Documents/GitHub/Software/01_jrg/06_XMC/ADC_RTOS/Dave/Generated/FREERTOS/portable/GCC\portmacro.h **** 
 197:C:/Users/Yoshi/Documents/GitHub/Software/01_jrg/06_XMC/ADC_RTOS/Dave/Generated/FREERTOS/portable/GCC\portmacro.h ****         __asm volatile
 318              	 .loc 2 197 0 discriminator 1
 319              	
 320 0044 4FF0FC03 	 mov r3,#252
 321 0048 83F31188 	 msr basepri,r3
 322 004c BFF36F8F 	 isb 
 323 0050 BFF34F8F 	 dsb 
 324              	
 325              	
 326              	 .thumb
 327 0054 7B61     	 str r3,[r7,#20]
 328              	.L11:
 329              	.LBE135:
 330              	.LBE134:
 331              	 .loc 1 862 0 discriminator 1
 332 0056 FEE7     	 b .L11
 333              	.L10:
 863:../Dave/Generated/FREERTOS/tasks.c **** 
 864:../Dave/Generated/FREERTOS/tasks.c ****             #if ( configRECORD_STACK_HIGH_ADDRESS == 1 )
 865:../Dave/Generated/FREERTOS/tasks.c ****                 {
 866:../Dave/Generated/FREERTOS/tasks.c ****                     /* Also record the stack's high address, which may assist
 867:../Dave/Generated/FREERTOS/tasks.c ****                      * debugging. */
 868:../Dave/Generated/FREERTOS/tasks.c ****                     pxNewTCB->pxEndOfStack = pxTopOfStack;
 869:../Dave/Generated/FREERTOS/tasks.c ****                 }
 870:../Dave/Generated/FREERTOS/tasks.c ****             #endif /* configRECORD_STACK_HIGH_ADDRESS */
 871:../Dave/Generated/FREERTOS/tasks.c ****         }
 872:../Dave/Generated/FREERTOS/tasks.c ****     #else /* portSTACK_GROWTH */
 873:../Dave/Generated/FREERTOS/tasks.c ****         {
 874:../Dave/Generated/FREERTOS/tasks.c ****             pxTopOfStack = pxNewTCB->pxStack;
 875:../Dave/Generated/FREERTOS/tasks.c **** 
 876:../Dave/Generated/FREERTOS/tasks.c ****             /* Check the alignment of the stack buffer is correct. */
 877:../Dave/Generated/FREERTOS/tasks.c ****             configASSERT( ( ( ( portPOINTER_SIZE_TYPE ) pxNewTCB->pxStack & ( portPOINTER_SIZE_TYPE
 878:../Dave/Generated/FREERTOS/tasks.c **** 
 879:../Dave/Generated/FREERTOS/tasks.c ****             /* The other extreme of the stack space is required if stack checking is
 880:../Dave/Generated/FREERTOS/tasks.c ****              * performed. */
 881:../Dave/Generated/FREERTOS/tasks.c ****             pxNewTCB->pxEndOfStack = pxNewTCB->pxStack + ( ulStackDepth - ( uint32_t ) 1 );
 882:../Dave/Generated/FREERTOS/tasks.c ****         }
 883:../Dave/Generated/FREERTOS/tasks.c ****     #endif /* portSTACK_GROWTH */
 884:../Dave/Generated/FREERTOS/tasks.c **** 
 885:../Dave/Generated/FREERTOS/tasks.c ****     /* Store the task name in the TCB. */
 886:../Dave/Generated/FREERTOS/tasks.c ****     if( pcName != NULL )
 334              	 .loc 1 886 0
 335 0058 BB68     	 ldr r3,[r7,#8]
 336 005a 002B     	 cmp r3,#0
 337 005c 1ED0     	 beq .L12
 887:../Dave/Generated/FREERTOS/tasks.c ****     {
 888:../Dave/Generated/FREERTOS/tasks.c ****         for( x = ( UBaseType_t ) 0; x < ( UBaseType_t ) configMAX_TASK_NAME_LEN; x++ )
 338              	 .loc 1 888 0
 339 005e 0023     	 movs r3,#0
 340 0060 FB61     	 str r3,[r7,#28]
 341 0062 13E0     	 b .L13
 342              	.L16:
 889:../Dave/Generated/FREERTOS/tasks.c ****         {
 890:../Dave/Generated/FREERTOS/tasks.c ****             pxNewTCB->pcTaskName[ x ] = pcName[ x ];
 343              	 .loc 1 890 0
 344 0064 BA68     	 ldr r2,[r7,#8]
 345 0066 FB69     	 ldr r3,[r7,#28]
 346 0068 1344     	 add r3,r3,r2
 347 006a 1978     	 ldrb r1,[r3]
 348 006c 3A6B     	 ldr r2,[r7,#48]
 349 006e FB69     	 ldr r3,[r7,#28]
 350 0070 1344     	 add r3,r3,r2
 351 0072 3033     	 adds r3,r3,#48
 352 0074 0A46     	 mov r2,r1
 353 0076 1A71     	 strb r2,[r3,#4]
 891:../Dave/Generated/FREERTOS/tasks.c **** 
 892:../Dave/Generated/FREERTOS/tasks.c ****             /* Don't copy all configMAX_TASK_NAME_LEN if the string is shorter than
 893:../Dave/Generated/FREERTOS/tasks.c ****              * configMAX_TASK_NAME_LEN characters just in case the memory after the
 894:../Dave/Generated/FREERTOS/tasks.c ****              * string is not accessible (extremely unlikely). */
 895:../Dave/Generated/FREERTOS/tasks.c ****             if( pcName[ x ] == ( char ) 0x00 )
 354              	 .loc 1 895 0
 355 0078 BA68     	 ldr r2,[r7,#8]
 356 007a FB69     	 ldr r3,[r7,#28]
 357 007c 1344     	 add r3,r3,r2
 358 007e 1B78     	 ldrb r3,[r3]
 359 0080 002B     	 cmp r3,#0
 360 0082 00D1     	 bne .L14
 896:../Dave/Generated/FREERTOS/tasks.c ****             {
 897:../Dave/Generated/FREERTOS/tasks.c ****                 break;
 361              	 .loc 1 897 0
 362 0084 05E0     	 b .L15
 363              	.L14:
 888:../Dave/Generated/FREERTOS/tasks.c ****         {
 364              	 .loc 1 888 0 discriminator 2
 365 0086 FB69     	 ldr r3,[r7,#28]
 366 0088 0133     	 adds r3,r3,#1
 367 008a FB61     	 str r3,[r7,#28]
 368              	.L13:
 888:../Dave/Generated/FREERTOS/tasks.c ****         {
 369              	 .loc 1 888 0 is_stmt 0 discriminator 1
 370 008c FB69     	 ldr r3,[r7,#28]
 371 008e 0F2B     	 cmp r3,#15
 372 0090 E8D9     	 bls .L16
 373              	.L15:
 898:../Dave/Generated/FREERTOS/tasks.c ****             }
 899:../Dave/Generated/FREERTOS/tasks.c ****             else
 900:../Dave/Generated/FREERTOS/tasks.c ****             {
 901:../Dave/Generated/FREERTOS/tasks.c ****                 mtCOVERAGE_TEST_MARKER();
 902:../Dave/Generated/FREERTOS/tasks.c ****             }
 903:../Dave/Generated/FREERTOS/tasks.c ****         }
 904:../Dave/Generated/FREERTOS/tasks.c **** 
 905:../Dave/Generated/FREERTOS/tasks.c ****         /* Ensure the name string is terminated in the case that the string length
 906:../Dave/Generated/FREERTOS/tasks.c ****          * was greater or equal to configMAX_TASK_NAME_LEN. */
 907:../Dave/Generated/FREERTOS/tasks.c ****         pxNewTCB->pcTaskName[ configMAX_TASK_NAME_LEN - 1 ] = '\0';
 374              	 .loc 1 907 0 is_stmt 1
 375 0092 3B6B     	 ldr r3,[r7,#48]
 376 0094 0022     	 movs r2,#0
 377 0096 83F84320 	 strb r2,[r3,#67]
 378 009a 03E0     	 b .L17
 379              	.L12:
 908:../Dave/Generated/FREERTOS/tasks.c ****     }
 909:../Dave/Generated/FREERTOS/tasks.c ****     else
 910:../Dave/Generated/FREERTOS/tasks.c ****     {
 911:../Dave/Generated/FREERTOS/tasks.c ****         /* The task has not been given a name, so just ensure there is a NULL
 912:../Dave/Generated/FREERTOS/tasks.c ****          * terminator when it is read out. */
 913:../Dave/Generated/FREERTOS/tasks.c ****         pxNewTCB->pcTaskName[ 0 ] = 0x00;
 380              	 .loc 1 913 0
 381 009c 3B6B     	 ldr r3,[r7,#48]
 382 009e 0022     	 movs r2,#0
 383 00a0 83F83420 	 strb r2,[r3,#52]
 384              	.L17:
 914:../Dave/Generated/FREERTOS/tasks.c ****     }
 915:../Dave/Generated/FREERTOS/tasks.c **** 
 916:../Dave/Generated/FREERTOS/tasks.c ****     /* This is used as an array index so must ensure it's not too large.  First
 917:../Dave/Generated/FREERTOS/tasks.c ****      * remove the privilege bit if one is present. */
 918:../Dave/Generated/FREERTOS/tasks.c ****     if( uxPriority >= ( UBaseType_t ) configMAX_PRIORITIES )
 385              	 .loc 1 918 0
 386 00a4 BB6A     	 ldr r3,[r7,#40]
 387 00a6 042B     	 cmp r3,#4
 388 00a8 01D9     	 bls .L18
 919:../Dave/Generated/FREERTOS/tasks.c ****     {
 920:../Dave/Generated/FREERTOS/tasks.c ****         uxPriority = ( UBaseType_t ) configMAX_PRIORITIES - ( UBaseType_t ) 1U;
 389              	 .loc 1 920 0
 390 00aa 0423     	 movs r3,#4
 391 00ac BB62     	 str r3,[r7,#40]
 392              	.L18:
 921:../Dave/Generated/FREERTOS/tasks.c ****     }
 922:../Dave/Generated/FREERTOS/tasks.c ****     else
 923:../Dave/Generated/FREERTOS/tasks.c ****     {
 924:../Dave/Generated/FREERTOS/tasks.c ****         mtCOVERAGE_TEST_MARKER();
 925:../Dave/Generated/FREERTOS/tasks.c ****     }
 926:../Dave/Generated/FREERTOS/tasks.c **** 
 927:../Dave/Generated/FREERTOS/tasks.c ****     pxNewTCB->uxPriority = uxPriority;
 393              	 .loc 1 927 0
 394 00ae 3B6B     	 ldr r3,[r7,#48]
 395 00b0 BA6A     	 ldr r2,[r7,#40]
 396 00b2 DA62     	 str r2,[r3,#44]
 928:../Dave/Generated/FREERTOS/tasks.c ****     #if ( configUSE_MUTEXES == 1 )
 929:../Dave/Generated/FREERTOS/tasks.c ****         {
 930:../Dave/Generated/FREERTOS/tasks.c ****             pxNewTCB->uxBasePriority = uxPriority;
 397              	 .loc 1 930 0
 398 00b4 3B6B     	 ldr r3,[r7,#48]
 399 00b6 BA6A     	 ldr r2,[r7,#40]
 400 00b8 DA64     	 str r2,[r3,#76]
 931:../Dave/Generated/FREERTOS/tasks.c ****             pxNewTCB->uxMutexesHeld = 0;
 401              	 .loc 1 931 0
 402 00ba 3B6B     	 ldr r3,[r7,#48]
 403 00bc 0022     	 movs r2,#0
 404 00be 1A65     	 str r2,[r3,#80]
 932:../Dave/Generated/FREERTOS/tasks.c ****         }
 933:../Dave/Generated/FREERTOS/tasks.c ****     #endif /* configUSE_MUTEXES */
 934:../Dave/Generated/FREERTOS/tasks.c **** 
 935:../Dave/Generated/FREERTOS/tasks.c ****     vListInitialiseItem( &( pxNewTCB->xStateListItem ) );
 405              	 .loc 1 935 0
 406 00c0 3B6B     	 ldr r3,[r7,#48]
 407 00c2 0433     	 adds r3,r3,#4
 408 00c4 1846     	 mov r0,r3
 409 00c6 FFF7FEFF 	 bl vListInitialiseItem
 936:../Dave/Generated/FREERTOS/tasks.c ****     vListInitialiseItem( &( pxNewTCB->xEventListItem ) );
 410              	 .loc 1 936 0
 411 00ca 3B6B     	 ldr r3,[r7,#48]
 412 00cc 1833     	 adds r3,r3,#24
 413 00ce 1846     	 mov r0,r3
 414 00d0 FFF7FEFF 	 bl vListInitialiseItem
 937:../Dave/Generated/FREERTOS/tasks.c **** 
 938:../Dave/Generated/FREERTOS/tasks.c ****     /* Set the pxNewTCB as a link back from the ListItem_t.  This is so we can get
 939:../Dave/Generated/FREERTOS/tasks.c ****      * back to  the containing TCB from a generic item in a list. */
 940:../Dave/Generated/FREERTOS/tasks.c ****     listSET_LIST_ITEM_OWNER( &( pxNewTCB->xStateListItem ), pxNewTCB );
 415              	 .loc 1 940 0
 416 00d4 3B6B     	 ldr r3,[r7,#48]
 417 00d6 3A6B     	 ldr r2,[r7,#48]
 418 00d8 1A61     	 str r2,[r3,#16]
 941:../Dave/Generated/FREERTOS/tasks.c **** 
 942:../Dave/Generated/FREERTOS/tasks.c ****     /* Event lists are always in priority order. */
 943:../Dave/Generated/FREERTOS/tasks.c ****     listSET_LIST_ITEM_VALUE( &( pxNewTCB->xEventListItem ), ( TickType_t ) configMAX_PRIORITIES - (
 419              	 .loc 1 943 0
 420 00da BB6A     	 ldr r3,[r7,#40]
 421 00dc C3F10502 	 rsb r2,r3,#5
 422 00e0 3B6B     	 ldr r3,[r7,#48]
 423 00e2 9A61     	 str r2,[r3,#24]
 944:../Dave/Generated/FREERTOS/tasks.c ****     listSET_LIST_ITEM_OWNER( &( pxNewTCB->xEventListItem ), pxNewTCB );
 424              	 .loc 1 944 0
 425 00e4 3B6B     	 ldr r3,[r7,#48]
 426 00e6 3A6B     	 ldr r2,[r7,#48]
 427 00e8 5A62     	 str r2,[r3,#36]
 945:../Dave/Generated/FREERTOS/tasks.c **** 
 946:../Dave/Generated/FREERTOS/tasks.c ****     #if ( portCRITICAL_NESTING_IN_TCB == 1 )
 947:../Dave/Generated/FREERTOS/tasks.c ****         {
 948:../Dave/Generated/FREERTOS/tasks.c ****             pxNewTCB->uxCriticalNesting = ( UBaseType_t ) 0U;
 949:../Dave/Generated/FREERTOS/tasks.c ****         }
 950:../Dave/Generated/FREERTOS/tasks.c ****     #endif /* portCRITICAL_NESTING_IN_TCB */
 951:../Dave/Generated/FREERTOS/tasks.c **** 
 952:../Dave/Generated/FREERTOS/tasks.c ****     #if ( configUSE_APPLICATION_TASK_TAG == 1 )
 953:../Dave/Generated/FREERTOS/tasks.c ****         {
 954:../Dave/Generated/FREERTOS/tasks.c ****             pxNewTCB->pxTaskTag = NULL;
 955:../Dave/Generated/FREERTOS/tasks.c ****         }
 956:../Dave/Generated/FREERTOS/tasks.c ****     #endif /* configUSE_APPLICATION_TASK_TAG */
 957:../Dave/Generated/FREERTOS/tasks.c **** 
 958:../Dave/Generated/FREERTOS/tasks.c ****     #if ( configGENERATE_RUN_TIME_STATS == 1 )
 959:../Dave/Generated/FREERTOS/tasks.c ****         {
 960:../Dave/Generated/FREERTOS/tasks.c ****             pxNewTCB->ulRunTimeCounter = 0UL;
 961:../Dave/Generated/FREERTOS/tasks.c ****         }
 962:../Dave/Generated/FREERTOS/tasks.c ****     #endif /* configGENERATE_RUN_TIME_STATS */
 963:../Dave/Generated/FREERTOS/tasks.c **** 
 964:../Dave/Generated/FREERTOS/tasks.c ****     #if ( portUSING_MPU_WRAPPERS == 1 )
 965:../Dave/Generated/FREERTOS/tasks.c ****         {
 966:../Dave/Generated/FREERTOS/tasks.c ****             vPortStoreTaskMPUSettings( &( pxNewTCB->xMPUSettings ), xRegions, pxNewTCB->pxStack, ul
 967:../Dave/Generated/FREERTOS/tasks.c ****         }
 968:../Dave/Generated/FREERTOS/tasks.c ****     #else
 969:../Dave/Generated/FREERTOS/tasks.c ****         {
 970:../Dave/Generated/FREERTOS/tasks.c ****             /* Avoid compiler warning about unreferenced parameter. */
 971:../Dave/Generated/FREERTOS/tasks.c ****             ( void ) xRegions;
 972:../Dave/Generated/FREERTOS/tasks.c ****         }
 973:../Dave/Generated/FREERTOS/tasks.c ****     #endif
 974:../Dave/Generated/FREERTOS/tasks.c **** 
 975:../Dave/Generated/FREERTOS/tasks.c ****     #if ( configNUM_THREAD_LOCAL_STORAGE_POINTERS != 0 )
 976:../Dave/Generated/FREERTOS/tasks.c ****         {
 977:../Dave/Generated/FREERTOS/tasks.c ****             memset( ( void * ) &( pxNewTCB->pvThreadLocalStoragePointers[ 0 ] ), 0x00, sizeof( pxNe
 428              	 .loc 1 977 0
 429 00ea 3B6B     	 ldr r3,[r7,#48]
 430 00ec 5433     	 adds r3,r3,#84
 431 00ee 1846     	 mov r0,r3
 432 00f0 0021     	 movs r1,#0
 433 00f2 1422     	 movs r2,#20
 434 00f4 FFF7FEFF 	 bl memset
 978:../Dave/Generated/FREERTOS/tasks.c ****         }
 979:../Dave/Generated/FREERTOS/tasks.c ****     #endif
 980:../Dave/Generated/FREERTOS/tasks.c **** 
 981:../Dave/Generated/FREERTOS/tasks.c ****     #if ( configUSE_TASK_NOTIFICATIONS == 1 )
 982:../Dave/Generated/FREERTOS/tasks.c ****         {
 983:../Dave/Generated/FREERTOS/tasks.c ****             memset( ( void * ) &( pxNewTCB->ulNotifiedValue[ 0 ] ), 0x00, sizeof( pxNewTCB->ulNotif
 435              	 .loc 1 983 0
 436 00f8 3B6B     	 ldr r3,[r7,#48]
 437 00fa 6833     	 adds r3,r3,#104
 438 00fc 1846     	 mov r0,r3
 439 00fe 0021     	 movs r1,#0
 440 0100 0422     	 movs r2,#4
 441 0102 FFF7FEFF 	 bl memset
 984:../Dave/Generated/FREERTOS/tasks.c ****             memset( ( void * ) &( pxNewTCB->ucNotifyState[ 0 ] ), 0x00, sizeof( pxNewTCB->ucNotifyS
 442              	 .loc 1 984 0
 443 0106 3B6B     	 ldr r3,[r7,#48]
 444 0108 6C33     	 adds r3,r3,#108
 445 010a 1846     	 mov r0,r3
 446 010c 0021     	 movs r1,#0
 447 010e 0122     	 movs r2,#1
 448 0110 FFF7FEFF 	 bl memset
 985:../Dave/Generated/FREERTOS/tasks.c ****         }
 986:../Dave/Generated/FREERTOS/tasks.c ****     #endif
 987:../Dave/Generated/FREERTOS/tasks.c **** 
 988:../Dave/Generated/FREERTOS/tasks.c ****     #if ( configUSE_NEWLIB_REENTRANT == 1 )
 989:../Dave/Generated/FREERTOS/tasks.c ****         {
 990:../Dave/Generated/FREERTOS/tasks.c ****             /* Initialise this task's Newlib reent structure.
 991:../Dave/Generated/FREERTOS/tasks.c ****              * See the third party link http://www.nadler.com/embedded/newlibAndFreeRTOS.html
 992:../Dave/Generated/FREERTOS/tasks.c ****              * for additional information. */
 993:../Dave/Generated/FREERTOS/tasks.c ****             _REENT_INIT_PTR( ( &( pxNewTCB->xNewLib_reent ) ) );
 994:../Dave/Generated/FREERTOS/tasks.c ****         }
 995:../Dave/Generated/FREERTOS/tasks.c ****     #endif
 996:../Dave/Generated/FREERTOS/tasks.c **** 
 997:../Dave/Generated/FREERTOS/tasks.c ****     #if ( INCLUDE_xTaskAbortDelay == 1 )
 998:../Dave/Generated/FREERTOS/tasks.c ****         {
 999:../Dave/Generated/FREERTOS/tasks.c ****             pxNewTCB->ucDelayAborted = pdFALSE;
 449              	 .loc 1 999 0
 450 0114 3B6B     	 ldr r3,[r7,#48]
 451 0116 0022     	 movs r2,#0
 452 0118 83F86D20 	 strb r2,[r3,#109]
1000:../Dave/Generated/FREERTOS/tasks.c ****         }
1001:../Dave/Generated/FREERTOS/tasks.c ****     #endif
1002:../Dave/Generated/FREERTOS/tasks.c **** 
1003:../Dave/Generated/FREERTOS/tasks.c ****     /* Initialize the TCB stack to look as if the task was already running,
1004:../Dave/Generated/FREERTOS/tasks.c ****      * but had been interrupted by the scheduler.  The return address is set
1005:../Dave/Generated/FREERTOS/tasks.c ****      * to the start of the task function. Once the stack has been initialised
1006:../Dave/Generated/FREERTOS/tasks.c ****      * the top of stack variable is updated. */
1007:../Dave/Generated/FREERTOS/tasks.c ****     #if ( portUSING_MPU_WRAPPERS == 1 )
1008:../Dave/Generated/FREERTOS/tasks.c ****         {
1009:../Dave/Generated/FREERTOS/tasks.c ****             /* If the port has capability to detect stack overflow,
1010:../Dave/Generated/FREERTOS/tasks.c ****              * pass the stack end address to the stack initialization
1011:../Dave/Generated/FREERTOS/tasks.c ****              * function as well. */
1012:../Dave/Generated/FREERTOS/tasks.c ****             #if ( portHAS_STACK_OVERFLOW_CHECKING == 1 )
1013:../Dave/Generated/FREERTOS/tasks.c ****                 {
1014:../Dave/Generated/FREERTOS/tasks.c ****                     #if ( portSTACK_GROWTH < 0 )
1015:../Dave/Generated/FREERTOS/tasks.c ****                         {
1016:../Dave/Generated/FREERTOS/tasks.c ****                             pxNewTCB->pxTopOfStack = pxPortInitialiseStack( pxTopOfStack, pxNewTCB-
1017:../Dave/Generated/FREERTOS/tasks.c ****                         }
1018:../Dave/Generated/FREERTOS/tasks.c ****                     #else /* portSTACK_GROWTH */
1019:../Dave/Generated/FREERTOS/tasks.c ****                         {
1020:../Dave/Generated/FREERTOS/tasks.c ****                             pxNewTCB->pxTopOfStack = pxPortInitialiseStack( pxTopOfStack, pxNewTCB-
1021:../Dave/Generated/FREERTOS/tasks.c ****                         }
1022:../Dave/Generated/FREERTOS/tasks.c ****                     #endif /* portSTACK_GROWTH */
1023:../Dave/Generated/FREERTOS/tasks.c ****                 }
1024:../Dave/Generated/FREERTOS/tasks.c ****             #else /* portHAS_STACK_OVERFLOW_CHECKING */
1025:../Dave/Generated/FREERTOS/tasks.c ****                 {
1026:../Dave/Generated/FREERTOS/tasks.c ****                     pxNewTCB->pxTopOfStack = pxPortInitialiseStack( pxTopOfStack, pxTaskCode, pvPar
1027:../Dave/Generated/FREERTOS/tasks.c ****                 }
1028:../Dave/Generated/FREERTOS/tasks.c ****             #endif /* portHAS_STACK_OVERFLOW_CHECKING */
1029:../Dave/Generated/FREERTOS/tasks.c ****         }
1030:../Dave/Generated/FREERTOS/tasks.c ****     #else /* portUSING_MPU_WRAPPERS */
1031:../Dave/Generated/FREERTOS/tasks.c ****         {
1032:../Dave/Generated/FREERTOS/tasks.c ****             /* If the port has capability to detect stack overflow,
1033:../Dave/Generated/FREERTOS/tasks.c ****              * pass the stack end address to the stack initialization
1034:../Dave/Generated/FREERTOS/tasks.c ****              * function as well. */
1035:../Dave/Generated/FREERTOS/tasks.c ****             #if ( portHAS_STACK_OVERFLOW_CHECKING == 1 )
1036:../Dave/Generated/FREERTOS/tasks.c ****                 {
1037:../Dave/Generated/FREERTOS/tasks.c ****                     #if ( portSTACK_GROWTH < 0 )
1038:../Dave/Generated/FREERTOS/tasks.c ****                         {
1039:../Dave/Generated/FREERTOS/tasks.c ****                             pxNewTCB->pxTopOfStack = pxPortInitialiseStack( pxTopOfStack, pxNewTCB-
1040:../Dave/Generated/FREERTOS/tasks.c ****                         }
1041:../Dave/Generated/FREERTOS/tasks.c ****                     #else /* portSTACK_GROWTH */
1042:../Dave/Generated/FREERTOS/tasks.c ****                         {
1043:../Dave/Generated/FREERTOS/tasks.c ****                             pxNewTCB->pxTopOfStack = pxPortInitialiseStack( pxTopOfStack, pxNewTCB-
1044:../Dave/Generated/FREERTOS/tasks.c ****                         }
1045:../Dave/Generated/FREERTOS/tasks.c ****                     #endif /* portSTACK_GROWTH */
1046:../Dave/Generated/FREERTOS/tasks.c ****                 }
1047:../Dave/Generated/FREERTOS/tasks.c ****             #else /* portHAS_STACK_OVERFLOW_CHECKING */
1048:../Dave/Generated/FREERTOS/tasks.c ****                 {
1049:../Dave/Generated/FREERTOS/tasks.c ****                     pxNewTCB->pxTopOfStack = pxPortInitialiseStack( pxTopOfStack, pxTaskCode, pvPar
 453              	 .loc 1 1049 0
 454 011c B869     	 ldr r0,[r7,#24]
 455 011e F968     	 ldr r1,[r7,#12]
 456 0120 3A68     	 ldr r2,[r7]
 457 0122 FFF7FEFF 	 bl pxPortInitialiseStack
 458 0126 0246     	 mov r2,r0
 459 0128 3B6B     	 ldr r3,[r7,#48]
 460 012a 1A60     	 str r2,[r3]
1050:../Dave/Generated/FREERTOS/tasks.c ****                 }
1051:../Dave/Generated/FREERTOS/tasks.c ****             #endif /* portHAS_STACK_OVERFLOW_CHECKING */
1052:../Dave/Generated/FREERTOS/tasks.c ****         }
1053:../Dave/Generated/FREERTOS/tasks.c ****     #endif /* portUSING_MPU_WRAPPERS */
1054:../Dave/Generated/FREERTOS/tasks.c **** 
1055:../Dave/Generated/FREERTOS/tasks.c ****     if( pxCreatedTask != NULL )
 461              	 .loc 1 1055 0
 462 012c FB6A     	 ldr r3,[r7,#44]
 463 012e 002B     	 cmp r3,#0
 464 0130 02D0     	 beq .L9
1056:../Dave/Generated/FREERTOS/tasks.c ****     {
1057:../Dave/Generated/FREERTOS/tasks.c ****         /* Pass the handle out in an anonymous way.  The handle can be used to
1058:../Dave/Generated/FREERTOS/tasks.c ****          * change the created task's priority, delete the created task, etc.*/
1059:../Dave/Generated/FREERTOS/tasks.c ****         *pxCreatedTask = ( TaskHandle_t ) pxNewTCB;
 465              	 .loc 1 1059 0
 466 0132 FB6A     	 ldr r3,[r7,#44]
 467 0134 3A6B     	 ldr r2,[r7,#48]
 468 0136 1A60     	 str r2,[r3]
 469              	.L9:
1060:../Dave/Generated/FREERTOS/tasks.c ****     }
1061:../Dave/Generated/FREERTOS/tasks.c ****     else
1062:../Dave/Generated/FREERTOS/tasks.c ****     {
1063:../Dave/Generated/FREERTOS/tasks.c ****         mtCOVERAGE_TEST_MARKER();
1064:../Dave/Generated/FREERTOS/tasks.c ****     }
1065:../Dave/Generated/FREERTOS/tasks.c **** }
 470              	 .loc 1 1065 0
 471 0138 2037     	 adds r7,r7,#32
 472              	.LCFI8:
 473              	 .cfi_def_cfa_offset 8
 474 013a BD46     	 mov sp,r7
 475              	.LCFI9:
 476              	 .cfi_def_cfa_register 13
 477              	 
 478 013c 80BD     	 pop {r7,pc}
 479              	 .cfi_endproc
 480              	.LFE139:
 482 013e 00BF     	 .section .text.prvAddNewTaskToReadyList,"ax",%progbits
 483              	 .align 2
 484              	 .thumb
 485              	 .thumb_func
 487              	prvAddNewTaskToReadyList:
 488              	.LFB140:
1066:../Dave/Generated/FREERTOS/tasks.c **** /*-----------------------------------------------------------*/
1067:../Dave/Generated/FREERTOS/tasks.c **** 
1068:../Dave/Generated/FREERTOS/tasks.c **** static void prvAddNewTaskToReadyList( TCB_t * pxNewTCB )
1069:../Dave/Generated/FREERTOS/tasks.c **** {
 489              	 .loc 1 1069 0
 490              	 .cfi_startproc
 491              	 
 492              	 
 493 0000 80B5     	 push {r7,lr}
 494              	.LCFI10:
 495              	 .cfi_def_cfa_offset 8
 496              	 .cfi_offset 7,-8
 497              	 .cfi_offset 14,-4
 498 0002 82B0     	 sub sp,sp,#8
 499              	.LCFI11:
 500              	 .cfi_def_cfa_offset 16
 501 0004 00AF     	 add r7,sp,#0
 502              	.LCFI12:
 503              	 .cfi_def_cfa_register 7
 504 0006 7860     	 str r0,[r7,#4]
1070:../Dave/Generated/FREERTOS/tasks.c ****     /* Ensure interrupts don't access the task lists while the lists are being
1071:../Dave/Generated/FREERTOS/tasks.c ****      * updated. */
1072:../Dave/Generated/FREERTOS/tasks.c ****     taskENTER_CRITICAL();
 505              	 .loc 1 1072 0
 506 0008 FFF7FEFF 	 bl vPortEnterCritical
1073:../Dave/Generated/FREERTOS/tasks.c ****     {
1074:../Dave/Generated/FREERTOS/tasks.c ****         uxCurrentNumberOfTasks++;
 507              	 .loc 1 1074 0
 508 000c 2D4B     	 ldr r3,.L24
 509 000e 1B68     	 ldr r3,[r3]
 510 0010 0133     	 adds r3,r3,#1
 511 0012 2C4A     	 ldr r2,.L24
 512 0014 1360     	 str r3,[r2]
1075:../Dave/Generated/FREERTOS/tasks.c **** 
1076:../Dave/Generated/FREERTOS/tasks.c ****         if( pxCurrentTCB == NULL )
 513              	 .loc 1 1076 0
 514 0016 2C4B     	 ldr r3,.L24+4
 515 0018 1B68     	 ldr r3,[r3]
 516 001a 002B     	 cmp r3,#0
 517 001c 09D1     	 bne .L21
1077:../Dave/Generated/FREERTOS/tasks.c ****         {
1078:../Dave/Generated/FREERTOS/tasks.c ****             /* There are no other tasks, or all the other tasks are in
1079:../Dave/Generated/FREERTOS/tasks.c ****              * the suspended state - make this the current task. */
1080:../Dave/Generated/FREERTOS/tasks.c ****             pxCurrentTCB = pxNewTCB;
 518              	 .loc 1 1080 0
 519 001e 2A4A     	 ldr r2,.L24+4
 520 0020 7B68     	 ldr r3,[r7,#4]
 521 0022 1360     	 str r3,[r2]
1081:../Dave/Generated/FREERTOS/tasks.c **** 
1082:../Dave/Generated/FREERTOS/tasks.c ****             if( uxCurrentNumberOfTasks == ( UBaseType_t ) 1 )
 522              	 .loc 1 1082 0
 523 0024 274B     	 ldr r3,.L24
 524 0026 1B68     	 ldr r3,[r3]
 525 0028 012B     	 cmp r3,#1
 526 002a 10D1     	 bne .L22
1083:../Dave/Generated/FREERTOS/tasks.c ****             {
1084:../Dave/Generated/FREERTOS/tasks.c ****                 /* This is the first task to be created so do the preliminary
1085:../Dave/Generated/FREERTOS/tasks.c ****                  * initialisation required.  We will not recover if this call
1086:../Dave/Generated/FREERTOS/tasks.c ****                  * fails, but we will report the failure. */
1087:../Dave/Generated/FREERTOS/tasks.c ****                 prvInitialiseTaskLists();
 527              	 .loc 1 1087 0
 528 002c FFF7FEFF 	 bl prvInitialiseTaskLists
 529 0030 0DE0     	 b .L22
 530              	.L21:
1088:../Dave/Generated/FREERTOS/tasks.c ****             }
1089:../Dave/Generated/FREERTOS/tasks.c ****             else
1090:../Dave/Generated/FREERTOS/tasks.c ****             {
1091:../Dave/Generated/FREERTOS/tasks.c ****                 mtCOVERAGE_TEST_MARKER();
1092:../Dave/Generated/FREERTOS/tasks.c ****             }
1093:../Dave/Generated/FREERTOS/tasks.c ****         }
1094:../Dave/Generated/FREERTOS/tasks.c ****         else
1095:../Dave/Generated/FREERTOS/tasks.c ****         {
1096:../Dave/Generated/FREERTOS/tasks.c ****             /* If the scheduler is not already running, make this task the
1097:../Dave/Generated/FREERTOS/tasks.c ****              * current task if it is the highest priority task to be created
1098:../Dave/Generated/FREERTOS/tasks.c ****              * so far. */
1099:../Dave/Generated/FREERTOS/tasks.c ****             if( xSchedulerRunning == pdFALSE )
 531              	 .loc 1 1099 0
 532 0032 264B     	 ldr r3,.L24+8
 533 0034 1B68     	 ldr r3,[r3]
 534 0036 002B     	 cmp r3,#0
 535 0038 09D1     	 bne .L22
1100:../Dave/Generated/FREERTOS/tasks.c ****             {
1101:../Dave/Generated/FREERTOS/tasks.c ****                 if( pxCurrentTCB->uxPriority <= pxNewTCB->uxPriority )
 536              	 .loc 1 1101 0
 537 003a 234B     	 ldr r3,.L24+4
 538 003c 1B68     	 ldr r3,[r3]
 539 003e DA6A     	 ldr r2,[r3,#44]
 540 0040 7B68     	 ldr r3,[r7,#4]
 541 0042 DB6A     	 ldr r3,[r3,#44]
 542 0044 9A42     	 cmp r2,r3
 543 0046 02D8     	 bhi .L22
1102:../Dave/Generated/FREERTOS/tasks.c ****                 {
1103:../Dave/Generated/FREERTOS/tasks.c ****                     pxCurrentTCB = pxNewTCB;
 544              	 .loc 1 1103 0
 545 0048 1F4A     	 ldr r2,.L24+4
 546 004a 7B68     	 ldr r3,[r7,#4]
 547 004c 1360     	 str r3,[r2]
 548              	.L22:
1104:../Dave/Generated/FREERTOS/tasks.c ****                 }
1105:../Dave/Generated/FREERTOS/tasks.c ****                 else
1106:../Dave/Generated/FREERTOS/tasks.c ****                 {
1107:../Dave/Generated/FREERTOS/tasks.c ****                     mtCOVERAGE_TEST_MARKER();
1108:../Dave/Generated/FREERTOS/tasks.c ****                 }
1109:../Dave/Generated/FREERTOS/tasks.c ****             }
1110:../Dave/Generated/FREERTOS/tasks.c ****             else
1111:../Dave/Generated/FREERTOS/tasks.c ****             {
1112:../Dave/Generated/FREERTOS/tasks.c ****                 mtCOVERAGE_TEST_MARKER();
1113:../Dave/Generated/FREERTOS/tasks.c ****             }
1114:../Dave/Generated/FREERTOS/tasks.c ****         }
1115:../Dave/Generated/FREERTOS/tasks.c **** 
1116:../Dave/Generated/FREERTOS/tasks.c ****         uxTaskNumber++;
 549              	 .loc 1 1116 0
 550 004e 204B     	 ldr r3,.L24+12
 551 0050 1B68     	 ldr r3,[r3]
 552 0052 0133     	 adds r3,r3,#1
 553 0054 1E4A     	 ldr r2,.L24+12
 554 0056 1360     	 str r3,[r2]
1117:../Dave/Generated/FREERTOS/tasks.c **** 
1118:../Dave/Generated/FREERTOS/tasks.c ****         #if ( configUSE_TRACE_FACILITY == 1 )
1119:../Dave/Generated/FREERTOS/tasks.c ****             {
1120:../Dave/Generated/FREERTOS/tasks.c ****                 /* Add a counter into the TCB for tracing only. */
1121:../Dave/Generated/FREERTOS/tasks.c ****                 pxNewTCB->uxTCBNumber = uxTaskNumber;
 555              	 .loc 1 1121 0
 556 0058 1D4B     	 ldr r3,.L24+12
 557 005a 1A68     	 ldr r2,[r3]
 558 005c 7B68     	 ldr r3,[r7,#4]
 559 005e 5A64     	 str r2,[r3,#68]
1122:../Dave/Generated/FREERTOS/tasks.c ****             }
1123:../Dave/Generated/FREERTOS/tasks.c ****         #endif /* configUSE_TRACE_FACILITY */
1124:../Dave/Generated/FREERTOS/tasks.c ****         traceTASK_CREATE( pxNewTCB );
1125:../Dave/Generated/FREERTOS/tasks.c **** 
1126:../Dave/Generated/FREERTOS/tasks.c ****         prvAddTaskToReadyList( pxNewTCB );
 560              	 .loc 1 1126 0
 561 0060 7B68     	 ldr r3,[r7,#4]
 562 0062 DB6A     	 ldr r3,[r3,#44]
 563 0064 1A46     	 mov r2,r3
 564 0066 0123     	 movs r3,#1
 565 0068 03FA02F2 	 lsl r2,r3,r2
 566 006c 194B     	 ldr r3,.L24+16
 567 006e 1B68     	 ldr r3,[r3]
 568 0070 1343     	 orrs r3,r3,r2
 569 0072 184A     	 ldr r2,.L24+16
 570 0074 1360     	 str r3,[r2]
 571 0076 7B68     	 ldr r3,[r7,#4]
 572 0078 DA6A     	 ldr r2,[r3,#44]
 573 007a 1346     	 mov r3,r2
 574 007c 9B00     	 lsls r3,r3,#2
 575 007e 1344     	 add r3,r3,r2
 576 0080 9B00     	 lsls r3,r3,#2
 577 0082 154A     	 ldr r2,.L24+20
 578 0084 1A44     	 add r2,r2,r3
 579 0086 7B68     	 ldr r3,[r7,#4]
 580 0088 0433     	 adds r3,r3,#4
 581 008a 1046     	 mov r0,r2
 582 008c 1946     	 mov r1,r3
 583 008e FFF7FEFF 	 bl vListInsertEnd
1127:../Dave/Generated/FREERTOS/tasks.c **** 
1128:../Dave/Generated/FREERTOS/tasks.c ****         portSETUP_TCB( pxNewTCB );
1129:../Dave/Generated/FREERTOS/tasks.c ****     }
1130:../Dave/Generated/FREERTOS/tasks.c ****     taskEXIT_CRITICAL();
 584              	 .loc 1 1130 0
 585 0092 FFF7FEFF 	 bl vPortExitCritical
1131:../Dave/Generated/FREERTOS/tasks.c **** 
1132:../Dave/Generated/FREERTOS/tasks.c ****     if( xSchedulerRunning != pdFALSE )
 586              	 .loc 1 1132 0
 587 0096 0D4B     	 ldr r3,.L24+8
 588 0098 1B68     	 ldr r3,[r3]
 589 009a 002B     	 cmp r3,#0
 590 009c 0ED0     	 beq .L20
1133:../Dave/Generated/FREERTOS/tasks.c ****     {
1134:../Dave/Generated/FREERTOS/tasks.c ****         /* If the created task is of a higher priority than the current task
1135:../Dave/Generated/FREERTOS/tasks.c ****          * then it should run now. */
1136:../Dave/Generated/FREERTOS/tasks.c ****         if( pxCurrentTCB->uxPriority < pxNewTCB->uxPriority )
 591              	 .loc 1 1136 0
 592 009e 0A4B     	 ldr r3,.L24+4
 593 00a0 1B68     	 ldr r3,[r3]
 594 00a2 DA6A     	 ldr r2,[r3,#44]
 595 00a4 7B68     	 ldr r3,[r7,#4]
 596 00a6 DB6A     	 ldr r3,[r3,#44]
 597 00a8 9A42     	 cmp r2,r3
 598 00aa 07D2     	 bcs .L20
1137:../Dave/Generated/FREERTOS/tasks.c ****         {
1138:../Dave/Generated/FREERTOS/tasks.c ****             taskYIELD_IF_USING_PREEMPTION();
 599              	 .loc 1 1138 0
 600 00ac 0B4B     	 ldr r3,.L24+24
 601 00ae 4FF08052 	 mov r2,#268435456
 602 00b2 1A60     	 str r2,[r3]
 603              	
 604 00b4 BFF34F8F 	 dsb
 605              	
 606              	
 607 00b8 BFF36F8F 	 isb
 608              	
 609              	 .thumb
 610              	.L20:
1139:../Dave/Generated/FREERTOS/tasks.c ****         }
1140:../Dave/Generated/FREERTOS/tasks.c ****         else
1141:../Dave/Generated/FREERTOS/tasks.c ****         {
1142:../Dave/Generated/FREERTOS/tasks.c ****             mtCOVERAGE_TEST_MARKER();
1143:../Dave/Generated/FREERTOS/tasks.c ****         }
1144:../Dave/Generated/FREERTOS/tasks.c ****     }
1145:../Dave/Generated/FREERTOS/tasks.c ****     else
1146:../Dave/Generated/FREERTOS/tasks.c ****     {
1147:../Dave/Generated/FREERTOS/tasks.c ****         mtCOVERAGE_TEST_MARKER();
1148:../Dave/Generated/FREERTOS/tasks.c ****     }
1149:../Dave/Generated/FREERTOS/tasks.c **** }
 611              	 .loc 1 1149 0
 612 00bc 0837     	 adds r7,r7,#8
 613              	.LCFI13:
 614              	 .cfi_def_cfa_offset 8
 615 00be BD46     	 mov sp,r7
 616              	.LCFI14:
 617              	 .cfi_def_cfa_register 13
 618              	 
 619 00c0 80BD     	 pop {r7,pc}
 620              	.L25:
 621 00c2 00BF     	 .align 2
 622              	.L24:
 623 00c4 00000000 	 .word uxCurrentNumberOfTasks
 624 00c8 00000000 	 .word pxCurrentTCB
 625 00cc 00000000 	 .word xSchedulerRunning
 626 00d0 00000000 	 .word uxTaskNumber
 627 00d4 00000000 	 .word uxTopReadyPriority
 628 00d8 00000000 	 .word pxReadyTasksLists
 629 00dc 04ED00E0 	 .word -536810236
 630              	 .cfi_endproc
 631              	.LFE140:
 633              	 .section .text.vTaskDelete,"ax",%progbits
 634              	 .align 2
 635              	 .global vTaskDelete
 636              	 .thumb
 637              	 .thumb_func
 639              	vTaskDelete:
 640              	.LFB141:
1150:../Dave/Generated/FREERTOS/tasks.c **** /*-----------------------------------------------------------*/
1151:../Dave/Generated/FREERTOS/tasks.c **** 
1152:../Dave/Generated/FREERTOS/tasks.c **** #if ( INCLUDE_vTaskDelete == 1 )
1153:../Dave/Generated/FREERTOS/tasks.c **** 
1154:../Dave/Generated/FREERTOS/tasks.c ****     void vTaskDelete( TaskHandle_t xTaskToDelete )
1155:../Dave/Generated/FREERTOS/tasks.c ****     {
 641              	 .loc 1 1155 0
 642              	 .cfi_startproc
 643              	 
 644              	 
 645 0000 80B5     	 push {r7,lr}
 646              	.LCFI15:
 647              	 .cfi_def_cfa_offset 8
 648              	 .cfi_offset 7,-8
 649              	 .cfi_offset 14,-4
 650 0002 84B0     	 sub sp,sp,#16
 651              	.LCFI16:
 652              	 .cfi_def_cfa_offset 24
 653 0004 00AF     	 add r7,sp,#0
 654              	.LCFI17:
 655              	 .cfi_def_cfa_register 7
 656 0006 7860     	 str r0,[r7,#4]
1156:../Dave/Generated/FREERTOS/tasks.c ****         TCB_t * pxTCB;
1157:../Dave/Generated/FREERTOS/tasks.c **** 
1158:../Dave/Generated/FREERTOS/tasks.c ****         taskENTER_CRITICAL();
 657              	 .loc 1 1158 0
 658 0008 FFF7FEFF 	 bl vPortEnterCritical
1159:../Dave/Generated/FREERTOS/tasks.c ****         {
1160:../Dave/Generated/FREERTOS/tasks.c ****             /* If null is passed in here then it is the calling task that is
1161:../Dave/Generated/FREERTOS/tasks.c ****              * being deleted. */
1162:../Dave/Generated/FREERTOS/tasks.c ****             pxTCB = prvGetTCBFromHandle( xTaskToDelete );
 659              	 .loc 1 1162 0
 660 000c 7B68     	 ldr r3,[r7,#4]
 661 000e 002B     	 cmp r3,#0
 662 0010 02D1     	 bne .L27
 663              	 .loc 1 1162 0 is_stmt 0 discriminator 1
 664 0012 384B     	 ldr r3,.L37
 665 0014 1B68     	 ldr r3,[r3]
 666 0016 00E0     	 b .L28
 667              	.L27:
 668              	 .loc 1 1162 0 discriminator 2
 669 0018 7B68     	 ldr r3,[r7,#4]
 670              	.L28:
 671              	 .loc 1 1162 0 discriminator 4
 672 001a FB60     	 str r3,[r7,#12]
1163:../Dave/Generated/FREERTOS/tasks.c **** 
1164:../Dave/Generated/FREERTOS/tasks.c ****             /* Remove task from the ready/delayed list. */
1165:../Dave/Generated/FREERTOS/tasks.c ****             if( uxListRemove( &( pxTCB->xStateListItem ) ) == ( UBaseType_t ) 0 )
 673              	 .loc 1 1165 0 is_stmt 1 discriminator 4
 674 001c FB68     	 ldr r3,[r7,#12]
 675 001e 0433     	 adds r3,r3,#4
 676 0020 1846     	 mov r0,r3
 677 0022 FFF7FEFF 	 bl uxListRemove
 678 0026 0346     	 mov r3,r0
 679 0028 002B     	 cmp r3,#0
 680 002a 15D1     	 bne .L29
1166:../Dave/Generated/FREERTOS/tasks.c ****             {
1167:../Dave/Generated/FREERTOS/tasks.c ****                 taskRESET_READY_PRIORITY( pxTCB->uxPriority );
 681              	 .loc 1 1167 0
 682 002c FB68     	 ldr r3,[r7,#12]
 683 002e DA6A     	 ldr r2,[r3,#44]
 684 0030 3149     	 ldr r1,.L37+4
 685 0032 1346     	 mov r3,r2
 686 0034 9B00     	 lsls r3,r3,#2
 687 0036 1344     	 add r3,r3,r2
 688 0038 9B00     	 lsls r3,r3,#2
 689 003a 0B44     	 add r3,r3,r1
 690 003c 1B68     	 ldr r3,[r3]
 691 003e 002B     	 cmp r3,#0
 692 0040 0AD1     	 bne .L29
 693              	 .loc 1 1167 0 is_stmt 0 discriminator 1
 694 0042 FB68     	 ldr r3,[r7,#12]
 695 0044 DB6A     	 ldr r3,[r3,#44]
 696 0046 1A46     	 mov r2,r3
 697 0048 0123     	 movs r3,#1
 698 004a 9340     	 lsls r3,r3,r2
 699 004c DA43     	 mvns r2,r3
 700 004e 2B4B     	 ldr r3,.L37+8
 701 0050 1B68     	 ldr r3,[r3]
 702 0052 1340     	 ands r3,r3,r2
 703 0054 294A     	 ldr r2,.L37+8
 704 0056 1360     	 str r3,[r2]
 705              	.L29:
1168:../Dave/Generated/FREERTOS/tasks.c ****             }
1169:../Dave/Generated/FREERTOS/tasks.c ****             else
1170:../Dave/Generated/FREERTOS/tasks.c ****             {
1171:../Dave/Generated/FREERTOS/tasks.c ****                 mtCOVERAGE_TEST_MARKER();
1172:../Dave/Generated/FREERTOS/tasks.c ****             }
1173:../Dave/Generated/FREERTOS/tasks.c **** 
1174:../Dave/Generated/FREERTOS/tasks.c ****             /* Is the task waiting on an event also? */
1175:../Dave/Generated/FREERTOS/tasks.c ****             if( listLIST_ITEM_CONTAINER( &( pxTCB->xEventListItem ) ) != NULL )
 706              	 .loc 1 1175 0 is_stmt 1
 707 0058 FB68     	 ldr r3,[r7,#12]
 708 005a 9B6A     	 ldr r3,[r3,#40]
 709 005c 002B     	 cmp r3,#0
 710 005e 04D0     	 beq .L31
1176:../Dave/Generated/FREERTOS/tasks.c ****             {
1177:../Dave/Generated/FREERTOS/tasks.c ****                 ( void ) uxListRemove( &( pxTCB->xEventListItem ) );
 711              	 .loc 1 1177 0
 712 0060 FB68     	 ldr r3,[r7,#12]
 713 0062 1833     	 adds r3,r3,#24
 714 0064 1846     	 mov r0,r3
 715 0066 FFF7FEFF 	 bl uxListRemove
 716              	.L31:
1178:../Dave/Generated/FREERTOS/tasks.c ****             }
1179:../Dave/Generated/FREERTOS/tasks.c ****             else
1180:../Dave/Generated/FREERTOS/tasks.c ****             {
1181:../Dave/Generated/FREERTOS/tasks.c ****                 mtCOVERAGE_TEST_MARKER();
1182:../Dave/Generated/FREERTOS/tasks.c ****             }
1183:../Dave/Generated/FREERTOS/tasks.c **** 
1184:../Dave/Generated/FREERTOS/tasks.c ****             /* Increment the uxTaskNumber also so kernel aware debuggers can
1185:../Dave/Generated/FREERTOS/tasks.c ****              * detect that the task lists need re-generating.  This is done before
1186:../Dave/Generated/FREERTOS/tasks.c ****              * portPRE_TASK_DELETE_HOOK() as in the Windows port that macro will
1187:../Dave/Generated/FREERTOS/tasks.c ****              * not return. */
1188:../Dave/Generated/FREERTOS/tasks.c ****             uxTaskNumber++;
 717              	 .loc 1 1188 0
 718 006a 254B     	 ldr r3,.L37+12
 719 006c 1B68     	 ldr r3,[r3]
 720 006e 0133     	 adds r3,r3,#1
 721 0070 234A     	 ldr r2,.L37+12
 722 0072 1360     	 str r3,[r2]
1189:../Dave/Generated/FREERTOS/tasks.c **** 
1190:../Dave/Generated/FREERTOS/tasks.c ****             if( pxTCB == pxCurrentTCB )
 723              	 .loc 1 1190 0
 724 0074 1F4B     	 ldr r3,.L37
 725 0076 1B68     	 ldr r3,[r3]
 726 0078 FA68     	 ldr r2,[r7,#12]
 727 007a 9A42     	 cmp r2,r3
 728 007c 0BD1     	 bne .L32
1191:../Dave/Generated/FREERTOS/tasks.c ****             {
1192:../Dave/Generated/FREERTOS/tasks.c ****                 /* A task is deleting itself.  This cannot complete within the
1193:../Dave/Generated/FREERTOS/tasks.c ****                  * task itself, as a context switch to another task is required.
1194:../Dave/Generated/FREERTOS/tasks.c ****                  * Place the task in the termination list.  The idle task will
1195:../Dave/Generated/FREERTOS/tasks.c ****                  * check the termination list and free up any memory allocated by
1196:../Dave/Generated/FREERTOS/tasks.c ****                  * the scheduler for the TCB and stack of the deleted task. */
1197:../Dave/Generated/FREERTOS/tasks.c ****                 vListInsertEnd( &xTasksWaitingTermination, &( pxTCB->xStateListItem ) );
 729              	 .loc 1 1197 0
 730 007e FB68     	 ldr r3,[r7,#12]
 731 0080 0433     	 adds r3,r3,#4
 732 0082 2048     	 ldr r0,.L37+16
 733 0084 1946     	 mov r1,r3
 734 0086 FFF7FEFF 	 bl vListInsertEnd
1198:../Dave/Generated/FREERTOS/tasks.c **** 
1199:../Dave/Generated/FREERTOS/tasks.c ****                 /* Increment the ucTasksDeleted variable so the idle task knows
1200:../Dave/Generated/FREERTOS/tasks.c ****                  * there is a task that has been deleted and that it should therefore
1201:../Dave/Generated/FREERTOS/tasks.c ****                  * check the xTasksWaitingTermination list. */
1202:../Dave/Generated/FREERTOS/tasks.c ****                 ++uxDeletedTasksWaitingCleanUp;
 735              	 .loc 1 1202 0
 736 008a 1F4B     	 ldr r3,.L37+20
 737 008c 1B68     	 ldr r3,[r3]
 738 008e 0133     	 adds r3,r3,#1
 739 0090 1D4A     	 ldr r2,.L37+20
 740 0092 1360     	 str r3,[r2]
 741 0094 09E0     	 b .L33
 742              	.L32:
1203:../Dave/Generated/FREERTOS/tasks.c **** 
1204:../Dave/Generated/FREERTOS/tasks.c ****                 /* Call the delete hook before portPRE_TASK_DELETE_HOOK() as
1205:../Dave/Generated/FREERTOS/tasks.c ****                  * portPRE_TASK_DELETE_HOOK() does not return in the Win32 port. */
1206:../Dave/Generated/FREERTOS/tasks.c ****                 traceTASK_DELETE( pxTCB );
1207:../Dave/Generated/FREERTOS/tasks.c **** 
1208:../Dave/Generated/FREERTOS/tasks.c ****                 /* The pre-delete hook is primarily for the Windows simulator,
1209:../Dave/Generated/FREERTOS/tasks.c ****                  * in which Windows specific clean up operations are performed,
1210:../Dave/Generated/FREERTOS/tasks.c ****                  * after which it is not possible to yield away from this task -
1211:../Dave/Generated/FREERTOS/tasks.c ****                  * hence xYieldPending is used to latch that a context switch is
1212:../Dave/Generated/FREERTOS/tasks.c ****                  * required. */
1213:../Dave/Generated/FREERTOS/tasks.c ****                 portPRE_TASK_DELETE_HOOK( pxTCB, &xYieldPending );
1214:../Dave/Generated/FREERTOS/tasks.c ****             }
1215:../Dave/Generated/FREERTOS/tasks.c ****             else
1216:../Dave/Generated/FREERTOS/tasks.c ****             {
1217:../Dave/Generated/FREERTOS/tasks.c ****                 --uxCurrentNumberOfTasks;
 743              	 .loc 1 1217 0
 744 0096 1D4B     	 ldr r3,.L37+24
 745 0098 1B68     	 ldr r3,[r3]
 746 009a 013B     	 subs r3,r3,#1
 747 009c 1B4A     	 ldr r2,.L37+24
 748 009e 1360     	 str r3,[r2]
1218:../Dave/Generated/FREERTOS/tasks.c ****                 traceTASK_DELETE( pxTCB );
1219:../Dave/Generated/FREERTOS/tasks.c ****                 prvDeleteTCB( pxTCB );
 749              	 .loc 1 1219 0
 750 00a0 F868     	 ldr r0,[r7,#12]
 751 00a2 FFF7FEFF 	 bl prvDeleteTCB
1220:../Dave/Generated/FREERTOS/tasks.c **** 
1221:../Dave/Generated/FREERTOS/tasks.c ****                 /* Reset the next expected unblock time in case it referred to
1222:../Dave/Generated/FREERTOS/tasks.c ****                  * the task that has just been deleted. */
1223:../Dave/Generated/FREERTOS/tasks.c ****                 prvResetNextTaskUnblockTime();
 752              	 .loc 1 1223 0
 753 00a6 FFF7FEFF 	 bl prvResetNextTaskUnblockTime
 754              	.L33:
1224:../Dave/Generated/FREERTOS/tasks.c ****             }
1225:../Dave/Generated/FREERTOS/tasks.c ****         }
1226:../Dave/Generated/FREERTOS/tasks.c ****         taskEXIT_CRITICAL();
 755              	 .loc 1 1226 0
 756 00aa FFF7FEFF 	 bl vPortExitCritical
1227:../Dave/Generated/FREERTOS/tasks.c **** 
1228:../Dave/Generated/FREERTOS/tasks.c ****         /* Force a reschedule if it is the currently running task that has just
1229:../Dave/Generated/FREERTOS/tasks.c ****          * been deleted. */
1230:../Dave/Generated/FREERTOS/tasks.c ****         if( xSchedulerRunning != pdFALSE )
 757              	 .loc 1 1230 0
 758 00ae 184B     	 ldr r3,.L37+28
 759 00b0 1B68     	 ldr r3,[r3]
 760 00b2 002B     	 cmp r3,#0
 761 00b4 1AD0     	 beq .L26
1231:../Dave/Generated/FREERTOS/tasks.c ****         {
1232:../Dave/Generated/FREERTOS/tasks.c ****             if( pxTCB == pxCurrentTCB )
 762              	 .loc 1 1232 0
 763 00b6 0F4B     	 ldr r3,.L37
 764 00b8 1B68     	 ldr r3,[r3]
 765 00ba FA68     	 ldr r2,[r7,#12]
 766 00bc 9A42     	 cmp r2,r3
 767 00be 15D1     	 bne .L26
1233:../Dave/Generated/FREERTOS/tasks.c ****             {
1234:../Dave/Generated/FREERTOS/tasks.c ****                 configASSERT( uxSchedulerSuspended == 0 );
 768              	 .loc 1 1234 0
 769 00c0 144B     	 ldr r3,.L37+32
 770 00c2 1B68     	 ldr r3,[r3]
 771 00c4 002B     	 cmp r3,#0
 772 00c6 09D0     	 beq .L35
 773              	.LBB136:
 774              	.LBB137:
 775              	 .loc 2 197 0 discriminator 1
 776              	
 777 00c8 4FF0FC03 	 mov r3,#252
 778 00cc 83F31188 	 msr basepri,r3
 779 00d0 BFF36F8F 	 isb 
 780 00d4 BFF34F8F 	 dsb 
 781              	
 782              	
 783              	 .thumb
 784 00d8 BB60     	 str r3,[r7,#8]
 785              	.L36:
 786              	.LBE137:
 787              	.LBE136:
 788              	 .loc 1 1234 0 discriminator 1
 789 00da FEE7     	 b .L36
 790              	.L35:
1235:../Dave/Generated/FREERTOS/tasks.c ****                 portYIELD_WITHIN_API();
 791              	 .loc 1 1235 0
 792 00dc 0E4B     	 ldr r3,.L37+36
 793 00de 4FF08052 	 mov r2,#268435456
 794 00e2 1A60     	 str r2,[r3]
 795              	
 796 00e4 BFF34F8F 	 dsb
 797              	
 798              	
 799 00e8 BFF36F8F 	 isb
 800              	
 801              	 .thumb
 802              	.L26:
1236:../Dave/Generated/FREERTOS/tasks.c ****             }
1237:../Dave/Generated/FREERTOS/tasks.c ****             else
1238:../Dave/Generated/FREERTOS/tasks.c ****             {
1239:../Dave/Generated/FREERTOS/tasks.c ****                 mtCOVERAGE_TEST_MARKER();
1240:../Dave/Generated/FREERTOS/tasks.c ****             }
1241:../Dave/Generated/FREERTOS/tasks.c ****         }
1242:../Dave/Generated/FREERTOS/tasks.c ****     }
 803              	 .loc 1 1242 0
 804 00ec 1037     	 adds r7,r7,#16
 805              	.LCFI18:
 806              	 .cfi_def_cfa_offset 8
 807 00ee BD46     	 mov sp,r7
 808              	.LCFI19:
 809              	 .cfi_def_cfa_register 13
 810              	 
 811 00f0 80BD     	 pop {r7,pc}
 812              	.L38:
 813 00f2 00BF     	 .align 2
 814              	.L37:
 815 00f4 00000000 	 .word pxCurrentTCB
 816 00f8 00000000 	 .word pxReadyTasksLists
 817 00fc 00000000 	 .word uxTopReadyPriority
 818 0100 00000000 	 .word uxTaskNumber
 819 0104 00000000 	 .word xTasksWaitingTermination
 820 0108 00000000 	 .word uxDeletedTasksWaitingCleanUp
 821 010c 00000000 	 .word uxCurrentNumberOfTasks
 822 0110 00000000 	 .word xSchedulerRunning
 823 0114 00000000 	 .word uxSchedulerSuspended
 824 0118 04ED00E0 	 .word -536810236
 825              	 .cfi_endproc
 826              	.LFE141:
 828              	 .section .text.xTaskDelayUntil,"ax",%progbits
 829              	 .align 2
 830              	 .global xTaskDelayUntil
 831              	 .thumb
 832              	 .thumb_func
 834              	xTaskDelayUntil:
 835              	.LFB142:
1243:../Dave/Generated/FREERTOS/tasks.c **** 
1244:../Dave/Generated/FREERTOS/tasks.c **** #endif /* INCLUDE_vTaskDelete */
1245:../Dave/Generated/FREERTOS/tasks.c **** /*-----------------------------------------------------------*/
1246:../Dave/Generated/FREERTOS/tasks.c **** 
1247:../Dave/Generated/FREERTOS/tasks.c **** #if ( INCLUDE_xTaskDelayUntil == 1 )
1248:../Dave/Generated/FREERTOS/tasks.c **** 
1249:../Dave/Generated/FREERTOS/tasks.c ****     BaseType_t xTaskDelayUntil( TickType_t * const pxPreviousWakeTime,
1250:../Dave/Generated/FREERTOS/tasks.c ****                                 const TickType_t xTimeIncrement )
1251:../Dave/Generated/FREERTOS/tasks.c ****     {
 836              	 .loc 1 1251 0
 837              	 .cfi_startproc
 838              	 
 839              	 
 840 0000 80B5     	 push {r7,lr}
 841              	.LCFI20:
 842              	 .cfi_def_cfa_offset 8
 843              	 .cfi_offset 7,-8
 844              	 .cfi_offset 14,-4
 845 0002 8AB0     	 sub sp,sp,#40
 846              	.LCFI21:
 847              	 .cfi_def_cfa_offset 48
 848 0004 00AF     	 add r7,sp,#0
 849              	.LCFI22:
 850              	 .cfi_def_cfa_register 7
 851 0006 7860     	 str r0,[r7,#4]
 852 0008 3960     	 str r1,[r7]
1252:../Dave/Generated/FREERTOS/tasks.c ****         TickType_t xTimeToWake;
1253:../Dave/Generated/FREERTOS/tasks.c ****         BaseType_t xAlreadyYielded, xShouldDelay = pdFALSE;
 853              	 .loc 1 1253 0
 854 000a 0023     	 movs r3,#0
 855 000c 7B62     	 str r3,[r7,#36]
1254:../Dave/Generated/FREERTOS/tasks.c **** 
1255:../Dave/Generated/FREERTOS/tasks.c ****         configASSERT( pxPreviousWakeTime );
 856              	 .loc 1 1255 0
 857 000e 7B68     	 ldr r3,[r7,#4]
 858 0010 002B     	 cmp r3,#0
 859 0012 09D1     	 bne .L40
 860              	.LBB138:
 861              	.LBB139:
 862              	 .loc 2 197 0 discriminator 1
 863              	
 864 0014 4FF0FC03 	 mov r3,#252
 865 0018 83F31188 	 msr basepri,r3
 866 001c BFF36F8F 	 isb 
 867 0020 BFF34F8F 	 dsb 
 868              	
 869              	
 870              	 .thumb
 871 0024 7B61     	 str r3,[r7,#20]
 872              	.L41:
 873              	.LBE139:
 874              	.LBE138:
 875              	 .loc 1 1255 0 discriminator 1
 876 0026 FEE7     	 b .L41
 877              	.L40:
1256:../Dave/Generated/FREERTOS/tasks.c ****         configASSERT( ( xTimeIncrement > 0U ) );
 878              	 .loc 1 1256 0
 879 0028 3B68     	 ldr r3,[r7]
 880 002a 002B     	 cmp r3,#0
 881 002c 09D1     	 bne .L42
 882              	.LBB140:
 883              	.LBB141:
 884              	 .loc 2 197 0 discriminator 1
 885              	
 886 002e 4FF0FC03 	 mov r3,#252
 887 0032 83F31188 	 msr basepri,r3
 888 0036 BFF36F8F 	 isb 
 889 003a BFF34F8F 	 dsb 
 890              	
 891              	
 892              	 .thumb
 893 003e 3B61     	 str r3,[r7,#16]
 894              	.L43:
 895              	.LBE141:
 896              	.LBE140:
 897              	 .loc 1 1256 0 discriminator 2
 898 0040 FEE7     	 b .L43
 899              	.L42:
1257:../Dave/Generated/FREERTOS/tasks.c ****         configASSERT( uxSchedulerSuspended == 0 );
 900              	 .loc 1 1257 0
 901 0042 2A4B     	 ldr r3,.L52
 902 0044 1B68     	 ldr r3,[r3]
 903 0046 002B     	 cmp r3,#0
 904 0048 09D0     	 beq .L44
 905              	.LBB142:
 906              	.LBB143:
 907              	 .loc 2 197 0 discriminator 1
 908              	
 909 004a 4FF0FC03 	 mov r3,#252
 910 004e 83F31188 	 msr basepri,r3
 911 0052 BFF36F8F 	 isb 
 912 0056 BFF34F8F 	 dsb 
 913              	
 914              	
 915              	 .thumb
 916 005a FB60     	 str r3,[r7,#12]
 917              	.L45:
 918              	.LBE143:
 919              	.LBE142:
 920              	 .loc 1 1257 0 discriminator 3
 921 005c FEE7     	 b .L45
 922              	.L44:
1258:../Dave/Generated/FREERTOS/tasks.c **** 
1259:../Dave/Generated/FREERTOS/tasks.c ****         vTaskSuspendAll();
 923              	 .loc 1 1259 0
 924 005e FFF7FEFF 	 bl vTaskSuspendAll
 925              	.LBB144:
1260:../Dave/Generated/FREERTOS/tasks.c ****         {
1261:../Dave/Generated/FREERTOS/tasks.c ****             /* Minor optimisation.  The tick count cannot change in this
1262:../Dave/Generated/FREERTOS/tasks.c ****              * block. */
1263:../Dave/Generated/FREERTOS/tasks.c ****             const TickType_t xConstTickCount = xTickCount;
 926              	 .loc 1 1263 0
 927 0062 234B     	 ldr r3,.L52+4
 928 0064 1B68     	 ldr r3,[r3]
 929 0066 3B62     	 str r3,[r7,#32]
1264:../Dave/Generated/FREERTOS/tasks.c **** 
1265:../Dave/Generated/FREERTOS/tasks.c ****             /* Generate the tick time at which the task wants to wake. */
1266:../Dave/Generated/FREERTOS/tasks.c ****             xTimeToWake = *pxPreviousWakeTime + xTimeIncrement;
 930              	 .loc 1 1266 0
 931 0068 7B68     	 ldr r3,[r7,#4]
 932 006a 1A68     	 ldr r2,[r3]
 933 006c 3B68     	 ldr r3,[r7]
 934 006e 1344     	 add r3,r3,r2
 935 0070 FB61     	 str r3,[r7,#28]
1267:../Dave/Generated/FREERTOS/tasks.c **** 
1268:../Dave/Generated/FREERTOS/tasks.c ****             if( xConstTickCount < *pxPreviousWakeTime )
 936              	 .loc 1 1268 0
 937 0072 7B68     	 ldr r3,[r7,#4]
 938 0074 1A68     	 ldr r2,[r3]
 939 0076 3B6A     	 ldr r3,[r7,#32]
 940 0078 9A42     	 cmp r2,r3
 941 007a 0BD9     	 bls .L46
1269:../Dave/Generated/FREERTOS/tasks.c ****             {
1270:../Dave/Generated/FREERTOS/tasks.c ****                 /* The tick count has overflowed since this function was
1271:../Dave/Generated/FREERTOS/tasks.c ****                  * lasted called.  In this case the only time we should ever
1272:../Dave/Generated/FREERTOS/tasks.c ****                  * actually delay is if the wake time has also  overflowed,
1273:../Dave/Generated/FREERTOS/tasks.c ****                  * and the wake time is greater than the tick time.  When this
1274:../Dave/Generated/FREERTOS/tasks.c ****                  * is the case it is as if neither time had overflowed. */
1275:../Dave/Generated/FREERTOS/tasks.c ****                 if( ( xTimeToWake < *pxPreviousWakeTime ) && ( xTimeToWake > xConstTickCount ) )
 942              	 .loc 1 1275 0
 943 007c 7B68     	 ldr r3,[r7,#4]
 944 007e 1A68     	 ldr r2,[r3]
 945 0080 FB69     	 ldr r3,[r7,#28]
 946 0082 9A42     	 cmp r2,r3
 947 0084 11D9     	 bls .L47
 948              	 .loc 1 1275 0 is_stmt 0 discriminator 1
 949 0086 FA69     	 ldr r2,[r7,#28]
 950 0088 3B6A     	 ldr r3,[r7,#32]
 951 008a 9A42     	 cmp r2,r3
 952 008c 0DD9     	 bls .L47
1276:../Dave/Generated/FREERTOS/tasks.c ****                 {
1277:../Dave/Generated/FREERTOS/tasks.c ****                     xShouldDelay = pdTRUE;
 953              	 .loc 1 1277 0 is_stmt 1
 954 008e 0123     	 movs r3,#1
 955 0090 7B62     	 str r3,[r7,#36]
 956 0092 0AE0     	 b .L47
 957              	.L46:
1278:../Dave/Generated/FREERTOS/tasks.c ****                 }
1279:../Dave/Generated/FREERTOS/tasks.c ****                 else
1280:../Dave/Generated/FREERTOS/tasks.c ****                 {
1281:../Dave/Generated/FREERTOS/tasks.c ****                     mtCOVERAGE_TEST_MARKER();
1282:../Dave/Generated/FREERTOS/tasks.c ****                 }
1283:../Dave/Generated/FREERTOS/tasks.c ****             }
1284:../Dave/Generated/FREERTOS/tasks.c ****             else
1285:../Dave/Generated/FREERTOS/tasks.c ****             {
1286:../Dave/Generated/FREERTOS/tasks.c ****                 /* The tick time has not overflowed.  In this case we will
1287:../Dave/Generated/FREERTOS/tasks.c ****                  * delay if either the wake time has overflowed, and/or the
1288:../Dave/Generated/FREERTOS/tasks.c ****                  * tick time is less than the wake time. */
1289:../Dave/Generated/FREERTOS/tasks.c ****                 if( ( xTimeToWake < *pxPreviousWakeTime ) || ( xTimeToWake > xConstTickCount ) )
 958              	 .loc 1 1289 0
 959 0094 7B68     	 ldr r3,[r7,#4]
 960 0096 1A68     	 ldr r2,[r3]
 961 0098 FB69     	 ldr r3,[r7,#28]
 962 009a 9A42     	 cmp r2,r3
 963 009c 03D8     	 bhi .L48
 964              	 .loc 1 1289 0 is_stmt 0 discriminator 1
 965 009e FA69     	 ldr r2,[r7,#28]
 966 00a0 3B6A     	 ldr r3,[r7,#32]
 967 00a2 9A42     	 cmp r2,r3
 968 00a4 01D9     	 bls .L47
 969              	.L48:
1290:../Dave/Generated/FREERTOS/tasks.c ****                 {
1291:../Dave/Generated/FREERTOS/tasks.c ****                     xShouldDelay = pdTRUE;
 970              	 .loc 1 1291 0 is_stmt 1
 971 00a6 0123     	 movs r3,#1
 972 00a8 7B62     	 str r3,[r7,#36]
 973              	.L47:
1292:../Dave/Generated/FREERTOS/tasks.c ****                 }
1293:../Dave/Generated/FREERTOS/tasks.c ****                 else
1294:../Dave/Generated/FREERTOS/tasks.c ****                 {
1295:../Dave/Generated/FREERTOS/tasks.c ****                     mtCOVERAGE_TEST_MARKER();
1296:../Dave/Generated/FREERTOS/tasks.c ****                 }
1297:../Dave/Generated/FREERTOS/tasks.c ****             }
1298:../Dave/Generated/FREERTOS/tasks.c **** 
1299:../Dave/Generated/FREERTOS/tasks.c ****             /* Update the wake time ready for the next call. */
1300:../Dave/Generated/FREERTOS/tasks.c ****             *pxPreviousWakeTime = xTimeToWake;
 974              	 .loc 1 1300 0
 975 00aa 7B68     	 ldr r3,[r7,#4]
 976 00ac FA69     	 ldr r2,[r7,#28]
 977 00ae 1A60     	 str r2,[r3]
1301:../Dave/Generated/FREERTOS/tasks.c **** 
1302:../Dave/Generated/FREERTOS/tasks.c ****             if( xShouldDelay != pdFALSE )
 978              	 .loc 1 1302 0
 979 00b0 7B6A     	 ldr r3,[r7,#36]
 980 00b2 002B     	 cmp r3,#0
 981 00b4 06D0     	 beq .L49
1303:../Dave/Generated/FREERTOS/tasks.c ****             {
1304:../Dave/Generated/FREERTOS/tasks.c ****                 traceTASK_DELAY_UNTIL( xTimeToWake );
1305:../Dave/Generated/FREERTOS/tasks.c **** 
1306:../Dave/Generated/FREERTOS/tasks.c ****                 /* prvAddCurrentTaskToDelayedList() needs the block time, not
1307:../Dave/Generated/FREERTOS/tasks.c ****                  * the time to wake, so subtract the current tick count. */
1308:../Dave/Generated/FREERTOS/tasks.c ****                 prvAddCurrentTaskToDelayedList( xTimeToWake - xConstTickCount, pdFALSE );
 982              	 .loc 1 1308 0
 983 00b6 FA69     	 ldr r2,[r7,#28]
 984 00b8 3B6A     	 ldr r3,[r7,#32]
 985 00ba D31A     	 subs r3,r2,r3
 986 00bc 1846     	 mov r0,r3
 987 00be 0021     	 movs r1,#0
 988 00c0 FFF7FEFF 	 bl prvAddCurrentTaskToDelayedList
 989              	.L49:
 990              	.LBE144:
1309:../Dave/Generated/FREERTOS/tasks.c ****             }
1310:../Dave/Generated/FREERTOS/tasks.c ****             else
1311:../Dave/Generated/FREERTOS/tasks.c ****             {
1312:../Dave/Generated/FREERTOS/tasks.c ****                 mtCOVERAGE_TEST_MARKER();
1313:../Dave/Generated/FREERTOS/tasks.c ****             }
1314:../Dave/Generated/FREERTOS/tasks.c ****         }
1315:../Dave/Generated/FREERTOS/tasks.c ****         xAlreadyYielded = xTaskResumeAll();
 991              	 .loc 1 1315 0
 992 00c4 FFF7FEFF 	 bl xTaskResumeAll
 993 00c8 B861     	 str r0,[r7,#24]
1316:../Dave/Generated/FREERTOS/tasks.c **** 
1317:../Dave/Generated/FREERTOS/tasks.c ****         /* Force a reschedule if xTaskResumeAll has not already done so, we may
1318:../Dave/Generated/FREERTOS/tasks.c ****          * have put ourselves to sleep. */
1319:../Dave/Generated/FREERTOS/tasks.c ****         if( xAlreadyYielded == pdFALSE )
 994              	 .loc 1 1319 0
 995 00ca BB69     	 ldr r3,[r7,#24]
 996 00cc 002B     	 cmp r3,#0
 997 00ce 07D1     	 bne .L50
1320:../Dave/Generated/FREERTOS/tasks.c ****         {
1321:../Dave/Generated/FREERTOS/tasks.c ****             portYIELD_WITHIN_API();
 998              	 .loc 1 1321 0
 999 00d0 084B     	 ldr r3,.L52+8
 1000 00d2 4FF08052 	 mov r2,#268435456
 1001 00d6 1A60     	 str r2,[r3]
 1002              	
 1003 00d8 BFF34F8F 	 dsb
 1004              	
 1005              	
 1006 00dc BFF36F8F 	 isb
 1007              	
 1008              	 .thumb
 1009              	.L50:
1322:../Dave/Generated/FREERTOS/tasks.c ****         }
1323:../Dave/Generated/FREERTOS/tasks.c ****         else
1324:../Dave/Generated/FREERTOS/tasks.c ****         {
1325:../Dave/Generated/FREERTOS/tasks.c ****             mtCOVERAGE_TEST_MARKER();
1326:../Dave/Generated/FREERTOS/tasks.c ****         }
1327:../Dave/Generated/FREERTOS/tasks.c **** 
1328:../Dave/Generated/FREERTOS/tasks.c ****         return xShouldDelay;
 1010              	 .loc 1 1328 0
 1011 00e0 7B6A     	 ldr r3,[r7,#36]
1329:../Dave/Generated/FREERTOS/tasks.c ****     }
 1012              	 .loc 1 1329 0
 1013 00e2 1846     	 mov r0,r3
 1014 00e4 2837     	 adds r7,r7,#40
 1015              	.LCFI23:
 1016              	 .cfi_def_cfa_offset 8
 1017 00e6 BD46     	 mov sp,r7
 1018              	.LCFI24:
 1019              	 .cfi_def_cfa_register 13
 1020              	 
 1021 00e8 80BD     	 pop {r7,pc}
 1022              	.L53:
 1023 00ea 00BF     	 .align 2
 1024              	.L52:
 1025 00ec 00000000 	 .word uxSchedulerSuspended
 1026 00f0 00000000 	 .word xTickCount
 1027 00f4 04ED00E0 	 .word -536810236
 1028              	 .cfi_endproc
 1029              	.LFE142:
 1031              	 .section .text.vTaskDelay,"ax",%progbits
 1032              	 .align 2
 1033              	 .global vTaskDelay
 1034              	 .thumb
 1035              	 .thumb_func
 1037              	vTaskDelay:
 1038              	.LFB143:
1330:../Dave/Generated/FREERTOS/tasks.c **** 
1331:../Dave/Generated/FREERTOS/tasks.c **** #endif /* INCLUDE_xTaskDelayUntil */
1332:../Dave/Generated/FREERTOS/tasks.c **** /*-----------------------------------------------------------*/
1333:../Dave/Generated/FREERTOS/tasks.c **** 
1334:../Dave/Generated/FREERTOS/tasks.c **** #if ( INCLUDE_vTaskDelay == 1 )
1335:../Dave/Generated/FREERTOS/tasks.c **** 
1336:../Dave/Generated/FREERTOS/tasks.c ****     void vTaskDelay( const TickType_t xTicksToDelay )
1337:../Dave/Generated/FREERTOS/tasks.c ****     {
 1039              	 .loc 1 1337 0
 1040              	 .cfi_startproc
 1041              	 
 1042              	 
 1043 0000 80B5     	 push {r7,lr}
 1044              	.LCFI25:
 1045              	 .cfi_def_cfa_offset 8
 1046              	 .cfi_offset 7,-8
 1047              	 .cfi_offset 14,-4
 1048 0002 84B0     	 sub sp,sp,#16
 1049              	.LCFI26:
 1050              	 .cfi_def_cfa_offset 24
 1051 0004 00AF     	 add r7,sp,#0
 1052              	.LCFI27:
 1053              	 .cfi_def_cfa_register 7
 1054 0006 7860     	 str r0,[r7,#4]
1338:../Dave/Generated/FREERTOS/tasks.c ****         BaseType_t xAlreadyYielded = pdFALSE;
 1055              	 .loc 1 1338 0
 1056 0008 0023     	 movs r3,#0
 1057 000a FB60     	 str r3,[r7,#12]
1339:../Dave/Generated/FREERTOS/tasks.c **** 
1340:../Dave/Generated/FREERTOS/tasks.c ****         /* A delay time of zero just forces a reschedule. */
1341:../Dave/Generated/FREERTOS/tasks.c ****         if( xTicksToDelay > ( TickType_t ) 0U )
 1058              	 .loc 1 1341 0
 1059 000c 7B68     	 ldr r3,[r7,#4]
 1060 000e 002B     	 cmp r3,#0
 1061 0010 16D0     	 beq .L55
1342:../Dave/Generated/FREERTOS/tasks.c ****         {
1343:../Dave/Generated/FREERTOS/tasks.c ****             configASSERT( uxSchedulerSuspended == 0 );
 1062              	 .loc 1 1343 0
 1063 0012 124B     	 ldr r3,.L59
 1064 0014 1B68     	 ldr r3,[r3]
 1065 0016 002B     	 cmp r3,#0
 1066 0018 09D0     	 beq .L56
 1067              	.LBB145:
 1068              	.LBB146:
 1069              	 .loc 2 197 0 discriminator 1
 1070              	
 1071 001a 4FF0FC03 	 mov r3,#252
 1072 001e 83F31188 	 msr basepri,r3
 1073 0022 BFF36F8F 	 isb 
 1074 0026 BFF34F8F 	 dsb 
 1075              	
 1076              	
 1077              	 .thumb
 1078 002a BB60     	 str r3,[r7,#8]
 1079              	.L57:
 1080              	.LBE146:
 1081              	.LBE145:
 1082              	 .loc 1 1343 0 discriminator 1
 1083 002c FEE7     	 b .L57
 1084              	.L56:
1344:../Dave/Generated/FREERTOS/tasks.c ****             vTaskSuspendAll();
 1085              	 .loc 1 1344 0
 1086 002e FFF7FEFF 	 bl vTaskSuspendAll
1345:../Dave/Generated/FREERTOS/tasks.c ****             {
1346:../Dave/Generated/FREERTOS/tasks.c ****                 traceTASK_DELAY();
1347:../Dave/Generated/FREERTOS/tasks.c **** 
1348:../Dave/Generated/FREERTOS/tasks.c ****                 /* A task that is removed from the event list while the
1349:../Dave/Generated/FREERTOS/tasks.c ****                  * scheduler is suspended will not get placed in the ready
1350:../Dave/Generated/FREERTOS/tasks.c ****                  * list or removed from the blocked list until the scheduler
1351:../Dave/Generated/FREERTOS/tasks.c ****                  * is resumed.
1352:../Dave/Generated/FREERTOS/tasks.c ****                  *
1353:../Dave/Generated/FREERTOS/tasks.c ****                  * This task cannot be in an event list as it is the currently
1354:../Dave/Generated/FREERTOS/tasks.c ****                  * executing task. */
1355:../Dave/Generated/FREERTOS/tasks.c ****                 prvAddCurrentTaskToDelayedList( xTicksToDelay, pdFALSE );
 1087              	 .loc 1 1355 0
 1088 0032 7868     	 ldr r0,[r7,#4]
 1089 0034 0021     	 movs r1,#0
 1090 0036 FFF7FEFF 	 bl prvAddCurrentTaskToDelayedList
1356:../Dave/Generated/FREERTOS/tasks.c ****             }
1357:../Dave/Generated/FREERTOS/tasks.c ****             xAlreadyYielded = xTaskResumeAll();
 1091              	 .loc 1 1357 0
 1092 003a FFF7FEFF 	 bl xTaskResumeAll
 1093 003e F860     	 str r0,[r7,#12]
 1094              	.L55:
1358:../Dave/Generated/FREERTOS/tasks.c ****         }
1359:../Dave/Generated/FREERTOS/tasks.c ****         else
1360:../Dave/Generated/FREERTOS/tasks.c ****         {
1361:../Dave/Generated/FREERTOS/tasks.c ****             mtCOVERAGE_TEST_MARKER();
1362:../Dave/Generated/FREERTOS/tasks.c ****         }
1363:../Dave/Generated/FREERTOS/tasks.c **** 
1364:../Dave/Generated/FREERTOS/tasks.c ****         /* Force a reschedule if xTaskResumeAll has not already done so, we may
1365:../Dave/Generated/FREERTOS/tasks.c ****          * have put ourselves to sleep. */
1366:../Dave/Generated/FREERTOS/tasks.c ****         if( xAlreadyYielded == pdFALSE )
 1095              	 .loc 1 1366 0
 1096 0040 FB68     	 ldr r3,[r7,#12]
 1097 0042 002B     	 cmp r3,#0
 1098 0044 07D1     	 bne .L54
1367:../Dave/Generated/FREERTOS/tasks.c ****         {
1368:../Dave/Generated/FREERTOS/tasks.c ****             portYIELD_WITHIN_API();
 1099              	 .loc 1 1368 0
 1100 0046 064B     	 ldr r3,.L59+4
 1101 0048 4FF08052 	 mov r2,#268435456
 1102 004c 1A60     	 str r2,[r3]
 1103              	
 1104 004e BFF34F8F 	 dsb
 1105              	
 1106              	
 1107 0052 BFF36F8F 	 isb
 1108              	
 1109              	 .thumb
 1110              	.L54:
1369:../Dave/Generated/FREERTOS/tasks.c ****         }
1370:../Dave/Generated/FREERTOS/tasks.c ****         else
1371:../Dave/Generated/FREERTOS/tasks.c ****         {
1372:../Dave/Generated/FREERTOS/tasks.c ****             mtCOVERAGE_TEST_MARKER();
1373:../Dave/Generated/FREERTOS/tasks.c ****         }
1374:../Dave/Generated/FREERTOS/tasks.c ****     }
 1111              	 .loc 1 1374 0
 1112 0056 1037     	 adds r7,r7,#16
 1113              	.LCFI28:
 1114              	 .cfi_def_cfa_offset 8
 1115 0058 BD46     	 mov sp,r7
 1116              	.LCFI29:
 1117              	 .cfi_def_cfa_register 13
 1118              	 
 1119 005a 80BD     	 pop {r7,pc}
 1120              	.L60:
 1121              	 .align 2
 1122              	.L59:
 1123 005c 00000000 	 .word uxSchedulerSuspended
 1124 0060 04ED00E0 	 .word -536810236
 1125              	 .cfi_endproc
 1126              	.LFE143:
 1128              	 .section .text.eTaskGetState,"ax",%progbits
 1129              	 .align 2
 1130              	 .global eTaskGetState
 1131              	 .thumb
 1132              	 .thumb_func
 1134              	eTaskGetState:
 1135              	.LFB144:
1375:../Dave/Generated/FREERTOS/tasks.c **** 
1376:../Dave/Generated/FREERTOS/tasks.c **** #endif /* INCLUDE_vTaskDelay */
1377:../Dave/Generated/FREERTOS/tasks.c **** /*-----------------------------------------------------------*/
1378:../Dave/Generated/FREERTOS/tasks.c **** 
1379:../Dave/Generated/FREERTOS/tasks.c **** #if ( ( INCLUDE_eTaskGetState == 1 ) || ( configUSE_TRACE_FACILITY == 1 ) || ( INCLUDE_xTaskAbortDe
1380:../Dave/Generated/FREERTOS/tasks.c **** 
1381:../Dave/Generated/FREERTOS/tasks.c ****     eTaskState eTaskGetState( TaskHandle_t xTask )
1382:../Dave/Generated/FREERTOS/tasks.c ****     {
 1136              	 .loc 1 1382 0
 1137              	 .cfi_startproc
 1138              	 
 1139              	 
 1140 0000 80B5     	 push {r7,lr}
 1141              	.LCFI30:
 1142              	 .cfi_def_cfa_offset 8
 1143              	 .cfi_offset 7,-8
 1144              	 .cfi_offset 14,-4
 1145 0002 8AB0     	 sub sp,sp,#40
 1146              	.LCFI31:
 1147              	 .cfi_def_cfa_offset 48
 1148 0004 00AF     	 add r7,sp,#0
 1149              	.LCFI32:
 1150              	 .cfi_def_cfa_register 7
 1151 0006 7860     	 str r0,[r7,#4]
1383:../Dave/Generated/FREERTOS/tasks.c ****         eTaskState eReturn;
1384:../Dave/Generated/FREERTOS/tasks.c ****         List_t const * pxStateList, * pxDelayedList, * pxOverflowedDelayedList;
1385:../Dave/Generated/FREERTOS/tasks.c ****         const TCB_t * const pxTCB = xTask;
 1152              	 .loc 1 1385 0
 1153 0008 7B68     	 ldr r3,[r7,#4]
 1154 000a FB61     	 str r3,[r7,#28]
1386:../Dave/Generated/FREERTOS/tasks.c **** 
1387:../Dave/Generated/FREERTOS/tasks.c ****         configASSERT( pxTCB );
 1155              	 .loc 1 1387 0
 1156 000c FB69     	 ldr r3,[r7,#28]
 1157 000e 002B     	 cmp r3,#0
 1158 0010 09D1     	 bne .L62
 1159              	.LBB147:
 1160              	.LBB148:
 1161              	 .loc 2 197 0 discriminator 1
 1162              	
 1163 0012 4FF0FC03 	 mov r3,#252
 1164 0016 83F31188 	 msr basepri,r3
 1165 001a BFF36F8F 	 isb 
 1166 001e BFF34F8F 	 dsb 
 1167              	
 1168              	
 1169              	 .thumb
 1170 0022 FB60     	 str r3,[r7,#12]
 1171              	.L63:
 1172              	.LBE148:
 1173              	.LBE147:
 1174              	 .loc 1 1387 0 discriminator 1
 1175 0024 FEE7     	 b .L63
 1176              	.L62:
1388:../Dave/Generated/FREERTOS/tasks.c **** 
1389:../Dave/Generated/FREERTOS/tasks.c ****         if( pxTCB == pxCurrentTCB )
 1177              	 .loc 1 1389 0
 1178 0026 2D4B     	 ldr r3,.L78
 1179 0028 1B68     	 ldr r3,[r3]
 1180 002a FA69     	 ldr r2,[r7,#28]
 1181 002c 9A42     	 cmp r2,r3
 1182 002e 03D1     	 bne .L64
1390:../Dave/Generated/FREERTOS/tasks.c ****         {
1391:../Dave/Generated/FREERTOS/tasks.c ****             /* The task calling this function is querying its own state. */
1392:../Dave/Generated/FREERTOS/tasks.c ****             eReturn = eRunning;
 1183              	 .loc 1 1392 0
 1184 0030 0023     	 movs r3,#0
 1185 0032 87F82730 	 strb r3,[r7,#39]
 1186 0036 4BE0     	 b .L65
 1187              	.L64:
1393:../Dave/Generated/FREERTOS/tasks.c ****         }
1394:../Dave/Generated/FREERTOS/tasks.c ****         else
1395:../Dave/Generated/FREERTOS/tasks.c ****         {
1396:../Dave/Generated/FREERTOS/tasks.c ****             taskENTER_CRITICAL();
 1188              	 .loc 1 1396 0
 1189 0038 FFF7FEFF 	 bl vPortEnterCritical
1397:../Dave/Generated/FREERTOS/tasks.c ****             {
1398:../Dave/Generated/FREERTOS/tasks.c ****                 pxStateList = listLIST_ITEM_CONTAINER( &( pxTCB->xStateListItem ) );
 1190              	 .loc 1 1398 0
 1191 003c FB69     	 ldr r3,[r7,#28]
 1192 003e 5B69     	 ldr r3,[r3,#20]
 1193 0040 BB61     	 str r3,[r7,#24]
1399:../Dave/Generated/FREERTOS/tasks.c ****                 pxDelayedList = pxDelayedTaskList;
 1194              	 .loc 1 1399 0
 1195 0042 274B     	 ldr r3,.L78+4
 1196 0044 1B68     	 ldr r3,[r3]
 1197 0046 7B61     	 str r3,[r7,#20]
1400:../Dave/Generated/FREERTOS/tasks.c ****                 pxOverflowedDelayedList = pxOverflowDelayedTaskList;
 1198              	 .loc 1 1400 0
 1199 0048 264B     	 ldr r3,.L78+8
 1200 004a 1B68     	 ldr r3,[r3]
 1201 004c 3B61     	 str r3,[r7,#16]
1401:../Dave/Generated/FREERTOS/tasks.c ****             }
1402:../Dave/Generated/FREERTOS/tasks.c ****             taskEXIT_CRITICAL();
 1202              	 .loc 1 1402 0
 1203 004e FFF7FEFF 	 bl vPortExitCritical
1403:../Dave/Generated/FREERTOS/tasks.c **** 
1404:../Dave/Generated/FREERTOS/tasks.c ****             if( ( pxStateList == pxDelayedList ) || ( pxStateList == pxOverflowedDelayedList ) )
 1204              	 .loc 1 1404 0
 1205 0052 BA69     	 ldr r2,[r7,#24]
 1206 0054 7B69     	 ldr r3,[r7,#20]
 1207 0056 9A42     	 cmp r2,r3
 1208 0058 03D0     	 beq .L66
 1209              	 .loc 1 1404 0 is_stmt 0 discriminator 1
 1210 005a BA69     	 ldr r2,[r7,#24]
 1211 005c 3B69     	 ldr r3,[r7,#16]
 1212 005e 9A42     	 cmp r2,r3
 1213 0060 03D1     	 bne .L67
 1214              	.L66:
1405:../Dave/Generated/FREERTOS/tasks.c ****             {
1406:../Dave/Generated/FREERTOS/tasks.c ****                 /* The task being queried is referenced from one of the Blocked
1407:../Dave/Generated/FREERTOS/tasks.c ****                  * lists. */
1408:../Dave/Generated/FREERTOS/tasks.c ****                 eReturn = eBlocked;
 1215              	 .loc 1 1408 0 is_stmt 1
 1216 0062 0223     	 movs r3,#2
 1217 0064 87F82730 	 strb r3,[r7,#39]
 1218 0068 32E0     	 b .L65
 1219              	.L67:
1409:../Dave/Generated/FREERTOS/tasks.c ****             }
1410:../Dave/Generated/FREERTOS/tasks.c **** 
1411:../Dave/Generated/FREERTOS/tasks.c ****             #if ( INCLUDE_vTaskSuspend == 1 )
1412:../Dave/Generated/FREERTOS/tasks.c ****                 else if( pxStateList == &xSuspendedTaskList )
 1220              	 .loc 1 1412 0
 1221 006a BB69     	 ldr r3,[r7,#24]
 1222 006c 1E4A     	 ldr r2,.L78+12
 1223 006e 9342     	 cmp r3,r2
 1224 0070 20D1     	 bne .L68
1413:../Dave/Generated/FREERTOS/tasks.c ****                 {
1414:../Dave/Generated/FREERTOS/tasks.c ****                     /* The task being queried is referenced from the suspended
1415:../Dave/Generated/FREERTOS/tasks.c ****                      * list.  Is it genuinely suspended or is it blocked
1416:../Dave/Generated/FREERTOS/tasks.c ****                      * indefinitely? */
1417:../Dave/Generated/FREERTOS/tasks.c ****                     if( listLIST_ITEM_CONTAINER( &( pxTCB->xEventListItem ) ) == NULL )
 1225              	 .loc 1 1417 0
 1226 0072 FB69     	 ldr r3,[r7,#28]
 1227 0074 9B6A     	 ldr r3,[r3,#40]
 1228 0076 002B     	 cmp r3,#0
 1229 0078 18D1     	 bne .L69
 1230              	.LBB149:
1418:../Dave/Generated/FREERTOS/tasks.c ****                     {
1419:../Dave/Generated/FREERTOS/tasks.c ****                         #if ( configUSE_TASK_NOTIFICATIONS == 1 )
1420:../Dave/Generated/FREERTOS/tasks.c ****                             {
1421:../Dave/Generated/FREERTOS/tasks.c ****                                 BaseType_t x;
1422:../Dave/Generated/FREERTOS/tasks.c **** 
1423:../Dave/Generated/FREERTOS/tasks.c ****                                 /* The task does not appear on the event list item of
1424:../Dave/Generated/FREERTOS/tasks.c ****                                  * and of the RTOS objects, but could still be in the
1425:../Dave/Generated/FREERTOS/tasks.c ****                                  * blocked state if it is waiting on its notification
1426:../Dave/Generated/FREERTOS/tasks.c ****                                  * rather than waiting on an object.  If not, is
1427:../Dave/Generated/FREERTOS/tasks.c ****                                  * suspended. */
1428:../Dave/Generated/FREERTOS/tasks.c ****                                 eReturn = eSuspended;
 1231              	 .loc 1 1428 0
 1232 007a 0323     	 movs r3,#3
 1233 007c 87F82730 	 strb r3,[r7,#39]
1429:../Dave/Generated/FREERTOS/tasks.c **** 
1430:../Dave/Generated/FREERTOS/tasks.c ****                                 for( x = 0; x < configTASK_NOTIFICATION_ARRAY_ENTRIES; x++ )
 1234              	 .loc 1 1430 0
 1235 0080 0023     	 movs r3,#0
 1236 0082 3B62     	 str r3,[r7,#32]
 1237 0084 0EE0     	 b .L70
 1238              	.L73:
1431:../Dave/Generated/FREERTOS/tasks.c ****                                 {
1432:../Dave/Generated/FREERTOS/tasks.c ****                                     if( pxTCB->ucNotifyState[ x ] == taskWAITING_NOTIFICATION )
 1239              	 .loc 1 1432 0
 1240 0086 FA69     	 ldr r2,[r7,#28]
 1241 0088 3B6A     	 ldr r3,[r7,#32]
 1242 008a 1344     	 add r3,r3,r2
 1243 008c 6833     	 adds r3,r3,#104
 1244 008e 1B79     	 ldrb r3,[r3,#4]
 1245 0090 DBB2     	 uxtb r3,r3
 1246 0092 012B     	 cmp r3,#1
 1247 0094 03D1     	 bne .L71
1433:../Dave/Generated/FREERTOS/tasks.c ****                                     {
1434:../Dave/Generated/FREERTOS/tasks.c ****                                         eReturn = eBlocked;
 1248              	 .loc 1 1434 0
 1249 0096 0223     	 movs r3,#2
 1250 0098 87F82730 	 strb r3,[r7,#39]
1435:../Dave/Generated/FREERTOS/tasks.c ****                                         break;
 1251              	 .loc 1 1435 0
 1252 009c 05E0     	 b .L72
 1253              	.L71:
1430:../Dave/Generated/FREERTOS/tasks.c ****                                 {
 1254              	 .loc 1 1430 0 discriminator 2
 1255 009e 3B6A     	 ldr r3,[r7,#32]
 1256 00a0 0133     	 adds r3,r3,#1
 1257 00a2 3B62     	 str r3,[r7,#32]
 1258              	.L70:
1430:../Dave/Generated/FREERTOS/tasks.c ****                                 {
 1259              	 .loc 1 1430 0 is_stmt 0 discriminator 1
 1260 00a4 3B6A     	 ldr r3,[r7,#32]
 1261 00a6 002B     	 cmp r3,#0
 1262 00a8 EDDD     	 ble .L73
 1263              	.L72:
 1264              	.LBE149:
 1265 00aa 11E0     	 b .L65
 1266              	.L69:
1436:../Dave/Generated/FREERTOS/tasks.c ****                                     }
1437:../Dave/Generated/FREERTOS/tasks.c ****                                 }
1438:../Dave/Generated/FREERTOS/tasks.c ****                             }
1439:../Dave/Generated/FREERTOS/tasks.c ****                         #else /* if ( configUSE_TASK_NOTIFICATIONS == 1 ) */
1440:../Dave/Generated/FREERTOS/tasks.c ****                             {
1441:../Dave/Generated/FREERTOS/tasks.c ****                                 eReturn = eSuspended;
1442:../Dave/Generated/FREERTOS/tasks.c ****                             }
1443:../Dave/Generated/FREERTOS/tasks.c ****                         #endif /* if ( configUSE_TASK_NOTIFICATIONS == 1 ) */
1444:../Dave/Generated/FREERTOS/tasks.c ****                     }
1445:../Dave/Generated/FREERTOS/tasks.c ****                     else
1446:../Dave/Generated/FREERTOS/tasks.c ****                     {
1447:../Dave/Generated/FREERTOS/tasks.c ****                         eReturn = eBlocked;
 1267              	 .loc 1 1447 0 is_stmt 1
 1268 00ac 0223     	 movs r3,#2
 1269 00ae 87F82730 	 strb r3,[r7,#39]
 1270 00b2 0DE0     	 b .L65
 1271              	.L68:
1448:../Dave/Generated/FREERTOS/tasks.c ****                     }
1449:../Dave/Generated/FREERTOS/tasks.c ****                 }
1450:../Dave/Generated/FREERTOS/tasks.c ****             #endif /* if ( INCLUDE_vTaskSuspend == 1 ) */
1451:../Dave/Generated/FREERTOS/tasks.c **** 
1452:../Dave/Generated/FREERTOS/tasks.c ****             #if ( INCLUDE_vTaskDelete == 1 )
1453:../Dave/Generated/FREERTOS/tasks.c ****                 else if( ( pxStateList == &xTasksWaitingTermination ) || ( pxStateList == NULL ) )
 1272              	 .loc 1 1453 0
 1273 00b4 BB69     	 ldr r3,[r7,#24]
 1274 00b6 0D4A     	 ldr r2,.L78+16
 1275 00b8 9342     	 cmp r3,r2
 1276 00ba 02D0     	 beq .L75
 1277              	 .loc 1 1453 0 is_stmt 0 discriminator 1
 1278 00bc BB69     	 ldr r3,[r7,#24]
 1279 00be 002B     	 cmp r3,#0
 1280 00c0 03D1     	 bne .L76
 1281              	.L75:
1454:../Dave/Generated/FREERTOS/tasks.c ****                 {
1455:../Dave/Generated/FREERTOS/tasks.c ****                     /* The task being queried is referenced from the deleted
1456:../Dave/Generated/FREERTOS/tasks.c ****                      * tasks list, or it is not referenced from any lists at
1457:../Dave/Generated/FREERTOS/tasks.c ****                      * all. */
1458:../Dave/Generated/FREERTOS/tasks.c ****                     eReturn = eDeleted;
 1282              	 .loc 1 1458 0 is_stmt 1
 1283 00c2 0423     	 movs r3,#4
 1284 00c4 87F82730 	 strb r3,[r7,#39]
 1285 00c8 02E0     	 b .L65
 1286              	.L76:
1459:../Dave/Generated/FREERTOS/tasks.c ****                 }
1460:../Dave/Generated/FREERTOS/tasks.c ****             #endif
1461:../Dave/Generated/FREERTOS/tasks.c **** 
1462:../Dave/Generated/FREERTOS/tasks.c ****             else /*lint !e525 Negative indentation is intended to make use of pre-processor clearer
1463:../Dave/Generated/FREERTOS/tasks.c ****             {
1464:../Dave/Generated/FREERTOS/tasks.c ****                 /* If the task is not in any other state, it must be in the
1465:../Dave/Generated/FREERTOS/tasks.c ****                  * Ready (including pending ready) state. */
1466:../Dave/Generated/FREERTOS/tasks.c ****                 eReturn = eReady;
 1287              	 .loc 1 1466 0
 1288 00ca 0123     	 movs r3,#1
 1289 00cc 87F82730 	 strb r3,[r7,#39]
 1290              	.L65:
1467:../Dave/Generated/FREERTOS/tasks.c ****             }
1468:../Dave/Generated/FREERTOS/tasks.c ****         }
1469:../Dave/Generated/FREERTOS/tasks.c **** 
1470:../Dave/Generated/FREERTOS/tasks.c ****         return eReturn;
 1291              	 .loc 1 1470 0
 1292 00d0 97F82730 	 ldrb r3,[r7,#39]
1471:../Dave/Generated/FREERTOS/tasks.c ****     } /*lint !e818 xTask cannot be a pointer to const because it is a typedef. */
 1293              	 .loc 1 1471 0
 1294 00d4 1846     	 mov r0,r3
 1295 00d6 2837     	 adds r7,r7,#40
 1296              	.LCFI33:
 1297              	 .cfi_def_cfa_offset 8
 1298 00d8 BD46     	 mov sp,r7
 1299              	.LCFI34:
 1300              	 .cfi_def_cfa_register 13
 1301              	 
 1302 00da 80BD     	 pop {r7,pc}
 1303              	.L79:
 1304              	 .align 2
 1305              	.L78:
 1306 00dc 00000000 	 .word pxCurrentTCB
 1307 00e0 00000000 	 .word pxDelayedTaskList
 1308 00e4 00000000 	 .word pxOverflowDelayedTaskList
 1309 00e8 00000000 	 .word xSuspendedTaskList
 1310 00ec 00000000 	 .word xTasksWaitingTermination
 1311              	 .cfi_endproc
 1312              	.LFE144:
 1314              	 .section .text.uxTaskPriorityGet,"ax",%progbits
 1315              	 .align 2
 1316              	 .global uxTaskPriorityGet
 1317              	 .thumb
 1318              	 .thumb_func
 1320              	uxTaskPriorityGet:
 1321              	.LFB145:
1472:../Dave/Generated/FREERTOS/tasks.c **** 
1473:../Dave/Generated/FREERTOS/tasks.c **** #endif /* INCLUDE_eTaskGetState */
1474:../Dave/Generated/FREERTOS/tasks.c **** /*-----------------------------------------------------------*/
1475:../Dave/Generated/FREERTOS/tasks.c **** 
1476:../Dave/Generated/FREERTOS/tasks.c **** #if ( INCLUDE_uxTaskPriorityGet == 1 )
1477:../Dave/Generated/FREERTOS/tasks.c **** 
1478:../Dave/Generated/FREERTOS/tasks.c ****     UBaseType_t uxTaskPriorityGet( const TaskHandle_t xTask )
1479:../Dave/Generated/FREERTOS/tasks.c ****     {
 1322              	 .loc 1 1479 0
 1323              	 .cfi_startproc
 1324              	 
 1325              	 
 1326 0000 80B5     	 push {r7,lr}
 1327              	.LCFI35:
 1328              	 .cfi_def_cfa_offset 8
 1329              	 .cfi_offset 7,-8
 1330              	 .cfi_offset 14,-4
 1331 0002 84B0     	 sub sp,sp,#16
 1332              	.LCFI36:
 1333              	 .cfi_def_cfa_offset 24
 1334 0004 00AF     	 add r7,sp,#0
 1335              	.LCFI37:
 1336              	 .cfi_def_cfa_register 7
 1337 0006 7860     	 str r0,[r7,#4]
1480:../Dave/Generated/FREERTOS/tasks.c ****         TCB_t const * pxTCB;
1481:../Dave/Generated/FREERTOS/tasks.c ****         UBaseType_t uxReturn;
1482:../Dave/Generated/FREERTOS/tasks.c **** 
1483:../Dave/Generated/FREERTOS/tasks.c ****         taskENTER_CRITICAL();
 1338              	 .loc 1 1483 0
 1339 0008 FFF7FEFF 	 bl vPortEnterCritical
1484:../Dave/Generated/FREERTOS/tasks.c ****         {
1485:../Dave/Generated/FREERTOS/tasks.c ****             /* If null is passed in here then it is the priority of the task
1486:../Dave/Generated/FREERTOS/tasks.c ****              * that called uxTaskPriorityGet() that is being queried. */
1487:../Dave/Generated/FREERTOS/tasks.c ****             pxTCB = prvGetTCBFromHandle( xTask );
 1340              	 .loc 1 1487 0
 1341 000c 7B68     	 ldr r3,[r7,#4]
 1342 000e 002B     	 cmp r3,#0
 1343 0010 02D1     	 bne .L81
 1344              	 .loc 1 1487 0 is_stmt 0 discriminator 1
 1345 0012 074B     	 ldr r3,.L84
 1346 0014 1B68     	 ldr r3,[r3]
 1347 0016 00E0     	 b .L82
 1348              	.L81:
 1349              	 .loc 1 1487 0 discriminator 2
 1350 0018 7B68     	 ldr r3,[r7,#4]
 1351              	.L82:
 1352              	 .loc 1 1487 0 discriminator 4
 1353 001a FB60     	 str r3,[r7,#12]
1488:../Dave/Generated/FREERTOS/tasks.c ****             uxReturn = pxTCB->uxPriority;
 1354              	 .loc 1 1488 0 is_stmt 1 discriminator 4
 1355 001c FB68     	 ldr r3,[r7,#12]
 1356 001e DB6A     	 ldr r3,[r3,#44]
 1357 0020 BB60     	 str r3,[r7,#8]
1489:../Dave/Generated/FREERTOS/tasks.c ****         }
1490:../Dave/Generated/FREERTOS/tasks.c ****         taskEXIT_CRITICAL();
 1358              	 .loc 1 1490 0 discriminator 4
 1359 0022 FFF7FEFF 	 bl vPortExitCritical
1491:../Dave/Generated/FREERTOS/tasks.c **** 
1492:../Dave/Generated/FREERTOS/tasks.c ****         return uxReturn;
 1360              	 .loc 1 1492 0 discriminator 4
 1361 0026 BB68     	 ldr r3,[r7,#8]
1493:../Dave/Generated/FREERTOS/tasks.c ****     }
 1362              	 .loc 1 1493 0 discriminator 4
 1363 0028 1846     	 mov r0,r3
 1364 002a 1037     	 adds r7,r7,#16
 1365              	.LCFI38:
 1366              	 .cfi_def_cfa_offset 8
 1367 002c BD46     	 mov sp,r7
 1368              	.LCFI39:
 1369              	 .cfi_def_cfa_register 13
 1370              	 
 1371 002e 80BD     	 pop {r7,pc}
 1372              	.L85:
 1373              	 .align 2
 1374              	.L84:
 1375 0030 00000000 	 .word pxCurrentTCB
 1376              	 .cfi_endproc
 1377              	.LFE145:
 1379              	 .section .text.uxTaskPriorityGetFromISR,"ax",%progbits
 1380              	 .align 2
 1381              	 .global uxTaskPriorityGetFromISR
 1382              	 .thumb
 1383              	 .thumb_func
 1385              	uxTaskPriorityGetFromISR:
 1386              	.LFB146:
1494:../Dave/Generated/FREERTOS/tasks.c **** 
1495:../Dave/Generated/FREERTOS/tasks.c **** #endif /* INCLUDE_uxTaskPriorityGet */
1496:../Dave/Generated/FREERTOS/tasks.c **** /*-----------------------------------------------------------*/
1497:../Dave/Generated/FREERTOS/tasks.c **** 
1498:../Dave/Generated/FREERTOS/tasks.c **** #if ( INCLUDE_uxTaskPriorityGet == 1 )
1499:../Dave/Generated/FREERTOS/tasks.c **** 
1500:../Dave/Generated/FREERTOS/tasks.c ****     UBaseType_t uxTaskPriorityGetFromISR( const TaskHandle_t xTask )
1501:../Dave/Generated/FREERTOS/tasks.c ****     {
 1387              	 .loc 1 1501 0
 1388              	 .cfi_startproc
 1389              	 
 1390              	 
 1391 0000 80B5     	 push {r7,lr}
 1392              	.LCFI40:
 1393              	 .cfi_def_cfa_offset 8
 1394              	 .cfi_offset 7,-8
 1395              	 .cfi_offset 14,-4
 1396 0002 88B0     	 sub sp,sp,#32
 1397              	.LCFI41:
 1398              	 .cfi_def_cfa_offset 40
 1399 0004 00AF     	 add r7,sp,#0
 1400              	.LCFI42:
 1401              	 .cfi_def_cfa_register 7
 1402 0006 7860     	 str r0,[r7,#4]
1502:../Dave/Generated/FREERTOS/tasks.c ****         TCB_t const * pxTCB;
1503:../Dave/Generated/FREERTOS/tasks.c ****         UBaseType_t uxReturn, uxSavedInterruptState;
1504:../Dave/Generated/FREERTOS/tasks.c **** 
1505:../Dave/Generated/FREERTOS/tasks.c ****         /* RTOS ports that support interrupt nesting have the concept of a
1506:../Dave/Generated/FREERTOS/tasks.c ****          * maximum  system call (or maximum API call) interrupt priority.
1507:../Dave/Generated/FREERTOS/tasks.c ****          * Interrupts that are  above the maximum system call priority are keep
1508:../Dave/Generated/FREERTOS/tasks.c ****          * permanently enabled, even when the RTOS kernel is in a critical section,
1509:../Dave/Generated/FREERTOS/tasks.c ****          * but cannot make any calls to FreeRTOS API functions.  If configASSERT()
1510:../Dave/Generated/FREERTOS/tasks.c ****          * is defined in FreeRTOSConfig.h then
1511:../Dave/Generated/FREERTOS/tasks.c ****          * portASSERT_IF_INTERRUPT_PRIORITY_INVALID() will result in an assertion
1512:../Dave/Generated/FREERTOS/tasks.c ****          * failure if a FreeRTOS API function is called from an interrupt that has
1513:../Dave/Generated/FREERTOS/tasks.c ****          * been assigned a priority above the configured maximum system call
1514:../Dave/Generated/FREERTOS/tasks.c ****          * priority.  Only FreeRTOS functions that end in FromISR can be called
1515:../Dave/Generated/FREERTOS/tasks.c ****          * from interrupts  that have been assigned a priority at or (logically)
1516:../Dave/Generated/FREERTOS/tasks.c ****          * below the maximum system call interrupt priority.  FreeRTOS maintains a
1517:../Dave/Generated/FREERTOS/tasks.c ****          * separate interrupt safe API to ensure interrupt entry is as fast and as
1518:../Dave/Generated/FREERTOS/tasks.c ****          * simple as possible.  More information (albeit Cortex-M specific) is
1519:../Dave/Generated/FREERTOS/tasks.c ****          * provided on the following link:
1520:../Dave/Generated/FREERTOS/tasks.c ****          * https://www.FreeRTOS.org/RTOS-Cortex-M3-M4.html */
1521:../Dave/Generated/FREERTOS/tasks.c ****         portASSERT_IF_INTERRUPT_PRIORITY_INVALID();
 1403              	 .loc 1 1521 0
 1404 0008 FFF7FEFF 	 bl vPortValidateInterruptPriority
 1405              	.LBB150:
 1406              	.LBB151:
 198:C:/Users/Yoshi/Documents/GitHub/Software/01_jrg/06_XMC/ADC_RTOS/Dave/Generated/FREERTOS/portable/GCC\portmacro.h ****         (
 199:C:/Users/Yoshi/Documents/GitHub/Software/01_jrg/06_XMC/ADC_RTOS/Dave/Generated/FREERTOS/portable/GCC\portmacro.h ****             "	mov %0, %1												\n"\
 200:C:/Users/Yoshi/Documents/GitHub/Software/01_jrg/06_XMC/ADC_RTOS/Dave/Generated/FREERTOS/portable/GCC\portmacro.h ****             "	msr basepri, %0											\n"\
 201:C:/Users/Yoshi/Documents/GitHub/Software/01_jrg/06_XMC/ADC_RTOS/Dave/Generated/FREERTOS/portable/GCC\portmacro.h ****             "	isb														\n"\
 202:C:/Users/Yoshi/Documents/GitHub/Software/01_jrg/06_XMC/ADC_RTOS/Dave/Generated/FREERTOS/portable/GCC\portmacro.h ****             "	dsb														\n"\
 203:C:/Users/Yoshi/Documents/GitHub/Software/01_jrg/06_XMC/ADC_RTOS/Dave/Generated/FREERTOS/portable/GCC\portmacro.h ****             : "=r" ( ulNewBASEPRI ) : "i" ( configMAX_SYSCALL_INTERRUPT_PRIORITY ) : "memory"
 204:C:/Users/Yoshi/Documents/GitHub/Software/01_jrg/06_XMC/ADC_RTOS/Dave/Generated/FREERTOS/portable/GCC\portmacro.h ****         );
 205:C:/Users/Yoshi/Documents/GitHub/Software/01_jrg/06_XMC/ADC_RTOS/Dave/Generated/FREERTOS/portable/GCC\portmacro.h ****     }
 206:C:/Users/Yoshi/Documents/GitHub/Software/01_jrg/06_XMC/ADC_RTOS/Dave/Generated/FREERTOS/portable/GCC\portmacro.h **** 
 207:C:/Users/Yoshi/Documents/GitHub/Software/01_jrg/06_XMC/ADC_RTOS/Dave/Generated/FREERTOS/portable/GCC\portmacro.h **** /*-----------------------------------------------------------*/
 208:C:/Users/Yoshi/Documents/GitHub/Software/01_jrg/06_XMC/ADC_RTOS/Dave/Generated/FREERTOS/portable/GCC\portmacro.h **** 
 209:C:/Users/Yoshi/Documents/GitHub/Software/01_jrg/06_XMC/ADC_RTOS/Dave/Generated/FREERTOS/portable/GCC\portmacro.h ****     portFORCE_INLINE static uint32_t ulPortRaiseBASEPRI( void )
 210:C:/Users/Yoshi/Documents/GitHub/Software/01_jrg/06_XMC/ADC_RTOS/Dave/Generated/FREERTOS/portable/GCC\portmacro.h ****     {
 211:C:/Users/Yoshi/Documents/GitHub/Software/01_jrg/06_XMC/ADC_RTOS/Dave/Generated/FREERTOS/portable/GCC\portmacro.h ****         uint32_t ulOriginalBASEPRI, ulNewBASEPRI;
 212:C:/Users/Yoshi/Documents/GitHub/Software/01_jrg/06_XMC/ADC_RTOS/Dave/Generated/FREERTOS/portable/GCC\portmacro.h **** 
 213:C:/Users/Yoshi/Documents/GitHub/Software/01_jrg/06_XMC/ADC_RTOS/Dave/Generated/FREERTOS/portable/GCC\portmacro.h ****         __asm volatile
 1407              	 .loc 2 213 0
 1408              	
 1409 000c EFF31182 	 mrs r2,basepri
 1410 0010 4FF0FC03 	 mov r3,#252
 1411 0014 83F31188 	 msr basepri,r3
 1412 0018 BFF36F8F 	 isb 
 1413 001c BFF34F8F 	 dsb 
 1414              	
 1415              	
 1416              	 .thumb
 1417 0020 3A61     	 str r2,[r7,#16]
 1418 0022 FB60     	 str r3,[r7,#12]
 214:C:/Users/Yoshi/Documents/GitHub/Software/01_jrg/06_XMC/ADC_RTOS/Dave/Generated/FREERTOS/portable/GCC\portmacro.h ****         (
 215:C:/Users/Yoshi/Documents/GitHub/Software/01_jrg/06_XMC/ADC_RTOS/Dave/Generated/FREERTOS/portable/GCC\portmacro.h ****             "	mrs %0, basepri											\n"\
 216:C:/Users/Yoshi/Documents/GitHub/Software/01_jrg/06_XMC/ADC_RTOS/Dave/Generated/FREERTOS/portable/GCC\portmacro.h ****             "	mov %1, %2												\n"\
 217:C:/Users/Yoshi/Documents/GitHub/Software/01_jrg/06_XMC/ADC_RTOS/Dave/Generated/FREERTOS/portable/GCC\portmacro.h ****             "	msr basepri, %1											\n"\
 218:C:/Users/Yoshi/Documents/GitHub/Software/01_jrg/06_XMC/ADC_RTOS/Dave/Generated/FREERTOS/portable/GCC\portmacro.h ****             "	isb														\n"\
 219:C:/Users/Yoshi/Documents/GitHub/Software/01_jrg/06_XMC/ADC_RTOS/Dave/Generated/FREERTOS/portable/GCC\portmacro.h ****             "	dsb														\n"\
 220:C:/Users/Yoshi/Documents/GitHub/Software/01_jrg/06_XMC/ADC_RTOS/Dave/Generated/FREERTOS/portable/GCC\portmacro.h ****             : "=r" ( ulOriginalBASEPRI ), "=r" ( ulNewBASEPRI ) : "i" ( configMAX_SYSCALL_INTERRUPT
 221:C:/Users/Yoshi/Documents/GitHub/Software/01_jrg/06_XMC/ADC_RTOS/Dave/Generated/FREERTOS/portable/GCC\portmacro.h ****         );
 222:C:/Users/Yoshi/Documents/GitHub/Software/01_jrg/06_XMC/ADC_RTOS/Dave/Generated/FREERTOS/portable/GCC\portmacro.h **** 
 223:C:/Users/Yoshi/Documents/GitHub/Software/01_jrg/06_XMC/ADC_RTOS/Dave/Generated/FREERTOS/portable/GCC\portmacro.h ****         /* This return will not be reached but is necessary to prevent compiler
 224:C:/Users/Yoshi/Documents/GitHub/Software/01_jrg/06_XMC/ADC_RTOS/Dave/Generated/FREERTOS/portable/GCC\portmacro.h ****          * warnings. */
 225:C:/Users/Yoshi/Documents/GitHub/Software/01_jrg/06_XMC/ADC_RTOS/Dave/Generated/FREERTOS/portable/GCC\portmacro.h ****         return ulOriginalBASEPRI;
 1419              	 .loc 2 225 0
 1420 0024 3B69     	 ldr r3,[r7,#16]
 1421              	.LBE151:
 1422              	.LBE150:
1522:../Dave/Generated/FREERTOS/tasks.c **** 
1523:../Dave/Generated/FREERTOS/tasks.c ****         uxSavedInterruptState = portSET_INTERRUPT_MASK_FROM_ISR();
 1423              	 .loc 1 1523 0
 1424 0026 FB61     	 str r3,[r7,#28]
1524:../Dave/Generated/FREERTOS/tasks.c ****         {
1525:../Dave/Generated/FREERTOS/tasks.c ****             /* If null is passed in here then it is the priority of the calling
1526:../Dave/Generated/FREERTOS/tasks.c ****              * task that is being queried. */
1527:../Dave/Generated/FREERTOS/tasks.c ****             pxTCB = prvGetTCBFromHandle( xTask );
 1425              	 .loc 1 1527 0
 1426 0028 7B68     	 ldr r3,[r7,#4]
 1427 002a 002B     	 cmp r3,#0
 1428 002c 02D1     	 bne .L88
 1429              	 .loc 1 1527 0 is_stmt 0 discriminator 1
 1430 002e 094B     	 ldr r3,.L91
 1431 0030 1B68     	 ldr r3,[r3]
 1432 0032 00E0     	 b .L89
 1433              	.L88:
 1434              	 .loc 1 1527 0 discriminator 2
 1435 0034 7B68     	 ldr r3,[r7,#4]
 1436              	.L89:
 1437              	 .loc 1 1527 0 discriminator 4
 1438 0036 BB61     	 str r3,[r7,#24]
1528:../Dave/Generated/FREERTOS/tasks.c ****             uxReturn = pxTCB->uxPriority;
 1439              	 .loc 1 1528 0 is_stmt 1 discriminator 4
 1440 0038 BB69     	 ldr r3,[r7,#24]
 1441 003a DB6A     	 ldr r3,[r3,#44]
 1442 003c 7B61     	 str r3,[r7,#20]
 1443 003e FB69     	 ldr r3,[r7,#28]
 1444 0040 BB60     	 str r3,[r7,#8]
 1445              	.LBB152:
 1446              	.LBB153:
 226:C:/Users/Yoshi/Documents/GitHub/Software/01_jrg/06_XMC/ADC_RTOS/Dave/Generated/FREERTOS/portable/GCC\portmacro.h ****     }
 227:C:/Users/Yoshi/Documents/GitHub/Software/01_jrg/06_XMC/ADC_RTOS/Dave/Generated/FREERTOS/portable/GCC\portmacro.h **** /*-----------------------------------------------------------*/
 228:C:/Users/Yoshi/Documents/GitHub/Software/01_jrg/06_XMC/ADC_RTOS/Dave/Generated/FREERTOS/portable/GCC\portmacro.h **** 
 229:C:/Users/Yoshi/Documents/GitHub/Software/01_jrg/06_XMC/ADC_RTOS/Dave/Generated/FREERTOS/portable/GCC\portmacro.h ****     portFORCE_INLINE static void vPortSetBASEPRI( uint32_t ulNewMaskValue )
 230:C:/Users/Yoshi/Documents/GitHub/Software/01_jrg/06_XMC/ADC_RTOS/Dave/Generated/FREERTOS/portable/GCC\portmacro.h ****     {
 231:C:/Users/Yoshi/Documents/GitHub/Software/01_jrg/06_XMC/ADC_RTOS/Dave/Generated/FREERTOS/portable/GCC\portmacro.h ****         __asm volatile
 1447              	 .loc 2 231 0 discriminator 4
 1448 0042 BB68     	 ldr r3,[r7,#8]
 1449              	
 1450 0044 83F31188 	 msr basepri,r3
 1451              	
 1452              	 .thumb
 1453              	.LBE153:
 1454              	.LBE152:
1529:../Dave/Generated/FREERTOS/tasks.c ****         }
1530:../Dave/Generated/FREERTOS/tasks.c ****         portCLEAR_INTERRUPT_MASK_FROM_ISR( uxSavedInterruptState );
1531:../Dave/Generated/FREERTOS/tasks.c **** 
1532:../Dave/Generated/FREERTOS/tasks.c ****         return uxReturn;
 1455              	 .loc 1 1532 0 discriminator 4
 1456 0048 7B69     	 ldr r3,[r7,#20]
1533:../Dave/Generated/FREERTOS/tasks.c ****     }
 1457              	 .loc 1 1533 0 discriminator 4
 1458 004a 1846     	 mov r0,r3
 1459 004c 2037     	 adds r7,r7,#32
 1460              	.LCFI43:
 1461              	 .cfi_def_cfa_offset 8
 1462 004e BD46     	 mov sp,r7
 1463              	.LCFI44:
 1464              	 .cfi_def_cfa_register 13
 1465              	 
 1466 0050 80BD     	 pop {r7,pc}
 1467              	.L92:
 1468 0052 00BF     	 .align 2
 1469              	.L91:
 1470 0054 00000000 	 .word pxCurrentTCB
 1471              	 .cfi_endproc
 1472              	.LFE146:
 1474              	 .section .text.vTaskPrioritySet,"ax",%progbits
 1475              	 .align 2
 1476              	 .global vTaskPrioritySet
 1477              	 .thumb
 1478              	 .thumb_func
 1480              	vTaskPrioritySet:
 1481              	.LFB147:
1534:../Dave/Generated/FREERTOS/tasks.c **** 
1535:../Dave/Generated/FREERTOS/tasks.c **** #endif /* INCLUDE_uxTaskPriorityGet */
1536:../Dave/Generated/FREERTOS/tasks.c **** /*-----------------------------------------------------------*/
1537:../Dave/Generated/FREERTOS/tasks.c **** 
1538:../Dave/Generated/FREERTOS/tasks.c **** #if ( INCLUDE_vTaskPrioritySet == 1 )
1539:../Dave/Generated/FREERTOS/tasks.c **** 
1540:../Dave/Generated/FREERTOS/tasks.c ****     void vTaskPrioritySet( TaskHandle_t xTask,
1541:../Dave/Generated/FREERTOS/tasks.c ****                            UBaseType_t uxNewPriority )
1542:../Dave/Generated/FREERTOS/tasks.c ****     {
 1482              	 .loc 1 1542 0
 1483              	 .cfi_startproc
 1484              	 
 1485              	 
 1486 0000 80B5     	 push {r7,lr}
 1487              	.LCFI45:
 1488              	 .cfi_def_cfa_offset 8
 1489              	 .cfi_offset 7,-8
 1490              	 .cfi_offset 14,-4
 1491 0002 88B0     	 sub sp,sp,#32
 1492              	.LCFI46:
 1493              	 .cfi_def_cfa_offset 40
 1494 0004 00AF     	 add r7,sp,#0
 1495              	.LCFI47:
 1496              	 .cfi_def_cfa_register 7
 1497 0006 7860     	 str r0,[r7,#4]
 1498 0008 3960     	 str r1,[r7]
1543:../Dave/Generated/FREERTOS/tasks.c ****         TCB_t * pxTCB;
1544:../Dave/Generated/FREERTOS/tasks.c ****         UBaseType_t uxCurrentBasePriority, uxPriorityUsedOnEntry;
1545:../Dave/Generated/FREERTOS/tasks.c ****         BaseType_t xYieldRequired = pdFALSE;
 1499              	 .loc 1 1545 0
 1500 000a 0023     	 movs r3,#0
 1501 000c FB61     	 str r3,[r7,#28]
1546:../Dave/Generated/FREERTOS/tasks.c **** 
1547:../Dave/Generated/FREERTOS/tasks.c ****         configASSERT( ( uxNewPriority < configMAX_PRIORITIES ) );
 1502              	 .loc 1 1547 0
 1503 000e 3B68     	 ldr r3,[r7]
 1504 0010 042B     	 cmp r3,#4
 1505 0012 09D9     	 bls .L94
 1506              	.LBB154:
 1507              	.LBB155:
 197:C:/Users/Yoshi/Documents/GitHub/Software/01_jrg/06_XMC/ADC_RTOS/Dave/Generated/FREERTOS/portable/GCC\portmacro.h ****         (
 1508              	 .loc 2 197 0 discriminator 1
 1509              	
 1510 0014 4FF0FC03 	 mov r3,#252
 1511 0018 83F31188 	 msr basepri,r3
 1512 001c BFF36F8F 	 isb 
 1513 0020 BFF34F8F 	 dsb 
 1514              	
 1515              	
 1516              	 .thumb
 1517 0024 FB60     	 str r3,[r7,#12]
 1518              	.L95:
 1519              	.LBE155:
 1520              	.LBE154:
 1521              	 .loc 1 1547 0 discriminator 1
 1522 0026 FEE7     	 b .L95
 1523              	.L94:
1548:../Dave/Generated/FREERTOS/tasks.c **** 
1549:../Dave/Generated/FREERTOS/tasks.c ****         /* Ensure the new priority is valid. */
1550:../Dave/Generated/FREERTOS/tasks.c ****         if( uxNewPriority >= ( UBaseType_t ) configMAX_PRIORITIES )
 1524              	 .loc 1 1550 0
 1525 0028 3B68     	 ldr r3,[r7]
 1526 002a 042B     	 cmp r3,#4
 1527 002c 01D9     	 bls .L96
1551:../Dave/Generated/FREERTOS/tasks.c ****         {
1552:../Dave/Generated/FREERTOS/tasks.c ****             uxNewPriority = ( UBaseType_t ) configMAX_PRIORITIES - ( UBaseType_t ) 1U;
 1528              	 .loc 1 1552 0
 1529 002e 0423     	 movs r3,#4
 1530 0030 3B60     	 str r3,[r7]
 1531              	.L96:
1553:../Dave/Generated/FREERTOS/tasks.c ****         }
1554:../Dave/Generated/FREERTOS/tasks.c ****         else
1555:../Dave/Generated/FREERTOS/tasks.c ****         {
1556:../Dave/Generated/FREERTOS/tasks.c ****             mtCOVERAGE_TEST_MARKER();
1557:../Dave/Generated/FREERTOS/tasks.c ****         }
1558:../Dave/Generated/FREERTOS/tasks.c **** 
1559:../Dave/Generated/FREERTOS/tasks.c ****         taskENTER_CRITICAL();
 1532              	 .loc 1 1559 0
 1533 0032 FFF7FEFF 	 bl vPortEnterCritical
1560:../Dave/Generated/FREERTOS/tasks.c ****         {
1561:../Dave/Generated/FREERTOS/tasks.c ****             /* If null is passed in here then it is the priority of the calling
1562:../Dave/Generated/FREERTOS/tasks.c ****              * task that is being changed. */
1563:../Dave/Generated/FREERTOS/tasks.c ****             pxTCB = prvGetTCBFromHandle( xTask );
 1534              	 .loc 1 1563 0
 1535 0036 7B68     	 ldr r3,[r7,#4]
 1536 0038 002B     	 cmp r3,#0
 1537 003a 02D1     	 bne .L97
 1538              	 .loc 1 1563 0 is_stmt 0 discriminator 1
 1539 003c 414B     	 ldr r3,.L106
 1540 003e 1B68     	 ldr r3,[r3]
 1541 0040 00E0     	 b .L98
 1542              	.L97:
 1543              	 .loc 1 1563 0 discriminator 2
 1544 0042 7B68     	 ldr r3,[r7,#4]
 1545              	.L98:
 1546              	 .loc 1 1563 0 discriminator 4
 1547 0044 BB61     	 str r3,[r7,#24]
1564:../Dave/Generated/FREERTOS/tasks.c **** 
1565:../Dave/Generated/FREERTOS/tasks.c ****             traceTASK_PRIORITY_SET( pxTCB, uxNewPriority );
1566:../Dave/Generated/FREERTOS/tasks.c **** 
1567:../Dave/Generated/FREERTOS/tasks.c ****             #if ( configUSE_MUTEXES == 1 )
1568:../Dave/Generated/FREERTOS/tasks.c ****                 {
1569:../Dave/Generated/FREERTOS/tasks.c ****                     uxCurrentBasePriority = pxTCB->uxBasePriority;
 1548              	 .loc 1 1569 0 is_stmt 1 discriminator 4
 1549 0046 BB69     	 ldr r3,[r7,#24]
 1550 0048 DB6C     	 ldr r3,[r3,#76]
 1551 004a 7B61     	 str r3,[r7,#20]
1570:../Dave/Generated/FREERTOS/tasks.c ****                 }
1571:../Dave/Generated/FREERTOS/tasks.c ****             #else
1572:../Dave/Generated/FREERTOS/tasks.c ****                 {
1573:../Dave/Generated/FREERTOS/tasks.c ****                     uxCurrentBasePriority = pxTCB->uxPriority;
1574:../Dave/Generated/FREERTOS/tasks.c ****                 }
1575:../Dave/Generated/FREERTOS/tasks.c ****             #endif
1576:../Dave/Generated/FREERTOS/tasks.c **** 
1577:../Dave/Generated/FREERTOS/tasks.c ****             if( uxCurrentBasePriority != uxNewPriority )
 1552              	 .loc 1 1577 0 discriminator 4
 1553 004c 7A69     	 ldr r2,[r7,#20]
 1554 004e 3B68     	 ldr r3,[r7]
 1555 0050 9A42     	 cmp r2,r3
 1556 0052 71D0     	 beq .L99
1578:../Dave/Generated/FREERTOS/tasks.c ****             {
1579:../Dave/Generated/FREERTOS/tasks.c ****                 /* The priority change may have readied a task of higher
1580:../Dave/Generated/FREERTOS/tasks.c ****                  * priority than the calling task. */
1581:../Dave/Generated/FREERTOS/tasks.c ****                 if( uxNewPriority > uxCurrentBasePriority )
 1557              	 .loc 1 1581 0
 1558 0054 3A68     	 ldr r2,[r7]
 1559 0056 7B69     	 ldr r3,[r7,#20]
 1560 0058 9A42     	 cmp r2,r3
 1561 005a 0DD9     	 bls .L100
1582:../Dave/Generated/FREERTOS/tasks.c ****                 {
1583:../Dave/Generated/FREERTOS/tasks.c ****                     if( pxTCB != pxCurrentTCB )
 1562              	 .loc 1 1583 0
 1563 005c 394B     	 ldr r3,.L106
 1564 005e 1B68     	 ldr r3,[r3]
 1565 0060 BA69     	 ldr r2,[r7,#24]
 1566 0062 9A42     	 cmp r2,r3
 1567 0064 0FD0     	 beq .L101
1584:../Dave/Generated/FREERTOS/tasks.c ****                     {
1585:../Dave/Generated/FREERTOS/tasks.c ****                         /* The priority of a task other than the currently
1586:../Dave/Generated/FREERTOS/tasks.c ****                          * running task is being raised.  Is the priority being
1587:../Dave/Generated/FREERTOS/tasks.c ****                          * raised above that of the running task? */
1588:../Dave/Generated/FREERTOS/tasks.c ****                         if( uxNewPriority >= pxCurrentTCB->uxPriority )
 1568              	 .loc 1 1588 0
 1569 0066 374B     	 ldr r3,.L106
 1570 0068 1B68     	 ldr r3,[r3]
 1571 006a DA6A     	 ldr r2,[r3,#44]
 1572 006c 3B68     	 ldr r3,[r7]
 1573 006e 9A42     	 cmp r2,r3
 1574 0070 09D8     	 bhi .L101
1589:../Dave/Generated/FREERTOS/tasks.c ****                         {
1590:../Dave/Generated/FREERTOS/tasks.c ****                             xYieldRequired = pdTRUE;
 1575              	 .loc 1 1590 0
 1576 0072 0123     	 movs r3,#1
 1577 0074 FB61     	 str r3,[r7,#28]
 1578 0076 06E0     	 b .L101
 1579              	.L100:
1591:../Dave/Generated/FREERTOS/tasks.c ****                         }
1592:../Dave/Generated/FREERTOS/tasks.c ****                         else
1593:../Dave/Generated/FREERTOS/tasks.c ****                         {
1594:../Dave/Generated/FREERTOS/tasks.c ****                             mtCOVERAGE_TEST_MARKER();
1595:../Dave/Generated/FREERTOS/tasks.c ****                         }
1596:../Dave/Generated/FREERTOS/tasks.c ****                     }
1597:../Dave/Generated/FREERTOS/tasks.c ****                     else
1598:../Dave/Generated/FREERTOS/tasks.c ****                     {
1599:../Dave/Generated/FREERTOS/tasks.c ****                         /* The priority of the running task is being raised,
1600:../Dave/Generated/FREERTOS/tasks.c ****                          * but the running task must already be the highest
1601:../Dave/Generated/FREERTOS/tasks.c ****                          * priority task able to run so no yield is required. */
1602:../Dave/Generated/FREERTOS/tasks.c ****                     }
1603:../Dave/Generated/FREERTOS/tasks.c ****                 }
1604:../Dave/Generated/FREERTOS/tasks.c ****                 else if( pxTCB == pxCurrentTCB )
 1580              	 .loc 1 1604 0
 1581 0078 324B     	 ldr r3,.L106
 1582 007a 1B68     	 ldr r3,[r3]
 1583 007c BA69     	 ldr r2,[r7,#24]
 1584 007e 9A42     	 cmp r2,r3
 1585 0080 01D1     	 bne .L101
1605:../Dave/Generated/FREERTOS/tasks.c ****                 {
1606:../Dave/Generated/FREERTOS/tasks.c ****                     /* Setting the priority of the running task down means
1607:../Dave/Generated/FREERTOS/tasks.c ****                      * there may now be another task of higher priority that
1608:../Dave/Generated/FREERTOS/tasks.c ****                      * is ready to execute. */
1609:../Dave/Generated/FREERTOS/tasks.c ****                     xYieldRequired = pdTRUE;
 1586              	 .loc 1 1609 0
 1587 0082 0123     	 movs r3,#1
 1588 0084 FB61     	 str r3,[r7,#28]
 1589              	.L101:
1610:../Dave/Generated/FREERTOS/tasks.c ****                 }
1611:../Dave/Generated/FREERTOS/tasks.c ****                 else
1612:../Dave/Generated/FREERTOS/tasks.c ****                 {
1613:../Dave/Generated/FREERTOS/tasks.c ****                     /* Setting the priority of any other task down does not
1614:../Dave/Generated/FREERTOS/tasks.c ****                      * require a yield as the running task must be above the
1615:../Dave/Generated/FREERTOS/tasks.c ****                      * new priority of the task being modified. */
1616:../Dave/Generated/FREERTOS/tasks.c ****                 }
1617:../Dave/Generated/FREERTOS/tasks.c **** 
1618:../Dave/Generated/FREERTOS/tasks.c ****                 /* Remember the ready list the task might be referenced from
1619:../Dave/Generated/FREERTOS/tasks.c ****                  * before its uxPriority member is changed so the
1620:../Dave/Generated/FREERTOS/tasks.c ****                  * taskRESET_READY_PRIORITY() macro can function correctly. */
1621:../Dave/Generated/FREERTOS/tasks.c ****                 uxPriorityUsedOnEntry = pxTCB->uxPriority;
 1590              	 .loc 1 1621 0
 1591 0086 BB69     	 ldr r3,[r7,#24]
 1592 0088 DB6A     	 ldr r3,[r3,#44]
 1593 008a 3B61     	 str r3,[r7,#16]
1622:../Dave/Generated/FREERTOS/tasks.c **** 
1623:../Dave/Generated/FREERTOS/tasks.c ****                 #if ( configUSE_MUTEXES == 1 )
1624:../Dave/Generated/FREERTOS/tasks.c ****                     {
1625:../Dave/Generated/FREERTOS/tasks.c ****                         /* Only change the priority being used if the task is not
1626:../Dave/Generated/FREERTOS/tasks.c ****                          * currently using an inherited priority. */
1627:../Dave/Generated/FREERTOS/tasks.c ****                         if( pxTCB->uxBasePriority == pxTCB->uxPriority )
 1594              	 .loc 1 1627 0
 1595 008c BB69     	 ldr r3,[r7,#24]
 1596 008e DA6C     	 ldr r2,[r3,#76]
 1597 0090 BB69     	 ldr r3,[r7,#24]
 1598 0092 DB6A     	 ldr r3,[r3,#44]
 1599 0094 9A42     	 cmp r2,r3
 1600 0096 02D1     	 bne .L102
1628:../Dave/Generated/FREERTOS/tasks.c ****                         {
1629:../Dave/Generated/FREERTOS/tasks.c ****                             pxTCB->uxPriority = uxNewPriority;
 1601              	 .loc 1 1629 0
 1602 0098 BB69     	 ldr r3,[r7,#24]
 1603 009a 3A68     	 ldr r2,[r7]
 1604 009c DA62     	 str r2,[r3,#44]
 1605              	.L102:
1630:../Dave/Generated/FREERTOS/tasks.c ****                         }
1631:../Dave/Generated/FREERTOS/tasks.c ****                         else
1632:../Dave/Generated/FREERTOS/tasks.c ****                         {
1633:../Dave/Generated/FREERTOS/tasks.c ****                             mtCOVERAGE_TEST_MARKER();
1634:../Dave/Generated/FREERTOS/tasks.c ****                         }
1635:../Dave/Generated/FREERTOS/tasks.c **** 
1636:../Dave/Generated/FREERTOS/tasks.c ****                         /* The base priority gets set whatever. */
1637:../Dave/Generated/FREERTOS/tasks.c ****                         pxTCB->uxBasePriority = uxNewPriority;
 1606              	 .loc 1 1637 0
 1607 009e BB69     	 ldr r3,[r7,#24]
 1608 00a0 3A68     	 ldr r2,[r7]
 1609 00a2 DA64     	 str r2,[r3,#76]
1638:../Dave/Generated/FREERTOS/tasks.c ****                     }
1639:../Dave/Generated/FREERTOS/tasks.c ****                 #else /* if ( configUSE_MUTEXES == 1 ) */
1640:../Dave/Generated/FREERTOS/tasks.c ****                     {
1641:../Dave/Generated/FREERTOS/tasks.c ****                         pxTCB->uxPriority = uxNewPriority;
1642:../Dave/Generated/FREERTOS/tasks.c ****                     }
1643:../Dave/Generated/FREERTOS/tasks.c ****                 #endif /* if ( configUSE_MUTEXES == 1 ) */
1644:../Dave/Generated/FREERTOS/tasks.c **** 
1645:../Dave/Generated/FREERTOS/tasks.c ****                 /* Only reset the event list item value if the value is not
1646:../Dave/Generated/FREERTOS/tasks.c ****                  * being used for anything else. */
1647:../Dave/Generated/FREERTOS/tasks.c ****                 if( ( listGET_LIST_ITEM_VALUE( &( pxTCB->xEventListItem ) ) & taskEVENT_LIST_ITEM_V
 1610              	 .loc 1 1647 0
 1611 00a4 BB69     	 ldr r3,[r7,#24]
 1612 00a6 9B69     	 ldr r3,[r3,#24]
 1613 00a8 002B     	 cmp r3,#0
 1614 00aa 04DB     	 blt .L103
1648:../Dave/Generated/FREERTOS/tasks.c ****                 {
1649:../Dave/Generated/FREERTOS/tasks.c ****                     listSET_LIST_ITEM_VALUE( &( pxTCB->xEventListItem ), ( ( TickType_t ) configMAX
 1615              	 .loc 1 1649 0
 1616 00ac 3B68     	 ldr r3,[r7]
 1617 00ae C3F10502 	 rsb r2,r3,#5
 1618 00b2 BB69     	 ldr r3,[r7,#24]
 1619 00b4 9A61     	 str r2,[r3,#24]
 1620              	.L103:
1650:../Dave/Generated/FREERTOS/tasks.c ****                 }
1651:../Dave/Generated/FREERTOS/tasks.c ****                 else
1652:../Dave/Generated/FREERTOS/tasks.c ****                 {
1653:../Dave/Generated/FREERTOS/tasks.c ****                     mtCOVERAGE_TEST_MARKER();
1654:../Dave/Generated/FREERTOS/tasks.c ****                 }
1655:../Dave/Generated/FREERTOS/tasks.c **** 
1656:../Dave/Generated/FREERTOS/tasks.c ****                 /* If the task is in the blocked or suspended list we need do
1657:../Dave/Generated/FREERTOS/tasks.c ****                  * nothing more than change its priority variable. However, if
1658:../Dave/Generated/FREERTOS/tasks.c ****                  * the task is in a ready list it needs to be removed and placed
1659:../Dave/Generated/FREERTOS/tasks.c ****                  * in the list appropriate to its new priority. */
1660:../Dave/Generated/FREERTOS/tasks.c ****                 if( listIS_CONTAINED_WITHIN( &( pxReadyTasksLists[ uxPriorityUsedOnEntry ] ), &( px
 1621              	 .loc 1 1660 0
 1622 00b6 BB69     	 ldr r3,[r7,#24]
 1623 00b8 5969     	 ldr r1,[r3,#20]
 1624 00ba 3A69     	 ldr r2,[r7,#16]
 1625 00bc 1346     	 mov r3,r2
 1626 00be 9B00     	 lsls r3,r3,#2
 1627 00c0 1344     	 add r3,r3,r2
 1628 00c2 9B00     	 lsls r3,r3,#2
 1629 00c4 204A     	 ldr r2,.L106+4
 1630 00c6 1344     	 add r3,r3,r2
 1631 00c8 9942     	 cmp r1,r3
 1632 00ca 2AD1     	 bne .L104
1661:../Dave/Generated/FREERTOS/tasks.c ****                 {
1662:../Dave/Generated/FREERTOS/tasks.c ****                     /* The task is currently in its ready list - remove before
1663:../Dave/Generated/FREERTOS/tasks.c ****                      * adding it to it's new ready list.  As we are in a critical
1664:../Dave/Generated/FREERTOS/tasks.c ****                      * section we can do this even if the scheduler is suspended. */
1665:../Dave/Generated/FREERTOS/tasks.c ****                     if( uxListRemove( &( pxTCB->xStateListItem ) ) == ( UBaseType_t ) 0 )
 1633              	 .loc 1 1665 0
 1634 00cc BB69     	 ldr r3,[r7,#24]
 1635 00ce 0433     	 adds r3,r3,#4
 1636 00d0 1846     	 mov r0,r3
 1637 00d2 FFF7FEFF 	 bl uxListRemove
 1638 00d6 0346     	 mov r3,r0
 1639 00d8 002B     	 cmp r3,#0
 1640 00da 09D1     	 bne .L105
1666:../Dave/Generated/FREERTOS/tasks.c ****                     {
1667:../Dave/Generated/FREERTOS/tasks.c ****                         /* It is known that the task is in its ready list so
1668:../Dave/Generated/FREERTOS/tasks.c ****                          * there is no need to check again and the port level
1669:../Dave/Generated/FREERTOS/tasks.c ****                          * reset macro can be called directly. */
1670:../Dave/Generated/FREERTOS/tasks.c ****                         portRESET_READY_PRIORITY( uxPriorityUsedOnEntry, uxTopReadyPriority );
 1641              	 .loc 1 1670 0
 1642 00dc 3B69     	 ldr r3,[r7,#16]
 1643 00de 0122     	 movs r2,#1
 1644 00e0 02FA03F3 	 lsl r3,r2,r3
 1645 00e4 DA43     	 mvns r2,r3
 1646 00e6 194B     	 ldr r3,.L106+8
 1647 00e8 1B68     	 ldr r3,[r3]
 1648 00ea 1340     	 ands r3,r3,r2
 1649 00ec 174A     	 ldr r2,.L106+8
 1650 00ee 1360     	 str r3,[r2]
 1651              	.L105:
1671:../Dave/Generated/FREERTOS/tasks.c ****                     }
1672:../Dave/Generated/FREERTOS/tasks.c ****                     else
1673:../Dave/Generated/FREERTOS/tasks.c ****                     {
1674:../Dave/Generated/FREERTOS/tasks.c ****                         mtCOVERAGE_TEST_MARKER();
1675:../Dave/Generated/FREERTOS/tasks.c ****                     }
1676:../Dave/Generated/FREERTOS/tasks.c **** 
1677:../Dave/Generated/FREERTOS/tasks.c ****                     prvAddTaskToReadyList( pxTCB );
 1652              	 .loc 1 1677 0
 1653 00f0 BB69     	 ldr r3,[r7,#24]
 1654 00f2 DB6A     	 ldr r3,[r3,#44]
 1655 00f4 1A46     	 mov r2,r3
 1656 00f6 0123     	 movs r3,#1
 1657 00f8 03FA02F2 	 lsl r2,r3,r2
 1658 00fc 134B     	 ldr r3,.L106+8
 1659 00fe 1B68     	 ldr r3,[r3]
 1660 0100 1343     	 orrs r3,r3,r2
 1661 0102 124A     	 ldr r2,.L106+8
 1662 0104 1360     	 str r3,[r2]
 1663 0106 BB69     	 ldr r3,[r7,#24]
 1664 0108 DA6A     	 ldr r2,[r3,#44]
 1665 010a 1346     	 mov r3,r2
 1666 010c 9B00     	 lsls r3,r3,#2
 1667 010e 1344     	 add r3,r3,r2
 1668 0110 9B00     	 lsls r3,r3,#2
 1669 0112 0D4A     	 ldr r2,.L106+4
 1670 0114 1A44     	 add r2,r2,r3
 1671 0116 BB69     	 ldr r3,[r7,#24]
 1672 0118 0433     	 adds r3,r3,#4
 1673 011a 1046     	 mov r0,r2
 1674 011c 1946     	 mov r1,r3
 1675 011e FFF7FEFF 	 bl vListInsertEnd
 1676              	.L104:
1678:../Dave/Generated/FREERTOS/tasks.c ****                 }
1679:../Dave/Generated/FREERTOS/tasks.c ****                 else
1680:../Dave/Generated/FREERTOS/tasks.c ****                 {
1681:../Dave/Generated/FREERTOS/tasks.c ****                     mtCOVERAGE_TEST_MARKER();
1682:../Dave/Generated/FREERTOS/tasks.c ****                 }
1683:../Dave/Generated/FREERTOS/tasks.c **** 
1684:../Dave/Generated/FREERTOS/tasks.c ****                 if( xYieldRequired != pdFALSE )
 1677              	 .loc 1 1684 0
 1678 0122 FB69     	 ldr r3,[r7,#28]
 1679 0124 002B     	 cmp r3,#0
 1680 0126 07D0     	 beq .L99
1685:../Dave/Generated/FREERTOS/tasks.c ****                 {
1686:../Dave/Generated/FREERTOS/tasks.c ****                     taskYIELD_IF_USING_PREEMPTION();
 1681              	 .loc 1 1686 0
 1682 0128 094B     	 ldr r3,.L106+12
 1683 012a 4FF08052 	 mov r2,#268435456
 1684 012e 1A60     	 str r2,[r3]
 1685              	
 1686 0130 BFF34F8F 	 dsb
 1687              	
 1688              	
 1689 0134 BFF36F8F 	 isb
 1690              	
 1691              	 .thumb
 1692              	.L99:
1687:../Dave/Generated/FREERTOS/tasks.c ****                 }
1688:../Dave/Generated/FREERTOS/tasks.c ****                 else
1689:../Dave/Generated/FREERTOS/tasks.c ****                 {
1690:../Dave/Generated/FREERTOS/tasks.c ****                     mtCOVERAGE_TEST_MARKER();
1691:../Dave/Generated/FREERTOS/tasks.c ****                 }
1692:../Dave/Generated/FREERTOS/tasks.c **** 
1693:../Dave/Generated/FREERTOS/tasks.c ****                 /* Remove compiler warning about unused variables when the port
1694:../Dave/Generated/FREERTOS/tasks.c ****                  * optimised task selection is not being used. */
1695:../Dave/Generated/FREERTOS/tasks.c ****                 ( void ) uxPriorityUsedOnEntry;
1696:../Dave/Generated/FREERTOS/tasks.c ****             }
1697:../Dave/Generated/FREERTOS/tasks.c ****         }
1698:../Dave/Generated/FREERTOS/tasks.c ****         taskEXIT_CRITICAL();
 1693              	 .loc 1 1698 0
 1694 0138 FFF7FEFF 	 bl vPortExitCritical
1699:../Dave/Generated/FREERTOS/tasks.c ****     }
 1695              	 .loc 1 1699 0
 1696 013c 2037     	 adds r7,r7,#32
 1697              	.LCFI48:
 1698              	 .cfi_def_cfa_offset 8
 1699 013e BD46     	 mov sp,r7
 1700              	.LCFI49:
 1701              	 .cfi_def_cfa_register 13
 1702              	 
 1703 0140 80BD     	 pop {r7,pc}
 1704              	.L107:
 1705 0142 00BF     	 .align 2
 1706              	.L106:
 1707 0144 00000000 	 .word pxCurrentTCB
 1708 0148 00000000 	 .word pxReadyTasksLists
 1709 014c 00000000 	 .word uxTopReadyPriority
 1710 0150 04ED00E0 	 .word -536810236
 1711              	 .cfi_endproc
 1712              	.LFE147:
 1714              	 .section .text.vTaskSuspend,"ax",%progbits
 1715              	 .align 2
 1716              	 .global vTaskSuspend
 1717              	 .thumb
 1718              	 .thumb_func
 1720              	vTaskSuspend:
 1721              	.LFB148:
1700:../Dave/Generated/FREERTOS/tasks.c **** 
1701:../Dave/Generated/FREERTOS/tasks.c **** #endif /* INCLUDE_vTaskPrioritySet */
1702:../Dave/Generated/FREERTOS/tasks.c **** /*-----------------------------------------------------------*/
1703:../Dave/Generated/FREERTOS/tasks.c **** 
1704:../Dave/Generated/FREERTOS/tasks.c **** #if ( INCLUDE_vTaskSuspend == 1 )
1705:../Dave/Generated/FREERTOS/tasks.c **** 
1706:../Dave/Generated/FREERTOS/tasks.c ****     void vTaskSuspend( TaskHandle_t xTaskToSuspend )
1707:../Dave/Generated/FREERTOS/tasks.c ****     {
 1722              	 .loc 1 1707 0
 1723              	 .cfi_startproc
 1724              	 
 1725              	 
 1726 0000 80B5     	 push {r7,lr}
 1727              	.LCFI50:
 1728              	 .cfi_def_cfa_offset 8
 1729              	 .cfi_offset 7,-8
 1730              	 .cfi_offset 14,-4
 1731 0002 86B0     	 sub sp,sp,#24
 1732              	.LCFI51:
 1733              	 .cfi_def_cfa_offset 32
 1734 0004 00AF     	 add r7,sp,#0
 1735              	.LCFI52:
 1736              	 .cfi_def_cfa_register 7
 1737 0006 7860     	 str r0,[r7,#4]
1708:../Dave/Generated/FREERTOS/tasks.c ****         TCB_t * pxTCB;
1709:../Dave/Generated/FREERTOS/tasks.c **** 
1710:../Dave/Generated/FREERTOS/tasks.c ****         taskENTER_CRITICAL();
 1738              	 .loc 1 1710 0
 1739 0008 FFF7FEFF 	 bl vPortEnterCritical
1711:../Dave/Generated/FREERTOS/tasks.c ****         {
1712:../Dave/Generated/FREERTOS/tasks.c ****             /* If null is passed in here then it is the running task that is
1713:../Dave/Generated/FREERTOS/tasks.c ****              * being suspended. */
1714:../Dave/Generated/FREERTOS/tasks.c ****             pxTCB = prvGetTCBFromHandle( xTaskToSuspend );
 1740              	 .loc 1 1714 0
 1741 000c 7B68     	 ldr r3,[r7,#4]
 1742 000e 002B     	 cmp r3,#0
 1743 0010 02D1     	 bne .L109
 1744              	 .loc 1 1714 0 is_stmt 0 discriminator 1
 1745 0012 424B     	 ldr r3,.L124
 1746 0014 1B68     	 ldr r3,[r3]
 1747 0016 00E0     	 b .L110
 1748              	.L109:
 1749              	 .loc 1 1714 0 discriminator 2
 1750 0018 7B68     	 ldr r3,[r7,#4]
 1751              	.L110:
 1752              	 .loc 1 1714 0 discriminator 4
 1753 001a 3B61     	 str r3,[r7,#16]
1715:../Dave/Generated/FREERTOS/tasks.c **** 
1716:../Dave/Generated/FREERTOS/tasks.c ****             traceTASK_SUSPEND( pxTCB );
1717:../Dave/Generated/FREERTOS/tasks.c **** 
1718:../Dave/Generated/FREERTOS/tasks.c ****             /* Remove task from the ready/delayed list and place in the
1719:../Dave/Generated/FREERTOS/tasks.c ****              * suspended list. */
1720:../Dave/Generated/FREERTOS/tasks.c ****             if( uxListRemove( &( pxTCB->xStateListItem ) ) == ( UBaseType_t ) 0 )
 1754              	 .loc 1 1720 0 is_stmt 1 discriminator 4
 1755 001c 3B69     	 ldr r3,[r7,#16]
 1756 001e 0433     	 adds r3,r3,#4
 1757 0020 1846     	 mov r0,r3
 1758 0022 FFF7FEFF 	 bl uxListRemove
 1759 0026 0346     	 mov r3,r0
 1760 0028 002B     	 cmp r3,#0
 1761 002a 15D1     	 bne .L111
1721:../Dave/Generated/FREERTOS/tasks.c ****             {
1722:../Dave/Generated/FREERTOS/tasks.c ****                 taskRESET_READY_PRIORITY( pxTCB->uxPriority );
 1762              	 .loc 1 1722 0
 1763 002c 3B69     	 ldr r3,[r7,#16]
 1764 002e DA6A     	 ldr r2,[r3,#44]
 1765 0030 3B49     	 ldr r1,.L124+4
 1766 0032 1346     	 mov r3,r2
 1767 0034 9B00     	 lsls r3,r3,#2
 1768 0036 1344     	 add r3,r3,r2
 1769 0038 9B00     	 lsls r3,r3,#2
 1770 003a 0B44     	 add r3,r3,r1
 1771 003c 1B68     	 ldr r3,[r3]
 1772 003e 002B     	 cmp r3,#0
 1773 0040 0AD1     	 bne .L111
 1774              	 .loc 1 1722 0 is_stmt 0 discriminator 1
 1775 0042 3B69     	 ldr r3,[r7,#16]
 1776 0044 DB6A     	 ldr r3,[r3,#44]
 1777 0046 1A46     	 mov r2,r3
 1778 0048 0123     	 movs r3,#1
 1779 004a 9340     	 lsls r3,r3,r2
 1780 004c DA43     	 mvns r2,r3
 1781 004e 354B     	 ldr r3,.L124+8
 1782 0050 1B68     	 ldr r3,[r3]
 1783 0052 1340     	 ands r3,r3,r2
 1784 0054 334A     	 ldr r2,.L124+8
 1785 0056 1360     	 str r3,[r2]
 1786              	.L111:
1723:../Dave/Generated/FREERTOS/tasks.c ****             }
1724:../Dave/Generated/FREERTOS/tasks.c ****             else
1725:../Dave/Generated/FREERTOS/tasks.c ****             {
1726:../Dave/Generated/FREERTOS/tasks.c ****                 mtCOVERAGE_TEST_MARKER();
1727:../Dave/Generated/FREERTOS/tasks.c ****             }
1728:../Dave/Generated/FREERTOS/tasks.c **** 
1729:../Dave/Generated/FREERTOS/tasks.c ****             /* Is the task waiting on an event also? */
1730:../Dave/Generated/FREERTOS/tasks.c ****             if( listLIST_ITEM_CONTAINER( &( pxTCB->xEventListItem ) ) != NULL )
 1787              	 .loc 1 1730 0 is_stmt 1
 1788 0058 3B69     	 ldr r3,[r7,#16]
 1789 005a 9B6A     	 ldr r3,[r3,#40]
 1790 005c 002B     	 cmp r3,#0
 1791 005e 04D0     	 beq .L113
1731:../Dave/Generated/FREERTOS/tasks.c ****             {
1732:../Dave/Generated/FREERTOS/tasks.c ****                 ( void ) uxListRemove( &( pxTCB->xEventListItem ) );
 1792              	 .loc 1 1732 0
 1793 0060 3B69     	 ldr r3,[r7,#16]
 1794 0062 1833     	 adds r3,r3,#24
 1795 0064 1846     	 mov r0,r3
 1796 0066 FFF7FEFF 	 bl uxListRemove
 1797              	.L113:
1733:../Dave/Generated/FREERTOS/tasks.c ****             }
1734:../Dave/Generated/FREERTOS/tasks.c ****             else
1735:../Dave/Generated/FREERTOS/tasks.c ****             {
1736:../Dave/Generated/FREERTOS/tasks.c ****                 mtCOVERAGE_TEST_MARKER();
1737:../Dave/Generated/FREERTOS/tasks.c ****             }
1738:../Dave/Generated/FREERTOS/tasks.c **** 
1739:../Dave/Generated/FREERTOS/tasks.c ****             vListInsertEnd( &xSuspendedTaskList, &( pxTCB->xStateListItem ) );
 1798              	 .loc 1 1739 0
 1799 006a 3B69     	 ldr r3,[r7,#16]
 1800 006c 0433     	 adds r3,r3,#4
 1801 006e 2E48     	 ldr r0,.L124+12
 1802 0070 1946     	 mov r1,r3
 1803 0072 FFF7FEFF 	 bl vListInsertEnd
 1804              	.LBB156:
1740:../Dave/Generated/FREERTOS/tasks.c **** 
1741:../Dave/Generated/FREERTOS/tasks.c ****             #if ( configUSE_TASK_NOTIFICATIONS == 1 )
1742:../Dave/Generated/FREERTOS/tasks.c ****                 {
1743:../Dave/Generated/FREERTOS/tasks.c ****                     BaseType_t x;
1744:../Dave/Generated/FREERTOS/tasks.c **** 
1745:../Dave/Generated/FREERTOS/tasks.c ****                     for( x = 0; x < configTASK_NOTIFICATION_ARRAY_ENTRIES; x++ )
 1805              	 .loc 1 1745 0
 1806 0076 0023     	 movs r3,#0
 1807 0078 7B61     	 str r3,[r7,#20]
 1808 007a 10E0     	 b .L114
 1809              	.L116:
1746:../Dave/Generated/FREERTOS/tasks.c ****                     {
1747:../Dave/Generated/FREERTOS/tasks.c ****                         if( pxTCB->ucNotifyState[ x ] == taskWAITING_NOTIFICATION )
 1810              	 .loc 1 1747 0
 1811 007c 3A69     	 ldr r2,[r7,#16]
 1812 007e 7B69     	 ldr r3,[r7,#20]
 1813 0080 1344     	 add r3,r3,r2
 1814 0082 6833     	 adds r3,r3,#104
 1815 0084 1B79     	 ldrb r3,[r3,#4]
 1816 0086 DBB2     	 uxtb r3,r3
 1817 0088 012B     	 cmp r3,#1
 1818 008a 05D1     	 bne .L115
1748:../Dave/Generated/FREERTOS/tasks.c ****                         {
1749:../Dave/Generated/FREERTOS/tasks.c ****                             /* The task was blocked to wait for a notification, but is
1750:../Dave/Generated/FREERTOS/tasks.c ****                              * now suspended, so no notification was received. */
1751:../Dave/Generated/FREERTOS/tasks.c ****                             pxTCB->ucNotifyState[ x ] = taskNOT_WAITING_NOTIFICATION;
 1819              	 .loc 1 1751 0
 1820 008c 3A69     	 ldr r2,[r7,#16]
 1821 008e 7B69     	 ldr r3,[r7,#20]
 1822 0090 1344     	 add r3,r3,r2
 1823 0092 6833     	 adds r3,r3,#104
 1824 0094 0022     	 movs r2,#0
