   1              	 .syntax unified
   2              	 .cpu cortex-m4
   3              	 .eabi_attribute 27,3
   4              	 .fpu fpv4-sp-d16
   5              	 .eabi_attribute 20,1
   6              	 .eabi_attribute 21,1
   7              	 .eabi_attribute 23,3
   8              	 .eabi_attribute 24,1
   9              	 .eabi_attribute 25,1
  10              	 .eabi_attribute 26,1
  11              	 .eabi_attribute 30,6
  12              	 .eabi_attribute 34,1
  13              	 .eabi_attribute 18,4
  14              	 .thumb
  15              	 .file "stream_buffer.c"
  16              	 .text
  17              	.Ltext0:
  18              	 .cfi_sections .debug_frame
  19              	 .section .text.xStreamBufferGenericCreate,"ax",%progbits
  20              	 .align 2
  21              	 .global xStreamBufferGenericCreate
  22              	 .thumb
  23              	 .thumb_func
  25              	xStreamBufferGenericCreate:
  26              	.LFB137:
  27              	 .file 1 "../Dave/Generated/FREERTOS/stream_buffer.c"
   1:../Dave/Generated/FREERTOS/stream_buffer.c **** /*
   2:../Dave/Generated/FREERTOS/stream_buffer.c ****  * FreeRTOS Kernel V10.2.1
   3:../Dave/Generated/FREERTOS/stream_buffer.c ****  * Copyright (C) 2019 Amazon.com, Inc. or its affiliates.  All Rights Reserved.
   4:../Dave/Generated/FREERTOS/stream_buffer.c ****  *
   5:../Dave/Generated/FREERTOS/stream_buffer.c ****  * Permission is hereby granted, free of charge, to any person obtaining a copy of
   6:../Dave/Generated/FREERTOS/stream_buffer.c ****  * this software and associated documentation files (the "Software"), to deal in
   7:../Dave/Generated/FREERTOS/stream_buffer.c ****  * the Software without restriction, including without limitation the rights to
   8:../Dave/Generated/FREERTOS/stream_buffer.c ****  * use, copy, modify, merge, publish, distribute, sublicense, and/or sell copies of
   9:../Dave/Generated/FREERTOS/stream_buffer.c ****  * the Software, and to permit persons to whom the Software is furnished to do so,
  10:../Dave/Generated/FREERTOS/stream_buffer.c ****  * subject to the following conditions:
  11:../Dave/Generated/FREERTOS/stream_buffer.c ****  *
  12:../Dave/Generated/FREERTOS/stream_buffer.c ****  * The above copyright notice and this permission notice shall be included in all
  13:../Dave/Generated/FREERTOS/stream_buffer.c ****  * copies or substantial portions of the Software.
  14:../Dave/Generated/FREERTOS/stream_buffer.c ****  *
  15:../Dave/Generated/FREERTOS/stream_buffer.c ****  * THE SOFTWARE IS PROVIDED "AS IS", WITHOUT WARRANTY OF ANY KIND, EXPRESS OR
  16:../Dave/Generated/FREERTOS/stream_buffer.c ****  * IMPLIED, INCLUDING BUT NOT LIMITED TO THE WARRANTIES OF MERCHANTABILITY, FITNESS
  17:../Dave/Generated/FREERTOS/stream_buffer.c ****  * FOR A PARTICULAR PURPOSE AND NONINFRINGEMENT. IN NO EVENT SHALL THE AUTHORS OR
  18:../Dave/Generated/FREERTOS/stream_buffer.c ****  * COPYRIGHT HOLDERS BE LIABLE FOR ANY CLAIM, DAMAGES OR OTHER LIABILITY, WHETHER
  19:../Dave/Generated/FREERTOS/stream_buffer.c ****  * IN AN ACTION OF CONTRACT, TORT OR OTHERWISE, ARISING FROM, OUT OF OR IN
  20:../Dave/Generated/FREERTOS/stream_buffer.c ****  * CONNECTION WITH THE SOFTWARE OR THE USE OR OTHER DEALINGS IN THE SOFTWARE.
  21:../Dave/Generated/FREERTOS/stream_buffer.c ****  *
  22:../Dave/Generated/FREERTOS/stream_buffer.c ****  * http://www.FreeRTOS.org
  23:../Dave/Generated/FREERTOS/stream_buffer.c ****  * http://aws.amazon.com/freertos
  24:../Dave/Generated/FREERTOS/stream_buffer.c ****  *
  25:../Dave/Generated/FREERTOS/stream_buffer.c ****  * 1 tab == 4 spaces!
  26:../Dave/Generated/FREERTOS/stream_buffer.c ****  */
  27:../Dave/Generated/FREERTOS/stream_buffer.c **** 
  28:../Dave/Generated/FREERTOS/stream_buffer.c **** /* Standard includes. */
  29:../Dave/Generated/FREERTOS/stream_buffer.c **** #include <stdint.h>
  30:../Dave/Generated/FREERTOS/stream_buffer.c **** #include <string.h>
  31:../Dave/Generated/FREERTOS/stream_buffer.c **** 
  32:../Dave/Generated/FREERTOS/stream_buffer.c **** /* Defining MPU_WRAPPERS_INCLUDED_FROM_API_FILE prevents task.h from redefining
  33:../Dave/Generated/FREERTOS/stream_buffer.c **** all the API functions to use the MPU wrappers.  That should only be done when
  34:../Dave/Generated/FREERTOS/stream_buffer.c **** task.h is included from an application file. */
  35:../Dave/Generated/FREERTOS/stream_buffer.c **** #define MPU_WRAPPERS_INCLUDED_FROM_API_FILE
  36:../Dave/Generated/FREERTOS/stream_buffer.c **** 
  37:../Dave/Generated/FREERTOS/stream_buffer.c **** /* FreeRTOS includes. */
  38:../Dave/Generated/FREERTOS/stream_buffer.c **** #include "FreeRTOS.h"
  39:../Dave/Generated/FREERTOS/stream_buffer.c **** #include "task.h"
  40:../Dave/Generated/FREERTOS/stream_buffer.c **** #include "stream_buffer.h"
  41:../Dave/Generated/FREERTOS/stream_buffer.c **** 
  42:../Dave/Generated/FREERTOS/stream_buffer.c **** #if( configUSE_TASK_NOTIFICATIONS != 1 )
  43:../Dave/Generated/FREERTOS/stream_buffer.c **** 	#error configUSE_TASK_NOTIFICATIONS must be set to 1 to build stream_buffer.c
  44:../Dave/Generated/FREERTOS/stream_buffer.c **** #endif
  45:../Dave/Generated/FREERTOS/stream_buffer.c **** 
  46:../Dave/Generated/FREERTOS/stream_buffer.c **** /* Lint e961, e9021 and e750 are suppressed as a MISRA exception justified
  47:../Dave/Generated/FREERTOS/stream_buffer.c **** because the MPU ports require MPU_WRAPPERS_INCLUDED_FROM_API_FILE to be defined
  48:../Dave/Generated/FREERTOS/stream_buffer.c **** for the header files above, but not in this file, in order to generate the
  49:../Dave/Generated/FREERTOS/stream_buffer.c **** correct privileged Vs unprivileged linkage and placement. */
  50:../Dave/Generated/FREERTOS/stream_buffer.c **** #undef MPU_WRAPPERS_INCLUDED_FROM_API_FILE /*lint !e961 !e750 !e9021. */
  51:../Dave/Generated/FREERTOS/stream_buffer.c **** 
  52:../Dave/Generated/FREERTOS/stream_buffer.c **** /* If the user has not provided application specific Rx notification macros,
  53:../Dave/Generated/FREERTOS/stream_buffer.c **** or #defined the notification macros away, them provide default implementations
  54:../Dave/Generated/FREERTOS/stream_buffer.c **** that uses task notifications. */
  55:../Dave/Generated/FREERTOS/stream_buffer.c **** /*lint -save -e9026 Function like macros allowed and needed here so they can be overidden. */
  56:../Dave/Generated/FREERTOS/stream_buffer.c **** #ifndef sbRECEIVE_COMPLETED
  57:../Dave/Generated/FREERTOS/stream_buffer.c **** 	#define sbRECEIVE_COMPLETED( pxStreamBuffer )										\
  58:../Dave/Generated/FREERTOS/stream_buffer.c **** 		vTaskSuspendAll();																\
  59:../Dave/Generated/FREERTOS/stream_buffer.c **** 		{																				\
  60:../Dave/Generated/FREERTOS/stream_buffer.c **** 			if( ( pxStreamBuffer )->xTaskWaitingToSend != NULL )						\
  61:../Dave/Generated/FREERTOS/stream_buffer.c **** 			{																			\
  62:../Dave/Generated/FREERTOS/stream_buffer.c **** 				( void ) xTaskNotify( ( pxStreamBuffer )->xTaskWaitingToSend,			\
  63:../Dave/Generated/FREERTOS/stream_buffer.c **** 									  ( uint32_t ) 0,									\
  64:../Dave/Generated/FREERTOS/stream_buffer.c **** 									  eNoAction );										\
  65:../Dave/Generated/FREERTOS/stream_buffer.c **** 				( pxStreamBuffer )->xTaskWaitingToSend = NULL;							\
  66:../Dave/Generated/FREERTOS/stream_buffer.c **** 			}																			\
  67:../Dave/Generated/FREERTOS/stream_buffer.c **** 		}																				\
  68:../Dave/Generated/FREERTOS/stream_buffer.c **** 		( void ) xTaskResumeAll();
  69:../Dave/Generated/FREERTOS/stream_buffer.c **** #endif /* sbRECEIVE_COMPLETED */
  70:../Dave/Generated/FREERTOS/stream_buffer.c **** 
  71:../Dave/Generated/FREERTOS/stream_buffer.c **** #ifndef sbRECEIVE_COMPLETED_FROM_ISR
  72:../Dave/Generated/FREERTOS/stream_buffer.c **** 	#define sbRECEIVE_COMPLETED_FROM_ISR( pxStreamBuffer,								\
  73:../Dave/Generated/FREERTOS/stream_buffer.c **** 										  pxHigherPriorityTaskWoken )					\
  74:../Dave/Generated/FREERTOS/stream_buffer.c **** 	{																					\
  75:../Dave/Generated/FREERTOS/stream_buffer.c **** 	UBaseType_t uxSavedInterruptStatus;													\
  76:../Dave/Generated/FREERTOS/stream_buffer.c **** 																						\
  77:../Dave/Generated/FREERTOS/stream_buffer.c **** 		uxSavedInterruptStatus = ( UBaseType_t ) portSET_INTERRUPT_MASK_FROM_ISR();		\
  78:../Dave/Generated/FREERTOS/stream_buffer.c **** 		{																				\
  79:../Dave/Generated/FREERTOS/stream_buffer.c **** 			if( ( pxStreamBuffer )->xTaskWaitingToSend != NULL )						\
  80:../Dave/Generated/FREERTOS/stream_buffer.c **** 			{																			\
  81:../Dave/Generated/FREERTOS/stream_buffer.c **** 				( void ) xTaskNotifyFromISR( ( pxStreamBuffer )->xTaskWaitingToSend,	\
  82:../Dave/Generated/FREERTOS/stream_buffer.c **** 											 ( uint32_t ) 0,							\
  83:../Dave/Generated/FREERTOS/stream_buffer.c **** 											 eNoAction,									\
  84:../Dave/Generated/FREERTOS/stream_buffer.c **** 											 pxHigherPriorityTaskWoken );				\
  85:../Dave/Generated/FREERTOS/stream_buffer.c **** 				( pxStreamBuffer )->xTaskWaitingToSend = NULL;							\
  86:../Dave/Generated/FREERTOS/stream_buffer.c **** 			}																			\
  87:../Dave/Generated/FREERTOS/stream_buffer.c **** 		}																				\
  88:../Dave/Generated/FREERTOS/stream_buffer.c **** 		portCLEAR_INTERRUPT_MASK_FROM_ISR( uxSavedInterruptStatus );					\
  89:../Dave/Generated/FREERTOS/stream_buffer.c **** 	}
  90:../Dave/Generated/FREERTOS/stream_buffer.c **** #endif /* sbRECEIVE_COMPLETED_FROM_ISR */
  91:../Dave/Generated/FREERTOS/stream_buffer.c **** 
  92:../Dave/Generated/FREERTOS/stream_buffer.c **** /* If the user has not provided an application specific Tx notification macro,
  93:../Dave/Generated/FREERTOS/stream_buffer.c **** or #defined the notification macro away, them provide a default implementation
  94:../Dave/Generated/FREERTOS/stream_buffer.c **** that uses task notifications. */
  95:../Dave/Generated/FREERTOS/stream_buffer.c **** #ifndef sbSEND_COMPLETED
  96:../Dave/Generated/FREERTOS/stream_buffer.c **** 	#define sbSEND_COMPLETED( pxStreamBuffer )											\
  97:../Dave/Generated/FREERTOS/stream_buffer.c **** 		vTaskSuspendAll();																\
  98:../Dave/Generated/FREERTOS/stream_buffer.c **** 		{																				\
  99:../Dave/Generated/FREERTOS/stream_buffer.c **** 			if( ( pxStreamBuffer )->xTaskWaitingToReceive != NULL )						\
 100:../Dave/Generated/FREERTOS/stream_buffer.c **** 			{																			\
 101:../Dave/Generated/FREERTOS/stream_buffer.c **** 				( void ) xTaskNotify( ( pxStreamBuffer )->xTaskWaitingToReceive,		\
 102:../Dave/Generated/FREERTOS/stream_buffer.c **** 									  ( uint32_t ) 0,									\
 103:../Dave/Generated/FREERTOS/stream_buffer.c **** 									  eNoAction );										\
 104:../Dave/Generated/FREERTOS/stream_buffer.c **** 				( pxStreamBuffer )->xTaskWaitingToReceive = NULL;						\
 105:../Dave/Generated/FREERTOS/stream_buffer.c **** 			}																			\
 106:../Dave/Generated/FREERTOS/stream_buffer.c **** 		}																				\
 107:../Dave/Generated/FREERTOS/stream_buffer.c **** 		( void ) xTaskResumeAll();
 108:../Dave/Generated/FREERTOS/stream_buffer.c **** #endif /* sbSEND_COMPLETED */
 109:../Dave/Generated/FREERTOS/stream_buffer.c **** 
 110:../Dave/Generated/FREERTOS/stream_buffer.c **** #ifndef sbSEND_COMPLETE_FROM_ISR
 111:../Dave/Generated/FREERTOS/stream_buffer.c **** 	#define sbSEND_COMPLETE_FROM_ISR( pxStreamBuffer, pxHigherPriorityTaskWoken )		\
 112:../Dave/Generated/FREERTOS/stream_buffer.c **** 	{																					\
 113:../Dave/Generated/FREERTOS/stream_buffer.c **** 	UBaseType_t uxSavedInterruptStatus;													\
 114:../Dave/Generated/FREERTOS/stream_buffer.c **** 																						\
 115:../Dave/Generated/FREERTOS/stream_buffer.c **** 		uxSavedInterruptStatus = ( UBaseType_t ) portSET_INTERRUPT_MASK_FROM_ISR();		\
 116:../Dave/Generated/FREERTOS/stream_buffer.c **** 		{																				\
 117:../Dave/Generated/FREERTOS/stream_buffer.c **** 			if( ( pxStreamBuffer )->xTaskWaitingToReceive != NULL )						\
 118:../Dave/Generated/FREERTOS/stream_buffer.c **** 			{																			\
 119:../Dave/Generated/FREERTOS/stream_buffer.c **** 				( void ) xTaskNotifyFromISR( ( pxStreamBuffer )->xTaskWaitingToReceive,	\
 120:../Dave/Generated/FREERTOS/stream_buffer.c **** 											 ( uint32_t ) 0,							\
 121:../Dave/Generated/FREERTOS/stream_buffer.c **** 											 eNoAction,									\
 122:../Dave/Generated/FREERTOS/stream_buffer.c **** 											 pxHigherPriorityTaskWoken );				\
 123:../Dave/Generated/FREERTOS/stream_buffer.c **** 				( pxStreamBuffer )->xTaskWaitingToReceive = NULL;						\
 124:../Dave/Generated/FREERTOS/stream_buffer.c **** 			}																			\
 125:../Dave/Generated/FREERTOS/stream_buffer.c **** 		}																				\
 126:../Dave/Generated/FREERTOS/stream_buffer.c **** 		portCLEAR_INTERRUPT_MASK_FROM_ISR( uxSavedInterruptStatus );					\
 127:../Dave/Generated/FREERTOS/stream_buffer.c **** 	}
 128:../Dave/Generated/FREERTOS/stream_buffer.c **** #endif /* sbSEND_COMPLETE_FROM_ISR */
 129:../Dave/Generated/FREERTOS/stream_buffer.c **** /*lint -restore (9026) */
 130:../Dave/Generated/FREERTOS/stream_buffer.c **** 
 131:../Dave/Generated/FREERTOS/stream_buffer.c **** /* The number of bytes used to hold the length of a message in the buffer. */
 132:../Dave/Generated/FREERTOS/stream_buffer.c **** #define sbBYTES_TO_STORE_MESSAGE_LENGTH ( sizeof( configMESSAGE_BUFFER_LENGTH_TYPE ) )
 133:../Dave/Generated/FREERTOS/stream_buffer.c **** 
 134:../Dave/Generated/FREERTOS/stream_buffer.c **** /* Bits stored in the ucFlags field of the stream buffer. */
 135:../Dave/Generated/FREERTOS/stream_buffer.c **** #define sbFLAGS_IS_MESSAGE_BUFFER		( ( uint8_t ) 1 ) /* Set if the stream buffer was created as a m
 136:../Dave/Generated/FREERTOS/stream_buffer.c **** #define sbFLAGS_IS_STATICALLY_ALLOCATED ( ( uint8_t ) 2 ) /* Set if the stream buffer was created u
 137:../Dave/Generated/FREERTOS/stream_buffer.c **** 
 138:../Dave/Generated/FREERTOS/stream_buffer.c **** /*-----------------------------------------------------------*/
 139:../Dave/Generated/FREERTOS/stream_buffer.c **** 
 140:../Dave/Generated/FREERTOS/stream_buffer.c **** /* Structure that hold state information on the buffer. */
 141:../Dave/Generated/FREERTOS/stream_buffer.c **** typedef struct StreamBufferDef_t /*lint !e9058 Style convention uses tag. */
 142:../Dave/Generated/FREERTOS/stream_buffer.c **** {
 143:../Dave/Generated/FREERTOS/stream_buffer.c **** 	volatile size_t xTail;				/* Index to the next item to read within the buffer. */
 144:../Dave/Generated/FREERTOS/stream_buffer.c **** 	volatile size_t xHead;				/* Index to the next item to write within the buffer. */
 145:../Dave/Generated/FREERTOS/stream_buffer.c **** 	size_t xLength;						/* The length of the buffer pointed to by pucBuffer. */
 146:../Dave/Generated/FREERTOS/stream_buffer.c **** 	size_t xTriggerLevelBytes;			/* The number of bytes that must be in the stream buffer before a tas
 147:../Dave/Generated/FREERTOS/stream_buffer.c **** 	volatile TaskHandle_t xTaskWaitingToReceive; /* Holds the handle of a task waiting for data, or NU
 148:../Dave/Generated/FREERTOS/stream_buffer.c **** 	volatile TaskHandle_t xTaskWaitingToSend;	/* Holds the handle of a task waiting to send data to a 
 149:../Dave/Generated/FREERTOS/stream_buffer.c **** 	uint8_t *pucBuffer;					/* Points to the buffer itself - that is - the RAM that stores the data pa
 150:../Dave/Generated/FREERTOS/stream_buffer.c **** 	uint8_t ucFlags;
 151:../Dave/Generated/FREERTOS/stream_buffer.c **** 
 152:../Dave/Generated/FREERTOS/stream_buffer.c **** 	#if ( configUSE_TRACE_FACILITY == 1 )
 153:../Dave/Generated/FREERTOS/stream_buffer.c **** 		UBaseType_t uxStreamBufferNumber;		/* Used for tracing purposes. */
 154:../Dave/Generated/FREERTOS/stream_buffer.c **** 	#endif
 155:../Dave/Generated/FREERTOS/stream_buffer.c **** } StreamBuffer_t;
 156:../Dave/Generated/FREERTOS/stream_buffer.c **** 
 157:../Dave/Generated/FREERTOS/stream_buffer.c **** /*
 158:../Dave/Generated/FREERTOS/stream_buffer.c ****  * The number of bytes available to be read from the buffer.
 159:../Dave/Generated/FREERTOS/stream_buffer.c ****  */
 160:../Dave/Generated/FREERTOS/stream_buffer.c **** static size_t prvBytesInBuffer( const StreamBuffer_t * const pxStreamBuffer ) PRIVILEGED_FUNCTION;
 161:../Dave/Generated/FREERTOS/stream_buffer.c **** 
 162:../Dave/Generated/FREERTOS/stream_buffer.c **** /*
 163:../Dave/Generated/FREERTOS/stream_buffer.c ****  * Add xCount bytes from pucData into the pxStreamBuffer message buffer.
 164:../Dave/Generated/FREERTOS/stream_buffer.c ****  * Returns the number of bytes written, which will either equal xCount in the
 165:../Dave/Generated/FREERTOS/stream_buffer.c ****  * success case, or 0 if there was not enough space in the buffer (in which case
 166:../Dave/Generated/FREERTOS/stream_buffer.c ****  * no data is written into the buffer).
 167:../Dave/Generated/FREERTOS/stream_buffer.c ****  */
 168:../Dave/Generated/FREERTOS/stream_buffer.c **** static size_t prvWriteBytesToBuffer( StreamBuffer_t * const pxStreamBuffer, const uint8_t *pucData,
 169:../Dave/Generated/FREERTOS/stream_buffer.c **** 
 170:../Dave/Generated/FREERTOS/stream_buffer.c **** /*
 171:../Dave/Generated/FREERTOS/stream_buffer.c ****  * If the stream buffer is being used as a message buffer, then reads an entire
 172:../Dave/Generated/FREERTOS/stream_buffer.c ****  * message out of the buffer.  If the stream buffer is being used as a stream
 173:../Dave/Generated/FREERTOS/stream_buffer.c ****  * buffer then read as many bytes as possible from the buffer.
 174:../Dave/Generated/FREERTOS/stream_buffer.c ****  * prvReadBytesFromBuffer() is called to actually extract the bytes from the
 175:../Dave/Generated/FREERTOS/stream_buffer.c ****  * buffer's data storage area.
 176:../Dave/Generated/FREERTOS/stream_buffer.c ****  */
 177:../Dave/Generated/FREERTOS/stream_buffer.c **** static size_t prvReadMessageFromBuffer( StreamBuffer_t *pxStreamBuffer,
 178:../Dave/Generated/FREERTOS/stream_buffer.c **** 										void *pvRxData,
 179:../Dave/Generated/FREERTOS/stream_buffer.c **** 										size_t xBufferLengthBytes,
 180:../Dave/Generated/FREERTOS/stream_buffer.c **** 										size_t xBytesAvailable,
 181:../Dave/Generated/FREERTOS/stream_buffer.c **** 										size_t xBytesToStoreMessageLength ) PRIVILEGED_FUNCTION;
 182:../Dave/Generated/FREERTOS/stream_buffer.c **** 
 183:../Dave/Generated/FREERTOS/stream_buffer.c **** /*
 184:../Dave/Generated/FREERTOS/stream_buffer.c ****  * If the stream buffer is being used as a message buffer, then writes an entire
 185:../Dave/Generated/FREERTOS/stream_buffer.c ****  * message to the buffer.  If the stream buffer is being used as a stream
 186:../Dave/Generated/FREERTOS/stream_buffer.c ****  * buffer then write as many bytes as possible to the buffer.
 187:../Dave/Generated/FREERTOS/stream_buffer.c ****  * prvWriteBytestoBuffer() is called to actually send the bytes to the buffer's
 188:../Dave/Generated/FREERTOS/stream_buffer.c ****  * data storage area.
 189:../Dave/Generated/FREERTOS/stream_buffer.c ****  */
 190:../Dave/Generated/FREERTOS/stream_buffer.c **** static size_t prvWriteMessageToBuffer(  StreamBuffer_t * const pxStreamBuffer,
 191:../Dave/Generated/FREERTOS/stream_buffer.c **** 										const void * pvTxData,
 192:../Dave/Generated/FREERTOS/stream_buffer.c **** 										size_t xDataLengthBytes,
 193:../Dave/Generated/FREERTOS/stream_buffer.c **** 										size_t xSpace,
 194:../Dave/Generated/FREERTOS/stream_buffer.c **** 										size_t xRequiredSpace ) PRIVILEGED_FUNCTION;
 195:../Dave/Generated/FREERTOS/stream_buffer.c **** 
 196:../Dave/Generated/FREERTOS/stream_buffer.c **** /*
 197:../Dave/Generated/FREERTOS/stream_buffer.c ****  * Read xMaxCount bytes from the pxStreamBuffer message buffer and write them
 198:../Dave/Generated/FREERTOS/stream_buffer.c ****  * to pucData.
 199:../Dave/Generated/FREERTOS/stream_buffer.c ****  */
 200:../Dave/Generated/FREERTOS/stream_buffer.c **** static size_t prvReadBytesFromBuffer( StreamBuffer_t *pxStreamBuffer,
 201:../Dave/Generated/FREERTOS/stream_buffer.c **** 									  uint8_t *pucData,
 202:../Dave/Generated/FREERTOS/stream_buffer.c **** 									  size_t xMaxCount,
 203:../Dave/Generated/FREERTOS/stream_buffer.c **** 									  size_t xBytesAvailable ) PRIVILEGED_FUNCTION;
 204:../Dave/Generated/FREERTOS/stream_buffer.c **** 
 205:../Dave/Generated/FREERTOS/stream_buffer.c **** /*
 206:../Dave/Generated/FREERTOS/stream_buffer.c ****  * Called by both pxStreamBufferCreate() and pxStreamBufferCreateStatic() to
 207:../Dave/Generated/FREERTOS/stream_buffer.c ****  * initialise the members of the newly created stream buffer structure.
 208:../Dave/Generated/FREERTOS/stream_buffer.c ****  */
 209:../Dave/Generated/FREERTOS/stream_buffer.c **** static void prvInitialiseNewStreamBuffer( StreamBuffer_t * const pxStreamBuffer,
 210:../Dave/Generated/FREERTOS/stream_buffer.c **** 										  uint8_t * const pucBuffer,
 211:../Dave/Generated/FREERTOS/stream_buffer.c **** 										  size_t xBufferSizeBytes,
 212:../Dave/Generated/FREERTOS/stream_buffer.c **** 										  size_t xTriggerLevelBytes,
 213:../Dave/Generated/FREERTOS/stream_buffer.c **** 										  uint8_t ucFlags ) PRIVILEGED_FUNCTION;
 214:../Dave/Generated/FREERTOS/stream_buffer.c **** 
 215:../Dave/Generated/FREERTOS/stream_buffer.c **** /*-----------------------------------------------------------*/
 216:../Dave/Generated/FREERTOS/stream_buffer.c **** 
 217:../Dave/Generated/FREERTOS/stream_buffer.c **** #if( configSUPPORT_DYNAMIC_ALLOCATION == 1 )
 218:../Dave/Generated/FREERTOS/stream_buffer.c **** 
 219:../Dave/Generated/FREERTOS/stream_buffer.c **** 	StreamBufferHandle_t xStreamBufferGenericCreate( size_t xBufferSizeBytes, size_t xTriggerLevelByte
 220:../Dave/Generated/FREERTOS/stream_buffer.c **** 	{
  28              	 .loc 1 220 0
  29              	 .cfi_startproc
  30              	 
  31              	 
  32 0000 80B5     	 push {r7,lr}
  33              	.LCFI0:
  34              	 .cfi_def_cfa_offset 8
  35              	 .cfi_offset 7,-8
  36              	 .cfi_offset 14,-4
  37 0002 8CB0     	 sub sp,sp,#48
  38              	.LCFI1:
  39              	 .cfi_def_cfa_offset 56
  40 0004 02AF     	 add r7,sp,#8
  41              	.LCFI2:
  42              	 .cfi_def_cfa 7,48
  43 0006 F860     	 str r0,[r7,#12]
  44 0008 B960     	 str r1,[r7,#8]
  45 000a 7A60     	 str r2,[r7,#4]
 221:../Dave/Generated/FREERTOS/stream_buffer.c **** 	uint8_t *pucAllocatedMemory;
 222:../Dave/Generated/FREERTOS/stream_buffer.c **** 	uint8_t ucFlags;
 223:../Dave/Generated/FREERTOS/stream_buffer.c **** 
 224:../Dave/Generated/FREERTOS/stream_buffer.c **** 		/* In case the stream buffer is going to be used as a message buffer
 225:../Dave/Generated/FREERTOS/stream_buffer.c **** 		(that is, it will hold discrete messages with a little meta data that
 226:../Dave/Generated/FREERTOS/stream_buffer.c **** 		says how big the next message is) check the buffer will be large enough
 227:../Dave/Generated/FREERTOS/stream_buffer.c **** 		to hold at least one message. */
 228:../Dave/Generated/FREERTOS/stream_buffer.c **** 		if( xIsMessageBuffer == pdTRUE )
  46              	 .loc 1 228 0
  47 000c 7B68     	 ldr r3,[r7,#4]
  48 000e 012B     	 cmp r3,#1
  49 0010 0FD1     	 bne .L2
 229:../Dave/Generated/FREERTOS/stream_buffer.c **** 		{
 230:../Dave/Generated/FREERTOS/stream_buffer.c **** 			/* Is a message buffer but not statically allocated. */
 231:../Dave/Generated/FREERTOS/stream_buffer.c **** 			ucFlags = sbFLAGS_IS_MESSAGE_BUFFER;
  50              	 .loc 1 231 0
  51 0012 0123     	 movs r3,#1
  52 0014 87F82730 	 strb r3,[r7,#39]
 232:../Dave/Generated/FREERTOS/stream_buffer.c **** 			configASSERT( xBufferSizeBytes > sbBYTES_TO_STORE_MESSAGE_LENGTH );
  53              	 .loc 1 232 0
  54 0018 FB68     	 ldr r3,[r7,#12]
  55 001a 042B     	 cmp r3,#4
  56 001c 19D8     	 bhi .L3
  57              	.LBB85:
  58              	.LBB86:
  59              	 .file 2 "../Dave/Generated/FREERTOS/portable/GCC/portmacro.h"
   1:../Dave/Generated/FREERTOS/portable/GCC/portmacro.h **** /*
   2:../Dave/Generated/FREERTOS/portable/GCC/portmacro.h ****  * FreeRTOS Kernel V10.2.1
   3:../Dave/Generated/FREERTOS/portable/GCC/portmacro.h ****  * Copyright (C) 2019 Amazon.com, Inc. or its affiliates.  All Rights Reserved.
   4:../Dave/Generated/FREERTOS/portable/GCC/portmacro.h ****  *
   5:../Dave/Generated/FREERTOS/portable/GCC/portmacro.h ****  * Permission is hereby granted, free of charge, to any person obtaining a copy of
   6:../Dave/Generated/FREERTOS/portable/GCC/portmacro.h ****  * this software and associated documentation files (the "Software"), to deal in
   7:../Dave/Generated/FREERTOS/portable/GCC/portmacro.h ****  * the Software without restriction, including without limitation the rights to
   8:../Dave/Generated/FREERTOS/portable/GCC/portmacro.h ****  * use, copy, modify, merge, publish, distribute, sublicense, and/or sell copies of
   9:../Dave/Generated/FREERTOS/portable/GCC/portmacro.h ****  * the Software, and to permit persons to whom the Software is furnished to do so,
  10:../Dave/Generated/FREERTOS/portable/GCC/portmacro.h ****  * subject to the following conditions:
  11:../Dave/Generated/FREERTOS/portable/GCC/portmacro.h ****  *
  12:../Dave/Generated/FREERTOS/portable/GCC/portmacro.h ****  * The above copyright notice and this permission notice shall be included in all
  13:../Dave/Generated/FREERTOS/portable/GCC/portmacro.h ****  * copies or substantial portions of the Software.
  14:../Dave/Generated/FREERTOS/portable/GCC/portmacro.h ****  *
  15:../Dave/Generated/FREERTOS/portable/GCC/portmacro.h ****  * THE SOFTWARE IS PROVIDED "AS IS", WITHOUT WARRANTY OF ANY KIND, EXPRESS OR
  16:../Dave/Generated/FREERTOS/portable/GCC/portmacro.h ****  * IMPLIED, INCLUDING BUT NOT LIMITED TO THE WARRANTIES OF MERCHANTABILITY, FITNESS
  17:../Dave/Generated/FREERTOS/portable/GCC/portmacro.h ****  * FOR A PARTICULAR PURPOSE AND NONINFRINGEMENT. IN NO EVENT SHALL THE AUTHORS OR
  18:../Dave/Generated/FREERTOS/portable/GCC/portmacro.h ****  * COPYRIGHT HOLDERS BE LIABLE FOR ANY CLAIM, DAMAGES OR OTHER LIABILITY, WHETHER
  19:../Dave/Generated/FREERTOS/portable/GCC/portmacro.h ****  * IN AN ACTION OF CONTRACT, TORT OR OTHERWISE, ARISING FROM, OUT OF OR IN
  20:../Dave/Generated/FREERTOS/portable/GCC/portmacro.h ****  * CONNECTION WITH THE SOFTWARE OR THE USE OR OTHER DEALINGS IN THE SOFTWARE.
  21:../Dave/Generated/FREERTOS/portable/GCC/portmacro.h ****  *
  22:../Dave/Generated/FREERTOS/portable/GCC/portmacro.h ****  * http://www.FreeRTOS.org
  23:../Dave/Generated/FREERTOS/portable/GCC/portmacro.h ****  * http://aws.amazon.com/freertos
  24:../Dave/Generated/FREERTOS/portable/GCC/portmacro.h ****  *
  25:../Dave/Generated/FREERTOS/portable/GCC/portmacro.h ****  * 1 tab == 4 spaces!
  26:../Dave/Generated/FREERTOS/portable/GCC/portmacro.h ****  */
  27:../Dave/Generated/FREERTOS/portable/GCC/portmacro.h **** 
  28:../Dave/Generated/FREERTOS/portable/GCC/portmacro.h **** 
  29:../Dave/Generated/FREERTOS/portable/GCC/portmacro.h **** #ifndef PORTMACRO_H
  30:../Dave/Generated/FREERTOS/portable/GCC/portmacro.h **** #define PORTMACRO_H
  31:../Dave/Generated/FREERTOS/portable/GCC/portmacro.h **** 
  32:../Dave/Generated/FREERTOS/portable/GCC/portmacro.h **** #ifdef __cplusplus
  33:../Dave/Generated/FREERTOS/portable/GCC/portmacro.h **** extern "C" {
  34:../Dave/Generated/FREERTOS/portable/GCC/portmacro.h **** #endif
  35:../Dave/Generated/FREERTOS/portable/GCC/portmacro.h **** 
  36:../Dave/Generated/FREERTOS/portable/GCC/portmacro.h **** /*-----------------------------------------------------------
  37:../Dave/Generated/FREERTOS/portable/GCC/portmacro.h ****  * Port specific definitions.
  38:../Dave/Generated/FREERTOS/portable/GCC/portmacro.h ****  *
  39:../Dave/Generated/FREERTOS/portable/GCC/portmacro.h ****  * The settings in this file configure FreeRTOS correctly for the
  40:../Dave/Generated/FREERTOS/portable/GCC/portmacro.h ****  * given hardware and compiler.
  41:../Dave/Generated/FREERTOS/portable/GCC/portmacro.h ****  *
  42:../Dave/Generated/FREERTOS/portable/GCC/portmacro.h ****  * These settings should not be altered.
  43:../Dave/Generated/FREERTOS/portable/GCC/portmacro.h ****  *-----------------------------------------------------------
  44:../Dave/Generated/FREERTOS/portable/GCC/portmacro.h ****  */
  45:../Dave/Generated/FREERTOS/portable/GCC/portmacro.h **** 
  46:../Dave/Generated/FREERTOS/portable/GCC/portmacro.h **** /* Type definitions. */
  47:../Dave/Generated/FREERTOS/portable/GCC/portmacro.h **** #define portCHAR		char
  48:../Dave/Generated/FREERTOS/portable/GCC/portmacro.h **** #define portFLOAT		float
  49:../Dave/Generated/FREERTOS/portable/GCC/portmacro.h **** #define portDOUBLE		double
  50:../Dave/Generated/FREERTOS/portable/GCC/portmacro.h **** #define portLONG		long
  51:../Dave/Generated/FREERTOS/portable/GCC/portmacro.h **** #define portSHORT		short
  52:../Dave/Generated/FREERTOS/portable/GCC/portmacro.h **** #define portSTACK_TYPE	uint32_t
  53:../Dave/Generated/FREERTOS/portable/GCC/portmacro.h **** #define portBASE_TYPE	long
  54:../Dave/Generated/FREERTOS/portable/GCC/portmacro.h **** 
  55:../Dave/Generated/FREERTOS/portable/GCC/portmacro.h **** typedef portSTACK_TYPE StackType_t;
  56:../Dave/Generated/FREERTOS/portable/GCC/portmacro.h **** typedef long BaseType_t;
  57:../Dave/Generated/FREERTOS/portable/GCC/portmacro.h **** typedef unsigned long UBaseType_t;
  58:../Dave/Generated/FREERTOS/portable/GCC/portmacro.h **** 
  59:../Dave/Generated/FREERTOS/portable/GCC/portmacro.h **** #if( configUSE_16_BIT_TICKS == 1 )
  60:../Dave/Generated/FREERTOS/portable/GCC/portmacro.h **** 	typedef uint16_t TickType_t;
  61:../Dave/Generated/FREERTOS/portable/GCC/portmacro.h **** 	#define portMAX_DELAY ( TickType_t ) 0xffff
  62:../Dave/Generated/FREERTOS/portable/GCC/portmacro.h **** #else
  63:../Dave/Generated/FREERTOS/portable/GCC/portmacro.h **** 	typedef uint32_t TickType_t;
  64:../Dave/Generated/FREERTOS/portable/GCC/portmacro.h **** 	#define portMAX_DELAY ( TickType_t ) 0xffffffffUL
  65:../Dave/Generated/FREERTOS/portable/GCC/portmacro.h **** 
  66:../Dave/Generated/FREERTOS/portable/GCC/portmacro.h **** 	/* 32-bit tick type on a 32-bit architecture, so reads of the tick count do
  67:../Dave/Generated/FREERTOS/portable/GCC/portmacro.h **** 	not need to be guarded with a critical section. */
  68:../Dave/Generated/FREERTOS/portable/GCC/portmacro.h **** 	#define portTICK_TYPE_IS_ATOMIC 1
  69:../Dave/Generated/FREERTOS/portable/GCC/portmacro.h **** #endif
  70:../Dave/Generated/FREERTOS/portable/GCC/portmacro.h **** /*-----------------------------------------------------------*/
  71:../Dave/Generated/FREERTOS/portable/GCC/portmacro.h **** 
  72:../Dave/Generated/FREERTOS/portable/GCC/portmacro.h **** /* Architecture specifics. */
  73:../Dave/Generated/FREERTOS/portable/GCC/portmacro.h **** #define portSTACK_GROWTH			( -1 )
  74:../Dave/Generated/FREERTOS/portable/GCC/portmacro.h **** #define portTICK_PERIOD_MS			( ( TickType_t ) 1000 / configTICK_RATE_HZ )
  75:../Dave/Generated/FREERTOS/portable/GCC/portmacro.h **** #define portBYTE_ALIGNMENT			8
  76:../Dave/Generated/FREERTOS/portable/GCC/portmacro.h **** /*-----------------------------------------------------------*/
  77:../Dave/Generated/FREERTOS/portable/GCC/portmacro.h **** 
  78:../Dave/Generated/FREERTOS/portable/GCC/portmacro.h **** /* Scheduler utilities. */
  79:../Dave/Generated/FREERTOS/portable/GCC/portmacro.h **** #define portYIELD() 															\
  80:../Dave/Generated/FREERTOS/portable/GCC/portmacro.h **** {																				\
  81:../Dave/Generated/FREERTOS/portable/GCC/portmacro.h **** 	/* Set a PendSV to request a context switch. */								\
  82:../Dave/Generated/FREERTOS/portable/GCC/portmacro.h **** 	portNVIC_INT_CTRL_REG = portNVIC_PENDSVSET_BIT;								\
  83:../Dave/Generated/FREERTOS/portable/GCC/portmacro.h **** 																				\
  84:../Dave/Generated/FREERTOS/portable/GCC/portmacro.h **** 	/* Barriers are normally not required but do ensure the code is completely	\
  85:../Dave/Generated/FREERTOS/portable/GCC/portmacro.h **** 	within the specified behaviour for the architecture. */						\
  86:../Dave/Generated/FREERTOS/portable/GCC/portmacro.h **** 	__asm volatile( "dsb" ::: "memory" );										\
  87:../Dave/Generated/FREERTOS/portable/GCC/portmacro.h **** 	__asm volatile( "isb" );													\
  88:../Dave/Generated/FREERTOS/portable/GCC/portmacro.h **** }
  89:../Dave/Generated/FREERTOS/portable/GCC/portmacro.h **** 
  90:../Dave/Generated/FREERTOS/portable/GCC/portmacro.h **** #define portNVIC_INT_CTRL_REG		( * ( ( volatile uint32_t * ) 0xe000ed04 ) )
  91:../Dave/Generated/FREERTOS/portable/GCC/portmacro.h **** #define portNVIC_PENDSVSET_BIT		( 1UL << 28UL )
  92:../Dave/Generated/FREERTOS/portable/GCC/portmacro.h **** #define portEND_SWITCHING_ISR( xSwitchRequired ) if( xSwitchRequired != pdFALSE ) portYIELD()
  93:../Dave/Generated/FREERTOS/portable/GCC/portmacro.h **** #define portYIELD_FROM_ISR( x ) portEND_SWITCHING_ISR( x )
  94:../Dave/Generated/FREERTOS/portable/GCC/portmacro.h **** /*-----------------------------------------------------------*/
  95:../Dave/Generated/FREERTOS/portable/GCC/portmacro.h **** 
  96:../Dave/Generated/FREERTOS/portable/GCC/portmacro.h **** /* Critical section management. */
  97:../Dave/Generated/FREERTOS/portable/GCC/portmacro.h **** extern void vPortEnterCritical( void );
  98:../Dave/Generated/FREERTOS/portable/GCC/portmacro.h **** extern void vPortExitCritical( void );
  99:../Dave/Generated/FREERTOS/portable/GCC/portmacro.h **** #define portSET_INTERRUPT_MASK_FROM_ISR()		ulPortRaiseBASEPRI()
 100:../Dave/Generated/FREERTOS/portable/GCC/portmacro.h **** #define portCLEAR_INTERRUPT_MASK_FROM_ISR(x)	vPortSetBASEPRI(x)
 101:../Dave/Generated/FREERTOS/portable/GCC/portmacro.h **** #define portDISABLE_INTERRUPTS()				vPortRaiseBASEPRI()
 102:../Dave/Generated/FREERTOS/portable/GCC/portmacro.h **** #define portENABLE_INTERRUPTS()					vPortSetBASEPRI(0)
 103:../Dave/Generated/FREERTOS/portable/GCC/portmacro.h **** #define portENTER_CRITICAL()					vPortEnterCritical()
 104:../Dave/Generated/FREERTOS/portable/GCC/portmacro.h **** #define portEXIT_CRITICAL()						vPortExitCritical()
 105:../Dave/Generated/FREERTOS/portable/GCC/portmacro.h **** 
 106:../Dave/Generated/FREERTOS/portable/GCC/portmacro.h **** /*-----------------------------------------------------------*/
 107:../Dave/Generated/FREERTOS/portable/GCC/portmacro.h **** 
 108:../Dave/Generated/FREERTOS/portable/GCC/portmacro.h **** /* Task function macros as described on the FreeRTOS.org WEB site.  These are
 109:../Dave/Generated/FREERTOS/portable/GCC/portmacro.h **** not necessary for to use this port.  They are defined so the common demo files
 110:../Dave/Generated/FREERTOS/portable/GCC/portmacro.h **** (which build with all the ports) will build. */
 111:../Dave/Generated/FREERTOS/portable/GCC/portmacro.h **** #define portTASK_FUNCTION_PROTO( vFunction, pvParameters ) void vFunction( void *pvParameters )
 112:../Dave/Generated/FREERTOS/portable/GCC/portmacro.h **** #define portTASK_FUNCTION( vFunction, pvParameters ) void vFunction( void *pvParameters )
 113:../Dave/Generated/FREERTOS/portable/GCC/portmacro.h **** /*-----------------------------------------------------------*/
 114:../Dave/Generated/FREERTOS/portable/GCC/portmacro.h **** 
 115:../Dave/Generated/FREERTOS/portable/GCC/portmacro.h **** /* Tickless idle/low power functionality. */
 116:../Dave/Generated/FREERTOS/portable/GCC/portmacro.h **** #ifndef portSUPPRESS_TICKS_AND_SLEEP
 117:../Dave/Generated/FREERTOS/portable/GCC/portmacro.h **** 	extern void vPortSuppressTicksAndSleep( TickType_t xExpectedIdleTime );
 118:../Dave/Generated/FREERTOS/portable/GCC/portmacro.h **** 	#define portSUPPRESS_TICKS_AND_SLEEP( xExpectedIdleTime ) vPortSuppressTicksAndSleep( xExpectedIdl
 119:../Dave/Generated/FREERTOS/portable/GCC/portmacro.h **** #endif
 120:../Dave/Generated/FREERTOS/portable/GCC/portmacro.h **** /*-----------------------------------------------------------*/
 121:../Dave/Generated/FREERTOS/portable/GCC/portmacro.h **** 
 122:../Dave/Generated/FREERTOS/portable/GCC/portmacro.h **** /* Architecture specific optimisations. */
 123:../Dave/Generated/FREERTOS/portable/GCC/portmacro.h **** #ifndef configUSE_PORT_OPTIMISED_TASK_SELECTION
 124:../Dave/Generated/FREERTOS/portable/GCC/portmacro.h **** 	#define configUSE_PORT_OPTIMISED_TASK_SELECTION 1
 125:../Dave/Generated/FREERTOS/portable/GCC/portmacro.h **** #endif
 126:../Dave/Generated/FREERTOS/portable/GCC/portmacro.h **** 
 127:../Dave/Generated/FREERTOS/portable/GCC/portmacro.h **** #if configUSE_PORT_OPTIMISED_TASK_SELECTION == 1
 128:../Dave/Generated/FREERTOS/portable/GCC/portmacro.h **** 
 129:../Dave/Generated/FREERTOS/portable/GCC/portmacro.h **** 	/* Generic helper function. */
 130:../Dave/Generated/FREERTOS/portable/GCC/portmacro.h **** 	__attribute__( ( always_inline ) ) static inline uint8_t ucPortCountLeadingZeros( uint32_t ulBitma
 131:../Dave/Generated/FREERTOS/portable/GCC/portmacro.h **** 	{
 132:../Dave/Generated/FREERTOS/portable/GCC/portmacro.h **** 	uint8_t ucReturn;
 133:../Dave/Generated/FREERTOS/portable/GCC/portmacro.h **** 
 134:../Dave/Generated/FREERTOS/portable/GCC/portmacro.h **** 		__asm volatile ( "clz %0, %1" : "=r" ( ucReturn ) : "r" ( ulBitmap ) : "memory" );
 135:../Dave/Generated/FREERTOS/portable/GCC/portmacro.h **** 		return ucReturn;
 136:../Dave/Generated/FREERTOS/portable/GCC/portmacro.h **** 	}
 137:../Dave/Generated/FREERTOS/portable/GCC/portmacro.h **** 
 138:../Dave/Generated/FREERTOS/portable/GCC/portmacro.h **** 	/* Check the configuration. */
 139:../Dave/Generated/FREERTOS/portable/GCC/portmacro.h **** 	#if( configMAX_PRIORITIES > 32 )
 140:../Dave/Generated/FREERTOS/portable/GCC/portmacro.h **** 		#error configUSE_PORT_OPTIMISED_TASK_SELECTION can only be set to 1 when configMAX_PRIORITIES is 
 141:../Dave/Generated/FREERTOS/portable/GCC/portmacro.h **** 	#endif
 142:../Dave/Generated/FREERTOS/portable/GCC/portmacro.h **** 
 143:../Dave/Generated/FREERTOS/portable/GCC/portmacro.h **** 	/* Store/clear the ready priorities in a bit map. */
 144:../Dave/Generated/FREERTOS/portable/GCC/portmacro.h **** 	#define portRECORD_READY_PRIORITY( uxPriority, uxReadyPriorities ) ( uxReadyPriorities ) |= ( 1UL 
 145:../Dave/Generated/FREERTOS/portable/GCC/portmacro.h **** 	#define portRESET_READY_PRIORITY( uxPriority, uxReadyPriorities ) ( uxReadyPriorities ) &= ~( 1UL 
 146:../Dave/Generated/FREERTOS/portable/GCC/portmacro.h **** 
 147:../Dave/Generated/FREERTOS/portable/GCC/portmacro.h **** 	/*-----------------------------------------------------------*/
 148:../Dave/Generated/FREERTOS/portable/GCC/portmacro.h **** 
 149:../Dave/Generated/FREERTOS/portable/GCC/portmacro.h **** 	#define portGET_HIGHEST_PRIORITY( uxTopPriority, uxReadyPriorities ) uxTopPriority = ( 31UL - ( ui
 150:../Dave/Generated/FREERTOS/portable/GCC/portmacro.h **** 
 151:../Dave/Generated/FREERTOS/portable/GCC/portmacro.h **** #endif /* configUSE_PORT_OPTIMISED_TASK_SELECTION */
 152:../Dave/Generated/FREERTOS/portable/GCC/portmacro.h **** 
 153:../Dave/Generated/FREERTOS/portable/GCC/portmacro.h **** /*-----------------------------------------------------------*/
 154:../Dave/Generated/FREERTOS/portable/GCC/portmacro.h **** 
 155:../Dave/Generated/FREERTOS/portable/GCC/portmacro.h **** #ifdef configASSERT
 156:../Dave/Generated/FREERTOS/portable/GCC/portmacro.h **** 	void vPortValidateInterruptPriority( void );
 157:../Dave/Generated/FREERTOS/portable/GCC/portmacro.h **** 	#define portASSERT_IF_INTERRUPT_PRIORITY_INVALID() 	vPortValidateInterruptPriority()
 158:../Dave/Generated/FREERTOS/portable/GCC/portmacro.h **** #endif
 159:../Dave/Generated/FREERTOS/portable/GCC/portmacro.h **** 
 160:../Dave/Generated/FREERTOS/portable/GCC/portmacro.h **** /* portNOP() is not required by this port. */
 161:../Dave/Generated/FREERTOS/portable/GCC/portmacro.h **** #define portNOP()
 162:../Dave/Generated/FREERTOS/portable/GCC/portmacro.h **** 
 163:../Dave/Generated/FREERTOS/portable/GCC/portmacro.h **** #define portINLINE	__inline
 164:../Dave/Generated/FREERTOS/portable/GCC/portmacro.h **** 
 165:../Dave/Generated/FREERTOS/portable/GCC/portmacro.h **** #ifndef portFORCE_INLINE
 166:../Dave/Generated/FREERTOS/portable/GCC/portmacro.h **** 	#define portFORCE_INLINE inline __attribute__(( always_inline))
 167:../Dave/Generated/FREERTOS/portable/GCC/portmacro.h **** #endif
 168:../Dave/Generated/FREERTOS/portable/GCC/portmacro.h **** 
 169:../Dave/Generated/FREERTOS/portable/GCC/portmacro.h **** portFORCE_INLINE static BaseType_t xPortIsInsideInterrupt( void )
 170:../Dave/Generated/FREERTOS/portable/GCC/portmacro.h **** {
 171:../Dave/Generated/FREERTOS/portable/GCC/portmacro.h **** uint32_t ulCurrentInterrupt;
 172:../Dave/Generated/FREERTOS/portable/GCC/portmacro.h **** BaseType_t xReturn;
 173:../Dave/Generated/FREERTOS/portable/GCC/portmacro.h **** 
 174:../Dave/Generated/FREERTOS/portable/GCC/portmacro.h **** 	/* Obtain the number of the currently executing interrupt. */
 175:../Dave/Generated/FREERTOS/portable/GCC/portmacro.h **** 	__asm volatile( "mrs %0, ipsr" : "=r"( ulCurrentInterrupt ) :: "memory" );
 176:../Dave/Generated/FREERTOS/portable/GCC/portmacro.h **** 
 177:../Dave/Generated/FREERTOS/portable/GCC/portmacro.h **** 	if( ulCurrentInterrupt == 0 )
 178:../Dave/Generated/FREERTOS/portable/GCC/portmacro.h **** 	{
 179:../Dave/Generated/FREERTOS/portable/GCC/portmacro.h **** 		xReturn = pdFALSE;
 180:../Dave/Generated/FREERTOS/portable/GCC/portmacro.h **** 	}
 181:../Dave/Generated/FREERTOS/portable/GCC/portmacro.h **** 	else
 182:../Dave/Generated/FREERTOS/portable/GCC/portmacro.h **** 	{
 183:../Dave/Generated/FREERTOS/portable/GCC/portmacro.h **** 		xReturn = pdTRUE;
 184:../Dave/Generated/FREERTOS/portable/GCC/portmacro.h **** 	}
 185:../Dave/Generated/FREERTOS/portable/GCC/portmacro.h **** 
 186:../Dave/Generated/FREERTOS/portable/GCC/portmacro.h **** 	return xReturn;
 187:../Dave/Generated/FREERTOS/portable/GCC/portmacro.h **** }
 188:../Dave/Generated/FREERTOS/portable/GCC/portmacro.h **** 
 189:../Dave/Generated/FREERTOS/portable/GCC/portmacro.h **** /*-----------------------------------------------------------*/
 190:../Dave/Generated/FREERTOS/portable/GCC/portmacro.h **** 
 191:../Dave/Generated/FREERTOS/portable/GCC/portmacro.h **** portFORCE_INLINE static void vPortRaiseBASEPRI( void )
 192:../Dave/Generated/FREERTOS/portable/GCC/portmacro.h **** {
 193:../Dave/Generated/FREERTOS/portable/GCC/portmacro.h **** uint32_t ulNewBASEPRI;
 194:../Dave/Generated/FREERTOS/portable/GCC/portmacro.h **** 
 195:../Dave/Generated/FREERTOS/portable/GCC/portmacro.h **** 	__asm volatile
  60              	 .loc 2 195 0 discriminator 1
  61              	
  62 001e 4FF0FC03 	 mov r3,#252
  63 0022 83F31188 	 msr basepri,r3
  64 0026 BFF36F8F 	 isb 
  65 002a BFF34F8F 	 dsb 
  66              	
  67              	
  68              	 .thumb
  69 002e FB61     	 str r3,[r7,#28]
  70              	.L4:
  71              	.LBE86:
  72              	.LBE85:
  73              	 .loc 1 232 0 discriminator 1
  74 0030 FEE7     	 b .L4
  75              	.L2:
 233:../Dave/Generated/FREERTOS/stream_buffer.c **** 		}
 234:../Dave/Generated/FREERTOS/stream_buffer.c **** 		else
 235:../Dave/Generated/FREERTOS/stream_buffer.c **** 		{
 236:../Dave/Generated/FREERTOS/stream_buffer.c **** 			/* Not a message buffer and not statically allocated. */
 237:../Dave/Generated/FREERTOS/stream_buffer.c **** 			ucFlags = 0;
  76              	 .loc 1 237 0
  77 0032 0023     	 movs r3,#0
  78 0034 87F82730 	 strb r3,[r7,#39]
 238:../Dave/Generated/FREERTOS/stream_buffer.c **** 			configASSERT( xBufferSizeBytes > 0 );
  79              	 .loc 1 238 0
  80 0038 FB68     	 ldr r3,[r7,#12]
  81 003a 002B     	 cmp r3,#0
  82 003c 09D1     	 bne .L3
  83              	.LBB87:
  84              	.LBB88:
  85              	 .loc 2 195 0 discriminator 1
  86              	
  87 003e 4FF0FC03 	 mov r3,#252
  88 0042 83F31188 	 msr basepri,r3
  89 0046 BFF36F8F 	 isb 
  90 004a BFF34F8F 	 dsb 
  91              	
  92              	
  93              	 .thumb
  94 004e BB61     	 str r3,[r7,#24]
  95              	.L5:
  96              	.LBE88:
  97              	.LBE87:
  98              	 .loc 1 238 0 discriminator 2
  99 0050 FEE7     	 b .L5
 100              	.L3:
 239:../Dave/Generated/FREERTOS/stream_buffer.c **** 		}
 240:../Dave/Generated/FREERTOS/stream_buffer.c **** 		configASSERT( xTriggerLevelBytes <= xBufferSizeBytes );
 101              	 .loc 1 240 0
 102 0052 BA68     	 ldr r2,[r7,#8]
 103 0054 FB68     	 ldr r3,[r7,#12]
 104 0056 9A42     	 cmp r2,r3
 105 0058 09D9     	 bls .L6
 106              	.LBB89:
 107              	.LBB90:
 108              	 .loc 2 195 0 discriminator 1
 109              	
 110 005a 4FF0FC03 	 mov r3,#252
 111 005e 83F31188 	 msr basepri,r3
 112 0062 BFF36F8F 	 isb 
 113 0066 BFF34F8F 	 dsb 
 114              	
 115              	
 116              	 .thumb
 117 006a 7B61     	 str r3,[r7,#20]
 118              	.L7:
 119              	.LBE90:
 120              	.LBE89:
 121              	 .loc 1 240 0 discriminator 3
 122 006c FEE7     	 b .L7
 123              	.L6:
 241:../Dave/Generated/FREERTOS/stream_buffer.c **** 
 242:../Dave/Generated/FREERTOS/stream_buffer.c **** 		/* A trigger level of 0 would cause a waiting task to unblock even when
 243:../Dave/Generated/FREERTOS/stream_buffer.c **** 		the buffer was empty. */
 244:../Dave/Generated/FREERTOS/stream_buffer.c **** 		if( xTriggerLevelBytes == ( size_t ) 0 )
 124              	 .loc 1 244 0
 125 006e BB68     	 ldr r3,[r7,#8]
 126 0070 002B     	 cmp r3,#0
 127 0072 01D1     	 bne .L8
 245:../Dave/Generated/FREERTOS/stream_buffer.c **** 		{
 246:../Dave/Generated/FREERTOS/stream_buffer.c **** 			xTriggerLevelBytes = ( size_t ) 1;
 128              	 .loc 1 246 0
 129 0074 0123     	 movs r3,#1
 130 0076 BB60     	 str r3,[r7,#8]
 131              	.L8:
 247:../Dave/Generated/FREERTOS/stream_buffer.c **** 		}
 248:../Dave/Generated/FREERTOS/stream_buffer.c **** 
 249:../Dave/Generated/FREERTOS/stream_buffer.c **** 		/* A stream buffer requires a StreamBuffer_t structure and a buffer.
 250:../Dave/Generated/FREERTOS/stream_buffer.c **** 		Both are allocated in a single call to pvPortMalloc().  The
 251:../Dave/Generated/FREERTOS/stream_buffer.c **** 		StreamBuffer_t structure is placed at the start of the allocated memory
 252:../Dave/Generated/FREERTOS/stream_buffer.c **** 		and the buffer follows immediately after.  The requested size is
 253:../Dave/Generated/FREERTOS/stream_buffer.c **** 		incremented so the free space is returned as the user would expect -
 254:../Dave/Generated/FREERTOS/stream_buffer.c **** 		this is a quirk of the implementation that means otherwise the free
 255:../Dave/Generated/FREERTOS/stream_buffer.c **** 		space would be reported as one byte smaller than would be logically
 256:../Dave/Generated/FREERTOS/stream_buffer.c **** 		expected. */
 257:../Dave/Generated/FREERTOS/stream_buffer.c **** 		xBufferSizeBytes++;
 132              	 .loc 1 257 0
 133 0078 FB68     	 ldr r3,[r7,#12]
 134 007a 0133     	 adds r3,r3,#1
 135 007c FB60     	 str r3,[r7,#12]
 258:../Dave/Generated/FREERTOS/stream_buffer.c **** 		pucAllocatedMemory = ( uint8_t * ) pvPortMalloc( xBufferSizeBytes + sizeof( StreamBuffer_t ) ); /
 136              	 .loc 1 258 0
 137 007e FB68     	 ldr r3,[r7,#12]
 138 0080 2433     	 adds r3,r3,#36
 139 0082 1846     	 mov r0,r3
 140 0084 FFF7FEFF 	 bl pvPortMalloc
 141 0088 3862     	 str r0,[r7,#32]
 259:../Dave/Generated/FREERTOS/stream_buffer.c **** 
 260:../Dave/Generated/FREERTOS/stream_buffer.c **** 		if( pucAllocatedMemory != NULL )
 142              	 .loc 1 260 0
 143 008a 3B6A     	 ldr r3,[r7,#32]
 144 008c 002B     	 cmp r3,#0
 145 008e 0BD0     	 beq .L9
 261:../Dave/Generated/FREERTOS/stream_buffer.c **** 		{
 262:../Dave/Generated/FREERTOS/stream_buffer.c **** 			prvInitialiseNewStreamBuffer( ( StreamBuffer_t * ) pucAllocatedMemory, /* Structure at the start
 146              	 .loc 1 262 0
 147 0090 3B6A     	 ldr r3,[r7,#32]
 148 0092 03F12402 	 add r2,r3,#36
 149 0096 97F82730 	 ldrb r3,[r7,#39]
 150 009a 0093     	 str r3,[sp]
 151 009c 386A     	 ldr r0,[r7,#32]
 152 009e 1146     	 mov r1,r2
 153 00a0 FA68     	 ldr r2,[r7,#12]
 154 00a2 BB68     	 ldr r3,[r7,#8]
 155 00a4 FFF7FEFF 	 bl prvInitialiseNewStreamBuffer
 156              	.L9:
 263:../Dave/Generated/FREERTOS/stream_buffer.c **** 										   pucAllocatedMemory + sizeof( StreamBuffer_t ),  /* Storage area follows. */ /*lint !e9
 264:../Dave/Generated/FREERTOS/stream_buffer.c **** 										   xBufferSizeBytes,
 265:../Dave/Generated/FREERTOS/stream_buffer.c **** 										   xTriggerLevelBytes,
 266:../Dave/Generated/FREERTOS/stream_buffer.c **** 										   ucFlags );
 267:../Dave/Generated/FREERTOS/stream_buffer.c **** 
 268:../Dave/Generated/FREERTOS/stream_buffer.c **** 			traceSTREAM_BUFFER_CREATE( ( ( StreamBuffer_t * ) pucAllocatedMemory ), xIsMessageBuffer );
 269:../Dave/Generated/FREERTOS/stream_buffer.c **** 		}
 270:../Dave/Generated/FREERTOS/stream_buffer.c **** 		else
 271:../Dave/Generated/FREERTOS/stream_buffer.c **** 		{
 272:../Dave/Generated/FREERTOS/stream_buffer.c **** 			traceSTREAM_BUFFER_CREATE_FAILED( xIsMessageBuffer );
 273:../Dave/Generated/FREERTOS/stream_buffer.c **** 		}
 274:../Dave/Generated/FREERTOS/stream_buffer.c **** 
 275:../Dave/Generated/FREERTOS/stream_buffer.c **** 		return ( StreamBufferHandle_t ) pucAllocatedMemory; /*lint !e9087 !e826 Safe cast as allocated me
 157              	 .loc 1 275 0
 158 00a8 3B6A     	 ldr r3,[r7,#32]
 276:../Dave/Generated/FREERTOS/stream_buffer.c **** 	}
 159              	 .loc 1 276 0
 160 00aa 1846     	 mov r0,r3
 161 00ac 2837     	 adds r7,r7,#40
 162              	.LCFI3:
 163              	 .cfi_def_cfa_offset 8
 164 00ae BD46     	 mov sp,r7
 165              	.LCFI4:
 166              	 .cfi_def_cfa_register 13
 167              	 
 168 00b0 80BD     	 pop {r7,pc}
 169              	 .cfi_endproc
 170              	.LFE137:
 172 00b2 00BF     	 .section .text.vStreamBufferDelete,"ax",%progbits
 173              	 .align 2
 174              	 .global vStreamBufferDelete
 175              	 .thumb
 176              	 .thumb_func
 178              	vStreamBufferDelete:
 179              	.LFB138:
 277:../Dave/Generated/FREERTOS/stream_buffer.c **** 
 278:../Dave/Generated/FREERTOS/stream_buffer.c **** #endif /* configSUPPORT_DYNAMIC_ALLOCATION */
 279:../Dave/Generated/FREERTOS/stream_buffer.c **** /*-----------------------------------------------------------*/
 280:../Dave/Generated/FREERTOS/stream_buffer.c **** 
 281:../Dave/Generated/FREERTOS/stream_buffer.c **** #if( configSUPPORT_STATIC_ALLOCATION == 1 )
 282:../Dave/Generated/FREERTOS/stream_buffer.c **** 
 283:../Dave/Generated/FREERTOS/stream_buffer.c **** 	StreamBufferHandle_t xStreamBufferGenericCreateStatic( size_t xBufferSizeBytes,
 284:../Dave/Generated/FREERTOS/stream_buffer.c **** 														   size_t xTriggerLevelBytes,
 285:../Dave/Generated/FREERTOS/stream_buffer.c **** 														   BaseType_t xIsMessageBuffer,
 286:../Dave/Generated/FREERTOS/stream_buffer.c **** 														   uint8_t * const pucStreamBufferStorageArea,
 287:../Dave/Generated/FREERTOS/stream_buffer.c **** 														   StaticStreamBuffer_t * const pxStaticStreamBuffer )
 288:../Dave/Generated/FREERTOS/stream_buffer.c **** 	{
 289:../Dave/Generated/FREERTOS/stream_buffer.c **** 	StreamBuffer_t * const pxStreamBuffer = ( StreamBuffer_t * ) pxStaticStreamBuffer; /*lint !e740 !e
 290:../Dave/Generated/FREERTOS/stream_buffer.c **** 	StreamBufferHandle_t xReturn;
 291:../Dave/Generated/FREERTOS/stream_buffer.c **** 	uint8_t ucFlags;
 292:../Dave/Generated/FREERTOS/stream_buffer.c **** 
 293:../Dave/Generated/FREERTOS/stream_buffer.c **** 		configASSERT( pucStreamBufferStorageArea );
 294:../Dave/Generated/FREERTOS/stream_buffer.c **** 		configASSERT( pxStaticStreamBuffer );
 295:../Dave/Generated/FREERTOS/stream_buffer.c **** 		configASSERT( xTriggerLevelBytes <= xBufferSizeBytes );
 296:../Dave/Generated/FREERTOS/stream_buffer.c **** 
 297:../Dave/Generated/FREERTOS/stream_buffer.c **** 		/* A trigger level of 0 would cause a waiting task to unblock even when
 298:../Dave/Generated/FREERTOS/stream_buffer.c **** 		the buffer was empty. */
 299:../Dave/Generated/FREERTOS/stream_buffer.c **** 		if( xTriggerLevelBytes == ( size_t ) 0 )
 300:../Dave/Generated/FREERTOS/stream_buffer.c **** 		{
 301:../Dave/Generated/FREERTOS/stream_buffer.c **** 			xTriggerLevelBytes = ( size_t ) 1;
 302:../Dave/Generated/FREERTOS/stream_buffer.c **** 		}
 303:../Dave/Generated/FREERTOS/stream_buffer.c **** 
 304:../Dave/Generated/FREERTOS/stream_buffer.c **** 		if( xIsMessageBuffer != pdFALSE )
 305:../Dave/Generated/FREERTOS/stream_buffer.c **** 		{
 306:../Dave/Generated/FREERTOS/stream_buffer.c **** 			/* Statically allocated message buffer. */
 307:../Dave/Generated/FREERTOS/stream_buffer.c **** 			ucFlags = sbFLAGS_IS_MESSAGE_BUFFER | sbFLAGS_IS_STATICALLY_ALLOCATED;
 308:../Dave/Generated/FREERTOS/stream_buffer.c **** 		}
 309:../Dave/Generated/FREERTOS/stream_buffer.c **** 		else
 310:../Dave/Generated/FREERTOS/stream_buffer.c **** 		{
 311:../Dave/Generated/FREERTOS/stream_buffer.c **** 			/* Statically allocated stream buffer. */
 312:../Dave/Generated/FREERTOS/stream_buffer.c **** 			ucFlags = sbFLAGS_IS_STATICALLY_ALLOCATED;
 313:../Dave/Generated/FREERTOS/stream_buffer.c **** 		}
 314:../Dave/Generated/FREERTOS/stream_buffer.c **** 
 315:../Dave/Generated/FREERTOS/stream_buffer.c **** 		/* In case the stream buffer is going to be used as a message buffer
 316:../Dave/Generated/FREERTOS/stream_buffer.c **** 		(that is, it will hold discrete messages with a little meta data that
 317:../Dave/Generated/FREERTOS/stream_buffer.c **** 		says how big the next message is) check the buffer will be large enough
 318:../Dave/Generated/FREERTOS/stream_buffer.c **** 		to hold at least one message. */
 319:../Dave/Generated/FREERTOS/stream_buffer.c **** 		configASSERT( xBufferSizeBytes > sbBYTES_TO_STORE_MESSAGE_LENGTH );
 320:../Dave/Generated/FREERTOS/stream_buffer.c **** 
 321:../Dave/Generated/FREERTOS/stream_buffer.c **** 		#if( configASSERT_DEFINED == 1 )
 322:../Dave/Generated/FREERTOS/stream_buffer.c **** 		{
 323:../Dave/Generated/FREERTOS/stream_buffer.c **** 			/* Sanity check that the size of the structure used to declare a
 324:../Dave/Generated/FREERTOS/stream_buffer.c **** 			variable of type StaticStreamBuffer_t equals the size of the real
 325:../Dave/Generated/FREERTOS/stream_buffer.c **** 			message buffer structure. */
 326:../Dave/Generated/FREERTOS/stream_buffer.c **** 			volatile size_t xSize = sizeof( StaticStreamBuffer_t );
 327:../Dave/Generated/FREERTOS/stream_buffer.c **** 			configASSERT( xSize == sizeof( StreamBuffer_t ) );
 328:../Dave/Generated/FREERTOS/stream_buffer.c **** 		} /*lint !e529 xSize is referenced is configASSERT() is defined. */
 329:../Dave/Generated/FREERTOS/stream_buffer.c **** 		#endif /* configASSERT_DEFINED */
 330:../Dave/Generated/FREERTOS/stream_buffer.c **** 
 331:../Dave/Generated/FREERTOS/stream_buffer.c **** 		if( ( pucStreamBufferStorageArea != NULL ) && ( pxStaticStreamBuffer != NULL ) )
 332:../Dave/Generated/FREERTOS/stream_buffer.c **** 		{
 333:../Dave/Generated/FREERTOS/stream_buffer.c **** 			prvInitialiseNewStreamBuffer( pxStreamBuffer,
 334:../Dave/Generated/FREERTOS/stream_buffer.c **** 										  pucStreamBufferStorageArea,
 335:../Dave/Generated/FREERTOS/stream_buffer.c **** 										  xBufferSizeBytes,
 336:../Dave/Generated/FREERTOS/stream_buffer.c **** 										  xTriggerLevelBytes,
 337:../Dave/Generated/FREERTOS/stream_buffer.c **** 										  ucFlags );
 338:../Dave/Generated/FREERTOS/stream_buffer.c **** 
 339:../Dave/Generated/FREERTOS/stream_buffer.c **** 			/* Remember this was statically allocated in case it is ever deleted
 340:../Dave/Generated/FREERTOS/stream_buffer.c **** 			again. */
 341:../Dave/Generated/FREERTOS/stream_buffer.c **** 			pxStreamBuffer->ucFlags |= sbFLAGS_IS_STATICALLY_ALLOCATED;
 342:../Dave/Generated/FREERTOS/stream_buffer.c **** 
 343:../Dave/Generated/FREERTOS/stream_buffer.c **** 			traceSTREAM_BUFFER_CREATE( pxStreamBuffer, xIsMessageBuffer );
 344:../Dave/Generated/FREERTOS/stream_buffer.c **** 
 345:../Dave/Generated/FREERTOS/stream_buffer.c **** 			xReturn = ( StreamBufferHandle_t ) pxStaticStreamBuffer; /*lint !e9087 Data hiding requires cast
 346:../Dave/Generated/FREERTOS/stream_buffer.c **** 		}
 347:../Dave/Generated/FREERTOS/stream_buffer.c **** 		else
 348:../Dave/Generated/FREERTOS/stream_buffer.c **** 		{
 349:../Dave/Generated/FREERTOS/stream_buffer.c **** 			xReturn = NULL;
 350:../Dave/Generated/FREERTOS/stream_buffer.c **** 			traceSTREAM_BUFFER_CREATE_STATIC_FAILED( xReturn, xIsMessageBuffer );
 351:../Dave/Generated/FREERTOS/stream_buffer.c **** 		}
 352:../Dave/Generated/FREERTOS/stream_buffer.c **** 
 353:../Dave/Generated/FREERTOS/stream_buffer.c **** 		return xReturn;
 354:../Dave/Generated/FREERTOS/stream_buffer.c **** 	}
 355:../Dave/Generated/FREERTOS/stream_buffer.c **** 
 356:../Dave/Generated/FREERTOS/stream_buffer.c **** #endif /* ( configSUPPORT_STATIC_ALLOCATION == 1 ) */
 357:../Dave/Generated/FREERTOS/stream_buffer.c **** /*-----------------------------------------------------------*/
 358:../Dave/Generated/FREERTOS/stream_buffer.c **** 
 359:../Dave/Generated/FREERTOS/stream_buffer.c **** void vStreamBufferDelete( StreamBufferHandle_t xStreamBuffer )
 360:../Dave/Generated/FREERTOS/stream_buffer.c **** {
 180              	 .loc 1 360 0
 181              	 .cfi_startproc
 182              	 
 183              	 
 184 0000 80B5     	 push {r7,lr}
 185              	.LCFI5:
 186              	 .cfi_def_cfa_offset 8
 187              	 .cfi_offset 7,-8
 188              	 .cfi_offset 14,-4
 189 0002 84B0     	 sub sp,sp,#16
 190              	.LCFI6:
 191              	 .cfi_def_cfa_offset 24
 192 0004 00AF     	 add r7,sp,#0
 193              	.LCFI7:
 194              	 .cfi_def_cfa_register 7
 195 0006 7860     	 str r0,[r7,#4]
 361:../Dave/Generated/FREERTOS/stream_buffer.c **** StreamBuffer_t * pxStreamBuffer = xStreamBuffer;
 196              	 .loc 1 361 0
 197 0008 7B68     	 ldr r3,[r7,#4]
 198 000a FB60     	 str r3,[r7,#12]
 362:../Dave/Generated/FREERTOS/stream_buffer.c **** 
 363:../Dave/Generated/FREERTOS/stream_buffer.c **** 	configASSERT( pxStreamBuffer );
 199              	 .loc 1 363 0
 200 000c FB68     	 ldr r3,[r7,#12]
 201 000e 002B     	 cmp r3,#0
 202 0010 09D1     	 bne .L12
 203              	.LBB91:
 204              	.LBB92:
 205              	 .loc 2 195 0 discriminator 1
 206              	
 207 0012 4FF0FC03 	 mov r3,#252
 208 0016 83F31188 	 msr basepri,r3
 209 001a BFF36F8F 	 isb 
 210 001e BFF34F8F 	 dsb 
 211              	
 212              	
 213              	 .thumb
 214 0022 BB60     	 str r3,[r7,#8]
 215              	.L13:
 216              	.LBE92:
 217              	.LBE91:
 218              	 .loc 1 363 0 discriminator 1
 219 0024 FEE7     	 b .L13
 220              	.L12:
 364:../Dave/Generated/FREERTOS/stream_buffer.c **** 
 365:../Dave/Generated/FREERTOS/stream_buffer.c **** 	traceSTREAM_BUFFER_DELETE( xStreamBuffer );
 366:../Dave/Generated/FREERTOS/stream_buffer.c **** 
 367:../Dave/Generated/FREERTOS/stream_buffer.c **** 	if( ( pxStreamBuffer->ucFlags & sbFLAGS_IS_STATICALLY_ALLOCATED ) == ( uint8_t ) pdFALSE )
 221              	 .loc 1 367 0
 222 0026 FB68     	 ldr r3,[r7,#12]
 223 0028 1B7F     	 ldrb r3,[r3,#28]
 224 002a 03F00203 	 and r3,r3,#2
 225 002e 002B     	 cmp r3,#0
 226 0030 03D1     	 bne .L14
 368:../Dave/Generated/FREERTOS/stream_buffer.c **** 	{
 369:../Dave/Generated/FREERTOS/stream_buffer.c **** 		#if( configSUPPORT_DYNAMIC_ALLOCATION == 1 )
 370:../Dave/Generated/FREERTOS/stream_buffer.c **** 		{
 371:../Dave/Generated/FREERTOS/stream_buffer.c **** 			/* Both the structure and the buffer were allocated using a single call
 372:../Dave/Generated/FREERTOS/stream_buffer.c **** 			to pvPortMalloc(), hence only one call to vPortFree() is required. */
 373:../Dave/Generated/FREERTOS/stream_buffer.c **** 			vPortFree( ( void * ) pxStreamBuffer ); /*lint !e9087 Standard free() semantics require void *, 
 227              	 .loc 1 373 0
 228 0032 F868     	 ldr r0,[r7,#12]
 229 0034 FFF7FEFF 	 bl vPortFree
 230 0038 04E0     	 b .L11
 231              	.L14:
 374:../Dave/Generated/FREERTOS/stream_buffer.c **** 		}
 375:../Dave/Generated/FREERTOS/stream_buffer.c **** 		#else
 376:../Dave/Generated/FREERTOS/stream_buffer.c **** 		{
 377:../Dave/Generated/FREERTOS/stream_buffer.c **** 			/* Should not be possible to get here, ucFlags must be corrupt.
 378:../Dave/Generated/FREERTOS/stream_buffer.c **** 			Force an assert. */
 379:../Dave/Generated/FREERTOS/stream_buffer.c **** 			configASSERT( xStreamBuffer == ( StreamBufferHandle_t ) ~0 );
 380:../Dave/Generated/FREERTOS/stream_buffer.c **** 		}
 381:../Dave/Generated/FREERTOS/stream_buffer.c **** 		#endif
 382:../Dave/Generated/FREERTOS/stream_buffer.c **** 	}
 383:../Dave/Generated/FREERTOS/stream_buffer.c **** 	else
 384:../Dave/Generated/FREERTOS/stream_buffer.c **** 	{
 385:../Dave/Generated/FREERTOS/stream_buffer.c **** 		/* The structure and buffer were not allocated dynamically and cannot be
 386:../Dave/Generated/FREERTOS/stream_buffer.c **** 		freed - just scrub the structure so future use will assert. */
 387:../Dave/Generated/FREERTOS/stream_buffer.c **** 		( void ) memset( pxStreamBuffer, 0x00, sizeof( StreamBuffer_t ) );
 232              	 .loc 1 387 0
 233 003a F868     	 ldr r0,[r7,#12]
 234 003c 0021     	 movs r1,#0
 235 003e 2422     	 movs r2,#36
 236 0040 FFF7FEFF 	 bl memset
 237              	.L11:
 388:../Dave/Generated/FREERTOS/stream_buffer.c **** 	}
 389:../Dave/Generated/FREERTOS/stream_buffer.c **** }
 238              	 .loc 1 389 0
 239 0044 1037     	 adds r7,r7,#16
 240              	.LCFI8:
 241              	 .cfi_def_cfa_offset 8
 242 0046 BD46     	 mov sp,r7
 243              	.LCFI9:
 244              	 .cfi_def_cfa_register 13
 245              	 
 246 0048 80BD     	 pop {r7,pc}
 247              	 .cfi_endproc
 248              	.LFE138:
 250 004a 00BF     	 .section .text.xStreamBufferReset,"ax",%progbits
 251              	 .align 2
 252              	 .global xStreamBufferReset
 253              	 .thumb
 254              	 .thumb_func
 256              	xStreamBufferReset:
 257              	.LFB139:
 390:../Dave/Generated/FREERTOS/stream_buffer.c **** /*-----------------------------------------------------------*/
 391:../Dave/Generated/FREERTOS/stream_buffer.c **** 
 392:../Dave/Generated/FREERTOS/stream_buffer.c **** BaseType_t xStreamBufferReset( StreamBufferHandle_t xStreamBuffer )
 393:../Dave/Generated/FREERTOS/stream_buffer.c **** {
 258              	 .loc 1 393 0
 259              	 .cfi_startproc
 260              	 
 261              	 
 262 0000 90B5     	 push {r4,r7,lr}
 263              	.LCFI10:
 264              	 .cfi_def_cfa_offset 12
 265              	 .cfi_offset 4,-12
 266              	 .cfi_offset 7,-8
 267              	 .cfi_offset 14,-4
 268 0002 89B0     	 sub sp,sp,#36
 269              	.LCFI11:
 270              	 .cfi_def_cfa_offset 48
 271 0004 02AF     	 add r7,sp,#8
 272              	.LCFI12:
 273              	 .cfi_def_cfa 7,40
 274 0006 7860     	 str r0,[r7,#4]
 394:../Dave/Generated/FREERTOS/stream_buffer.c **** StreamBuffer_t * const pxStreamBuffer = xStreamBuffer;
 275              	 .loc 1 394 0
 276 0008 7B68     	 ldr r3,[r7,#4]
 277 000a 3B61     	 str r3,[r7,#16]
 395:../Dave/Generated/FREERTOS/stream_buffer.c **** BaseType_t xReturn = pdFAIL;
 278              	 .loc 1 395 0
 279 000c 0023     	 movs r3,#0
 280 000e 7B61     	 str r3,[r7,#20]
 396:../Dave/Generated/FREERTOS/stream_buffer.c **** 
 397:../Dave/Generated/FREERTOS/stream_buffer.c **** #if( configUSE_TRACE_FACILITY == 1 )
 398:../Dave/Generated/FREERTOS/stream_buffer.c **** 	UBaseType_t uxStreamBufferNumber;
 399:../Dave/Generated/FREERTOS/stream_buffer.c **** #endif
 400:../Dave/Generated/FREERTOS/stream_buffer.c **** 
 401:../Dave/Generated/FREERTOS/stream_buffer.c **** 	configASSERT( pxStreamBuffer );
 281              	 .loc 1 401 0
 282 0010 3B69     	 ldr r3,[r7,#16]
 283 0012 002B     	 cmp r3,#0
 284 0014 09D1     	 bne .L17
 285              	.LBB93:
 286              	.LBB94:
 287              	 .loc 2 195 0 discriminator 1
 288              	
 289 0016 4FF0FC03 	 mov r3,#252
 290 001a 83F31188 	 msr basepri,r3
 291 001e BFF36F8F 	 isb 
 292 0022 BFF34F8F 	 dsb 
 293              	
 294              	
 295              	 .thumb
 296 0026 BB60     	 str r3,[r7,#8]
 297              	.L18:
 298              	.LBE94:
 299              	.LBE93:
 300              	 .loc 1 401 0 discriminator 1
 301 0028 FEE7     	 b .L18
 302              	.L17:
 402:../Dave/Generated/FREERTOS/stream_buffer.c **** 
 403:../Dave/Generated/FREERTOS/stream_buffer.c **** 	#if( configUSE_TRACE_FACILITY == 1 )
 404:../Dave/Generated/FREERTOS/stream_buffer.c **** 	{
 405:../Dave/Generated/FREERTOS/stream_buffer.c **** 		/* Store the stream buffer number so it can be restored after the
 406:../Dave/Generated/FREERTOS/stream_buffer.c **** 		reset. */
 407:../Dave/Generated/FREERTOS/stream_buffer.c **** 		uxStreamBufferNumber = pxStreamBuffer->uxStreamBufferNumber;
 303              	 .loc 1 407 0
 304 002a 3B69     	 ldr r3,[r7,#16]
 305 002c 1B6A     	 ldr r3,[r3,#32]
 306 002e FB60     	 str r3,[r7,#12]
 408:../Dave/Generated/FREERTOS/stream_buffer.c **** 	}
 409:../Dave/Generated/FREERTOS/stream_buffer.c **** 	#endif
 410:../Dave/Generated/FREERTOS/stream_buffer.c **** 
 411:../Dave/Generated/FREERTOS/stream_buffer.c **** 	/* Can only reset a message buffer if there are no tasks blocked on it. */
 412:../Dave/Generated/FREERTOS/stream_buffer.c **** 	taskENTER_CRITICAL();
 307              	 .loc 1 412 0
 308 0030 FFF7FEFF 	 bl vPortEnterCritical
 413:../Dave/Generated/FREERTOS/stream_buffer.c **** 	{
 414:../Dave/Generated/FREERTOS/stream_buffer.c **** 		if( pxStreamBuffer->xTaskWaitingToReceive == NULL )
 309              	 .loc 1 414 0
 310 0034 3B69     	 ldr r3,[r7,#16]
 311 0036 1B69     	 ldr r3,[r3,#16]
 312 0038 002B     	 cmp r3,#0
 313 003a 15D1     	 bne .L19
 415:../Dave/Generated/FREERTOS/stream_buffer.c **** 		{
 416:../Dave/Generated/FREERTOS/stream_buffer.c **** 			if( pxStreamBuffer->xTaskWaitingToSend == NULL )
 314              	 .loc 1 416 0
 315 003c 3B69     	 ldr r3,[r7,#16]
 316 003e 5B69     	 ldr r3,[r3,#20]
 317 0040 002B     	 cmp r3,#0
 318 0042 11D1     	 bne .L19
 417:../Dave/Generated/FREERTOS/stream_buffer.c **** 			{
 418:../Dave/Generated/FREERTOS/stream_buffer.c **** 				prvInitialiseNewStreamBuffer( pxStreamBuffer,
 319              	 .loc 1 418 0
 320 0044 3B69     	 ldr r3,[r7,#16]
 321 0046 9969     	 ldr r1,[r3,#24]
 322 0048 3B69     	 ldr r3,[r7,#16]
 323 004a 9A68     	 ldr r2,[r3,#8]
 324 004c 3B69     	 ldr r3,[r7,#16]
 325 004e DC68     	 ldr r4,[r3,#12]
 326 0050 3B69     	 ldr r3,[r7,#16]
 327 0052 1B7F     	 ldrb r3,[r3,#28]
 328 0054 0093     	 str r3,[sp]
 329 0056 3869     	 ldr r0,[r7,#16]
 330 0058 2346     	 mov r3,r4
 331 005a FFF7FEFF 	 bl prvInitialiseNewStreamBuffer
 419:../Dave/Generated/FREERTOS/stream_buffer.c **** 											  pxStreamBuffer->pucBuffer,
 420:../Dave/Generated/FREERTOS/stream_buffer.c **** 											  pxStreamBuffer->xLength,
 421:../Dave/Generated/FREERTOS/stream_buffer.c **** 											  pxStreamBuffer->xTriggerLevelBytes,
 422:../Dave/Generated/FREERTOS/stream_buffer.c **** 											  pxStreamBuffer->ucFlags );
 423:../Dave/Generated/FREERTOS/stream_buffer.c **** 				xReturn = pdPASS;
 332              	 .loc 1 423 0
 333 005e 0123     	 movs r3,#1
 334 0060 7B61     	 str r3,[r7,#20]
 424:../Dave/Generated/FREERTOS/stream_buffer.c **** 
 425:../Dave/Generated/FREERTOS/stream_buffer.c **** 				#if( configUSE_TRACE_FACILITY == 1 )
 426:../Dave/Generated/FREERTOS/stream_buffer.c **** 				{
 427:../Dave/Generated/FREERTOS/stream_buffer.c **** 					pxStreamBuffer->uxStreamBufferNumber = uxStreamBufferNumber;
 335              	 .loc 1 427 0
 336 0062 3B69     	 ldr r3,[r7,#16]
 337 0064 FA68     	 ldr r2,[r7,#12]
 338 0066 1A62     	 str r2,[r3,#32]
 339              	.L19:
 428:../Dave/Generated/FREERTOS/stream_buffer.c **** 				}
 429:../Dave/Generated/FREERTOS/stream_buffer.c **** 				#endif
 430:../Dave/Generated/FREERTOS/stream_buffer.c **** 
 431:../Dave/Generated/FREERTOS/stream_buffer.c **** 				traceSTREAM_BUFFER_RESET( xStreamBuffer );
 432:../Dave/Generated/FREERTOS/stream_buffer.c **** 			}
 433:../Dave/Generated/FREERTOS/stream_buffer.c **** 		}
 434:../Dave/Generated/FREERTOS/stream_buffer.c **** 	}
 435:../Dave/Generated/FREERTOS/stream_buffer.c **** 	taskEXIT_CRITICAL();
 340              	 .loc 1 435 0
 341 0068 FFF7FEFF 	 bl vPortExitCritical
 436:../Dave/Generated/FREERTOS/stream_buffer.c **** 
 437:../Dave/Generated/FREERTOS/stream_buffer.c **** 	return xReturn;
 342              	 .loc 1 437 0
 343 006c 7B69     	 ldr r3,[r7,#20]
 438:../Dave/Generated/FREERTOS/stream_buffer.c **** }
 344              	 .loc 1 438 0
 345 006e 1846     	 mov r0,r3
 346 0070 1C37     	 adds r7,r7,#28
 347              	.LCFI13:
 348              	 .cfi_def_cfa_offset 12
 349 0072 BD46     	 mov sp,r7
 350              	.LCFI14:
 351              	 .cfi_def_cfa_register 13
 352              	 
 353 0074 90BD     	 pop {r4,r7,pc}
 354              	 .cfi_endproc
 355              	.LFE139:
 357 0076 00BF     	 .section .text.xStreamBufferSetTriggerLevel,"ax",%progbits
 358              	 .align 2
 359              	 .global xStreamBufferSetTriggerLevel
 360              	 .thumb
 361              	 .thumb_func
 363              	xStreamBufferSetTriggerLevel:
 364              	.LFB140:
 439:../Dave/Generated/FREERTOS/stream_buffer.c **** /*-----------------------------------------------------------*/
 440:../Dave/Generated/FREERTOS/stream_buffer.c **** 
 441:../Dave/Generated/FREERTOS/stream_buffer.c **** BaseType_t xStreamBufferSetTriggerLevel( StreamBufferHandle_t xStreamBuffer, size_t xTriggerLevel )
 442:../Dave/Generated/FREERTOS/stream_buffer.c **** {
 365              	 .loc 1 442 0
 366              	 .cfi_startproc
 367              	 
 368              	 
 369              	 
 370 0000 80B4     	 push {r7}
 371              	.LCFI15:
 372              	 .cfi_def_cfa_offset 4
 373              	 .cfi_offset 7,-4
 374 0002 87B0     	 sub sp,sp,#28
 375              	.LCFI16:
 376              	 .cfi_def_cfa_offset 32
 377 0004 00AF     	 add r7,sp,#0
 378              	.LCFI17:
 379              	 .cfi_def_cfa_register 7
 380 0006 7860     	 str r0,[r7,#4]
 381 0008 3960     	 str r1,[r7]
 443:../Dave/Generated/FREERTOS/stream_buffer.c **** StreamBuffer_t * const pxStreamBuffer = xStreamBuffer;
 382              	 .loc 1 443 0
 383 000a 7B68     	 ldr r3,[r7,#4]
 384 000c 3B61     	 str r3,[r7,#16]
 444:../Dave/Generated/FREERTOS/stream_buffer.c **** BaseType_t xReturn;
 445:../Dave/Generated/FREERTOS/stream_buffer.c **** 
 446:../Dave/Generated/FREERTOS/stream_buffer.c **** 	configASSERT( pxStreamBuffer );
 385              	 .loc 1 446 0
 386 000e 3B69     	 ldr r3,[r7,#16]
 387 0010 002B     	 cmp r3,#0
 388 0012 09D1     	 bne .L22
 389              	.LBB95:
 390              	.LBB96:
 391              	 .loc 2 195 0 discriminator 1
 392              	
 393 0014 4FF0FC03 	 mov r3,#252
 394 0018 83F31188 	 msr basepri,r3
 395 001c BFF36F8F 	 isb 
 396 0020 BFF34F8F 	 dsb 
 397              	
 398              	
 399              	 .thumb
 400 0024 FB60     	 str r3,[r7,#12]
 401              	.L23:
 402              	.LBE96:
 403              	.LBE95:
 404              	 .loc 1 446 0 discriminator 1
 405 0026 FEE7     	 b .L23
 406              	.L22:
 447:../Dave/Generated/FREERTOS/stream_buffer.c **** 
 448:../Dave/Generated/FREERTOS/stream_buffer.c **** 	/* It is not valid for the trigger level to be 0. */
 449:../Dave/Generated/FREERTOS/stream_buffer.c **** 	if( xTriggerLevel == ( size_t ) 0 )
 407              	 .loc 1 449 0
 408 0028 3B68     	 ldr r3,[r7]
 409 002a 002B     	 cmp r3,#0
 410 002c 01D1     	 bne .L24
 450:../Dave/Generated/FREERTOS/stream_buffer.c **** 	{
 451:../Dave/Generated/FREERTOS/stream_buffer.c **** 		xTriggerLevel = ( size_t ) 1;
 411              	 .loc 1 451 0
 412 002e 0123     	 movs r3,#1
 413 0030 3B60     	 str r3,[r7]
 414              	.L24:
 452:../Dave/Generated/FREERTOS/stream_buffer.c **** 	}
 453:../Dave/Generated/FREERTOS/stream_buffer.c **** 
 454:../Dave/Generated/FREERTOS/stream_buffer.c **** 	/* The trigger level is the number of bytes that must be in the stream
 455:../Dave/Generated/FREERTOS/stream_buffer.c **** 	buffer before a task that is waiting for data is unblocked. */
 456:../Dave/Generated/FREERTOS/stream_buffer.c **** 	if( xTriggerLevel <= pxStreamBuffer->xLength )
 415              	 .loc 1 456 0
 416 0032 3B69     	 ldr r3,[r7,#16]
 417 0034 9A68     	 ldr r2,[r3,#8]
 418 0036 3B68     	 ldr r3,[r7]
 419 0038 9A42     	 cmp r2,r3
 420 003a 05D3     	 bcc .L25
 457:../Dave/Generated/FREERTOS/stream_buffer.c **** 	{
 458:../Dave/Generated/FREERTOS/stream_buffer.c **** 		pxStreamBuffer->xTriggerLevelBytes = xTriggerLevel;
 421              	 .loc 1 458 0
 422 003c 3B69     	 ldr r3,[r7,#16]
 423 003e 3A68     	 ldr r2,[r7]
 424 0040 DA60     	 str r2,[r3,#12]
 459:../Dave/Generated/FREERTOS/stream_buffer.c **** 		xReturn = pdPASS;
 425              	 .loc 1 459 0
 426 0042 0123     	 movs r3,#1
 427 0044 7B61     	 str r3,[r7,#20]
 428 0046 01E0     	 b .L26
 429              	.L25:
 460:../Dave/Generated/FREERTOS/stream_buffer.c **** 	}
 461:../Dave/Generated/FREERTOS/stream_buffer.c **** 	else
 462:../Dave/Generated/FREERTOS/stream_buffer.c **** 	{
 463:../Dave/Generated/FREERTOS/stream_buffer.c **** 		xReturn = pdFALSE;
 430              	 .loc 1 463 0
 431 0048 0023     	 movs r3,#0
 432 004a 7B61     	 str r3,[r7,#20]
 433              	.L26:
 464:../Dave/Generated/FREERTOS/stream_buffer.c **** 	}
 465:../Dave/Generated/FREERTOS/stream_buffer.c **** 
 466:../Dave/Generated/FREERTOS/stream_buffer.c **** 	return xReturn;
 434              	 .loc 1 466 0
 435 004c 7B69     	 ldr r3,[r7,#20]
 467:../Dave/Generated/FREERTOS/stream_buffer.c **** }
 436              	 .loc 1 467 0
 437 004e 1846     	 mov r0,r3
 438 0050 1C37     	 adds r7,r7,#28
 439              	.LCFI18:
 440              	 .cfi_def_cfa_offset 4
 441 0052 BD46     	 mov sp,r7
 442              	.LCFI19:
 443              	 .cfi_def_cfa_register 13
 444              	 
 445 0054 5DF8047B 	 ldr r7,[sp],#4
 446              	.LCFI20:
 447              	 .cfi_restore 7
 448              	 .cfi_def_cfa_offset 0
 449 0058 7047     	 bx lr
 450              	 .cfi_endproc
 451              	.LFE140:
 453 005a 00BF     	 .section .text.xStreamBufferSpacesAvailable,"ax",%progbits
 454              	 .align 2
 455              	 .global xStreamBufferSpacesAvailable
 456              	 .thumb
 457              	 .thumb_func
 459              	xStreamBufferSpacesAvailable:
 460              	.LFB141:
 468:../Dave/Generated/FREERTOS/stream_buffer.c **** /*-----------------------------------------------------------*/
 469:../Dave/Generated/FREERTOS/stream_buffer.c **** 
 470:../Dave/Generated/FREERTOS/stream_buffer.c **** size_t xStreamBufferSpacesAvailable( StreamBufferHandle_t xStreamBuffer )
 471:../Dave/Generated/FREERTOS/stream_buffer.c **** {
 461              	 .loc 1 471 0
 462              	 .cfi_startproc
 463              	 
 464              	 
 465              	 
 466 0000 80B4     	 push {r7}
 467              	.LCFI21:
 468              	 .cfi_def_cfa_offset 4
 469              	 .cfi_offset 7,-4
 470 0002 87B0     	 sub sp,sp,#28
 471              	.LCFI22:
 472              	 .cfi_def_cfa_offset 32
 473 0004 00AF     	 add r7,sp,#0
 474              	.LCFI23:
 475              	 .cfi_def_cfa_register 7
 476 0006 7860     	 str r0,[r7,#4]
 472:../Dave/Generated/FREERTOS/stream_buffer.c **** const StreamBuffer_t * const pxStreamBuffer = xStreamBuffer;
 477              	 .loc 1 472 0
 478 0008 7B68     	 ldr r3,[r7,#4]
 479 000a 3B61     	 str r3,[r7,#16]
 473:../Dave/Generated/FREERTOS/stream_buffer.c **** size_t xSpace;
 474:../Dave/Generated/FREERTOS/stream_buffer.c **** 
 475:../Dave/Generated/FREERTOS/stream_buffer.c **** 	configASSERT( pxStreamBuffer );
 480              	 .loc 1 475 0
 481 000c 3B69     	 ldr r3,[r7,#16]
 482 000e 002B     	 cmp r3,#0
 483 0010 09D1     	 bne .L29
 484              	.LBB97:
 485              	.LBB98:
 486              	 .loc 2 195 0 discriminator 1
 487              	
 488 0012 4FF0FC03 	 mov r3,#252
 489 0016 83F31188 	 msr basepri,r3
 490 001a BFF36F8F 	 isb 
 491 001e BFF34F8F 	 dsb 
 492              	
 493              	
 494              	 .thumb
 495 0022 FB60     	 str r3,[r7,#12]
 496              	.L30:
 497              	.LBE98:
 498              	.LBE97:
 499              	 .loc 1 475 0 discriminator 1
 500 0024 FEE7     	 b .L30
 501              	.L29:
 476:../Dave/Generated/FREERTOS/stream_buffer.c **** 
 477:../Dave/Generated/FREERTOS/stream_buffer.c **** 	xSpace = pxStreamBuffer->xLength + pxStreamBuffer->xTail;
 502              	 .loc 1 477 0
 503 0026 3B69     	 ldr r3,[r7,#16]
 504 0028 9A68     	 ldr r2,[r3,#8]
 505 002a 3B69     	 ldr r3,[r7,#16]
 506 002c 1B68     	 ldr r3,[r3]
 507 002e 1344     	 add r3,r3,r2
 508 0030 7B61     	 str r3,[r7,#20]
 478:../Dave/Generated/FREERTOS/stream_buffer.c **** 	xSpace -= pxStreamBuffer->xHead;
 509              	 .loc 1 478 0
 510 0032 3B69     	 ldr r3,[r7,#16]
 511 0034 5B68     	 ldr r3,[r3,#4]
 512 0036 7A69     	 ldr r2,[r7,#20]
 513 0038 D31A     	 subs r3,r2,r3
 514 003a 7B61     	 str r3,[r7,#20]
 479:../Dave/Generated/FREERTOS/stream_buffer.c **** 	xSpace -= ( size_t ) 1;
 515              	 .loc 1 479 0
 516 003c 7B69     	 ldr r3,[r7,#20]
 517 003e 013B     	 subs r3,r3,#1
 518 0040 7B61     	 str r3,[r7,#20]
 480:../Dave/Generated/FREERTOS/stream_buffer.c **** 
 481:../Dave/Generated/FREERTOS/stream_buffer.c **** 	if( xSpace >= pxStreamBuffer->xLength )
 519              	 .loc 1 481 0
 520 0042 3B69     	 ldr r3,[r7,#16]
 521 0044 9A68     	 ldr r2,[r3,#8]
 522 0046 7B69     	 ldr r3,[r7,#20]
 523 0048 9A42     	 cmp r2,r3
 524 004a 04D8     	 bhi .L31
 482:../Dave/Generated/FREERTOS/stream_buffer.c **** 	{
 483:../Dave/Generated/FREERTOS/stream_buffer.c **** 		xSpace -= pxStreamBuffer->xLength;
 525              	 .loc 1 483 0
 526 004c 3B69     	 ldr r3,[r7,#16]
 527 004e 9B68     	 ldr r3,[r3,#8]
 528 0050 7A69     	 ldr r2,[r7,#20]
 529 0052 D31A     	 subs r3,r2,r3
 530 0054 7B61     	 str r3,[r7,#20]
 531              	.L31:
 484:../Dave/Generated/FREERTOS/stream_buffer.c **** 	}
 485:../Dave/Generated/FREERTOS/stream_buffer.c **** 	else
 486:../Dave/Generated/FREERTOS/stream_buffer.c **** 	{
 487:../Dave/Generated/FREERTOS/stream_buffer.c **** 		mtCOVERAGE_TEST_MARKER();
 488:../Dave/Generated/FREERTOS/stream_buffer.c **** 	}
 489:../Dave/Generated/FREERTOS/stream_buffer.c **** 
 490:../Dave/Generated/FREERTOS/stream_buffer.c **** 	return xSpace;
 532              	 .loc 1 490 0
 533 0056 7B69     	 ldr r3,[r7,#20]
 491:../Dave/Generated/FREERTOS/stream_buffer.c **** }
 534              	 .loc 1 491 0
 535 0058 1846     	 mov r0,r3
 536 005a 1C37     	 adds r7,r7,#28
 537              	.LCFI24:
 538              	 .cfi_def_cfa_offset 4
 539 005c BD46     	 mov sp,r7
 540              	.LCFI25:
 541              	 .cfi_def_cfa_register 13
 542              	 
 543 005e 5DF8047B 	 ldr r7,[sp],#4
 544              	.LCFI26:
 545              	 .cfi_restore 7
 546              	 .cfi_def_cfa_offset 0
 547 0062 7047     	 bx lr
 548              	 .cfi_endproc
 549              	.LFE141:
 551              	 .section .text.xStreamBufferBytesAvailable,"ax",%progbits
 552              	 .align 2
 553              	 .global xStreamBufferBytesAvailable
 554              	 .thumb
 555              	 .thumb_func
 557              	xStreamBufferBytesAvailable:
 558              	.LFB142:
 492:../Dave/Generated/FREERTOS/stream_buffer.c **** /*-----------------------------------------------------------*/
 493:../Dave/Generated/FREERTOS/stream_buffer.c **** 
 494:../Dave/Generated/FREERTOS/stream_buffer.c **** size_t xStreamBufferBytesAvailable( StreamBufferHandle_t xStreamBuffer )
 495:../Dave/Generated/FREERTOS/stream_buffer.c **** {
 559              	 .loc 1 495 0
 560              	 .cfi_startproc
 561              	 
 562              	 
 563 0000 80B5     	 push {r7,lr}
 564              	.LCFI27:
 565              	 .cfi_def_cfa_offset 8
 566              	 .cfi_offset 7,-8
 567              	 .cfi_offset 14,-4
 568 0002 86B0     	 sub sp,sp,#24
 569              	.LCFI28:
 570              	 .cfi_def_cfa_offset 32
 571 0004 00AF     	 add r7,sp,#0
 572              	.LCFI29:
 573              	 .cfi_def_cfa_register 7
 574 0006 7860     	 str r0,[r7,#4]
 496:../Dave/Generated/FREERTOS/stream_buffer.c **** const StreamBuffer_t * const pxStreamBuffer = xStreamBuffer;
 575              	 .loc 1 496 0
 576 0008 7B68     	 ldr r3,[r7,#4]
 577 000a 7B61     	 str r3,[r7,#20]
 497:../Dave/Generated/FREERTOS/stream_buffer.c **** size_t xReturn;
 498:../Dave/Generated/FREERTOS/stream_buffer.c **** 
 499:../Dave/Generated/FREERTOS/stream_buffer.c **** 	configASSERT( pxStreamBuffer );
 578              	 .loc 1 499 0
 579 000c 7B69     	 ldr r3,[r7,#20]
 580 000e 002B     	 cmp r3,#0
 581 0010 09D1     	 bne .L34
 582              	.LBB99:
 583              	.LBB100:
 584              	 .loc 2 195 0 discriminator 1
 585              	
 586 0012 4FF0FC03 	 mov r3,#252
 587 0016 83F31188 	 msr basepri,r3
 588 001a BFF36F8F 	 isb 
 589 001e BFF34F8F 	 dsb 
 590              	
 591              	
 592              	 .thumb
 593 0022 FB60     	 str r3,[r7,#12]
 594              	.L35:
 595              	.LBE100:
 596              	.LBE99:
 597              	 .loc 1 499 0 discriminator 1
 598 0024 FEE7     	 b .L35
 599              	.L34:
 500:../Dave/Generated/FREERTOS/stream_buffer.c **** 
 501:../Dave/Generated/FREERTOS/stream_buffer.c **** 	xReturn = prvBytesInBuffer( pxStreamBuffer );
 600              	 .loc 1 501 0
 601 0026 7869     	 ldr r0,[r7,#20]
 602 0028 FFF7FEFF 	 bl prvBytesInBuffer
 603 002c 3861     	 str r0,[r7,#16]
 502:../Dave/Generated/FREERTOS/stream_buffer.c **** 	return xReturn;
 604              	 .loc 1 502 0
 605 002e 3B69     	 ldr r3,[r7,#16]
 503:../Dave/Generated/FREERTOS/stream_buffer.c **** }
 606              	 .loc 1 503 0
 607 0030 1846     	 mov r0,r3
 608 0032 1837     	 adds r7,r7,#24
 609              	.LCFI30:
 610              	 .cfi_def_cfa_offset 8
 611 0034 BD46     	 mov sp,r7
 612              	.LCFI31:
 613              	 .cfi_def_cfa_register 13
 614              	 
 615 0036 80BD     	 pop {r7,pc}
 616              	 .cfi_endproc
 617              	.LFE142:
 619              	 .section .text.xStreamBufferSend,"ax",%progbits
 620              	 .align 2
 621              	 .global xStreamBufferSend
 622              	 .thumb
 623              	 .thumb_func
 625              	xStreamBufferSend:
 626              	.LFB143:
 504:../Dave/Generated/FREERTOS/stream_buffer.c **** /*-----------------------------------------------------------*/
 505:../Dave/Generated/FREERTOS/stream_buffer.c **** 
 506:../Dave/Generated/FREERTOS/stream_buffer.c **** size_t xStreamBufferSend( StreamBufferHandle_t xStreamBuffer,
 507:../Dave/Generated/FREERTOS/stream_buffer.c **** 						  const void *pvTxData,
 508:../Dave/Generated/FREERTOS/stream_buffer.c **** 						  size_t xDataLengthBytes,
 509:../Dave/Generated/FREERTOS/stream_buffer.c **** 						  TickType_t xTicksToWait )
 510:../Dave/Generated/FREERTOS/stream_buffer.c **** {
 627              	 .loc 1 510 0
 628              	 .cfi_startproc
 629              	 
 630              	 
 631 0000 80B5     	 push {r7,lr}
 632              	.LCFI32:
 633              	 .cfi_def_cfa_offset 8
 634              	 .cfi_offset 7,-8
 635              	 .cfi_offset 14,-4
 636 0002 90B0     	 sub sp,sp,#64
 637              	.LCFI33:
 638              	 .cfi_def_cfa_offset 72
 639 0004 02AF     	 add r7,sp,#8
 640              	.LCFI34:
 641              	 .cfi_def_cfa 7,64
 642 0006 F860     	 str r0,[r7,#12]
 643 0008 B960     	 str r1,[r7,#8]
 644 000a 7A60     	 str r2,[r7,#4]
 645 000c 3B60     	 str r3,[r7]
 511:../Dave/Generated/FREERTOS/stream_buffer.c **** StreamBuffer_t * const pxStreamBuffer = xStreamBuffer;
 646              	 .loc 1 511 0
 647 000e FB68     	 ldr r3,[r7,#12]
 648 0010 FB62     	 str r3,[r7,#44]
 512:../Dave/Generated/FREERTOS/stream_buffer.c **** size_t xReturn, xSpace = 0;
 649              	 .loc 1 512 0
 650 0012 0023     	 movs r3,#0
 651 0014 7B63     	 str r3,[r7,#52]
 513:../Dave/Generated/FREERTOS/stream_buffer.c **** size_t xRequiredSpace = xDataLengthBytes;
 652              	 .loc 1 513 0
 653 0016 7B68     	 ldr r3,[r7,#4]
 654 0018 3B63     	 str r3,[r7,#48]
 514:../Dave/Generated/FREERTOS/stream_buffer.c **** TimeOut_t xTimeOut;
 515:../Dave/Generated/FREERTOS/stream_buffer.c **** 
 516:../Dave/Generated/FREERTOS/stream_buffer.c **** 	configASSERT( pvTxData );
 655              	 .loc 1 516 0
 656 001a BB68     	 ldr r3,[r7,#8]
 657 001c 002B     	 cmp r3,#0
 658 001e 09D1     	 bne .L38
 659              	.LBB101:
 660              	.LBB102:
 661              	 .loc 2 195 0 discriminator 1
 662              	
 663 0020 4FF0FC03 	 mov r3,#252
 664 0024 83F31188 	 msr basepri,r3
 665 0028 BFF36F8F 	 isb 
 666 002c BFF34F8F 	 dsb 
 667              	
 668              	
 669              	 .thumb
 670 0030 7B62     	 str r3,[r7,#36]
 671              	.L39:
 672              	.LBE102:
 673              	.LBE101:
 674              	 .loc 1 516 0 discriminator 1
 675 0032 FEE7     	 b .L39
 676              	.L38:
 517:../Dave/Generated/FREERTOS/stream_buffer.c **** 	configASSERT( pxStreamBuffer );
 677              	 .loc 1 517 0
 678 0034 FB6A     	 ldr r3,[r7,#44]
 679 0036 002B     	 cmp r3,#0
 680 0038 09D1     	 bne .L40
 681              	.LBB103:
 682              	.LBB104:
 683              	 .loc 2 195 0 discriminator 1
 684              	
 685 003a 4FF0FC03 	 mov r3,#252
 686 003e 83F31188 	 msr basepri,r3
 687 0042 BFF36F8F 	 isb 
 688 0046 BFF34F8F 	 dsb 
 689              	
 690              	
 691              	 .thumb
 692 004a 3B62     	 str r3,[r7,#32]
 693              	.L41:
 694              	.LBE104:
 695              	.LBE103:
 696              	 .loc 1 517 0 discriminator 2
 697 004c FEE7     	 b .L41
 698              	.L40:
 518:../Dave/Generated/FREERTOS/stream_buffer.c **** 
 519:../Dave/Generated/FREERTOS/stream_buffer.c **** 	/* This send function is used to write to both message buffers and stream
 520:../Dave/Generated/FREERTOS/stream_buffer.c **** 	buffers.  If this is a message buffer then the space needed must be
 521:../Dave/Generated/FREERTOS/stream_buffer.c **** 	increased by the amount of bytes needed to store the length of the
 522:../Dave/Generated/FREERTOS/stream_buffer.c **** 	message. */
 523:../Dave/Generated/FREERTOS/stream_buffer.c **** 	if( ( pxStreamBuffer->ucFlags & sbFLAGS_IS_MESSAGE_BUFFER ) != ( uint8_t ) 0 )
 699              	 .loc 1 523 0
 700 004e FB6A     	 ldr r3,[r7,#44]
 701 0050 1B7F     	 ldrb r3,[r3,#28]
 702 0052 03F00103 	 and r3,r3,#1
 703 0056 002B     	 cmp r3,#0
 704 0058 10D0     	 beq .L42
 524:../Dave/Generated/FREERTOS/stream_buffer.c **** 	{
 525:../Dave/Generated/FREERTOS/stream_buffer.c **** 		xRequiredSpace += sbBYTES_TO_STORE_MESSAGE_LENGTH;
 705              	 .loc 1 525 0
 706 005a 3B6B     	 ldr r3,[r7,#48]
 707 005c 0433     	 adds r3,r3,#4
 708 005e 3B63     	 str r3,[r7,#48]
 526:../Dave/Generated/FREERTOS/stream_buffer.c **** 
 527:../Dave/Generated/FREERTOS/stream_buffer.c **** 		/* Overflow? */
 528:../Dave/Generated/FREERTOS/stream_buffer.c **** 		configASSERT( xRequiredSpace > xDataLengthBytes );
 709              	 .loc 1 528 0
 710 0060 3A6B     	 ldr r2,[r7,#48]
 711 0062 7B68     	 ldr r3,[r7,#4]
 712 0064 9A42     	 cmp r2,r3
 713 0066 09D8     	 bhi .L42
 714              	.LBB105:
 715              	.LBB106:
 716              	 .loc 2 195 0 discriminator 1
 717              	
 718 0068 4FF0FC03 	 mov r3,#252
 719 006c 83F31188 	 msr basepri,r3
 720 0070 BFF36F8F 	 isb 
 721 0074 BFF34F8F 	 dsb 
 722              	
 723              	
 724              	 .thumb
 725 0078 FB61     	 str r3,[r7,#28]
 726              	.L43:
 727              	.LBE106:
 728              	.LBE105:
 729              	 .loc 1 528 0 discriminator 3
 730 007a FEE7     	 b .L43
 731              	.L42:
 529:../Dave/Generated/FREERTOS/stream_buffer.c **** 	}
 530:../Dave/Generated/FREERTOS/stream_buffer.c **** 	else
 531:../Dave/Generated/FREERTOS/stream_buffer.c **** 	{
 532:../Dave/Generated/FREERTOS/stream_buffer.c **** 		mtCOVERAGE_TEST_MARKER();
 533:../Dave/Generated/FREERTOS/stream_buffer.c **** 	}
 534:../Dave/Generated/FREERTOS/stream_buffer.c **** 
 535:../Dave/Generated/FREERTOS/stream_buffer.c **** 	if( xTicksToWait != ( TickType_t ) 0 )
 732              	 .loc 1 535 0
 733 007c 3B68     	 ldr r3,[r7]
 734 007e 002B     	 cmp r3,#0
 735 0080 3ED0     	 beq .L44
 536:../Dave/Generated/FREERTOS/stream_buffer.c **** 	{
 537:../Dave/Generated/FREERTOS/stream_buffer.c **** 		vTaskSetTimeOutState( &xTimeOut );
 736              	 .loc 1 537 0
 737 0082 07F11003 	 add r3,r7,#16
 738 0086 1846     	 mov r0,r3
 739 0088 FFF7FEFF 	 bl vTaskSetTimeOutState
 740              	.L50:
 538:../Dave/Generated/FREERTOS/stream_buffer.c **** 
 539:../Dave/Generated/FREERTOS/stream_buffer.c **** 		do
 540:../Dave/Generated/FREERTOS/stream_buffer.c **** 		{
 541:../Dave/Generated/FREERTOS/stream_buffer.c **** 			/* Wait until the required number of bytes are free in the message
 542:../Dave/Generated/FREERTOS/stream_buffer.c **** 			buffer. */
 543:../Dave/Generated/FREERTOS/stream_buffer.c **** 			taskENTER_CRITICAL();
 741              	 .loc 1 543 0
 742 008c FFF7FEFF 	 bl vPortEnterCritical
 544:../Dave/Generated/FREERTOS/stream_buffer.c **** 			{
 545:../Dave/Generated/FREERTOS/stream_buffer.c **** 				xSpace = xStreamBufferSpacesAvailable( pxStreamBuffer );
 743              	 .loc 1 545 0
 744 0090 F86A     	 ldr r0,[r7,#44]
 745 0092 FFF7FEFF 	 bl xStreamBufferSpacesAvailable
 746 0096 7863     	 str r0,[r7,#52]
 546:../Dave/Generated/FREERTOS/stream_buffer.c **** 
 547:../Dave/Generated/FREERTOS/stream_buffer.c **** 				if( xSpace < xRequiredSpace )
 747              	 .loc 1 547 0
 748 0098 7A6B     	 ldr r2,[r7,#52]
 749 009a 3B6B     	 ldr r3,[r7,#48]
 750 009c 9A42     	 cmp r2,r3
 751 009e 16D2     	 bcs .L45
 548:../Dave/Generated/FREERTOS/stream_buffer.c **** 				{
 549:../Dave/Generated/FREERTOS/stream_buffer.c **** 					/* Clear notification state as going to wait for space. */
 550:../Dave/Generated/FREERTOS/stream_buffer.c **** 					( void ) xTaskNotifyStateClear( NULL );
 752              	 .loc 1 550 0
 753 00a0 0020     	 movs r0,#0
 754 00a2 FFF7FEFF 	 bl xTaskNotifyStateClear
 551:../Dave/Generated/FREERTOS/stream_buffer.c **** 
 552:../Dave/Generated/FREERTOS/stream_buffer.c **** 					/* Should only be one writer. */
 553:../Dave/Generated/FREERTOS/stream_buffer.c **** 					configASSERT( pxStreamBuffer->xTaskWaitingToSend == NULL );
 755              	 .loc 1 553 0
 756 00a6 FB6A     	 ldr r3,[r7,#44]
 757 00a8 5B69     	 ldr r3,[r3,#20]
 758 00aa 002B     	 cmp r3,#0
 759 00ac 09D0     	 beq .L46
 760              	.LBB107:
 761              	.LBB108:
 762              	 .loc 2 195 0 discriminator 1
 763              	
 764 00ae 4FF0FC03 	 mov r3,#252
 765 00b2 83F31188 	 msr basepri,r3
 766 00b6 BFF36F8F 	 isb 
 767 00ba BFF34F8F 	 dsb 
 768              	
 769              	
 770              	 .thumb
 771 00be BB61     	 str r3,[r7,#24]
 772              	.L47:
 773              	.LBE108:
 774              	.LBE107:
 775              	 .loc 1 553 0 discriminator 4
 776 00c0 FEE7     	 b .L47
 777              	.L46:
 554:../Dave/Generated/FREERTOS/stream_buffer.c **** 					pxStreamBuffer->xTaskWaitingToSend = xTaskGetCurrentTaskHandle();
 778              	 .loc 1 554 0
 779 00c2 FFF7FEFF 	 bl xTaskGetCurrentTaskHandle
 780 00c6 0246     	 mov r2,r0
 781 00c8 FB6A     	 ldr r3,[r7,#44]
 782 00ca 5A61     	 str r2,[r3,#20]
 783 00cc 03E0     	 b .L55
 784              	.L45:
 555:../Dave/Generated/FREERTOS/stream_buffer.c **** 				}
 556:../Dave/Generated/FREERTOS/stream_buffer.c **** 				else
 557:../Dave/Generated/FREERTOS/stream_buffer.c **** 				{
 558:../Dave/Generated/FREERTOS/stream_buffer.c **** 					taskEXIT_CRITICAL();
 785              	 .loc 1 558 0
 786 00ce FFF7FEFF 	 bl vPortExitCritical
 559:../Dave/Generated/FREERTOS/stream_buffer.c **** 					break;
 787              	 .loc 1 559 0
 788 00d2 00BF     	 nop
 789 00d4 14E0     	 b .L44
 790              	.L55:
 560:../Dave/Generated/FREERTOS/stream_buffer.c **** 				}
 561:../Dave/Generated/FREERTOS/stream_buffer.c **** 			}
 562:../Dave/Generated/FREERTOS/stream_buffer.c **** 			taskEXIT_CRITICAL();
 791              	 .loc 1 562 0
 792 00d6 FFF7FEFF 	 bl vPortExitCritical
 563:../Dave/Generated/FREERTOS/stream_buffer.c **** 
 564:../Dave/Generated/FREERTOS/stream_buffer.c **** 			traceBLOCKING_ON_STREAM_BUFFER_SEND( xStreamBuffer );
 565:../Dave/Generated/FREERTOS/stream_buffer.c **** 			( void ) xTaskNotifyWait( ( uint32_t ) 0, ( uint32_t ) 0, NULL, xTicksToWait );
 793              	 .loc 1 565 0
 794 00da 3B68     	 ldr r3,[r7]
 795 00dc 0020     	 movs r0,#0
 796 00de 0021     	 movs r1,#0
 797 00e0 0022     	 movs r2,#0
 798 00e2 FFF7FEFF 	 bl xTaskNotifyWait
 566:../Dave/Generated/FREERTOS/stream_buffer.c **** 			pxStreamBuffer->xTaskWaitingToSend = NULL;
 799              	 .loc 1 566 0
 800 00e6 FB6A     	 ldr r3,[r7,#44]
 801 00e8 0022     	 movs r2,#0
 802 00ea 5A61     	 str r2,[r3,#20]
 567:../Dave/Generated/FREERTOS/stream_buffer.c **** 
 568:../Dave/Generated/FREERTOS/stream_buffer.c **** 		} while( xTaskCheckForTimeOut( &xTimeOut, &xTicksToWait ) == pdFALSE );
 803              	 .loc 1 568 0
 804 00ec 07F11002 	 add r2,r7,#16
 805 00f0 3B46     	 mov r3,r7
 806 00f2 1046     	 mov r0,r2
 807 00f4 1946     	 mov r1,r3
 808 00f6 FFF7FEFF 	 bl xTaskCheckForTimeOut
 809 00fa 0346     	 mov r3,r0
 810 00fc 002B     	 cmp r3,#0
 811 00fe C5D0     	 beq .L50
 812              	.L44:
 569:../Dave/Generated/FREERTOS/stream_buffer.c **** 	}
 570:../Dave/Generated/FREERTOS/stream_buffer.c **** 	else
 571:../Dave/Generated/FREERTOS/stream_buffer.c **** 	{
 572:../Dave/Generated/FREERTOS/stream_buffer.c **** 		mtCOVERAGE_TEST_MARKER();
 573:../Dave/Generated/FREERTOS/stream_buffer.c **** 	}
 574:../Dave/Generated/FREERTOS/stream_buffer.c **** 
 575:../Dave/Generated/FREERTOS/stream_buffer.c **** 	if( xSpace == ( size_t ) 0 )
 813              	 .loc 1 575 0
 814 0100 7B6B     	 ldr r3,[r7,#52]
 815 0102 002B     	 cmp r3,#0
 816 0104 03D1     	 bne .L51
 576:../Dave/Generated/FREERTOS/stream_buffer.c **** 	{
 577:../Dave/Generated/FREERTOS/stream_buffer.c **** 		xSpace = xStreamBufferSpacesAvailable( pxStreamBuffer );
 817              	 .loc 1 577 0
 818 0106 F86A     	 ldr r0,[r7,#44]
 819 0108 FFF7FEFF 	 bl xStreamBufferSpacesAvailable
 820 010c 7863     	 str r0,[r7,#52]
 821              	.L51:
 578:../Dave/Generated/FREERTOS/stream_buffer.c **** 	}
 579:../Dave/Generated/FREERTOS/stream_buffer.c **** 	else
 580:../Dave/Generated/FREERTOS/stream_buffer.c **** 	{
 581:../Dave/Generated/FREERTOS/stream_buffer.c **** 		mtCOVERAGE_TEST_MARKER();
 582:../Dave/Generated/FREERTOS/stream_buffer.c **** 	}
 583:../Dave/Generated/FREERTOS/stream_buffer.c **** 
 584:../Dave/Generated/FREERTOS/stream_buffer.c **** 	xReturn = prvWriteMessageToBuffer( pxStreamBuffer, pvTxData, xDataLengthBytes, xSpace, xRequiredSp
 822              	 .loc 1 584 0
 823 010e 3B6B     	 ldr r3,[r7,#48]
 824 0110 0093     	 str r3,[sp]
 825 0112 F86A     	 ldr r0,[r7,#44]
 826 0114 B968     	 ldr r1,[r7,#8]
 827 0116 7A68     	 ldr r2,[r7,#4]
 828 0118 7B6B     	 ldr r3,[r7,#52]
 829 011a FFF7FEFF 	 bl prvWriteMessageToBuffer
 830 011e B862     	 str r0,[r7,#40]
 585:../Dave/Generated/FREERTOS/stream_buffer.c **** 
 586:../Dave/Generated/FREERTOS/stream_buffer.c **** 	if( xReturn > ( size_t ) 0 )
 831              	 .loc 1 586 0
 832 0120 BB6A     	 ldr r3,[r7,#40]
 833 0122 002B     	 cmp r3,#0
 834 0124 1AD0     	 beq .L52
 587:../Dave/Generated/FREERTOS/stream_buffer.c **** 	{
 588:../Dave/Generated/FREERTOS/stream_buffer.c **** 		traceSTREAM_BUFFER_SEND( xStreamBuffer, xReturn );
 589:../Dave/Generated/FREERTOS/stream_buffer.c **** 
 590:../Dave/Generated/FREERTOS/stream_buffer.c **** 		/* Was a task waiting for the data? */
 591:../Dave/Generated/FREERTOS/stream_buffer.c **** 		if( prvBytesInBuffer( pxStreamBuffer ) >= pxStreamBuffer->xTriggerLevelBytes )
 835              	 .loc 1 591 0
 836 0126 F86A     	 ldr r0,[r7,#44]
 837 0128 FFF7FEFF 	 bl prvBytesInBuffer
 838 012c 0246     	 mov r2,r0
 839 012e FB6A     	 ldr r3,[r7,#44]
 840 0130 DB68     	 ldr r3,[r3,#12]
 841 0132 9A42     	 cmp r2,r3
 842 0134 12D3     	 bcc .L52
 592:../Dave/Generated/FREERTOS/stream_buffer.c **** 		{
 593:../Dave/Generated/FREERTOS/stream_buffer.c **** 			sbSEND_COMPLETED( pxStreamBuffer );
 843              	 .loc 1 593 0
 844 0136 FFF7FEFF 	 bl vTaskSuspendAll
 845 013a FB6A     	 ldr r3,[r7,#44]
 846 013c 1B69     	 ldr r3,[r3,#16]
 847 013e 002B     	 cmp r3,#0
 848 0140 0AD0     	 beq .L53
 849              	 .loc 1 593 0 is_stmt 0 discriminator 1
 850 0142 FB6A     	 ldr r3,[r7,#44]
 851 0144 1B69     	 ldr r3,[r3,#16]
 852 0146 1846     	 mov r0,r3
 853 0148 0021     	 movs r1,#0
 854 014a 0022     	 movs r2,#0
 855 014c 0023     	 movs r3,#0
 856 014e FFF7FEFF 	 bl xTaskGenericNotify
 857 0152 FB6A     	 ldr r3,[r7,#44]
 858 0154 0022     	 movs r2,#0
 859 0156 1A61     	 str r2,[r3,#16]
 860              	.L53:
 861              	 .loc 1 593 0 discriminator 3
 862 0158 FFF7FEFF 	 bl xTaskResumeAll
 863              	.L52:
 594:../Dave/Generated/FREERTOS/stream_buffer.c **** 		}
 595:../Dave/Generated/FREERTOS/stream_buffer.c **** 		else
 596:../Dave/Generated/FREERTOS/stream_buffer.c **** 		{
 597:../Dave/Generated/FREERTOS/stream_buffer.c **** 			mtCOVERAGE_TEST_MARKER();
 598:../Dave/Generated/FREERTOS/stream_buffer.c **** 		}
 599:../Dave/Generated/FREERTOS/stream_buffer.c **** 	}
 600:../Dave/Generated/FREERTOS/stream_buffer.c **** 	else
 601:../Dave/Generated/FREERTOS/stream_buffer.c **** 	{
 602:../Dave/Generated/FREERTOS/stream_buffer.c **** 		mtCOVERAGE_TEST_MARKER();
 603:../Dave/Generated/FREERTOS/stream_buffer.c **** 		traceSTREAM_BUFFER_SEND_FAILED( xStreamBuffer );
 604:../Dave/Generated/FREERTOS/stream_buffer.c **** 	}
 605:../Dave/Generated/FREERTOS/stream_buffer.c **** 
 606:../Dave/Generated/FREERTOS/stream_buffer.c **** 	return xReturn;
 864              	 .loc 1 606 0 is_stmt 1
 865 015c BB6A     	 ldr r3,[r7,#40]
 607:../Dave/Generated/FREERTOS/stream_buffer.c **** }
 866              	 .loc 1 607 0
 867 015e 1846     	 mov r0,r3
 868 0160 3837     	 adds r7,r7,#56
 869              	.LCFI35:
 870              	 .cfi_def_cfa_offset 8
 871 0162 BD46     	 mov sp,r7
 872              	.LCFI36:
 873              	 .cfi_def_cfa_register 13
 874              	 
 875 0164 80BD     	 pop {r7,pc}
 876              	 .cfi_endproc
 877              	.LFE143:
 879 0166 00BF     	 .section .text.xStreamBufferSendFromISR,"ax",%progbits
 880              	 .align 2
 881              	 .global xStreamBufferSendFromISR
 882              	 .thumb
 883              	 .thumb_func
 885              	xStreamBufferSendFromISR:
 886              	.LFB144:
 608:../Dave/Generated/FREERTOS/stream_buffer.c **** /*-----------------------------------------------------------*/
 609:../Dave/Generated/FREERTOS/stream_buffer.c **** 
 610:../Dave/Generated/FREERTOS/stream_buffer.c **** size_t xStreamBufferSendFromISR( StreamBufferHandle_t xStreamBuffer,
 611:../Dave/Generated/FREERTOS/stream_buffer.c **** 								 const void *pvTxData,
 612:../Dave/Generated/FREERTOS/stream_buffer.c **** 								 size_t xDataLengthBytes,
 613:../Dave/Generated/FREERTOS/stream_buffer.c **** 								 BaseType_t * const pxHigherPriorityTaskWoken )
 614:../Dave/Generated/FREERTOS/stream_buffer.c **** {
 887              	 .loc 1 614 0
 888              	 .cfi_startproc
 889              	 
 890              	 
 891 0000 80B5     	 push {r7,lr}
 892              	.LCFI37:
 893              	 .cfi_def_cfa_offset 8
 894              	 .cfi_offset 7,-8
 895              	 .cfi_offset 14,-4
 896 0002 90B0     	 sub sp,sp,#64
 897              	.LCFI38:
 898              	 .cfi_def_cfa_offset 72
 899 0004 02AF     	 add r7,sp,#8
 900              	.LCFI39:
 901              	 .cfi_def_cfa 7,64
 902 0006 F860     	 str r0,[r7,#12]
 903 0008 B960     	 str r1,[r7,#8]
 904 000a 7A60     	 str r2,[r7,#4]
 905 000c 3B60     	 str r3,[r7]
 615:../Dave/Generated/FREERTOS/stream_buffer.c **** StreamBuffer_t * const pxStreamBuffer = xStreamBuffer;
 906              	 .loc 1 615 0
 907 000e FB68     	 ldr r3,[r7,#12]
 908 0010 3B63     	 str r3,[r7,#48]
 616:../Dave/Generated/FREERTOS/stream_buffer.c **** size_t xReturn, xSpace;
 617:../Dave/Generated/FREERTOS/stream_buffer.c **** size_t xRequiredSpace = xDataLengthBytes;
 909              	 .loc 1 617 0
 910 0012 7B68     	 ldr r3,[r7,#4]
 911 0014 7B63     	 str r3,[r7,#52]
 618:../Dave/Generated/FREERTOS/stream_buffer.c **** 
 619:../Dave/Generated/FREERTOS/stream_buffer.c **** 	configASSERT( pvTxData );
 912              	 .loc 1 619 0
 913 0016 BB68     	 ldr r3,[r7,#8]
 914 0018 002B     	 cmp r3,#0
 915 001a 09D1     	 bne .L57
 916              	.LBB109:
 917              	.LBB110:
 918              	 .loc 2 195 0 discriminator 1
 919              	
 920 001c 4FF0FC03 	 mov r3,#252
 921 0020 83F31188 	 msr basepri,r3
 922 0024 BFF36F8F 	 isb 
 923 0028 BFF34F8F 	 dsb 
 924              	
 925              	
 926              	 .thumb
 927 002c 3B62     	 str r3,[r7,#32]
 928              	.L58:
 929              	.LBE110:
 930              	.LBE109:
 931              	 .loc 1 619 0 discriminator 1
 932 002e FEE7     	 b .L58
 933              	.L57:
 620:../Dave/Generated/FREERTOS/stream_buffer.c **** 	configASSERT( pxStreamBuffer );
 934              	 .loc 1 620 0
 935 0030 3B6B     	 ldr r3,[r7,#48]
 936 0032 002B     	 cmp r3,#0
 937 0034 09D1     	 bne .L59
 938              	.LBB111:
 939              	.LBB112:
 940              	 .loc 2 195 0 discriminator 1
 941              	
 942 0036 4FF0FC03 	 mov r3,#252
 943 003a 83F31188 	 msr basepri,r3
 944 003e BFF36F8F 	 isb 
 945 0042 BFF34F8F 	 dsb 
 946              	
 947              	
 948              	 .thumb
 949 0046 FB61     	 str r3,[r7,#28]
 950              	.L60:
 951              	.LBE112:
 952              	.LBE111:
 953              	 .loc 1 620 0 discriminator 2
 954 0048 FEE7     	 b .L60
 955              	.L59:
 621:../Dave/Generated/FREERTOS/stream_buffer.c **** 
 622:../Dave/Generated/FREERTOS/stream_buffer.c **** 	/* This send function is used to write to both message buffers and stream
 623:../Dave/Generated/FREERTOS/stream_buffer.c **** 	buffers.  If this is a message buffer then the space needed must be
 624:../Dave/Generated/FREERTOS/stream_buffer.c **** 	increased by the amount of bytes needed to store the length of the
 625:../Dave/Generated/FREERTOS/stream_buffer.c **** 	message. */
 626:../Dave/Generated/FREERTOS/stream_buffer.c **** 	if( ( pxStreamBuffer->ucFlags & sbFLAGS_IS_MESSAGE_BUFFER ) != ( uint8_t ) 0 )
 956              	 .loc 1 626 0
 957 004a 3B6B     	 ldr r3,[r7,#48]
 958 004c 1B7F     	 ldrb r3,[r3,#28]
 959 004e 03F00103 	 and r3,r3,#1
 960 0052 002B     	 cmp r3,#0
 961 0054 02D0     	 beq .L61
 627:../Dave/Generated/FREERTOS/stream_buffer.c **** 	{
 628:../Dave/Generated/FREERTOS/stream_buffer.c **** 		xRequiredSpace += sbBYTES_TO_STORE_MESSAGE_LENGTH;
 962              	 .loc 1 628 0
 963 0056 7B6B     	 ldr r3,[r7,#52]
 964 0058 0433     	 adds r3,r3,#4
 965 005a 7B63     	 str r3,[r7,#52]
 966              	.L61:
 629:../Dave/Generated/FREERTOS/stream_buffer.c **** 	}
 630:../Dave/Generated/FREERTOS/stream_buffer.c **** 	else
 631:../Dave/Generated/FREERTOS/stream_buffer.c **** 	{
 632:../Dave/Generated/FREERTOS/stream_buffer.c **** 		mtCOVERAGE_TEST_MARKER();
 633:../Dave/Generated/FREERTOS/stream_buffer.c **** 	}
 634:../Dave/Generated/FREERTOS/stream_buffer.c **** 
 635:../Dave/Generated/FREERTOS/stream_buffer.c **** 	xSpace = xStreamBufferSpacesAvailable( pxStreamBuffer );
 967              	 .loc 1 635 0
 968 005c 386B     	 ldr r0,[r7,#48]
 969 005e FFF7FEFF 	 bl xStreamBufferSpacesAvailable
 970 0062 F862     	 str r0,[r7,#44]
 636:../Dave/Generated/FREERTOS/stream_buffer.c **** 	xReturn = prvWriteMessageToBuffer( pxStreamBuffer, pvTxData, xDataLengthBytes, xSpace, xRequiredSp
 971              	 .loc 1 636 0
 972 0064 7B6B     	 ldr r3,[r7,#52]
 973 0066 0093     	 str r3,[sp]
 974 0068 386B     	 ldr r0,[r7,#48]
 975 006a B968     	 ldr r1,[r7,#8]
 976 006c 7A68     	 ldr r2,[r7,#4]
 977 006e FB6A     	 ldr r3,[r7,#44]
 978 0070 FFF7FEFF 	 bl prvWriteMessageToBuffer
 979 0074 B862     	 str r0,[r7,#40]
 637:../Dave/Generated/FREERTOS/stream_buffer.c **** 
 638:../Dave/Generated/FREERTOS/stream_buffer.c **** 	if( xReturn > ( size_t ) 0 )
 980              	 .loc 1 638 0
 981 0076 BB6A     	 ldr r3,[r7,#40]
 982 0078 002B     	 cmp r3,#0
 983 007a 2BD0     	 beq .L62
 639:../Dave/Generated/FREERTOS/stream_buffer.c **** 	{
 640:../Dave/Generated/FREERTOS/stream_buffer.c **** 		/* Was a task waiting for the data? */
 641:../Dave/Generated/FREERTOS/stream_buffer.c **** 		if( prvBytesInBuffer( pxStreamBuffer ) >= pxStreamBuffer->xTriggerLevelBytes )
 984              	 .loc 1 641 0
 985 007c 386B     	 ldr r0,[r7,#48]
 986 007e FFF7FEFF 	 bl prvBytesInBuffer
 987 0082 0246     	 mov r2,r0
 988 0084 3B6B     	 ldr r3,[r7,#48]
 989 0086 DB68     	 ldr r3,[r3,#12]
 990 0088 9A42     	 cmp r2,r3
 991 008a 23D3     	 bcc .L62
 992              	.LBB113:
 993              	.LBB114:
 994              	.LBB115:
 196:../Dave/Generated/FREERTOS/portable/GCC/portmacro.h **** 	(
 197:../Dave/Generated/FREERTOS/portable/GCC/portmacro.h **** 		"	mov %0, %1												\n"	\
 198:../Dave/Generated/FREERTOS/portable/GCC/portmacro.h **** 		"	msr basepri, %0											\n" \
 199:../Dave/Generated/FREERTOS/portable/GCC/portmacro.h **** 		"	isb														\n" \
 200:../Dave/Generated/FREERTOS/portable/GCC/portmacro.h **** 		"	dsb														\n" \
 201:../Dave/Generated/FREERTOS/portable/GCC/portmacro.h **** 		:"=r" (ulNewBASEPRI) : "i" ( configMAX_SYSCALL_INTERRUPT_PRIORITY ) : "memory"
 202:../Dave/Generated/FREERTOS/portable/GCC/portmacro.h **** 	);
 203:../Dave/Generated/FREERTOS/portable/GCC/portmacro.h **** }
 204:../Dave/Generated/FREERTOS/portable/GCC/portmacro.h **** 
 205:../Dave/Generated/FREERTOS/portable/GCC/portmacro.h **** /*-----------------------------------------------------------*/
 206:../Dave/Generated/FREERTOS/portable/GCC/portmacro.h **** 
 207:../Dave/Generated/FREERTOS/portable/GCC/portmacro.h **** portFORCE_INLINE static uint32_t ulPortRaiseBASEPRI( void )
 208:../Dave/Generated/FREERTOS/portable/GCC/portmacro.h **** {
 209:../Dave/Generated/FREERTOS/portable/GCC/portmacro.h **** uint32_t ulOriginalBASEPRI, ulNewBASEPRI;
 210:../Dave/Generated/FREERTOS/portable/GCC/portmacro.h **** 
 211:../Dave/Generated/FREERTOS/portable/GCC/portmacro.h **** 	__asm volatile
 995              	 .loc 2 211 0
 996              	
 997 008c EFF31182 	 mrs r2,basepri
 998 0090 4FF0FC03 	 mov r3,#252
 999 0094 83F31188 	 msr basepri,r3
 1000 0098 BFF36F8F 	 isb 
 1001 009c BFF34F8F 	 dsb 
 1002              	
 1003              	
 1004              	 .thumb
 1005 00a0 BA61     	 str r2,[r7,#24]
 1006 00a2 7B61     	 str r3,[r7,#20]
 212:../Dave/Generated/FREERTOS/portable/GCC/portmacro.h **** 	(
 213:../Dave/Generated/FREERTOS/portable/GCC/portmacro.h **** 		"	mrs %0, basepri											\n" \
 214:../Dave/Generated/FREERTOS/portable/GCC/portmacro.h **** 		"	mov %1, %2												\n"	\
 215:../Dave/Generated/FREERTOS/portable/GCC/portmacro.h **** 		"	msr basepri, %1											\n" \
 216:../Dave/Generated/FREERTOS/portable/GCC/portmacro.h **** 		"	isb														\n" \
 217:../Dave/Generated/FREERTOS/portable/GCC/portmacro.h **** 		"	dsb														\n" \
 218:../Dave/Generated/FREERTOS/portable/GCC/portmacro.h **** 		:"=r" (ulOriginalBASEPRI), "=r" (ulNewBASEPRI) : "i" ( configMAX_SYSCALL_INTERRUPT_PRIORITY ) : "
 219:../Dave/Generated/FREERTOS/portable/GCC/portmacro.h **** 	);
 220:../Dave/Generated/FREERTOS/portable/GCC/portmacro.h **** 
 221:../Dave/Generated/FREERTOS/portable/GCC/portmacro.h **** 	/* This return will not be reached but is necessary to prevent compiler
 222:../Dave/Generated/FREERTOS/portable/GCC/portmacro.h **** 	warnings. */
 223:../Dave/Generated/FREERTOS/portable/GCC/portmacro.h **** 	return ulOriginalBASEPRI;
 1007              	 .loc 2 223 0
 1008 00a4 BB69     	 ldr r3,[r7,#24]
 1009              	.LBE115:
 1010              	.LBE114:
 642:../Dave/Generated/FREERTOS/stream_buffer.c **** 		{
 643:../Dave/Generated/FREERTOS/stream_buffer.c **** 			sbSEND_COMPLETE_FROM_ISR( pxStreamBuffer, pxHigherPriorityTaskWoken );
 1011              	 .loc 1 643 0
 1012 00a6 7B62     	 str r3,[r7,#36]
 1013 00a8 3B6B     	 ldr r3,[r7,#48]
 1014 00aa 1B69     	 ldr r3,[r3,#16]
 1015 00ac 002B     	 cmp r3,#0
 1016 00ae 0CD0     	 beq .L64
 1017              	 .loc 1 643 0 is_stmt 0 discriminator 1
 1018 00b0 3B6B     	 ldr r3,[r7,#48]
 1019 00b2 1A69     	 ldr r2,[r3,#16]
 1020 00b4 3B68     	 ldr r3,[r7]
 1021 00b6 0093     	 str r3,[sp]
 1022 00b8 1046     	 mov r0,r2
 1023 00ba 0021     	 movs r1,#0
 1024 00bc 0022     	 movs r2,#0
 1025 00be 0023     	 movs r3,#0
 1026 00c0 FFF7FEFF 	 bl xTaskGenericNotifyFromISR
 1027 00c4 3B6B     	 ldr r3,[r7,#48]
 1028 00c6 0022     	 movs r2,#0
 1029 00c8 1A61     	 str r2,[r3,#16]
 1030              	.L64:
 1031 00ca 7B6A     	 ldr r3,[r7,#36]
 1032 00cc 3B61     	 str r3,[r7,#16]
 1033              	.LBB116:
 1034              	.LBB117:
 224:../Dave/Generated/FREERTOS/portable/GCC/portmacro.h **** }
 225:../Dave/Generated/FREERTOS/portable/GCC/portmacro.h **** /*-----------------------------------------------------------*/
 226:../Dave/Generated/FREERTOS/portable/GCC/portmacro.h **** 
 227:../Dave/Generated/FREERTOS/portable/GCC/portmacro.h **** portFORCE_INLINE static void vPortSetBASEPRI( uint32_t ulNewMaskValue )
 228:../Dave/Generated/FREERTOS/portable/GCC/portmacro.h **** {
 229:../Dave/Generated/FREERTOS/portable/GCC/portmacro.h **** 	__asm volatile
 1035              	 .loc 2 229 0 is_stmt 1 discriminator 3
 1036 00ce 3B69     	 ldr r3,[r7,#16]
 1037              	
 1038 00d0 83F31188 	 msr basepri,r3
 1039              	
 1040              	 .thumb
 1041              	.L62:
 1042              	.LBE117:
 1043              	.LBE116:
 1044              	.LBE113:
 644:../Dave/Generated/FREERTOS/stream_buffer.c **** 		}
 645:../Dave/Generated/FREERTOS/stream_buffer.c **** 		else
 646:../Dave/Generated/FREERTOS/stream_buffer.c **** 		{
 647:../Dave/Generated/FREERTOS/stream_buffer.c **** 			mtCOVERAGE_TEST_MARKER();
 648:../Dave/Generated/FREERTOS/stream_buffer.c **** 		}
 649:../Dave/Generated/FREERTOS/stream_buffer.c **** 	}
 650:../Dave/Generated/FREERTOS/stream_buffer.c **** 	else
 651:../Dave/Generated/FREERTOS/stream_buffer.c **** 	{
 652:../Dave/Generated/FREERTOS/stream_buffer.c **** 		mtCOVERAGE_TEST_MARKER();
 653:../Dave/Generated/FREERTOS/stream_buffer.c **** 	}
 654:../Dave/Generated/FREERTOS/stream_buffer.c **** 
 655:../Dave/Generated/FREERTOS/stream_buffer.c **** 	traceSTREAM_BUFFER_SEND_FROM_ISR( xStreamBuffer, xReturn );
 656:../Dave/Generated/FREERTOS/stream_buffer.c **** 
 657:../Dave/Generated/FREERTOS/stream_buffer.c **** 	return xReturn;
 1045              	 .loc 1 657 0
 1046 00d4 BB6A     	 ldr r3,[r7,#40]
 658:../Dave/Generated/FREERTOS/stream_buffer.c **** }
 1047              	 .loc 1 658 0
 1048 00d6 1846     	 mov r0,r3
 1049 00d8 3837     	 adds r7,r7,#56
 1050              	.LCFI40:
 1051              	 .cfi_def_cfa_offset 8
 1052 00da BD46     	 mov sp,r7
 1053              	.LCFI41:
 1054              	 .cfi_def_cfa_register 13
 1055              	 
 1056 00dc 80BD     	 pop {r7,pc}
 1057              	 .cfi_endproc
 1058              	.LFE144:
 1060 00de 00BF     	 .section .text.prvWriteMessageToBuffer,"ax",%progbits
 1061              	 .align 2
 1062              	 .thumb
 1063              	 .thumb_func
 1065              	prvWriteMessageToBuffer:
 1066              	.LFB145:
 659:../Dave/Generated/FREERTOS/stream_buffer.c **** /*-----------------------------------------------------------*/
 660:../Dave/Generated/FREERTOS/stream_buffer.c **** 
 661:../Dave/Generated/FREERTOS/stream_buffer.c **** static size_t prvWriteMessageToBuffer( StreamBuffer_t * const pxStreamBuffer,
 662:../Dave/Generated/FREERTOS/stream_buffer.c **** 									   const void * pvTxData,
 663:../Dave/Generated/FREERTOS/stream_buffer.c **** 									   size_t xDataLengthBytes,
 664:../Dave/Generated/FREERTOS/stream_buffer.c **** 									   size_t xSpace,
 665:../Dave/Generated/FREERTOS/stream_buffer.c **** 									   size_t xRequiredSpace )
 666:../Dave/Generated/FREERTOS/stream_buffer.c **** {
 1067              	 .loc 1 666 0
 1068              	 .cfi_startproc
 1069              	 
 1070              	 
 1071 0000 80B5     	 push {r7,lr}
 1072              	.LCFI42:
 1073              	 .cfi_def_cfa_offset 8
 1074              	 .cfi_offset 7,-8
 1075              	 .cfi_offset 14,-4
 1076 0002 86B0     	 sub sp,sp,#24
 1077              	.LCFI43:
 1078              	 .cfi_def_cfa_offset 32
 1079 0004 00AF     	 add r7,sp,#0
 1080              	.LCFI44:
 1081              	 .cfi_def_cfa_register 7
 1082 0006 F860     	 str r0,[r7,#12]
 1083 0008 B960     	 str r1,[r7,#8]
 1084 000a 7A60     	 str r2,[r7,#4]
 1085 000c 3B60     	 str r3,[r7]
 667:../Dave/Generated/FREERTOS/stream_buffer.c **** 	BaseType_t xShouldWrite;
 668:../Dave/Generated/FREERTOS/stream_buffer.c **** 	size_t xReturn;
 669:../Dave/Generated/FREERTOS/stream_buffer.c **** 
 670:../Dave/Generated/FREERTOS/stream_buffer.c **** 	if( xSpace == ( size_t ) 0 )
 1086              	 .loc 1 670 0
 1087 000e 3B68     	 ldr r3,[r7]
 1088 0010 002B     	 cmp r3,#0
 1089 0012 02D1     	 bne .L67
 671:../Dave/Generated/FREERTOS/stream_buffer.c **** 	{
 672:../Dave/Generated/FREERTOS/stream_buffer.c **** 		/* Doesn't matter if this is a stream buffer or a message buffer, there
 673:../Dave/Generated/FREERTOS/stream_buffer.c **** 		is no space to write. */
 674:../Dave/Generated/FREERTOS/stream_buffer.c **** 		xShouldWrite = pdFALSE;
 1090              	 .loc 1 674 0
 1091 0014 0023     	 movs r3,#0
 1092 0016 7B61     	 str r3,[r7,#20]
 1093 0018 1DE0     	 b .L68
 1094              	.L67:
 675:../Dave/Generated/FREERTOS/stream_buffer.c **** 	}
 676:../Dave/Generated/FREERTOS/stream_buffer.c **** 	else if( ( pxStreamBuffer->ucFlags & sbFLAGS_IS_MESSAGE_BUFFER ) == ( uint8_t ) 0 )
 1095              	 .loc 1 676 0
 1096 001a FB68     	 ldr r3,[r7,#12]
 1097 001c 1B7F     	 ldrb r3,[r3,#28]
 1098 001e 03F00103 	 and r3,r3,#1
 1099 0022 002B     	 cmp r3,#0
 1100 0024 08D1     	 bne .L69
 677:../Dave/Generated/FREERTOS/stream_buffer.c **** 	{
 678:../Dave/Generated/FREERTOS/stream_buffer.c **** 		/* This is a stream buffer, as opposed to a message buffer, so writing a
 679:../Dave/Generated/FREERTOS/stream_buffer.c **** 		stream of bytes rather than discrete messages.  Write as many bytes as
 680:../Dave/Generated/FREERTOS/stream_buffer.c **** 		possible. */
 681:../Dave/Generated/FREERTOS/stream_buffer.c **** 		xShouldWrite = pdTRUE;
 1101              	 .loc 1 681 0
 1102 0026 0123     	 movs r3,#1
 1103 0028 7B61     	 str r3,[r7,#20]
 682:../Dave/Generated/FREERTOS/stream_buffer.c **** 		xDataLengthBytes = configMIN( xDataLengthBytes, xSpace );
 1104              	 .loc 1 682 0
 1105 002a 7A68     	 ldr r2,[r7,#4]
 1106 002c 3B68     	 ldr r3,[r7]
 1107 002e 9342     	 cmp r3,r2
 1108 0030 28BF     	 it cs
 1109 0032 1346     	 movcs r3,r2
 1110 0034 7B60     	 str r3,[r7,#4]
 1111 0036 0EE0     	 b .L68
 1112              	.L69:
 683:../Dave/Generated/FREERTOS/stream_buffer.c **** 	}
 684:../Dave/Generated/FREERTOS/stream_buffer.c **** 	else if( xSpace >= xRequiredSpace )
 1113              	 .loc 1 684 0
 1114 0038 3A68     	 ldr r2,[r7]
 1115 003a 3B6A     	 ldr r3,[r7,#32]
 1116 003c 9A42     	 cmp r2,r3
 1117 003e 08D3     	 bcc .L70
 685:../Dave/Generated/FREERTOS/stream_buffer.c **** 	{
 686:../Dave/Generated/FREERTOS/stream_buffer.c **** 		/* This is a message buffer, as opposed to a stream buffer, and there
 687:../Dave/Generated/FREERTOS/stream_buffer.c **** 		is enough space to write both the message length and the message itself
 688:../Dave/Generated/FREERTOS/stream_buffer.c **** 		into the buffer.  Start by writing the length of the data, the data
 689:../Dave/Generated/FREERTOS/stream_buffer.c **** 		itself will be written later in this function. */
 690:../Dave/Generated/FREERTOS/stream_buffer.c **** 		xShouldWrite = pdTRUE;
 1118              	 .loc 1 690 0
 1119 0040 0123     	 movs r3,#1
 1120 0042 7B61     	 str r3,[r7,#20]
 691:../Dave/Generated/FREERTOS/stream_buffer.c **** 		( void ) prvWriteBytesToBuffer( pxStreamBuffer, ( const uint8_t * ) &( xDataLengthBytes ), sbBYTE
 1121              	 .loc 1 691 0
 1122 0044 3B1D     	 adds r3,r7,#4
 1123 0046 F868     	 ldr r0,[r7,#12]
 1124 0048 1946     	 mov r1,r3
 1125 004a 0422     	 movs r2,#4
 1126 004c FFF7FEFF 	 bl prvWriteBytesToBuffer
 1127 0050 01E0     	 b .L68
 1128              	.L70:
 692:../Dave/Generated/FREERTOS/stream_buffer.c **** 	}
 693:../Dave/Generated/FREERTOS/stream_buffer.c **** 	else
 694:../Dave/Generated/FREERTOS/stream_buffer.c **** 	{
 695:../Dave/Generated/FREERTOS/stream_buffer.c **** 		/* There is space available, but not enough space. */
 696:../Dave/Generated/FREERTOS/stream_buffer.c **** 		xShouldWrite = pdFALSE;
 1129              	 .loc 1 696 0
 1130 0052 0023     	 movs r3,#0
 1131 0054 7B61     	 str r3,[r7,#20]
 1132              	.L68:
 697:../Dave/Generated/FREERTOS/stream_buffer.c **** 	}
 698:../Dave/Generated/FREERTOS/stream_buffer.c **** 
 699:../Dave/Generated/FREERTOS/stream_buffer.c **** 	if( xShouldWrite != pdFALSE )
 1133              	 .loc 1 699 0
 1134 0056 7B69     	 ldr r3,[r7,#20]
 1135 0058 002B     	 cmp r3,#0
 1136 005a 07D0     	 beq .L71
 700:../Dave/Generated/FREERTOS/stream_buffer.c **** 	{
 701:../Dave/Generated/FREERTOS/stream_buffer.c **** 		/* Writes the data itself. */
 702:../Dave/Generated/FREERTOS/stream_buffer.c **** 		xReturn = prvWriteBytesToBuffer( pxStreamBuffer, ( const uint8_t * ) pvTxData, xDataLengthBytes )
 1137              	 .loc 1 702 0
 1138 005c 7B68     	 ldr r3,[r7,#4]
 1139 005e F868     	 ldr r0,[r7,#12]
 1140 0060 B968     	 ldr r1,[r7,#8]
 1141 0062 1A46     	 mov r2,r3
 1142 0064 FFF7FEFF 	 bl prvWriteBytesToBuffer
 1143 0068 3861     	 str r0,[r7,#16]
 1144 006a 01E0     	 b .L72
 1145              	.L71:
 703:../Dave/Generated/FREERTOS/stream_buffer.c **** 	}
 704:../Dave/Generated/FREERTOS/stream_buffer.c **** 	else
 705:../Dave/Generated/FREERTOS/stream_buffer.c **** 	{
 706:../Dave/Generated/FREERTOS/stream_buffer.c **** 		xReturn = 0;
 1146              	 .loc 1 706 0
 1147 006c 0023     	 movs r3,#0
 1148 006e 3B61     	 str r3,[r7,#16]
 1149              	.L72:
 707:../Dave/Generated/FREERTOS/stream_buffer.c **** 	}
 708:../Dave/Generated/FREERTOS/stream_buffer.c **** 
 709:../Dave/Generated/FREERTOS/stream_buffer.c **** 	return xReturn;
 1150              	 .loc 1 709 0
 1151 0070 3B69     	 ldr r3,[r7,#16]
 710:../Dave/Generated/FREERTOS/stream_buffer.c **** }
 1152              	 .loc 1 710 0
 1153 0072 1846     	 mov r0,r3
 1154 0074 1837     	 adds r7,r7,#24
 1155              	.LCFI45:
 1156              	 .cfi_def_cfa_offset 8
 1157 0076 BD46     	 mov sp,r7
 1158              	.LCFI46:
 1159              	 .cfi_def_cfa_register 13
 1160              	 
 1161 0078 80BD     	 pop {r7,pc}
 1162              	 .cfi_endproc
 1163              	.LFE145:
 1165 007a 00BF     	 .section .text.xStreamBufferReceive,"ax",%progbits
 1166              	 .align 2
 1167              	 .global xStreamBufferReceive
 1168              	 .thumb
 1169              	 .thumb_func
 1171              	xStreamBufferReceive:
 1172              	.LFB146:
 711:../Dave/Generated/FREERTOS/stream_buffer.c **** /*-----------------------------------------------------------*/
 712:../Dave/Generated/FREERTOS/stream_buffer.c **** 
 713:../Dave/Generated/FREERTOS/stream_buffer.c **** size_t xStreamBufferReceive( StreamBufferHandle_t xStreamBuffer,
 714:../Dave/Generated/FREERTOS/stream_buffer.c **** 							 void *pvRxData,
 715:../Dave/Generated/FREERTOS/stream_buffer.c **** 							 size_t xBufferLengthBytes,
 716:../Dave/Generated/FREERTOS/stream_buffer.c **** 							 TickType_t xTicksToWait )
 717:../Dave/Generated/FREERTOS/stream_buffer.c **** {
 1173              	 .loc 1 717 0
 1174              	 .cfi_startproc
 1175              	 
 1176              	 
 1177 0000 80B5     	 push {r7,lr}
 1178              	.LCFI47:
 1179              	 .cfi_def_cfa_offset 8
 1180              	 .cfi_offset 7,-8
 1181              	 .cfi_offset 14,-4
 1182 0002 8EB0     	 sub sp,sp,#56
 1183              	.LCFI48:
 1184              	 .cfi_def_cfa_offset 64
 1185 0004 02AF     	 add r7,sp,#8
 1186              	.LCFI49:
 1187              	 .cfi_def_cfa 7,56
 1188 0006 F860     	 str r0,[r7,#12]
 1189 0008 B960     	 str r1,[r7,#8]
 1190 000a 7A60     	 str r2,[r7,#4]
 1191 000c 3B60     	 str r3,[r7]
 718:../Dave/Generated/FREERTOS/stream_buffer.c **** StreamBuffer_t * const pxStreamBuffer = xStreamBuffer;
 1192              	 .loc 1 718 0
 1193 000e FB68     	 ldr r3,[r7,#12]
 1194 0010 3B62     	 str r3,[r7,#32]
 719:../Dave/Generated/FREERTOS/stream_buffer.c **** size_t xReceivedLength = 0, xBytesAvailable, xBytesToStoreMessageLength;
 1195              	 .loc 1 719 0
 1196 0012 0023     	 movs r3,#0
 1197 0014 FB62     	 str r3,[r7,#44]
 720:../Dave/Generated/FREERTOS/stream_buffer.c **** 
 721:../Dave/Generated/FREERTOS/stream_buffer.c **** 	configASSERT( pvRxData );
 1198              	 .loc 1 721 0
 1199 0016 BB68     	 ldr r3,[r7,#8]
 1200 0018 002B     	 cmp r3,#0
 1201 001a 09D1     	 bne .L75
 1202              	.LBB118:
 1203              	.LBB119:
 195:../Dave/Generated/FREERTOS/portable/GCC/portmacro.h **** 	(
 1204              	 .loc 2 195 0 discriminator 1
 1205              	
 1206 001c 4FF0FC03 	 mov r3,#252
 1207 0020 83F31188 	 msr basepri,r3
 1208 0024 BFF36F8F 	 isb 
 1209 0028 BFF34F8F 	 dsb 
 1210              	
 1211              	
 1212              	 .thumb
 1213 002c FB61     	 str r3,[r7,#28]
 1214              	.L76:
 1215              	.LBE119:
 1216              	.LBE118:
 1217              	 .loc 1 721 0 discriminator 1
 1218 002e FEE7     	 b .L76
 1219              	.L75:
 722:../Dave/Generated/FREERTOS/stream_buffer.c **** 	configASSERT( pxStreamBuffer );
 1220              	 .loc 1 722 0
 1221 0030 3B6A     	 ldr r3,[r7,#32]
 1222 0032 002B     	 cmp r3,#0
 1223 0034 09D1     	 bne .L77
 1224              	.LBB120:
 1225              	.LBB121:
 195:../Dave/Generated/FREERTOS/portable/GCC/portmacro.h **** 	(
 1226              	 .loc 2 195 0 discriminator 1
 1227              	
 1228 0036 4FF0FC03 	 mov r3,#252
 1229 003a 83F31188 	 msr basepri,r3
 1230 003e BFF36F8F 	 isb 
 1231 0042 BFF34F8F 	 dsb 
 1232              	
 1233              	
 1234              	 .thumb
 1235 0046 BB61     	 str r3,[r7,#24]
 1236              	.L78:
 1237              	.LBE121:
 1238              	.LBE120:
 1239              	 .loc 1 722 0 discriminator 2
 1240 0048 FEE7     	 b .L78
 1241              	.L77:
 723:../Dave/Generated/FREERTOS/stream_buffer.c **** 
 724:../Dave/Generated/FREERTOS/stream_buffer.c **** 	/* This receive function is used by both message buffers, which store
 725:../Dave/Generated/FREERTOS/stream_buffer.c **** 	discrete messages, and stream buffers, which store a continuous stream of
 726:../Dave/Generated/FREERTOS/stream_buffer.c **** 	bytes.  Discrete messages include an additional
 727:../Dave/Generated/FREERTOS/stream_buffer.c **** 	sbBYTES_TO_STORE_MESSAGE_LENGTH bytes that hold the length of the
 728:../Dave/Generated/FREERTOS/stream_buffer.c **** 	message. */
 729:../Dave/Generated/FREERTOS/stream_buffer.c **** 	if( ( pxStreamBuffer->ucFlags & sbFLAGS_IS_MESSAGE_BUFFER ) != ( uint8_t ) 0 )
 1242              	 .loc 1 729 0
 1243 004a 3B6A     	 ldr r3,[r7,#32]
 1244 004c 1B7F     	 ldrb r3,[r3,#28]
 1245 004e 03F00103 	 and r3,r3,#1
 1246 0052 002B     	 cmp r3,#0
 1247 0054 02D0     	 beq .L79
 730:../Dave/Generated/FREERTOS/stream_buffer.c **** 	{
 731:../Dave/Generated/FREERTOS/stream_buffer.c **** 		xBytesToStoreMessageLength = sbBYTES_TO_STORE_MESSAGE_LENGTH;
 1248              	 .loc 1 731 0
 1249 0056 0423     	 movs r3,#4
 1250 0058 7B62     	 str r3,[r7,#36]
 1251 005a 01E0     	 b .L80
 1252              	.L79:
 732:../Dave/Generated/FREERTOS/stream_buffer.c **** 	}
 733:../Dave/Generated/FREERTOS/stream_buffer.c **** 	else
 734:../Dave/Generated/FREERTOS/stream_buffer.c **** 	{
 735:../Dave/Generated/FREERTOS/stream_buffer.c **** 		xBytesToStoreMessageLength = 0;
 1253              	 .loc 1 735 0
 1254 005c 0023     	 movs r3,#0
 1255 005e 7B62     	 str r3,[r7,#36]
 1256              	.L80:
 736:../Dave/Generated/FREERTOS/stream_buffer.c **** 	}
 737:../Dave/Generated/FREERTOS/stream_buffer.c **** 
 738:../Dave/Generated/FREERTOS/stream_buffer.c **** 	if( xTicksToWait != ( TickType_t ) 0 )
 1257              	 .loc 1 738 0
 1258 0060 3B68     	 ldr r3,[r7]
 1259 0062 002B     	 cmp r3,#0
 1260 0064 33D0     	 beq .L81
 739:../Dave/Generated/FREERTOS/stream_buffer.c **** 	{
 740:../Dave/Generated/FREERTOS/stream_buffer.c **** 		/* Checking if there is data and clearing the notification state must be
 741:../Dave/Generated/FREERTOS/stream_buffer.c **** 		performed atomically. */
 742:../Dave/Generated/FREERTOS/stream_buffer.c **** 		taskENTER_CRITICAL();
 1261              	 .loc 1 742 0
 1262 0066 FFF7FEFF 	 bl vPortEnterCritical
 743:../Dave/Generated/FREERTOS/stream_buffer.c **** 		{
 744:../Dave/Generated/FREERTOS/stream_buffer.c **** 			xBytesAvailable = prvBytesInBuffer( pxStreamBuffer );
 1263              	 .loc 1 744 0
 1264 006a 386A     	 ldr r0,[r7,#32]
 1265 006c FFF7FEFF 	 bl prvBytesInBuffer
 1266 0070 B862     	 str r0,[r7,#40]
 745:../Dave/Generated/FREERTOS/stream_buffer.c **** 
 746:../Dave/Generated/FREERTOS/stream_buffer.c **** 			/* If this function was invoked by a message buffer read then
 747:../Dave/Generated/FREERTOS/stream_buffer.c **** 			xBytesToStoreMessageLength holds the number of bytes used to hold
 748:../Dave/Generated/FREERTOS/stream_buffer.c **** 			the length of the next discrete message.  If this function was
 749:../Dave/Generated/FREERTOS/stream_buffer.c **** 			invoked by a stream buffer read then xBytesToStoreMessageLength will
 750:../Dave/Generated/FREERTOS/stream_buffer.c **** 			be 0. */
 751:../Dave/Generated/FREERTOS/stream_buffer.c **** 			if( xBytesAvailable <= xBytesToStoreMessageLength )
 1267              	 .loc 1 751 0
 1268 0072 BA6A     	 ldr r2,[r7,#40]
 1269 0074 7B6A     	 ldr r3,[r7,#36]
 1270 0076 9A42     	 cmp r2,r3
 1271 0078 15D8     	 bhi .L82
 752:../Dave/Generated/FREERTOS/stream_buffer.c **** 			{
 753:../Dave/Generated/FREERTOS/stream_buffer.c **** 				/* Clear notification state as going to wait for data. */
 754:../Dave/Generated/FREERTOS/stream_buffer.c **** 				( void ) xTaskNotifyStateClear( NULL );
 1272              	 .loc 1 754 0
 1273 007a 0020     	 movs r0,#0
 1274 007c FFF7FEFF 	 bl xTaskNotifyStateClear
 755:../Dave/Generated/FREERTOS/stream_buffer.c **** 
 756:../Dave/Generated/FREERTOS/stream_buffer.c **** 				/* Should only be one reader. */
 757:../Dave/Generated/FREERTOS/stream_buffer.c **** 				configASSERT( pxStreamBuffer->xTaskWaitingToReceive == NULL );
 1275              	 .loc 1 757 0
 1276 0080 3B6A     	 ldr r3,[r7,#32]
 1277 0082 1B69     	 ldr r3,[r3,#16]
 1278 0084 002B     	 cmp r3,#0
 1279 0086 09D0     	 beq .L83
 1280              	.LBB122:
 1281              	.LBB123:
 195:../Dave/Generated/FREERTOS/portable/GCC/portmacro.h **** 	(
 1282              	 .loc 2 195 0 discriminator 1
 1283              	
 1284 0088 4FF0FC03 	 mov r3,#252
 1285 008c 83F31188 	 msr basepri,r3
 1286 0090 BFF36F8F 	 isb 
 1287 0094 BFF34F8F 	 dsb 
 1288              	
 1289              	
 1290              	 .thumb
 1291 0098 7B61     	 str r3,[r7,#20]
 1292              	.L84:
 1293              	.LBE123:
 1294              	.LBE122:
 1295              	 .loc 1 757 0 discriminator 3
 1296 009a FEE7     	 b .L84
 1297              	.L83:
 758:../Dave/Generated/FREERTOS/stream_buffer.c **** 				pxStreamBuffer->xTaskWaitingToReceive = xTaskGetCurrentTaskHandle();
 1298              	 .loc 1 758 0
 1299 009c FFF7FEFF 	 bl xTaskGetCurrentTaskHandle
 1300 00a0 0246     	 mov r2,r0
 1301 00a2 3B6A     	 ldr r3,[r7,#32]
 1302 00a4 1A61     	 str r2,[r3,#16]
 1303              	.L82:
 759:../Dave/Generated/FREERTOS/stream_buffer.c **** 			}
 760:../Dave/Generated/FREERTOS/stream_buffer.c **** 			else
 761:../Dave/Generated/FREERTOS/stream_buffer.c **** 			{
 762:../Dave/Generated/FREERTOS/stream_buffer.c **** 				mtCOVERAGE_TEST_MARKER();
 763:../Dave/Generated/FREERTOS/stream_buffer.c **** 			}
 764:../Dave/Generated/FREERTOS/stream_buffer.c **** 		}
 765:../Dave/Generated/FREERTOS/stream_buffer.c **** 		taskEXIT_CRITICAL();
 1304              	 .loc 1 765 0
 1305 00a6 FFF7FEFF 	 bl vPortExitCritical
 766:../Dave/Generated/FREERTOS/stream_buffer.c **** 
 767:../Dave/Generated/FREERTOS/stream_buffer.c **** 		if( xBytesAvailable <= xBytesToStoreMessageLength )
 1306              	 .loc 1 767 0
 1307 00aa BA6A     	 ldr r2,[r7,#40]
 1308 00ac 7B6A     	 ldr r3,[r7,#36]
 1309 00ae 9A42     	 cmp r2,r3
 1310 00b0 11D8     	 bhi .L85
 768:../Dave/Generated/FREERTOS/stream_buffer.c **** 		{
 769:../Dave/Generated/FREERTOS/stream_buffer.c **** 			/* Wait for data to be available. */
 770:../Dave/Generated/FREERTOS/stream_buffer.c **** 			traceBLOCKING_ON_STREAM_BUFFER_RECEIVE( xStreamBuffer );
 771:../Dave/Generated/FREERTOS/stream_buffer.c **** 			( void ) xTaskNotifyWait( ( uint32_t ) 0, ( uint32_t ) 0, NULL, xTicksToWait );
 1311              	 .loc 1 771 0
 1312 00b2 0020     	 movs r0,#0
 1313 00b4 0021     	 movs r1,#0
 1314 00b6 0022     	 movs r2,#0
 1315 00b8 3B68     	 ldr r3,[r7]
 1316 00ba FFF7FEFF 	 bl xTaskNotifyWait
 772:../Dave/Generated/FREERTOS/stream_buffer.c **** 			pxStreamBuffer->xTaskWaitingToReceive = NULL;
 1317              	 .loc 1 772 0
 1318 00be 3B6A     	 ldr r3,[r7,#32]
 1319 00c0 0022     	 movs r2,#0
 1320 00c2 1A61     	 str r2,[r3,#16]
 773:../Dave/Generated/FREERTOS/stream_buffer.c **** 
 774:../Dave/Generated/FREERTOS/stream_buffer.c **** 			/* Recheck the data available after blocking. */
 775:../Dave/Generated/FREERTOS/stream_buffer.c **** 			xBytesAvailable = prvBytesInBuffer( pxStreamBuffer );
 1321              	 .loc 1 775 0
 1322 00c4 386A     	 ldr r0,[r7,#32]
 1323 00c6 FFF7FEFF 	 bl prvBytesInBuffer
 1324 00ca B862     	 str r0,[r7,#40]
 1325 00cc 03E0     	 b .L85
 1326              	.L81:
 776:../Dave/Generated/FREERTOS/stream_buffer.c **** 		}
 777:../Dave/Generated/FREERTOS/stream_buffer.c **** 		else
 778:../Dave/Generated/FREERTOS/stream_buffer.c **** 		{
 779:../Dave/Generated/FREERTOS/stream_buffer.c **** 			mtCOVERAGE_TEST_MARKER();
 780:../Dave/Generated/FREERTOS/stream_buffer.c **** 		}
 781:../Dave/Generated/FREERTOS/stream_buffer.c **** 	}
 782:../Dave/Generated/FREERTOS/stream_buffer.c **** 	else
 783:../Dave/Generated/FREERTOS/stream_buffer.c **** 	{
 784:../Dave/Generated/FREERTOS/stream_buffer.c **** 		xBytesAvailable = prvBytesInBuffer( pxStreamBuffer );
 1327              	 .loc 1 784 0
 1328 00ce 386A     	 ldr r0,[r7,#32]
 1329 00d0 FFF7FEFF 	 bl prvBytesInBuffer
 1330 00d4 B862     	 str r0,[r7,#40]
 1331              	.L85:
 785:../Dave/Generated/FREERTOS/stream_buffer.c **** 	}
 786:../Dave/Generated/FREERTOS/stream_buffer.c **** 
 787:../Dave/Generated/FREERTOS/stream_buffer.c **** 	/* Whether receiving a discrete message (where xBytesToStoreMessageLength
 788:../Dave/Generated/FREERTOS/stream_buffer.c **** 	holds the number of bytes used to store the message length) or a stream of
 789:../Dave/Generated/FREERTOS/stream_buffer.c **** 	bytes (where xBytesToStoreMessageLength is zero), the number of bytes
 790:../Dave/Generated/FREERTOS/stream_buffer.c **** 	available must be greater than xBytesToStoreMessageLength to be able to
 791:../Dave/Generated/FREERTOS/stream_buffer.c **** 	read bytes from the buffer. */
 792:../Dave/Generated/FREERTOS/stream_buffer.c **** 	if( xBytesAvailable > xBytesToStoreMessageLength )
 1332              	 .loc 1 792 0
 1333 00d6 BA6A     	 ldr r2,[r7,#40]
 1334 00d8 7B6A     	 ldr r3,[r7,#36]
 1335 00da 9A42     	 cmp r2,r3
 1336 00dc 1ED9     	 bls .L86
 793:../Dave/Generated/FREERTOS/stream_buffer.c **** 	{
 794:../Dave/Generated/FREERTOS/stream_buffer.c **** 		xReceivedLength = prvReadMessageFromBuffer( pxStreamBuffer, pvRxData, xBufferLengthBytes, xBytesA
 1337              	 .loc 1 794 0
 1338 00de 7B6A     	 ldr r3,[r7,#36]
 1339 00e0 0093     	 str r3,[sp]
 1340 00e2 386A     	 ldr r0,[r7,#32]
 1341 00e4 B968     	 ldr r1,[r7,#8]
 1342 00e6 7A68     	 ldr r2,[r7,#4]
 1343 00e8 BB6A     	 ldr r3,[r7,#40]
 1344 00ea FFF7FEFF 	 bl prvReadMessageFromBuffer
 1345 00ee F862     	 str r0,[r7,#44]
 795:../Dave/Generated/FREERTOS/stream_buffer.c **** 
 796:../Dave/Generated/FREERTOS/stream_buffer.c **** 		/* Was a task waiting for space in the buffer? */
 797:../Dave/Generated/FREERTOS/stream_buffer.c **** 		if( xReceivedLength != ( size_t ) 0 )
 1346              	 .loc 1 797 0
 1347 00f0 FB6A     	 ldr r3,[r7,#44]
 1348 00f2 002B     	 cmp r3,#0
 1349 00f4 12D0     	 beq .L86
 798:../Dave/Generated/FREERTOS/stream_buffer.c **** 		{
 799:../Dave/Generated/FREERTOS/stream_buffer.c **** 			traceSTREAM_BUFFER_RECEIVE( xStreamBuffer, xReceivedLength );
 800:../Dave/Generated/FREERTOS/stream_buffer.c **** 			sbRECEIVE_COMPLETED( pxStreamBuffer );
 1350              	 .loc 1 800 0
 1351 00f6 FFF7FEFF 	 bl vTaskSuspendAll
 1352 00fa 3B6A     	 ldr r3,[r7,#32]
 1353 00fc 5B69     	 ldr r3,[r3,#20]
 1354 00fe 002B     	 cmp r3,#0
 1355 0100 0AD0     	 beq .L87
 1356              	 .loc 1 800 0 is_stmt 0 discriminator 1
 1357 0102 3B6A     	 ldr r3,[r7,#32]
 1358 0104 5B69     	 ldr r3,[r3,#20]
 1359 0106 1846     	 mov r0,r3
 1360 0108 0021     	 movs r1,#0
 1361 010a 0022     	 movs r2,#0
 1362 010c 0023     	 movs r3,#0
 1363 010e FFF7FEFF 	 bl xTaskGenericNotify
 1364 0112 3B6A     	 ldr r3,[r7,#32]
 1365 0114 0022     	 movs r2,#0
 1366 0116 5A61     	 str r2,[r3,#20]
 1367              	.L87:
 1368              	 .loc 1 800 0 discriminator 3
 1369 0118 FFF7FEFF 	 bl xTaskResumeAll
 1370              	.L86:
 801:../Dave/Generated/FREERTOS/stream_buffer.c **** 		}
 802:../Dave/Generated/FREERTOS/stream_buffer.c **** 		else
 803:../Dave/Generated/FREERTOS/stream_buffer.c **** 		{
 804:../Dave/Generated/FREERTOS/stream_buffer.c **** 			mtCOVERAGE_TEST_MARKER();
 805:../Dave/Generated/FREERTOS/stream_buffer.c **** 		}
 806:../Dave/Generated/FREERTOS/stream_buffer.c **** 	}
 807:../Dave/Generated/FREERTOS/stream_buffer.c **** 	else
 808:../Dave/Generated/FREERTOS/stream_buffer.c **** 	{
 809:../Dave/Generated/FREERTOS/stream_buffer.c **** 		traceSTREAM_BUFFER_RECEIVE_FAILED( xStreamBuffer );
 810:../Dave/Generated/FREERTOS/stream_buffer.c **** 		mtCOVERAGE_TEST_MARKER();
 811:../Dave/Generated/FREERTOS/stream_buffer.c **** 	}
 812:../Dave/Generated/FREERTOS/stream_buffer.c **** 
 813:../Dave/Generated/FREERTOS/stream_buffer.c **** 	return xReceivedLength;
 1371              	 .loc 1 813 0 is_stmt 1
 1372 011c FB6A     	 ldr r3,[r7,#44]
 814:../Dave/Generated/FREERTOS/stream_buffer.c **** }
 1373              	 .loc 1 814 0
 1374 011e 1846     	 mov r0,r3
 1375 0120 3037     	 adds r7,r7,#48
 1376              	.LCFI50:
 1377              	 .cfi_def_cfa_offset 8
 1378 0122 BD46     	 mov sp,r7
 1379              	.LCFI51:
 1380              	 .cfi_def_cfa_register 13
 1381              	 
 1382 0124 80BD     	 pop {r7,pc}
 1383              	 .cfi_endproc
 1384              	.LFE146:
 1386 0126 00BF     	 .section .text.xStreamBufferNextMessageLengthBytes,"ax",%progbits
 1387              	 .align 2
 1388              	 .global xStreamBufferNextMessageLengthBytes
 1389              	 .thumb
 1390              	 .thumb_func
 1392              	xStreamBufferNextMessageLengthBytes:
 1393              	.LFB147:
 815:../Dave/Generated/FREERTOS/stream_buffer.c **** /*-----------------------------------------------------------*/
 816:../Dave/Generated/FREERTOS/stream_buffer.c **** 
 817:../Dave/Generated/FREERTOS/stream_buffer.c **** size_t xStreamBufferNextMessageLengthBytes( StreamBufferHandle_t xStreamBuffer )
 818:../Dave/Generated/FREERTOS/stream_buffer.c **** {
 1394              	 .loc 1 818 0
 1395              	 .cfi_startproc
 1396              	 
 1397              	 
 1398 0000 80B5     	 push {r7,lr}
 1399              	.LCFI52:
 1400              	 .cfi_def_cfa_offset 8
 1401              	 .cfi_offset 7,-8
 1402              	 .cfi_offset 14,-4
 1403 0002 8AB0     	 sub sp,sp,#40
 1404              	.LCFI53:
 1405              	 .cfi_def_cfa_offset 48
 1406 0004 00AF     	 add r7,sp,#0
 1407              	.LCFI54:
 1408              	 .cfi_def_cfa_register 7
 1409 0006 7860     	 str r0,[r7,#4]
 819:../Dave/Generated/FREERTOS/stream_buffer.c **** StreamBuffer_t * const pxStreamBuffer = xStreamBuffer;
 1410              	 .loc 1 819 0
 1411 0008 7B68     	 ldr r3,[r7,#4]
 1412 000a 3B62     	 str r3,[r7,#32]
 820:../Dave/Generated/FREERTOS/stream_buffer.c **** size_t xReturn, xBytesAvailable, xOriginalTail;
 821:../Dave/Generated/FREERTOS/stream_buffer.c **** configMESSAGE_BUFFER_LENGTH_TYPE xTempReturn;
 822:../Dave/Generated/FREERTOS/stream_buffer.c **** 
 823:../Dave/Generated/FREERTOS/stream_buffer.c **** 	configASSERT( pxStreamBuffer );
 1413              	 .loc 1 823 0
 1414 000c 3B6A     	 ldr r3,[r7,#32]
 1415 000e 002B     	 cmp r3,#0
 1416 0010 09D1     	 bne .L90
 1417              	.LBB124:
 1418              	.LBB125:
 195:../Dave/Generated/FREERTOS/portable/GCC/portmacro.h **** 	(
 1419              	 .loc 2 195 0 discriminator 1
 1420              	
 1421 0012 4FF0FC03 	 mov r3,#252
 1422 0016 83F31188 	 msr basepri,r3
 1423 001a BFF36F8F 	 isb 
 1424 001e BFF34F8F 	 dsb 
 1425              	
 1426              	
 1427              	 .thumb
 1428 0022 7B61     	 str r3,[r7,#20]
 1429              	.L91:
 1430              	.LBE125:
 1431              	.LBE124:
 1432              	 .loc 1 823 0 discriminator 1
 1433 0024 FEE7     	 b .L91
 1434              	.L90:
 824:../Dave/Generated/FREERTOS/stream_buffer.c **** 
 825:../Dave/Generated/FREERTOS/stream_buffer.c **** 	/* Ensure the stream buffer is being used as a message buffer. */
 826:../Dave/Generated/FREERTOS/stream_buffer.c **** 	if( ( pxStreamBuffer->ucFlags & sbFLAGS_IS_MESSAGE_BUFFER ) != ( uint8_t ) 0 )
 1435              	 .loc 1 826 0
 1436 0026 3B6A     	 ldr r3,[r7,#32]
 1437 0028 1B7F     	 ldrb r3,[r3,#28]
 1438 002a 03F00103 	 and r3,r3,#1
 1439 002e 002B     	 cmp r3,#0
 1440 0030 27D0     	 beq .L92
 827:../Dave/Generated/FREERTOS/stream_buffer.c **** 	{
 828:../Dave/Generated/FREERTOS/stream_buffer.c **** 		xBytesAvailable = prvBytesInBuffer( pxStreamBuffer );
 1441              	 .loc 1 828 0
 1442 0032 386A     	 ldr r0,[r7,#32]
 1443 0034 FFF7FEFF 	 bl prvBytesInBuffer
 1444 0038 F861     	 str r0,[r7,#28]
 829:../Dave/Generated/FREERTOS/stream_buffer.c **** 		if( xBytesAvailable > sbBYTES_TO_STORE_MESSAGE_LENGTH )
 1445              	 .loc 1 829 0
 1446 003a FB69     	 ldr r3,[r7,#28]
 1447 003c 042B     	 cmp r3,#4
 1448 003e 10D9     	 bls .L93
 830:../Dave/Generated/FREERTOS/stream_buffer.c **** 		{
 831:../Dave/Generated/FREERTOS/stream_buffer.c **** 			/* The number of bytes available is greater than the number of bytes
 832:../Dave/Generated/FREERTOS/stream_buffer.c **** 			required to hold the length of the next message, so another message
 833:../Dave/Generated/FREERTOS/stream_buffer.c **** 			is available.  Return its length without removing the length bytes
 834:../Dave/Generated/FREERTOS/stream_buffer.c **** 			from the buffer.  A copy of the tail is stored so the buffer can be
 835:../Dave/Generated/FREERTOS/stream_buffer.c **** 			returned to its prior state as the message is not actually being
 836:../Dave/Generated/FREERTOS/stream_buffer.c **** 			removed from the buffer. */
 837:../Dave/Generated/FREERTOS/stream_buffer.c **** 			xOriginalTail = pxStreamBuffer->xTail;
 1449              	 .loc 1 837 0
 1450 0040 3B6A     	 ldr r3,[r7,#32]
 1451 0042 1B68     	 ldr r3,[r3]
 1452 0044 BB61     	 str r3,[r7,#24]
 838:../Dave/Generated/FREERTOS/stream_buffer.c **** 			( void ) prvReadBytesFromBuffer( pxStreamBuffer, ( uint8_t * ) &xTempReturn, sbBYTES_TO_STORE_ME
 1453              	 .loc 1 838 0
 1454 0046 07F10C03 	 add r3,r7,#12
 1455 004a 386A     	 ldr r0,[r7,#32]
 1456 004c 1946     	 mov r1,r3
 1457 004e 0422     	 movs r2,#4
 1458 0050 FB69     	 ldr r3,[r7,#28]
 1459 0052 FFF7FEFF 	 bl prvReadBytesFromBuffer
 839:../Dave/Generated/FREERTOS/stream_buffer.c **** 			xReturn = ( size_t ) xTempReturn;
 1460              	 .loc 1 839 0
 1461 0056 FB68     	 ldr r3,[r7,#12]
 1462 0058 7B62     	 str r3,[r7,#36]
 840:../Dave/Generated/FREERTOS/stream_buffer.c **** 			pxStreamBuffer->xTail = xOriginalTail;
 1463              	 .loc 1 840 0
 1464 005a 3B6A     	 ldr r3,[r7,#32]
 1465 005c BA69     	 ldr r2,[r7,#24]
 1466 005e 1A60     	 str r2,[r3]
 1467 0060 11E0     	 b .L97
 1468              	.L93:
 841:../Dave/Generated/FREERTOS/stream_buffer.c **** 		}
 842:../Dave/Generated/FREERTOS/stream_buffer.c **** 		else
 843:../Dave/Generated/FREERTOS/stream_buffer.c **** 		{
 844:../Dave/Generated/FREERTOS/stream_buffer.c **** 			/* The minimum amount of bytes in a message buffer is
 845:../Dave/Generated/FREERTOS/stream_buffer.c **** 			( sbBYTES_TO_STORE_MESSAGE_LENGTH + 1 ), so if xBytesAvailable is
 846:../Dave/Generated/FREERTOS/stream_buffer.c **** 			less than sbBYTES_TO_STORE_MESSAGE_LENGTH the only other valid
 847:../Dave/Generated/FREERTOS/stream_buffer.c **** 			value is 0. */
 848:../Dave/Generated/FREERTOS/stream_buffer.c **** 			configASSERT( xBytesAvailable == 0 );
 1469              	 .loc 1 848 0
 1470 0062 FB69     	 ldr r3,[r7,#28]
 1471 0064 002B     	 cmp r3,#0
 1472 0066 09D0     	 beq .L95
 1473              	.LBB126:
 1474              	.LBB127:
 195:../Dave/Generated/FREERTOS/portable/GCC/portmacro.h **** 	(
 1475              	 .loc 2 195 0 discriminator 1
 1476              	
 1477 0068 4FF0FC03 	 mov r3,#252
 1478 006c 83F31188 	 msr basepri,r3
 1479 0070 BFF36F8F 	 isb 
 1480 0074 BFF34F8F 	 dsb 
 1481              	
 1482              	
 1483              	 .thumb
 1484 0078 3B61     	 str r3,[r7,#16]
 1485              	.L96:
 1486              	.LBE127:
 1487              	.LBE126:
 1488              	 .loc 1 848 0 discriminator 2
 1489 007a FEE7     	 b .L96
 1490              	.L95:
 849:../Dave/Generated/FREERTOS/stream_buffer.c **** 			xReturn = 0;
 1491              	 .loc 1 849 0
 1492 007c 0023     	 movs r3,#0
 1493 007e 7B62     	 str r3,[r7,#36]
 1494 0080 01E0     	 b .L97
 1495              	.L92:
 850:../Dave/Generated/FREERTOS/stream_buffer.c **** 		}
 851:../Dave/Generated/FREERTOS/stream_buffer.c **** 	}
 852:../Dave/Generated/FREERTOS/stream_buffer.c **** 	else
 853:../Dave/Generated/FREERTOS/stream_buffer.c **** 	{
 854:../Dave/Generated/FREERTOS/stream_buffer.c **** 		xReturn = 0;
 1496              	 .loc 1 854 0
 1497 0082 0023     	 movs r3,#0
 1498 0084 7B62     	 str r3,[r7,#36]
 1499              	.L97:
 855:../Dave/Generated/FREERTOS/stream_buffer.c **** 	}
 856:../Dave/Generated/FREERTOS/stream_buffer.c **** 
 857:../Dave/Generated/FREERTOS/stream_buffer.c **** 	return xReturn;
 1500              	 .loc 1 857 0
 1501 0086 7B6A     	 ldr r3,[r7,#36]
 858:../Dave/Generated/FREERTOS/stream_buffer.c **** }
 1502              	 .loc 1 858 0
 1503 0088 1846     	 mov r0,r3
 1504 008a 2837     	 adds r7,r7,#40
 1505              	.LCFI55:
 1506              	 .cfi_def_cfa_offset 8
 1507 008c BD46     	 mov sp,r7
 1508              	.LCFI56:
 1509              	 .cfi_def_cfa_register 13
 1510              	 
 1511 008e 80BD     	 pop {r7,pc}
 1512              	 .cfi_endproc
 1513              	.LFE147:
 1515              	 .section .text.xStreamBufferReceiveFromISR,"ax",%progbits
 1516              	 .align 2
 1517              	 .global xStreamBufferReceiveFromISR
 1518              	 .thumb
 1519              	 .thumb_func
 1521              	xStreamBufferReceiveFromISR:
 1522              	.LFB148:
 859:../Dave/Generated/FREERTOS/stream_buffer.c **** /*-----------------------------------------------------------*/
 860:../Dave/Generated/FREERTOS/stream_buffer.c **** 
 861:../Dave/Generated/FREERTOS/stream_buffer.c **** size_t xStreamBufferReceiveFromISR( StreamBufferHandle_t xStreamBuffer,
 862:../Dave/Generated/FREERTOS/stream_buffer.c **** 									void *pvRxData,
 863:../Dave/Generated/FREERTOS/stream_buffer.c **** 									size_t xBufferLengthBytes,
 864:../Dave/Generated/FREERTOS/stream_buffer.c **** 									BaseType_t * const pxHigherPriorityTaskWoken )
 865:../Dave/Generated/FREERTOS/stream_buffer.c **** {
 1523              	 .loc 1 865 0
 1524              	 .cfi_startproc
 1525              	 
 1526              	 
 1527 0000 80B5     	 push {r7,lr}
 1528              	.LCFI57:
 1529              	 .cfi_def_cfa_offset 8
 1530              	 .cfi_offset 7,-8
 1531              	 .cfi_offset 14,-4
 1532 0002 90B0     	 sub sp,sp,#64
 1533              	.LCFI58:
 1534              	 .cfi_def_cfa_offset 72
 1535 0004 02AF     	 add r7,sp,#8
 1536              	.LCFI59:
 1537              	 .cfi_def_cfa 7,64
 1538 0006 F860     	 str r0,[r7,#12]
 1539 0008 B960     	 str r1,[r7,#8]
 1540 000a 7A60     	 str r2,[r7,#4]
 1541 000c 3B60     	 str r3,[r7]
 866:../Dave/Generated/FREERTOS/stream_buffer.c **** StreamBuffer_t * const pxStreamBuffer = xStreamBuffer;
 1542              	 .loc 1 866 0
 1543 000e FB68     	 ldr r3,[r7,#12]
 1544 0010 FB62     	 str r3,[r7,#44]
 867:../Dave/Generated/FREERTOS/stream_buffer.c **** size_t xReceivedLength = 0, xBytesAvailable, xBytesToStoreMessageLength;
 1545              	 .loc 1 867 0
 1546 0012 0023     	 movs r3,#0
 1547 0014 7B63     	 str r3,[r7,#52]
 868:../Dave/Generated/FREERTOS/stream_buffer.c **** 
 869:../Dave/Generated/FREERTOS/stream_buffer.c **** 	configASSERT( pvRxData );
 1548              	 .loc 1 869 0
 1549 0016 BB68     	 ldr r3,[r7,#8]
 1550 0018 002B     	 cmp r3,#0
 1551 001a 09D1     	 bne .L100
 1552              	.LBB128:
 1553              	.LBB129:
 195:../Dave/Generated/FREERTOS/portable/GCC/portmacro.h **** 	(
 1554              	 .loc 2 195 0 discriminator 1
 1555              	
 1556 001c 4FF0FC03 	 mov r3,#252
 1557 0020 83F31188 	 msr basepri,r3
 1558 0024 BFF36F8F 	 isb 
 1559 0028 BFF34F8F 	 dsb 
 1560              	
 1561              	
 1562              	 .thumb
 1563 002c 3B62     	 str r3,[r7,#32]
 1564              	.L101:
 1565              	.LBE129:
 1566              	.LBE128:
 1567              	 .loc 1 869 0 discriminator 1
 1568 002e FEE7     	 b .L101
 1569              	.L100:
 870:../Dave/Generated/FREERTOS/stream_buffer.c **** 	configASSERT( pxStreamBuffer );
 1570              	 .loc 1 870 0
 1571 0030 FB6A     	 ldr r3,[r7,#44]
 1572 0032 002B     	 cmp r3,#0
 1573 0034 09D1     	 bne .L102
 1574              	.LBB130:
 1575              	.LBB131:
 195:../Dave/Generated/FREERTOS/portable/GCC/portmacro.h **** 	(
 1576              	 .loc 2 195 0 discriminator 1
 1577              	
 1578 0036 4FF0FC03 	 mov r3,#252
 1579 003a 83F31188 	 msr basepri,r3
 1580 003e BFF36F8F 	 isb 
 1581 0042 BFF34F8F 	 dsb 
 1582              	
 1583              	
 1584              	 .thumb
 1585 0046 FB61     	 str r3,[r7,#28]
 1586              	.L103:
 1587              	.LBE131:
 1588              	.LBE130:
 1589              	 .loc 1 870 0 discriminator 2
 1590 0048 FEE7     	 b .L103
 1591              	.L102:
 871:../Dave/Generated/FREERTOS/stream_buffer.c **** 
 872:../Dave/Generated/FREERTOS/stream_buffer.c **** 	/* This receive function is used by both message buffers, which store
 873:../Dave/Generated/FREERTOS/stream_buffer.c **** 	discrete messages, and stream buffers, which store a continuous stream of
 874:../Dave/Generated/FREERTOS/stream_buffer.c **** 	bytes.  Discrete messages include an additional
 875:../Dave/Generated/FREERTOS/stream_buffer.c **** 	sbBYTES_TO_STORE_MESSAGE_LENGTH bytes that hold the length of the
 876:../Dave/Generated/FREERTOS/stream_buffer.c **** 	message. */
 877:../Dave/Generated/FREERTOS/stream_buffer.c **** 	if( ( pxStreamBuffer->ucFlags & sbFLAGS_IS_MESSAGE_BUFFER ) != ( uint8_t ) 0 )
 1592              	 .loc 1 877 0
 1593 004a FB6A     	 ldr r3,[r7,#44]
 1594 004c 1B7F     	 ldrb r3,[r3,#28]
 1595 004e 03F00103 	 and r3,r3,#1
 1596 0052 002B     	 cmp r3,#0
 1597 0054 02D0     	 beq .L104
 878:../Dave/Generated/FREERTOS/stream_buffer.c **** 	{
 879:../Dave/Generated/FREERTOS/stream_buffer.c **** 		xBytesToStoreMessageLength = sbBYTES_TO_STORE_MESSAGE_LENGTH;
 1598              	 .loc 1 879 0
 1599 0056 0423     	 movs r3,#4
 1600 0058 3B63     	 str r3,[r7,#48]
 1601 005a 01E0     	 b .L105
 1602              	.L104:
 880:../Dave/Generated/FREERTOS/stream_buffer.c **** 	}
 881:../Dave/Generated/FREERTOS/stream_buffer.c **** 	else
 882:../Dave/Generated/FREERTOS/stream_buffer.c **** 	{
 883:../Dave/Generated/FREERTOS/stream_buffer.c **** 		xBytesToStoreMessageLength = 0;
 1603              	 .loc 1 883 0
 1604 005c 0023     	 movs r3,#0
 1605 005e 3B63     	 str r3,[r7,#48]
 1606              	.L105:
 884:../Dave/Generated/FREERTOS/stream_buffer.c **** 	}
 885:../Dave/Generated/FREERTOS/stream_buffer.c **** 
 886:../Dave/Generated/FREERTOS/stream_buffer.c **** 	xBytesAvailable = prvBytesInBuffer( pxStreamBuffer );
 1607              	 .loc 1 886 0
 1608 0060 F86A     	 ldr r0,[r7,#44]
 1609 0062 FFF7FEFF 	 bl prvBytesInBuffer
 1610 0066 B862     	 str r0,[r7,#40]
 887:../Dave/Generated/FREERTOS/stream_buffer.c **** 
 888:../Dave/Generated/FREERTOS/stream_buffer.c **** 	/* Whether receiving a discrete message (where xBytesToStoreMessageLength
 889:../Dave/Generated/FREERTOS/stream_buffer.c **** 	holds the number of bytes used to store the message length) or a stream of
 890:../Dave/Generated/FREERTOS/stream_buffer.c **** 	bytes (where xBytesToStoreMessageLength is zero), the number of bytes
 891:../Dave/Generated/FREERTOS/stream_buffer.c **** 	available must be greater than xBytesToStoreMessageLength to be able to
 892:../Dave/Generated/FREERTOS/stream_buffer.c **** 	read bytes from the buffer. */
 893:../Dave/Generated/FREERTOS/stream_buffer.c **** 	if( xBytesAvailable > xBytesToStoreMessageLength )
 1611              	 .loc 1 893 0
 1612 0068 BA6A     	 ldr r2,[r7,#40]
 1613 006a 3B6B     	 ldr r3,[r7,#48]
 1614 006c 9A42     	 cmp r2,r3
 1615 006e 2FD9     	 bls .L106
 894:../Dave/Generated/FREERTOS/stream_buffer.c **** 	{
 895:../Dave/Generated/FREERTOS/stream_buffer.c **** 		xReceivedLength = prvReadMessageFromBuffer( pxStreamBuffer, pvRxData, xBufferLengthBytes, xBytesA
 1616              	 .loc 1 895 0
 1617 0070 3B6B     	 ldr r3,[r7,#48]
 1618 0072 0093     	 str r3,[sp]
 1619 0074 F86A     	 ldr r0,[r7,#44]
 1620 0076 B968     	 ldr r1,[r7,#8]
 1621 0078 7A68     	 ldr r2,[r7,#4]
 1622 007a BB6A     	 ldr r3,[r7,#40]
 1623 007c FFF7FEFF 	 bl prvReadMessageFromBuffer
 1624 0080 7863     	 str r0,[r7,#52]
 896:../Dave/Generated/FREERTOS/stream_buffer.c **** 
 897:../Dave/Generated/FREERTOS/stream_buffer.c **** 		/* Was a task waiting for space in the buffer? */
 898:../Dave/Generated/FREERTOS/stream_buffer.c **** 		if( xReceivedLength != ( size_t ) 0 )
 1625              	 .loc 1 898 0
 1626 0082 7B6B     	 ldr r3,[r7,#52]
 1627 0084 002B     	 cmp r3,#0
 1628 0086 23D0     	 beq .L106
 1629              	.LBB132:
 1630              	.LBB133:
 1631              	.LBB134:
 211:../Dave/Generated/FREERTOS/portable/GCC/portmacro.h **** 	(
 1632              	 .loc 2 211 0
 1633              	
 1634 0088 EFF31182 	 mrs r2,basepri
 1635 008c 4FF0FC03 	 mov r3,#252
 1636 0090 83F31188 	 msr basepri,r3
 1637 0094 BFF36F8F 	 isb 
 1638 0098 BFF34F8F 	 dsb 
 1639              	
 1640              	
 1641              	 .thumb
 1642 009c BA61     	 str r2,[r7,#24]
 1643 009e 7B61     	 str r3,[r7,#20]
 223:../Dave/Generated/FREERTOS/portable/GCC/portmacro.h **** }
 1644              	 .loc 2 223 0
 1645 00a0 BB69     	 ldr r3,[r7,#24]
 1646              	.LBE134:
 1647              	.LBE133:
 899:../Dave/Generated/FREERTOS/stream_buffer.c **** 		{
 900:../Dave/Generated/FREERTOS/stream_buffer.c **** 			sbRECEIVE_COMPLETED_FROM_ISR( pxStreamBuffer, pxHigherPriorityTaskWoken );
 1648              	 .loc 1 900 0
 1649 00a2 7B62     	 str r3,[r7,#36]
 1650 00a4 FB6A     	 ldr r3,[r7,#44]
 1651 00a6 5B69     	 ldr r3,[r3,#20]
 1652 00a8 002B     	 cmp r3,#0
 1653 00aa 0CD0     	 beq .L108
 1654              	 .loc 1 900 0 is_stmt 0 discriminator 1
 1655 00ac FB6A     	 ldr r3,[r7,#44]
 1656 00ae 5A69     	 ldr r2,[r3,#20]
 1657 00b0 3B68     	 ldr r3,[r7]
 1658 00b2 0093     	 str r3,[sp]
 1659 00b4 1046     	 mov r0,r2
 1660 00b6 0021     	 movs r1,#0
 1661 00b8 0022     	 movs r2,#0
 1662 00ba 0023     	 movs r3,#0
 1663 00bc FFF7FEFF 	 bl xTaskGenericNotifyFromISR
 1664 00c0 FB6A     	 ldr r3,[r7,#44]
 1665 00c2 0022     	 movs r2,#0
 1666 00c4 5A61     	 str r2,[r3,#20]
 1667              	.L108:
 1668 00c6 7B6A     	 ldr r3,[r7,#36]
 1669 00c8 3B61     	 str r3,[r7,#16]
 1670              	.LBB135:
 1671              	.LBB136:
 1672              	 .loc 2 229 0 is_stmt 1 discriminator 3
 1673 00ca 3B69     	 ldr r3,[r7,#16]
 1674              	
 1675 00cc 83F31188 	 msr basepri,r3
 1676              	
 1677              	 .thumb
 1678              	.L106:
 1679              	.LBE136:
 1680              	.LBE135:
 1681              	.LBE132:
 901:../Dave/Generated/FREERTOS/stream_buffer.c **** 		}
 902:../Dave/Generated/FREERTOS/stream_buffer.c **** 		else
 903:../Dave/Generated/FREERTOS/stream_buffer.c **** 		{
 904:../Dave/Generated/FREERTOS/stream_buffer.c **** 			mtCOVERAGE_TEST_MARKER();
 905:../Dave/Generated/FREERTOS/stream_buffer.c **** 		}
 906:../Dave/Generated/FREERTOS/stream_buffer.c **** 	}
 907:../Dave/Generated/FREERTOS/stream_buffer.c **** 	else
 908:../Dave/Generated/FREERTOS/stream_buffer.c **** 	{
 909:../Dave/Generated/FREERTOS/stream_buffer.c **** 		mtCOVERAGE_TEST_MARKER();
 910:../Dave/Generated/FREERTOS/stream_buffer.c **** 	}
 911:../Dave/Generated/FREERTOS/stream_buffer.c **** 
 912:../Dave/Generated/FREERTOS/stream_buffer.c **** 	traceSTREAM_BUFFER_RECEIVE_FROM_ISR( xStreamBuffer, xReceivedLength );
 913:../Dave/Generated/FREERTOS/stream_buffer.c **** 
 914:../Dave/Generated/FREERTOS/stream_buffer.c **** 	return xReceivedLength;
 1682              	 .loc 1 914 0
 1683 00d0 7B6B     	 ldr r3,[r7,#52]
 915:../Dave/Generated/FREERTOS/stream_buffer.c **** }
 1684              	 .loc 1 915 0
 1685 00d2 1846     	 mov r0,r3
 1686 00d4 3837     	 adds r7,r7,#56
 1687              	.LCFI60:
 1688              	 .cfi_def_cfa_offset 8
 1689 00d6 BD46     	 mov sp,r7
 1690              	.LCFI61:
 1691              	 .cfi_def_cfa_register 13
 1692              	 
 1693 00d8 80BD     	 pop {r7,pc}
 1694              	 .cfi_endproc
 1695              	.LFE148:
 1697 00da 00BF     	 .section .text.prvReadMessageFromBuffer,"ax",%progbits
 1698              	 .align 2
 1699              	 .thumb
 1700              	 .thumb_func
 1702              	prvReadMessageFromBuffer:
 1703              	.LFB149:
 916:../Dave/Generated/FREERTOS/stream_buffer.c **** /*-----------------------------------------------------------*/
 917:../Dave/Generated/FREERTOS/stream_buffer.c **** 
 918:../Dave/Generated/FREERTOS/stream_buffer.c **** static size_t prvReadMessageFromBuffer( StreamBuffer_t *pxStreamBuffer,
 919:../Dave/Generated/FREERTOS/stream_buffer.c **** 										void *pvRxData,
 920:../Dave/Generated/FREERTOS/stream_buffer.c **** 										size_t xBufferLengthBytes,
 921:../Dave/Generated/FREERTOS/stream_buffer.c **** 										size_t xBytesAvailable,
 922:../Dave/Generated/FREERTOS/stream_buffer.c **** 										size_t xBytesToStoreMessageLength )
 923:../Dave/Generated/FREERTOS/stream_buffer.c **** {
 1704              	 .loc 1 923 0
 1705              	 .cfi_startproc
 1706              	 
 1707              	 
 1708 0000 80B5     	 push {r7,lr}
 1709              	.LCFI62:
 1710              	 .cfi_def_cfa_offset 8
 1711              	 .cfi_offset 7,-8
 1712              	 .cfi_offset 14,-4
 1713 0002 88B0     	 sub sp,sp,#32
 1714              	.LCFI63:
 1715              	 .cfi_def_cfa_offset 40
 1716 0004 00AF     	 add r7,sp,#0
 1717              	.LCFI64:
 1718              	 .cfi_def_cfa_register 7
 1719 0006 F860     	 str r0,[r7,#12]
 1720 0008 B960     	 str r1,[r7,#8]
 1721 000a 7A60     	 str r2,[r7,#4]
 1722 000c 3B60     	 str r3,[r7]
 924:../Dave/Generated/FREERTOS/stream_buffer.c **** size_t xOriginalTail, xReceivedLength, xNextMessageLength;
 925:../Dave/Generated/FREERTOS/stream_buffer.c **** configMESSAGE_BUFFER_LENGTH_TYPE xTempNextMessageLength;
 926:../Dave/Generated/FREERTOS/stream_buffer.c **** 
 927:../Dave/Generated/FREERTOS/stream_buffer.c **** 	if( xBytesToStoreMessageLength != ( size_t ) 0 )
 1723              	 .loc 1 927 0
 1724 000e BB6A     	 ldr r3,[r7,#40]
 1725 0010 002B     	 cmp r3,#0
 1726 0012 1AD0     	 beq .L111
 928:../Dave/Generated/FREERTOS/stream_buffer.c **** 	{
 929:../Dave/Generated/FREERTOS/stream_buffer.c **** 		/* A discrete message is being received.  First receive the length
 930:../Dave/Generated/FREERTOS/stream_buffer.c **** 		of the message.  A copy of the tail is stored so the buffer can be
 931:../Dave/Generated/FREERTOS/stream_buffer.c **** 		returned to its prior state if the length of the message is too
 932:../Dave/Generated/FREERTOS/stream_buffer.c **** 		large for the provided buffer. */
 933:../Dave/Generated/FREERTOS/stream_buffer.c **** 		xOriginalTail = pxStreamBuffer->xTail;
 1727              	 .loc 1 933 0
 1728 0014 FB68     	 ldr r3,[r7,#12]
 1729 0016 1B68     	 ldr r3,[r3]
 1730 0018 BB61     	 str r3,[r7,#24]
 934:../Dave/Generated/FREERTOS/stream_buffer.c **** 		( void ) prvReadBytesFromBuffer( pxStreamBuffer, ( uint8_t * ) &xTempNextMessageLength, xBytesToS
 1731              	 .loc 1 934 0
 1732 001a 07F11003 	 add r3,r7,#16
 1733 001e F868     	 ldr r0,[r7,#12]
 1734 0020 1946     	 mov r1,r3
 1735 0022 BA6A     	 ldr r2,[r7,#40]
 1736 0024 3B68     	 ldr r3,[r7]
 1737 0026 FFF7FEFF 	 bl prvReadBytesFromBuffer
 935:../Dave/Generated/FREERTOS/stream_buffer.c **** 		xNextMessageLength = ( size_t ) xTempNextMessageLength;
 1738              	 .loc 1 935 0
 1739 002a 3B69     	 ldr r3,[r7,#16]
 1740 002c FB61     	 str r3,[r7,#28]
 936:../Dave/Generated/FREERTOS/stream_buffer.c **** 
 937:../Dave/Generated/FREERTOS/stream_buffer.c **** 		/* Reduce the number of bytes available by the number of bytes just
 938:../Dave/Generated/FREERTOS/stream_buffer.c **** 		read out. */
 939:../Dave/Generated/FREERTOS/stream_buffer.c **** 		xBytesAvailable -= xBytesToStoreMessageLength;
 1741              	 .loc 1 939 0
 1742 002e 3A68     	 ldr r2,[r7]
 1743 0030 BB6A     	 ldr r3,[r7,#40]
 1744 0032 D31A     	 subs r3,r2,r3
 1745 0034 3B60     	 str r3,[r7]
 940:../Dave/Generated/FREERTOS/stream_buffer.c **** 
 941:../Dave/Generated/FREERTOS/stream_buffer.c **** 		/* Check there is enough space in the buffer provided by the
 942:../Dave/Generated/FREERTOS/stream_buffer.c **** 		user. */
 943:../Dave/Generated/FREERTOS/stream_buffer.c **** 		if( xNextMessageLength > xBufferLengthBytes )
 1746              	 .loc 1 943 0
 1747 0036 FA69     	 ldr r2,[r7,#28]
 1748 0038 7B68     	 ldr r3,[r7,#4]
 1749 003a 9A42     	 cmp r2,r3
 1750 003c 07D9     	 bls .L112
 944:../Dave/Generated/FREERTOS/stream_buffer.c **** 		{
 945:../Dave/Generated/FREERTOS/stream_buffer.c **** 			/* The user has provided insufficient space to read the message
 946:../Dave/Generated/FREERTOS/stream_buffer.c **** 			so return the buffer to its previous state (so the length of
 947:../Dave/Generated/FREERTOS/stream_buffer.c **** 			the message is in the buffer again). */
 948:../Dave/Generated/FREERTOS/stream_buffer.c **** 			pxStreamBuffer->xTail = xOriginalTail;
 1751              	 .loc 1 948 0
 1752 003e FB68     	 ldr r3,[r7,#12]
 1753 0040 BA69     	 ldr r2,[r7,#24]
 1754 0042 1A60     	 str r2,[r3]
 949:../Dave/Generated/FREERTOS/stream_buffer.c **** 			xNextMessageLength = 0;
 1755              	 .loc 1 949 0
 1756 0044 0023     	 movs r3,#0
 1757 0046 FB61     	 str r3,[r7,#28]
 1758 0048 01E0     	 b .L112
 1759              	.L111:
 950:../Dave/Generated/FREERTOS/stream_buffer.c **** 		}
 951:../Dave/Generated/FREERTOS/stream_buffer.c **** 		else
 952:../Dave/Generated/FREERTOS/stream_buffer.c **** 		{
 953:../Dave/Generated/FREERTOS/stream_buffer.c **** 			mtCOVERAGE_TEST_MARKER();
 954:../Dave/Generated/FREERTOS/stream_buffer.c **** 		}
 955:../Dave/Generated/FREERTOS/stream_buffer.c **** 	}
 956:../Dave/Generated/FREERTOS/stream_buffer.c **** 	else
 957:../Dave/Generated/FREERTOS/stream_buffer.c **** 	{
 958:../Dave/Generated/FREERTOS/stream_buffer.c **** 		/* A stream of bytes is being received (as opposed to a discrete
 959:../Dave/Generated/FREERTOS/stream_buffer.c **** 		message), so read as many bytes as possible. */
 960:../Dave/Generated/FREERTOS/stream_buffer.c **** 		xNextMessageLength = xBufferLengthBytes;
 1760              	 .loc 1 960 0
 1761 004a 7B68     	 ldr r3,[r7,#4]
 1762 004c FB61     	 str r3,[r7,#28]
 1763              	.L112:
 961:../Dave/Generated/FREERTOS/stream_buffer.c **** 	}
 962:../Dave/Generated/FREERTOS/stream_buffer.c **** 
 963:../Dave/Generated/FREERTOS/stream_buffer.c **** 	/* Read the actual data. */
 964:../Dave/Generated/FREERTOS/stream_buffer.c **** 	xReceivedLength = prvReadBytesFromBuffer( pxStreamBuffer, ( uint8_t * ) pvRxData, xNextMessageLeng
 1764              	 .loc 1 964 0
 1765 004e F868     	 ldr r0,[r7,#12]
 1766 0050 B968     	 ldr r1,[r7,#8]
 1767 0052 FA69     	 ldr r2,[r7,#28]
 1768 0054 3B68     	 ldr r3,[r7]
 1769 0056 FFF7FEFF 	 bl prvReadBytesFromBuffer
 1770 005a 7861     	 str r0,[r7,#20]
 965:../Dave/Generated/FREERTOS/stream_buffer.c **** 
 966:../Dave/Generated/FREERTOS/stream_buffer.c **** 	return xReceivedLength;
 1771              	 .loc 1 966 0
 1772 005c 7B69     	 ldr r3,[r7,#20]
 967:../Dave/Generated/FREERTOS/stream_buffer.c **** }
 1773              	 .loc 1 967 0
 1774 005e 1846     	 mov r0,r3
 1775 0060 2037     	 adds r7,r7,#32
 1776              	.LCFI65:
 1777              	 .cfi_def_cfa_offset 8
 1778 0062 BD46     	 mov sp,r7
 1779              	.LCFI66:
 1780              	 .cfi_def_cfa_register 13
 1781              	 
 1782 0064 80BD     	 pop {r7,pc}
 1783              	 .cfi_endproc
 1784              	.LFE149:
 1786 0066 00BF     	 .section .text.xStreamBufferIsEmpty,"ax",%progbits
 1787              	 .align 2
 1788              	 .global xStreamBufferIsEmpty
 1789              	 .thumb
 1790              	 .thumb_func
 1792              	xStreamBufferIsEmpty:
 1793              	.LFB150:
 968:../Dave/Generated/FREERTOS/stream_buffer.c **** /*-----------------------------------------------------------*/
 969:../Dave/Generated/FREERTOS/stream_buffer.c **** 
 970:../Dave/Generated/FREERTOS/stream_buffer.c **** BaseType_t xStreamBufferIsEmpty( StreamBufferHandle_t xStreamBuffer )
 971:../Dave/Generated/FREERTOS/stream_buffer.c **** {
 1794              	 .loc 1 971 0
 1795              	 .cfi_startproc
 1796              	 
 1797              	 
 1798              	 
 1799 0000 80B4     	 push {r7}
 1800              	.LCFI67:
 1801              	 .cfi_def_cfa_offset 4
 1802              	 .cfi_offset 7,-4
 1803 0002 87B0     	 sub sp,sp,#28
 1804              	.LCFI68:
 1805              	 .cfi_def_cfa_offset 32
 1806 0004 00AF     	 add r7,sp,#0
 1807              	.LCFI69:
 1808              	 .cfi_def_cfa_register 7
 1809 0006 7860     	 str r0,[r7,#4]
 972:../Dave/Generated/FREERTOS/stream_buffer.c **** const StreamBuffer_t * const pxStreamBuffer = xStreamBuffer;
 1810              	 .loc 1 972 0
 1811 0008 7B68     	 ldr r3,[r7,#4]
 1812 000a 3B61     	 str r3,[r7,#16]
 973:../Dave/Generated/FREERTOS/stream_buffer.c **** BaseType_t xReturn;
 974:../Dave/Generated/FREERTOS/stream_buffer.c **** size_t xTail;
 975:../Dave/Generated/FREERTOS/stream_buffer.c **** 
 976:../Dave/Generated/FREERTOS/stream_buffer.c **** 	configASSERT( pxStreamBuffer );
 1813              	 .loc 1 976 0
 1814 000c 3B69     	 ldr r3,[r7,#16]
 1815 000e 002B     	 cmp r3,#0
 1816 0010 09D1     	 bne .L115
 1817              	.LBB137:
 1818              	.LBB138:
 195:../Dave/Generated/FREERTOS/portable/GCC/portmacro.h **** 	(
 1819              	 .loc 2 195 0 discriminator 1
 1820              	
 1821 0012 4FF0FC03 	 mov r3,#252
 1822 0016 83F31188 	 msr basepri,r3
 1823 001a BFF36F8F 	 isb 
 1824 001e BFF34F8F 	 dsb 
 1825              	
 1826              	
 1827              	 .thumb
 1828 0022 BB60     	 str r3,[r7,#8]
 1829              	.L116:
 1830              	.LBE138:
 1831              	.LBE137:
 1832              	 .loc 1 976 0 discriminator 1
 1833 0024 FEE7     	 b .L116
 1834              	.L115:
 977:../Dave/Generated/FREERTOS/stream_buffer.c **** 
 978:../Dave/Generated/FREERTOS/stream_buffer.c **** 	/* True if no bytes are available. */
 979:../Dave/Generated/FREERTOS/stream_buffer.c **** 	xTail = pxStreamBuffer->xTail;
 1835              	 .loc 1 979 0
 1836 0026 3B69     	 ldr r3,[r7,#16]
 1837 0028 1B68     	 ldr r3,[r3]
 1838 002a FB60     	 str r3,[r7,#12]
 980:../Dave/Generated/FREERTOS/stream_buffer.c **** 	if( pxStreamBuffer->xHead == xTail )
 1839              	 .loc 1 980 0
 1840 002c 3B69     	 ldr r3,[r7,#16]
 1841 002e 5A68     	 ldr r2,[r3,#4]
 1842 0030 FB68     	 ldr r3,[r7,#12]
 1843 0032 9A42     	 cmp r2,r3
 1844 0034 02D1     	 bne .L117
 981:../Dave/Generated/FREERTOS/stream_buffer.c **** 	{
 982:../Dave/Generated/FREERTOS/stream_buffer.c **** 		xReturn = pdTRUE;
 1845              	 .loc 1 982 0
 1846 0036 0123     	 movs r3,#1
 1847 0038 7B61     	 str r3,[r7,#20]
 1848 003a 01E0     	 b .L118
 1849              	.L117:
 983:../Dave/Generated/FREERTOS/stream_buffer.c **** 	}
 984:../Dave/Generated/FREERTOS/stream_buffer.c **** 	else
 985:../Dave/Generated/FREERTOS/stream_buffer.c **** 	{
 986:../Dave/Generated/FREERTOS/stream_buffer.c **** 		xReturn = pdFALSE;
 1850              	 .loc 1 986 0
 1851 003c 0023     	 movs r3,#0
 1852 003e 7B61     	 str r3,[r7,#20]
 1853              	.L118:
 987:../Dave/Generated/FREERTOS/stream_buffer.c **** 	}
 988:../Dave/Generated/FREERTOS/stream_buffer.c **** 
 989:../Dave/Generated/FREERTOS/stream_buffer.c **** 	return xReturn;
 1854              	 .loc 1 989 0
 1855 0040 7B69     	 ldr r3,[r7,#20]
 990:../Dave/Generated/FREERTOS/stream_buffer.c **** }
 1856              	 .loc 1 990 0
 1857 0042 1846     	 mov r0,r3
 1858 0044 1C37     	 adds r7,r7,#28
 1859              	.LCFI70:
 1860              	 .cfi_def_cfa_offset 4
 1861 0046 BD46     	 mov sp,r7
 1862              	.LCFI71:
 1863              	 .cfi_def_cfa_register 13
 1864              	 
 1865 0048 5DF8047B 	 ldr r7,[sp],#4
 1866              	.LCFI72:
 1867              	 .cfi_restore 7
 1868              	 .cfi_def_cfa_offset 0
 1869 004c 7047     	 bx lr
 1870              	 .cfi_endproc
 1871              	.LFE150:
 1873 004e 00BF     	 .section .text.xStreamBufferIsFull,"ax",%progbits
 1874              	 .align 2
 1875              	 .global xStreamBufferIsFull
 1876              	 .thumb
 1877              	 .thumb_func
 1879              	xStreamBufferIsFull:
 1880              	.LFB151:
 991:../Dave/Generated/FREERTOS/stream_buffer.c **** /*-----------------------------------------------------------*/
 992:../Dave/Generated/FREERTOS/stream_buffer.c **** 
 993:../Dave/Generated/FREERTOS/stream_buffer.c **** BaseType_t xStreamBufferIsFull( StreamBufferHandle_t xStreamBuffer )
 994:../Dave/Generated/FREERTOS/stream_buffer.c **** {
 1881              	 .loc 1 994 0
 1882              	 .cfi_startproc
 1883              	 
 1884              	 
 1885 0000 80B5     	 push {r7,lr}
 1886              	.LCFI73:
 1887              	 .cfi_def_cfa_offset 8
 1888              	 .cfi_offset 7,-8
 1889              	 .cfi_offset 14,-4
 1890 0002 86B0     	 sub sp,sp,#24
 1891              	.LCFI74:
 1892              	 .cfi_def_cfa_offset 32
 1893 0004 00AF     	 add r7,sp,#0
 1894              	.LCFI75:
 1895              	 .cfi_def_cfa_register 7
 1896 0006 7860     	 str r0,[r7,#4]
 995:../Dave/Generated/FREERTOS/stream_buffer.c **** BaseType_t xReturn;
 996:../Dave/Generated/FREERTOS/stream_buffer.c **** size_t xBytesToStoreMessageLength;
 997:../Dave/Generated/FREERTOS/stream_buffer.c **** const StreamBuffer_t * const pxStreamBuffer = xStreamBuffer;
 1897              	 .loc 1 997 0
 1898 0008 7B68     	 ldr r3,[r7,#4]
 1899 000a FB60     	 str r3,[r7,#12]
 998:../Dave/Generated/FREERTOS/stream_buffer.c **** 
 999:../Dave/Generated/FREERTOS/stream_buffer.c **** 	configASSERT( pxStreamBuffer );
 1900              	 .loc 1 999 0
 1901 000c FB68     	 ldr r3,[r7,#12]
 1902 000e 002B     	 cmp r3,#0
 1903 0010 09D1     	 bne .L121
 1904              	.LBB139:
 1905              	.LBB140:
 195:../Dave/Generated/FREERTOS/portable/GCC/portmacro.h **** 	(
 1906              	 .loc 2 195 0 discriminator 1
 1907              	
 1908 0012 4FF0FC03 	 mov r3,#252
 1909 0016 83F31188 	 msr basepri,r3
 1910 001a BFF36F8F 	 isb 
 1911 001e BFF34F8F 	 dsb 
 1912              	
 1913              	
 1914              	 .thumb
 1915 0022 BB60     	 str r3,[r7,#8]
 1916              	.L122:
 1917              	.LBE140:
 1918              	.LBE139:
 1919              	 .loc 1 999 0 discriminator 1
 1920 0024 FEE7     	 b .L122
 1921              	.L121:
1000:../Dave/Generated/FREERTOS/stream_buffer.c **** 
1001:../Dave/Generated/FREERTOS/stream_buffer.c **** 	/* This generic version of the receive function is used by both message
1002:../Dave/Generated/FREERTOS/stream_buffer.c **** 	buffers, which store discrete messages, and stream buffers, which store a
1003:../Dave/Generated/FREERTOS/stream_buffer.c **** 	continuous stream of bytes.  Discrete messages include an additional
1004:../Dave/Generated/FREERTOS/stream_buffer.c **** 	sbBYTES_TO_STORE_MESSAGE_LENGTH bytes that hold the length of the message. */
1005:../Dave/Generated/FREERTOS/stream_buffer.c **** 	if( ( pxStreamBuffer->ucFlags & sbFLAGS_IS_MESSAGE_BUFFER ) != ( uint8_t ) 0 )
 1922              	 .loc 1 1005 0
 1923 0026 FB68     	 ldr r3,[r7,#12]
 1924 0028 1B7F     	 ldrb r3,[r3,#28]
 1925 002a 03F00103 	 and r3,r3,#1
 1926 002e 002B     	 cmp r3,#0
 1927 0030 02D0     	 beq .L123
1006:../Dave/Generated/FREERTOS/stream_buffer.c **** 	{
1007:../Dave/Generated/FREERTOS/stream_buffer.c **** 		xBytesToStoreMessageLength = sbBYTES_TO_STORE_MESSAGE_LENGTH;
 1928              	 .loc 1 1007 0
 1929 0032 0423     	 movs r3,#4
 1930 0034 3B61     	 str r3,[r7,#16]
 1931 0036 01E0     	 b .L124
 1932              	.L123:
1008:../Dave/Generated/FREERTOS/stream_buffer.c **** 	}
1009:../Dave/Generated/FREERTOS/stream_buffer.c **** 	else
1010:../Dave/Generated/FREERTOS/stream_buffer.c **** 	{
1011:../Dave/Generated/FREERTOS/stream_buffer.c **** 		xBytesToStoreMessageLength = 0;
 1933              	 .loc 1 1011 0
 1934 0038 0023     	 movs r3,#0
 1935 003a 3B61     	 str r3,[r7,#16]
 1936              	.L124:
1012:../Dave/Generated/FREERTOS/stream_buffer.c **** 	}
1013:../Dave/Generated/FREERTOS/stream_buffer.c **** 
1014:../Dave/Generated/FREERTOS/stream_buffer.c **** 	/* True if the available space equals zero. */
1015:../Dave/Generated/FREERTOS/stream_buffer.c **** 	if( xStreamBufferSpacesAvailable( xStreamBuffer ) <= xBytesToStoreMessageLength )
 1937              	 .loc 1 1015 0
 1938 003c 7868     	 ldr r0,[r7,#4]
 1939 003e FFF7FEFF 	 bl xStreamBufferSpacesAvailable
 1940 0042 0246     	 mov r2,r0
 1941 0044 3B69     	 ldr r3,[r7,#16]
 1942 0046 9A42     	 cmp r2,r3
 1943 0048 02D8     	 bhi .L125
1016:../Dave/Generated/FREERTOS/stream_buffer.c **** 	{
1017:../Dave/Generated/FREERTOS/stream_buffer.c **** 		xReturn = pdTRUE;
 1944              	 .loc 1 1017 0
 1945 004a 0123     	 movs r3,#1
 1946 004c 7B61     	 str r3,[r7,#20]
 1947 004e 01E0     	 b .L126
 1948              	.L125:
1018:../Dave/Generated/FREERTOS/stream_buffer.c **** 	}
1019:../Dave/Generated/FREERTOS/stream_buffer.c **** 	else
1020:../Dave/Generated/FREERTOS/stream_buffer.c **** 	{
1021:../Dave/Generated/FREERTOS/stream_buffer.c **** 		xReturn = pdFALSE;
 1949              	 .loc 1 1021 0
 1950 0050 0023     	 movs r3,#0
 1951 0052 7B61     	 str r3,[r7,#20]
 1952              	.L126:
1022:../Dave/Generated/FREERTOS/stream_buffer.c **** 	}
1023:../Dave/Generated/FREERTOS/stream_buffer.c **** 
1024:../Dave/Generated/FREERTOS/stream_buffer.c **** 	return xReturn;
 1953              	 .loc 1 1024 0
 1954 0054 7B69     	 ldr r3,[r7,#20]
1025:../Dave/Generated/FREERTOS/stream_buffer.c **** }
 1955              	 .loc 1 1025 0
 1956 0056 1846     	 mov r0,r3
 1957 0058 1837     	 adds r7,r7,#24
 1958              	.LCFI76:
 1959              	 .cfi_def_cfa_offset 8
 1960 005a BD46     	 mov sp,r7
 1961              	.LCFI77:
 1962              	 .cfi_def_cfa_register 13
 1963              	 
 1964 005c 80BD     	 pop {r7,pc}
 1965              	 .cfi_endproc
 1966              	.LFE151:
 1968 005e 00BF     	 .section .text.xStreamBufferSendCompletedFromISR,"ax",%progbits
 1969              	 .align 2
 1970              	 .global xStreamBufferSendCompletedFromISR
 1971              	 .thumb
 1972              	 .thumb_func
 1974              	xStreamBufferSendCompletedFromISR:
 1975              	.LFB152:
1026:../Dave/Generated/FREERTOS/stream_buffer.c **** /*-----------------------------------------------------------*/
1027:../Dave/Generated/FREERTOS/stream_buffer.c **** 
1028:../Dave/Generated/FREERTOS/stream_buffer.c **** BaseType_t xStreamBufferSendCompletedFromISR( StreamBufferHandle_t xStreamBuffer, BaseType_t *pxHig
1029:../Dave/Generated/FREERTOS/stream_buffer.c **** {
 1976              	 .loc 1 1029 0
 1977              	 .cfi_startproc
 1978              	 
 1979              	 
 1980 0000 80B5     	 push {r7,lr}
 1981              	.LCFI78:
 1982              	 .cfi_def_cfa_offset 8
 1983              	 .cfi_offset 7,-8
 1984              	 .cfi_offset 14,-4
 1985 0002 8CB0     	 sub sp,sp,#48
 1986              	.LCFI79:
 1987              	 .cfi_def_cfa_offset 56
 1988 0004 02AF     	 add r7,sp,#8
 1989              	.LCFI80:
 1990              	 .cfi_def_cfa 7,48
 1991 0006 7860     	 str r0,[r7,#4]
 1992 0008 3960     	 str r1,[r7]
1030:../Dave/Generated/FREERTOS/stream_buffer.c **** StreamBuffer_t * const pxStreamBuffer = xStreamBuffer;
 1993              	 .loc 1 1030 0
 1994 000a 7B68     	 ldr r3,[r7,#4]
 1995 000c 3B62     	 str r3,[r7,#32]
1031:../Dave/Generated/FREERTOS/stream_buffer.c **** BaseType_t xReturn;
1032:../Dave/Generated/FREERTOS/stream_buffer.c **** UBaseType_t uxSavedInterruptStatus;
1033:../Dave/Generated/FREERTOS/stream_buffer.c **** 
1034:../Dave/Generated/FREERTOS/stream_buffer.c **** 	configASSERT( pxStreamBuffer );
 1996              	 .loc 1 1034 0
 1997 000e 3B6A     	 ldr r3,[r7,#32]
 1998 0010 002B     	 cmp r3,#0
 1999 0012 09D1     	 bne .L129
 2000              	.LBB141:
 2001              	.LBB142:
 195:../Dave/Generated/FREERTOS/portable/GCC/portmacro.h **** 	(
 2002              	 .loc 2 195 0 discriminator 1
 2003              	
 2004 0014 4FF0FC03 	 mov r3,#252
 2005 0018 83F31188 	 msr basepri,r3
 2006 001c BFF36F8F 	 isb 
 2007 0020 BFF34F8F 	 dsb 
 2008              	
 2009              	
 2010              	 .thumb
 2011 0024 BB61     	 str r3,[r7,#24]
 2012              	.L130:
 2013              	.LBE142:
 2014              	.LBE141:
 2015              	 .loc 1 1034 0 discriminator 1
 2016 0026 FEE7     	 b .L130
 2017              	.L129:
 2018              	.LBB143:
 2019              	.LBB144:
 211:../Dave/Generated/FREERTOS/portable/GCC/portmacro.h **** 	(
 2020              	 .loc 2 211 0
 2021              	
 2022 0028 EFF31182 	 mrs r2,basepri
 2023 002c 4FF0FC03 	 mov r3,#252
 2024 0030 83F31188 	 msr basepri,r3
 2025 0034 BFF36F8F 	 isb 
 2026 0038 BFF34F8F 	 dsb 
 2027              	
 2028              	
 2029              	 .thumb
 2030 003c 7A61     	 str r2,[r7,#20]
 2031 003e 3B61     	 str r3,[r7,#16]
 223:../Dave/Generated/FREERTOS/portable/GCC/portmacro.h **** }
 2032              	 .loc 2 223 0
 2033 0040 7B69     	 ldr r3,[r7,#20]
 2034              	.LBE144:
 2035              	.LBE143:
1035:../Dave/Generated/FREERTOS/stream_buffer.c **** 
1036:../Dave/Generated/FREERTOS/stream_buffer.c **** 	uxSavedInterruptStatus = ( UBaseType_t ) portSET_INTERRUPT_MASK_FROM_ISR();
 2036              	 .loc 1 1036 0
 2037 0042 FB61     	 str r3,[r7,#28]
1037:../Dave/Generated/FREERTOS/stream_buffer.c **** 	{
1038:../Dave/Generated/FREERTOS/stream_buffer.c **** 		if( ( pxStreamBuffer )->xTaskWaitingToReceive != NULL )
 2038              	 .loc 1 1038 0
 2039 0044 3B6A     	 ldr r3,[r7,#32]
 2040 0046 1B69     	 ldr r3,[r3,#16]
 2041 0048 002B     	 cmp r3,#0
 2042 004a 0FD0     	 beq .L132
1039:../Dave/Generated/FREERTOS/stream_buffer.c **** 		{
1040:../Dave/Generated/FREERTOS/stream_buffer.c **** 			( void ) xTaskNotifyFromISR( ( pxStreamBuffer )->xTaskWaitingToReceive,
 2043              	 .loc 1 1040 0
 2044 004c 3B6A     	 ldr r3,[r7,#32]
 2045 004e 1A69     	 ldr r2,[r3,#16]
 2046 0050 3B68     	 ldr r3,[r7]
 2047 0052 0093     	 str r3,[sp]
 2048 0054 1046     	 mov r0,r2
 2049 0056 0021     	 movs r1,#0
 2050 0058 0022     	 movs r2,#0
 2051 005a 0023     	 movs r3,#0
 2052 005c FFF7FEFF 	 bl xTaskGenericNotifyFromISR
1041:../Dave/Generated/FREERTOS/stream_buffer.c **** 										 ( uint32_t ) 0,
1042:../Dave/Generated/FREERTOS/stream_buffer.c **** 										 eNoAction,
1043:../Dave/Generated/FREERTOS/stream_buffer.c **** 										 pxHigherPriorityTaskWoken );
1044:../Dave/Generated/FREERTOS/stream_buffer.c **** 			( pxStreamBuffer )->xTaskWaitingToReceive = NULL;
 2053              	 .loc 1 1044 0
 2054 0060 3B6A     	 ldr r3,[r7,#32]
 2055 0062 0022     	 movs r2,#0
 2056 0064 1A61     	 str r2,[r3,#16]
1045:../Dave/Generated/FREERTOS/stream_buffer.c **** 			xReturn = pdTRUE;
 2057              	 .loc 1 1045 0
 2058 0066 0123     	 movs r3,#1
 2059 0068 7B62     	 str r3,[r7,#36]
 2060 006a 01E0     	 b .L133
 2061              	.L132:
1046:../Dave/Generated/FREERTOS/stream_buffer.c **** 		}
1047:../Dave/Generated/FREERTOS/stream_buffer.c **** 		else
1048:../Dave/Generated/FREERTOS/stream_buffer.c **** 		{
1049:../Dave/Generated/FREERTOS/stream_buffer.c **** 			xReturn = pdFALSE;
 2062              	 .loc 1 1049 0
 2063 006c 0023     	 movs r3,#0
 2064 006e 7B62     	 str r3,[r7,#36]
 2065              	.L133:
 2066 0070 FB69     	 ldr r3,[r7,#28]
 2067 0072 FB60     	 str r3,[r7,#12]
 2068              	.LBB145:
 2069              	.LBB146:
 2070              	 .loc 2 229 0
 2071 0074 FB68     	 ldr r3,[r7,#12]
 2072              	
 2073 0076 83F31188 	 msr basepri,r3
 2074              	
 2075              	 .thumb
 2076              	.LBE146:
 2077              	.LBE145:
1050:../Dave/Generated/FREERTOS/stream_buffer.c **** 		}
1051:../Dave/Generated/FREERTOS/stream_buffer.c **** 	}
1052:../Dave/Generated/FREERTOS/stream_buffer.c **** 	portCLEAR_INTERRUPT_MASK_FROM_ISR( uxSavedInterruptStatus );
1053:../Dave/Generated/FREERTOS/stream_buffer.c **** 
1054:../Dave/Generated/FREERTOS/stream_buffer.c **** 	return xReturn;
 2078              	 .loc 1 1054 0
 2079 007a 7B6A     	 ldr r3,[r7,#36]
1055:../Dave/Generated/FREERTOS/stream_buffer.c **** }
 2080              	 .loc 1 1055 0
 2081 007c 1846     	 mov r0,r3
 2082 007e 2837     	 adds r7,r7,#40
 2083              	.LCFI81:
 2084              	 .cfi_def_cfa_offset 8
 2085 0080 BD46     	 mov sp,r7
 2086              	.LCFI82:
 2087              	 .cfi_def_cfa_register 13
 2088              	 
 2089 0082 80BD     	 pop {r7,pc}
 2090              	 .cfi_endproc
 2091              	.LFE152:
 2093              	 .section .text.xStreamBufferReceiveCompletedFromISR,"ax",%progbits
 2094              	 .align 2
 2095              	 .global xStreamBufferReceiveCompletedFromISR
 2096              	 .thumb
 2097              	 .thumb_func
 2099              	xStreamBufferReceiveCompletedFromISR:
 2100              	.LFB153:
1056:../Dave/Generated/FREERTOS/stream_buffer.c **** /*-----------------------------------------------------------*/
1057:../Dave/Generated/FREERTOS/stream_buffer.c **** 
1058:../Dave/Generated/FREERTOS/stream_buffer.c **** BaseType_t xStreamBufferReceiveCompletedFromISR( StreamBufferHandle_t xStreamBuffer, BaseType_t *px
1059:../Dave/Generated/FREERTOS/stream_buffer.c **** {
 2101              	 .loc 1 1059 0
 2102              	 .cfi_startproc
 2103              	 
 2104              	 
 2105 0000 80B5     	 push {r7,lr}
 2106              	.LCFI83:
 2107              	 .cfi_def_cfa_offset 8
 2108              	 .cfi_offset 7,-8
 2109              	 .cfi_offset 14,-4
 2110 0002 8CB0     	 sub sp,sp,#48
 2111              	.LCFI84:
 2112              	 .cfi_def_cfa_offset 56
 2113 0004 02AF     	 add r7,sp,#8
 2114              	.LCFI85:
 2115              	 .cfi_def_cfa 7,48
 2116 0006 7860     	 str r0,[r7,#4]
 2117 0008 3960     	 str r1,[r7]
1060:../Dave/Generated/FREERTOS/stream_buffer.c **** StreamBuffer_t * const pxStreamBuffer = xStreamBuffer;
 2118              	 .loc 1 1060 0
 2119 000a 7B68     	 ldr r3,[r7,#4]
 2120 000c 3B62     	 str r3,[r7,#32]
1061:../Dave/Generated/FREERTOS/stream_buffer.c **** BaseType_t xReturn;
1062:../Dave/Generated/FREERTOS/stream_buffer.c **** UBaseType_t uxSavedInterruptStatus;
1063:../Dave/Generated/FREERTOS/stream_buffer.c **** 
1064:../Dave/Generated/FREERTOS/stream_buffer.c **** 	configASSERT( pxStreamBuffer );
 2121              	 .loc 1 1064 0
 2122 000e 3B6A     	 ldr r3,[r7,#32]
 2123 0010 002B     	 cmp r3,#0
 2124 0012 09D1     	 bne .L136
 2125              	.LBB147:
 2126              	.LBB148:
 195:../Dave/Generated/FREERTOS/portable/GCC/portmacro.h **** 	(
 2127              	 .loc 2 195 0 discriminator 1
 2128              	
 2129 0014 4FF0FC03 	 mov r3,#252
 2130 0018 83F31188 	 msr basepri,r3
 2131 001c BFF36F8F 	 isb 
 2132 0020 BFF34F8F 	 dsb 
 2133              	
 2134              	
 2135              	 .thumb
 2136 0024 BB61     	 str r3,[r7,#24]
 2137              	.L137:
 2138              	.LBE148:
 2139              	.LBE147:
 2140              	 .loc 1 1064 0 discriminator 1
 2141 0026 FEE7     	 b .L137
 2142              	.L136:
 2143              	.LBB149:
 2144              	.LBB150:
 211:../Dave/Generated/FREERTOS/portable/GCC/portmacro.h **** 	(
 2145              	 .loc 2 211 0
 2146              	
 2147 0028 EFF31182 	 mrs r2,basepri
 2148 002c 4FF0FC03 	 mov r3,#252
 2149 0030 83F31188 	 msr basepri,r3
 2150 0034 BFF36F8F 	 isb 
 2151 0038 BFF34F8F 	 dsb 
 2152              	
 2153              	
 2154              	 .thumb
 2155 003c 7A61     	 str r2,[r7,#20]
 2156 003e 3B61     	 str r3,[r7,#16]
 223:../Dave/Generated/FREERTOS/portable/GCC/portmacro.h **** }
 2157              	 .loc 2 223 0
 2158 0040 7B69     	 ldr r3,[r7,#20]
 2159              	.LBE150:
 2160              	.LBE149:
1065:../Dave/Generated/FREERTOS/stream_buffer.c **** 
1066:../Dave/Generated/FREERTOS/stream_buffer.c **** 	uxSavedInterruptStatus = ( UBaseType_t ) portSET_INTERRUPT_MASK_FROM_ISR();
 2161              	 .loc 1 1066 0
 2162 0042 FB61     	 str r3,[r7,#28]
1067:../Dave/Generated/FREERTOS/stream_buffer.c **** 	{
1068:../Dave/Generated/FREERTOS/stream_buffer.c **** 		if( ( pxStreamBuffer )->xTaskWaitingToSend != NULL )
 2163              	 .loc 1 1068 0
 2164 0044 3B6A     	 ldr r3,[r7,#32]
 2165 0046 5B69     	 ldr r3,[r3,#20]
 2166 0048 002B     	 cmp r3,#0
 2167 004a 0FD0     	 beq .L139
1069:../Dave/Generated/FREERTOS/stream_buffer.c **** 		{
1070:../Dave/Generated/FREERTOS/stream_buffer.c **** 			( void ) xTaskNotifyFromISR( ( pxStreamBuffer )->xTaskWaitingToSend,
 2168              	 .loc 1 1070 0
 2169 004c 3B6A     	 ldr r3,[r7,#32]
 2170 004e 5A69     	 ldr r2,[r3,#20]
 2171 0050 3B68     	 ldr r3,[r7]
 2172 0052 0093     	 str r3,[sp]
 2173 0054 1046     	 mov r0,r2
 2174 0056 0021     	 movs r1,#0
 2175 0058 0022     	 movs r2,#0
 2176 005a 0023     	 movs r3,#0
 2177 005c FFF7FEFF 	 bl xTaskGenericNotifyFromISR
1071:../Dave/Generated/FREERTOS/stream_buffer.c **** 										 ( uint32_t ) 0,
1072:../Dave/Generated/FREERTOS/stream_buffer.c **** 										 eNoAction,
1073:../Dave/Generated/FREERTOS/stream_buffer.c **** 										 pxHigherPriorityTaskWoken );
1074:../Dave/Generated/FREERTOS/stream_buffer.c **** 			( pxStreamBuffer )->xTaskWaitingToSend = NULL;
 2178              	 .loc 1 1074 0
 2179 0060 3B6A     	 ldr r3,[r7,#32]
 2180 0062 0022     	 movs r2,#0
 2181 0064 5A61     	 str r2,[r3,#20]
1075:../Dave/Generated/FREERTOS/stream_buffer.c **** 			xReturn = pdTRUE;
 2182              	 .loc 1 1075 0
 2183 0066 0123     	 movs r3,#1
 2184 0068 7B62     	 str r3,[r7,#36]
 2185 006a 01E0     	 b .L140
 2186              	.L139:
1076:../Dave/Generated/FREERTOS/stream_buffer.c **** 		}
1077:../Dave/Generated/FREERTOS/stream_buffer.c **** 		else
1078:../Dave/Generated/FREERTOS/stream_buffer.c **** 		{
1079:../Dave/Generated/FREERTOS/stream_buffer.c **** 			xReturn = pdFALSE;
 2187              	 .loc 1 1079 0
 2188 006c 0023     	 movs r3,#0
 2189 006e 7B62     	 str r3,[r7,#36]
 2190              	.L140:
 2191 0070 FB69     	 ldr r3,[r7,#28]
 2192 0072 FB60     	 str r3,[r7,#12]
 2193              	.LBB151:
 2194              	.LBB152:
 2195              	 .loc 2 229 0
 2196 0074 FB68     	 ldr r3,[r7,#12]
 2197              	
 2198 0076 83F31188 	 msr basepri,r3
 2199              	
 2200              	 .thumb
 2201              	.LBE152:
 2202              	.LBE151:
1080:../Dave/Generated/FREERTOS/stream_buffer.c **** 		}
1081:../Dave/Generated/FREERTOS/stream_buffer.c **** 	}
1082:../Dave/Generated/FREERTOS/stream_buffer.c **** 	portCLEAR_INTERRUPT_MASK_FROM_ISR( uxSavedInterruptStatus );
1083:../Dave/Generated/FREERTOS/stream_buffer.c **** 
1084:../Dave/Generated/FREERTOS/stream_buffer.c **** 	return xReturn;
 2203              	 .loc 1 1084 0
 2204 007a 7B6A     	 ldr r3,[r7,#36]
1085:../Dave/Generated/FREERTOS/stream_buffer.c **** }
 2205              	 .loc 1 1085 0
 2206 007c 1846     	 mov r0,r3
 2207 007e 2837     	 adds r7,r7,#40
 2208              	.LCFI86:
 2209              	 .cfi_def_cfa_offset 8
 2210 0080 BD46     	 mov sp,r7
 2211              	.LCFI87:
 2212              	 .cfi_def_cfa_register 13
 2213              	 
 2214 0082 80BD     	 pop {r7,pc}
 2215              	 .cfi_endproc
 2216              	.LFE153:
 2218              	 .section .text.prvWriteBytesToBuffer,"ax",%progbits
 2219              	 .align 2
 2220              	 .thumb
 2221              	 .thumb_func
 2223              	prvWriteBytesToBuffer:
 2224              	.LFB154:
1086:../Dave/Generated/FREERTOS/stream_buffer.c **** /*-----------------------------------------------------------*/
1087:../Dave/Generated/FREERTOS/stream_buffer.c **** 
1088:../Dave/Generated/FREERTOS/stream_buffer.c **** static size_t prvWriteBytesToBuffer( StreamBuffer_t * const pxStreamBuffer, const uint8_t *pucData,
1089:../Dave/Generated/FREERTOS/stream_buffer.c **** {
 2225              	 .loc 1 1089 0
 2226              	 .cfi_startproc
 2227              	 
 2228              	 
 2229 0000 80B5     	 push {r7,lr}
 2230              	.LCFI88:
 2231              	 .cfi_def_cfa_offset 8
 2232              	 .cfi_offset 7,-8
 2233              	 .cfi_offset 14,-4
 2234 0002 8AB0     	 sub sp,sp,#40
 2235              	.LCFI89:
 2236              	 .cfi_def_cfa_offset 48
 2237 0004 00AF     	 add r7,sp,#0
 2238              	.LCFI90:
 2239              	 .cfi_def_cfa_register 7
 2240 0006 F860     	 str r0,[r7,#12]
 2241 0008 B960     	 str r1,[r7,#8]
 2242 000a 7A60     	 str r2,[r7,#4]
1090:../Dave/Generated/FREERTOS/stream_buffer.c **** size_t xNextHead, xFirstLength;
1091:../Dave/Generated/FREERTOS/stream_buffer.c **** 
1092:../Dave/Generated/FREERTOS/stream_buffer.c **** 	configASSERT( xCount > ( size_t ) 0 );
 2243              	 .loc 1 1092 0
 2244 000c 7B68     	 ldr r3,[r7,#4]
 2245 000e 002B     	 cmp r3,#0
 2246 0010 09D1     	 bne .L143
 2247              	.LBB153:
 2248              	.LBB154:
 195:../Dave/Generated/FREERTOS/portable/GCC/portmacro.h **** 	(
 2249              	 .loc 2 195 0 discriminator 1
 2250              	
 2251 0012 4FF0FC03 	 mov r3,#252
 2252 0016 83F31188 	 msr basepri,r3
 2253 001a BFF36F8F 	 isb 
 2254 001e BFF34F8F 	 dsb 
 2255              	
 2256              	
 2257              	 .thumb
 2258 0022 FB61     	 str r3,[r7,#28]
 2259              	.L144:
 2260              	.LBE154:
 2261              	.LBE153:
 2262              	 .loc 1 1092 0 discriminator 1
 2263 0024 FEE7     	 b .L144
 2264              	.L143:
1093:../Dave/Generated/FREERTOS/stream_buffer.c **** 
1094:../Dave/Generated/FREERTOS/stream_buffer.c **** 	xNextHead = pxStreamBuffer->xHead;
 2265              	 .loc 1 1094 0
 2266 0026 FB68     	 ldr r3,[r7,#12]
 2267 0028 5B68     	 ldr r3,[r3,#4]
 2268 002a 7B62     	 str r3,[r7,#36]
1095:../Dave/Generated/FREERTOS/stream_buffer.c **** 
1096:../Dave/Generated/FREERTOS/stream_buffer.c **** 	/* Calculate the number of bytes that can be added in the first write -
1097:../Dave/Generated/FREERTOS/stream_buffer.c **** 	which may be less than the total number of bytes that need to be added if
1098:../Dave/Generated/FREERTOS/stream_buffer.c **** 	the buffer will wrap back to the beginning. */
1099:../Dave/Generated/FREERTOS/stream_buffer.c **** 	xFirstLength = configMIN( pxStreamBuffer->xLength - xNextHead, xCount );
 2269              	 .loc 1 1099 0
 2270 002c FB68     	 ldr r3,[r7,#12]
 2271 002e 9A68     	 ldr r2,[r3,#8]
 2272 0030 7B6A     	 ldr r3,[r7,#36]
 2273 0032 D21A     	 subs r2,r2,r3
 2274 0034 7B68     	 ldr r3,[r7,#4]
 2275 0036 9342     	 cmp r3,r2
 2276 0038 28BF     	 it cs
 2277 003a 1346     	 movcs r3,r2
 2278 003c 3B62     	 str r3,[r7,#32]
1100:../Dave/Generated/FREERTOS/stream_buffer.c **** 
1101:../Dave/Generated/FREERTOS/stream_buffer.c **** 	/* Write as many bytes as can be written in the first write. */
1102:../Dave/Generated/FREERTOS/stream_buffer.c **** 	configASSERT( ( xNextHead + xFirstLength ) <= pxStreamBuffer->xLength );
 2279              	 .loc 1 1102 0
 2280 003e 7A6A     	 ldr r2,[r7,#36]
 2281 0040 3B6A     	 ldr r3,[r7,#32]
 2282 0042 1A44     	 add r2,r2,r3
 2283 0044 FB68     	 ldr r3,[r7,#12]
 2284 0046 9B68     	 ldr r3,[r3,#8]
 2285 0048 9A42     	 cmp r2,r3
 2286 004a 09D9     	 bls .L145
 2287              	.LBB155:
 2288              	.LBB156:
 195:../Dave/Generated/FREERTOS/portable/GCC/portmacro.h **** 	(
 2289              	 .loc 2 195 0 discriminator 1
 2290              	
 2291 004c 4FF0FC03 	 mov r3,#252
 2292 0050 83F31188 	 msr basepri,r3
 2293 0054 BFF36F8F 	 isb 
 2294 0058 BFF34F8F 	 dsb 
 2295              	
 2296              	
 2297              	 .thumb
 2298 005c BB61     	 str r3,[r7,#24]
 2299              	.L146:
 2300              	.LBE156:
 2301              	.LBE155:
 2302              	 .loc 1 1102 0 discriminator 2
 2303 005e FEE7     	 b .L146
 2304              	.L145:
1103:../Dave/Generated/FREERTOS/stream_buffer.c **** 	( void ) memcpy( ( void* ) ( &( pxStreamBuffer->pucBuffer[ xNextHead ] ) ), ( const void * ) pucDa
 2305              	 .loc 1 1103 0
 2306 0060 FB68     	 ldr r3,[r7,#12]
 2307 0062 9A69     	 ldr r2,[r3,#24]
 2308 0064 7B6A     	 ldr r3,[r7,#36]
 2309 0066 1344     	 add r3,r3,r2
 2310 0068 1846     	 mov r0,r3
 2311 006a B968     	 ldr r1,[r7,#8]
 2312 006c 3A6A     	 ldr r2,[r7,#32]
 2313 006e FFF7FEFF 	 bl memcpy
1104:../Dave/Generated/FREERTOS/stream_buffer.c **** 
1105:../Dave/Generated/FREERTOS/stream_buffer.c **** 	/* If the number of bytes written was less than the number that could be
1106:../Dave/Generated/FREERTOS/stream_buffer.c **** 	written in the first write... */
1107:../Dave/Generated/FREERTOS/stream_buffer.c **** 	if( xCount > xFirstLength )
 2314              	 .loc 1 1107 0
 2315 0072 7A68     	 ldr r2,[r7,#4]
 2316 0074 3B6A     	 ldr r3,[r7,#32]
 2317 0076 9A42     	 cmp r2,r3
 2318 0078 1BD9     	 bls .L147
1108:../Dave/Generated/FREERTOS/stream_buffer.c **** 	{
1109:../Dave/Generated/FREERTOS/stream_buffer.c **** 		/* ...then write the remaining bytes to the start of the buffer. */
1110:../Dave/Generated/FREERTOS/stream_buffer.c **** 		configASSERT( ( xCount - xFirstLength ) <= pxStreamBuffer->xLength );
 2319              	 .loc 1 1110 0
 2320 007a 7A68     	 ldr r2,[r7,#4]
 2321 007c 3B6A     	 ldr r3,[r7,#32]
 2322 007e D21A     	 subs r2,r2,r3
 2323 0080 FB68     	 ldr r3,[r7,#12]
 2324 0082 9B68     	 ldr r3,[r3,#8]
 2325 0084 9A42     	 cmp r2,r3
 2326 0086 09D9     	 bls .L148
 2327              	.LBB157:
 2328              	.LBB158:
 195:../Dave/Generated/FREERTOS/portable/GCC/portmacro.h **** 	(
 2329              	 .loc 2 195 0 discriminator 1
 2330              	
 2331 0088 4FF0FC03 	 mov r3,#252
 2332 008c 83F31188 	 msr basepri,r3
 2333 0090 BFF36F8F 	 isb 
 2334 0094 BFF34F8F 	 dsb 
 2335              	
 2336              	
 2337              	 .thumb
 2338 0098 7B61     	 str r3,[r7,#20]
 2339              	.L149:
 2340              	.LBE158:
 2341              	.LBE157:
 2342              	 .loc 1 1110 0 discriminator 3
 2343 009a FEE7     	 b .L149
 2344              	.L148:
1111:../Dave/Generated/FREERTOS/stream_buffer.c **** 		( void ) memcpy( ( void * ) pxStreamBuffer->pucBuffer, ( const void * ) &( pucData[ xFirstLength 
 2345              	 .loc 1 1111 0
 2346 009c FB68     	 ldr r3,[r7,#12]
 2347 009e 9869     	 ldr r0,[r3,#24]
 2348 00a0 BA68     	 ldr r2,[r7,#8]
 2349 00a2 3B6A     	 ldr r3,[r7,#32]
 2350 00a4 D118     	 adds r1,r2,r3
 2351 00a6 7A68     	 ldr r2,[r7,#4]
 2352 00a8 3B6A     	 ldr r3,[r7,#32]
 2353 00aa D31A     	 subs r3,r2,r3
 2354 00ac 1A46     	 mov r2,r3
 2355 00ae FFF7FEFF 	 bl memcpy
 2356              	.L147:
1112:../Dave/Generated/FREERTOS/stream_buffer.c **** 	}
1113:../Dave/Generated/FREERTOS/stream_buffer.c **** 	else
1114:../Dave/Generated/FREERTOS/stream_buffer.c **** 	{
1115:../Dave/Generated/FREERTOS/stream_buffer.c **** 		mtCOVERAGE_TEST_MARKER();
1116:../Dave/Generated/FREERTOS/stream_buffer.c **** 	}
1117:../Dave/Generated/FREERTOS/stream_buffer.c **** 
1118:../Dave/Generated/FREERTOS/stream_buffer.c **** 	xNextHead += xCount;
 2357              	 .loc 1 1118 0
 2358 00b2 7A6A     	 ldr r2,[r7,#36]
 2359 00b4 7B68     	 ldr r3,[r7,#4]
 2360 00b6 1344     	 add r3,r3,r2
 2361 00b8 7B62     	 str r3,[r7,#36]
1119:../Dave/Generated/FREERTOS/stream_buffer.c **** 	if( xNextHead >= pxStreamBuffer->xLength )
 2362              	 .loc 1 1119 0
 2363 00ba FB68     	 ldr r3,[r7,#12]
 2364 00bc 9A68     	 ldr r2,[r3,#8]
 2365 00be 7B6A     	 ldr r3,[r7,#36]
 2366 00c0 9A42     	 cmp r2,r3
 2367 00c2 04D8     	 bhi .L150
1120:../Dave/Generated/FREERTOS/stream_buffer.c **** 	{
1121:../Dave/Generated/FREERTOS/stream_buffer.c **** 		xNextHead -= pxStreamBuffer->xLength;
 2368              	 .loc 1 1121 0
 2369 00c4 FB68     	 ldr r3,[r7,#12]
 2370 00c6 9B68     	 ldr r3,[r3,#8]
 2371 00c8 7A6A     	 ldr r2,[r7,#36]
 2372 00ca D31A     	 subs r3,r2,r3
 2373 00cc 7B62     	 str r3,[r7,#36]
 2374              	.L150:
1122:../Dave/Generated/FREERTOS/stream_buffer.c **** 	}
1123:../Dave/Generated/FREERTOS/stream_buffer.c **** 	else
1124:../Dave/Generated/FREERTOS/stream_buffer.c **** 	{
1125:../Dave/Generated/FREERTOS/stream_buffer.c **** 		mtCOVERAGE_TEST_MARKER();
1126:../Dave/Generated/FREERTOS/stream_buffer.c **** 	}
1127:../Dave/Generated/FREERTOS/stream_buffer.c **** 
1128:../Dave/Generated/FREERTOS/stream_buffer.c **** 	pxStreamBuffer->xHead = xNextHead;
 2375              	 .loc 1 1128 0
 2376 00ce FB68     	 ldr r3,[r7,#12]
 2377 00d0 7A6A     	 ldr r2,[r7,#36]
 2378 00d2 5A60     	 str r2,[r3,#4]
1129:../Dave/Generated/FREERTOS/stream_buffer.c **** 
1130:../Dave/Generated/FREERTOS/stream_buffer.c **** 	return xCount;
 2379              	 .loc 1 1130 0
 2380 00d4 7B68     	 ldr r3,[r7,#4]
1131:../Dave/Generated/FREERTOS/stream_buffer.c **** }
 2381              	 .loc 1 1131 0
 2382 00d6 1846     	 mov r0,r3
 2383 00d8 2837     	 adds r7,r7,#40
 2384              	.LCFI91:
 2385              	 .cfi_def_cfa_offset 8
 2386 00da BD46     	 mov sp,r7
 2387              	.LCFI92:
 2388              	 .cfi_def_cfa_register 13
 2389              	 
 2390 00dc 80BD     	 pop {r7,pc}
 2391              	 .cfi_endproc
 2392              	.LFE154:
 2394 00de 00BF     	 .section .text.prvReadBytesFromBuffer,"ax",%progbits
 2395              	 .align 2
 2396              	 .thumb
 2397              	 .thumb_func
 2399              	prvReadBytesFromBuffer:
 2400              	.LFB155:
1132:../Dave/Generated/FREERTOS/stream_buffer.c **** /*-----------------------------------------------------------*/
1133:../Dave/Generated/FREERTOS/stream_buffer.c **** 
1134:../Dave/Generated/FREERTOS/stream_buffer.c **** static size_t prvReadBytesFromBuffer( StreamBuffer_t *pxStreamBuffer, uint8_t *pucData, size_t xMax
1135:../Dave/Generated/FREERTOS/stream_buffer.c **** {
 2401              	 .loc 1 1135 0
 2402              	 .cfi_startproc
 2403              	 
 2404              	 
 2405 0000 80B5     	 push {r7,lr}
 2406              	.LCFI93:
 2407              	 .cfi_def_cfa_offset 8
 2408              	 .cfi_offset 7,-8
 2409              	 .cfi_offset 14,-4
 2410 0002 8AB0     	 sub sp,sp,#40
 2411              	.LCFI94:
 2412              	 .cfi_def_cfa_offset 48
 2413 0004 00AF     	 add r7,sp,#0
 2414              	.LCFI95:
 2415              	 .cfi_def_cfa_register 7
 2416 0006 F860     	 str r0,[r7,#12]
 2417 0008 B960     	 str r1,[r7,#8]
 2418 000a 7A60     	 str r2,[r7,#4]
 2419 000c 3B60     	 str r3,[r7]
1136:../Dave/Generated/FREERTOS/stream_buffer.c **** size_t xCount, xFirstLength, xNextTail;
1137:../Dave/Generated/FREERTOS/stream_buffer.c **** 
1138:../Dave/Generated/FREERTOS/stream_buffer.c **** 	/* Use the minimum of the wanted bytes and the available bytes. */
1139:../Dave/Generated/FREERTOS/stream_buffer.c **** 	xCount = configMIN( xBytesAvailable, xMaxCount );
 2420              	 .loc 1 1139 0
 2421 000e 7A68     	 ldr r2,[r7,#4]
 2422 0010 3B68     	 ldr r3,[r7]
 2423 0012 9342     	 cmp r3,r2
 2424 0014 28BF     	 it cs
 2425 0016 1346     	 movcs r3,r2
 2426 0018 3B62     	 str r3,[r7,#32]
1140:../Dave/Generated/FREERTOS/stream_buffer.c **** 
1141:../Dave/Generated/FREERTOS/stream_buffer.c **** 	if( xCount > ( size_t ) 0 )
 2427              	 .loc 1 1141 0
 2428 001a 3B6A     	 ldr r3,[r7,#32]
 2429 001c 002B     	 cmp r3,#0
 2430 001e 61D0     	 beq .L153
1142:../Dave/Generated/FREERTOS/stream_buffer.c **** 	{
1143:../Dave/Generated/FREERTOS/stream_buffer.c **** 		xNextTail = pxStreamBuffer->xTail;
 2431              	 .loc 1 1143 0
 2432 0020 FB68     	 ldr r3,[r7,#12]
 2433 0022 1B68     	 ldr r3,[r3]
 2434 0024 7B62     	 str r3,[r7,#36]
1144:../Dave/Generated/FREERTOS/stream_buffer.c **** 
1145:../Dave/Generated/FREERTOS/stream_buffer.c **** 		/* Calculate the number of bytes that can be read - which may be
1146:../Dave/Generated/FREERTOS/stream_buffer.c **** 		less than the number wanted if the data wraps around to the start of
1147:../Dave/Generated/FREERTOS/stream_buffer.c **** 		the buffer. */
1148:../Dave/Generated/FREERTOS/stream_buffer.c **** 		xFirstLength = configMIN( pxStreamBuffer->xLength - xNextTail, xCount );
 2435              	 .loc 1 1148 0
 2436 0026 FB68     	 ldr r3,[r7,#12]
 2437 0028 9A68     	 ldr r2,[r3,#8]
 2438 002a 7B6A     	 ldr r3,[r7,#36]
 2439 002c D21A     	 subs r2,r2,r3
 2440 002e 3B6A     	 ldr r3,[r7,#32]
 2441 0030 9342     	 cmp r3,r2
 2442 0032 28BF     	 it cs
 2443 0034 1346     	 movcs r3,r2
 2444 0036 FB61     	 str r3,[r7,#28]
1149:../Dave/Generated/FREERTOS/stream_buffer.c **** 
1150:../Dave/Generated/FREERTOS/stream_buffer.c **** 		/* Obtain the number of bytes it is possible to obtain in the first
1151:../Dave/Generated/FREERTOS/stream_buffer.c **** 		read.  Asserts check bounds of read and write. */
1152:../Dave/Generated/FREERTOS/stream_buffer.c **** 		configASSERT( xFirstLength <= xMaxCount );
 2445              	 .loc 1 1152 0
 2446 0038 FA69     	 ldr r2,[r7,#28]
 2447 003a 7B68     	 ldr r3,[r7,#4]
 2448 003c 9A42     	 cmp r2,r3
 2449 003e 09D9     	 bls .L154
 2450              	.LBB159:
 2451              	.LBB160:
 195:../Dave/Generated/FREERTOS/portable/GCC/portmacro.h **** 	(
 2452              	 .loc 2 195 0 discriminator 1
 2453              	
 2454 0040 4FF0FC03 	 mov r3,#252
 2455 0044 83F31188 	 msr basepri,r3
 2456 0048 BFF36F8F 	 isb 
 2457 004c BFF34F8F 	 dsb 
 2458              	
 2459              	
 2460              	 .thumb
 2461 0050 BB61     	 str r3,[r7,#24]
 2462              	.L155:
 2463              	.LBE160:
 2464              	.LBE159:
 2465              	 .loc 1 1152 0 discriminator 1
 2466 0052 FEE7     	 b .L155
 2467              	.L154:
1153:../Dave/Generated/FREERTOS/stream_buffer.c **** 		configASSERT( ( xNextTail + xFirstLength ) <= pxStreamBuffer->xLength );
 2468              	 .loc 1 1153 0
 2469 0054 7A6A     	 ldr r2,[r7,#36]
 2470 0056 FB69     	 ldr r3,[r7,#28]
 2471 0058 1A44     	 add r2,r2,r3
 2472 005a FB68     	 ldr r3,[r7,#12]
 2473 005c 9B68     	 ldr r3,[r3,#8]
 2474 005e 9A42     	 cmp r2,r3
 2475 0060 09D9     	 bls .L156
 2476              	.LBB161:
 2477              	.LBB162:
 195:../Dave/Generated/FREERTOS/portable/GCC/portmacro.h **** 	(
 2478              	 .loc 2 195 0 discriminator 1
 2479              	
 2480 0062 4FF0FC03 	 mov r3,#252
 2481 0066 83F31188 	 msr basepri,r3
 2482 006a BFF36F8F 	 isb 
 2483 006e BFF34F8F 	 dsb 
 2484              	
 2485              	
 2486              	 .thumb
 2487 0072 7B61     	 str r3,[r7,#20]
 2488              	.L157:
 2489              	.LBE162:
 2490              	.LBE161:
 2491              	 .loc 1 1153 0 discriminator 2
 2492 0074 FEE7     	 b .L157
 2493              	.L156:
1154:../Dave/Generated/FREERTOS/stream_buffer.c **** 		( void ) memcpy( ( void * ) pucData, ( const void * ) &( pxStreamBuffer->pucBuffer[ xNextTail ] )
 2494              	 .loc 1 1154 0
 2495 0076 FB68     	 ldr r3,[r7,#12]
 2496 0078 9A69     	 ldr r2,[r3,#24]
 2497 007a 7B6A     	 ldr r3,[r7,#36]
 2498 007c 1344     	 add r3,r3,r2
 2499 007e B868     	 ldr r0,[r7,#8]
 2500 0080 1946     	 mov r1,r3
 2501 0082 FA69     	 ldr r2,[r7,#28]
 2502 0084 FFF7FEFF 	 bl memcpy
1155:../Dave/Generated/FREERTOS/stream_buffer.c **** 
1156:../Dave/Generated/FREERTOS/stream_buffer.c **** 		/* If the total number of wanted bytes is greater than the number
1157:../Dave/Generated/FREERTOS/stream_buffer.c **** 		that could be read in the first read... */
1158:../Dave/Generated/FREERTOS/stream_buffer.c **** 		if( xCount > xFirstLength )
 2503              	 .loc 1 1158 0
 2504 0088 3A6A     	 ldr r2,[r7,#32]
 2505 008a FB69     	 ldr r3,[r7,#28]
 2506 008c 9A42     	 cmp r2,r3
 2507 008e 18D9     	 bls .L158
1159:../Dave/Generated/FREERTOS/stream_buffer.c **** 		{
1160:../Dave/Generated/FREERTOS/stream_buffer.c **** 			/*...then read the remaining bytes from the start of the buffer. */
1161:../Dave/Generated/FREERTOS/stream_buffer.c **** 			configASSERT( xCount <= xMaxCount );
 2508              	 .loc 1 1161 0
 2509 0090 3A6A     	 ldr r2,[r7,#32]
 2510 0092 7B68     	 ldr r3,[r7,#4]
 2511 0094 9A42     	 cmp r2,r3
 2512 0096 09D9     	 bls .L159
 2513              	.LBB163:
 2514              	.LBB164:
 195:../Dave/Generated/FREERTOS/portable/GCC/portmacro.h **** 	(
 2515              	 .loc 2 195 0 discriminator 1
 2516              	
 2517 0098 4FF0FC03 	 mov r3,#252
 2518 009c 83F31188 	 msr basepri,r3
 2519 00a0 BFF36F8F 	 isb 
 2520 00a4 BFF34F8F 	 dsb 
 2521              	
 2522              	
 2523              	 .thumb
 2524 00a8 3B61     	 str r3,[r7,#16]
 2525              	.L160:
 2526              	.LBE164:
 2527              	.LBE163:
 2528              	 .loc 1 1161 0 discriminator 3
 2529 00aa FEE7     	 b .L160
 2530              	.L159:
1162:../Dave/Generated/FREERTOS/stream_buffer.c **** 			( void ) memcpy( ( void * ) &( pucData[ xFirstLength ] ), ( void * ) ( pxStreamBuffer->pucBuffer
 2531              	 .loc 1 1162 0
 2532 00ac BA68     	 ldr r2,[r7,#8]
 2533 00ae FB69     	 ldr r3,[r7,#28]
 2534 00b0 D018     	 adds r0,r2,r3
 2535 00b2 FB68     	 ldr r3,[r7,#12]
 2536 00b4 9969     	 ldr r1,[r3,#24]
 2537 00b6 3A6A     	 ldr r2,[r7,#32]
 2538 00b8 FB69     	 ldr r3,[r7,#28]
 2539 00ba D31A     	 subs r3,r2,r3
 2540 00bc 1A46     	 mov r2,r3
 2541 00be FFF7FEFF 	 bl memcpy
 2542              	.L158:
1163:../Dave/Generated/FREERTOS/stream_buffer.c **** 		}
1164:../Dave/Generated/FREERTOS/stream_buffer.c **** 		else
1165:../Dave/Generated/FREERTOS/stream_buffer.c **** 		{
1166:../Dave/Generated/FREERTOS/stream_buffer.c **** 			mtCOVERAGE_TEST_MARKER();
1167:../Dave/Generated/FREERTOS/stream_buffer.c **** 		}
1168:../Dave/Generated/FREERTOS/stream_buffer.c **** 
1169:../Dave/Generated/FREERTOS/stream_buffer.c **** 		/* Move the tail pointer to effectively remove the data read from
1170:../Dave/Generated/FREERTOS/stream_buffer.c **** 		the buffer. */
1171:../Dave/Generated/FREERTOS/stream_buffer.c **** 		xNextTail += xCount;
 2543              	 .loc 1 1171 0
 2544 00c2 7A6A     	 ldr r2,[r7,#36]
 2545 00c4 3B6A     	 ldr r3,[r7,#32]
 2546 00c6 1344     	 add r3,r3,r2
 2547 00c8 7B62     	 str r3,[r7,#36]
1172:../Dave/Generated/FREERTOS/stream_buffer.c **** 
1173:../Dave/Generated/FREERTOS/stream_buffer.c **** 		if( xNextTail >= pxStreamBuffer->xLength )
 2548              	 .loc 1 1173 0
 2549 00ca FB68     	 ldr r3,[r7,#12]
 2550 00cc 9A68     	 ldr r2,[r3,#8]
 2551 00ce 7B6A     	 ldr r3,[r7,#36]
 2552 00d0 9A42     	 cmp r2,r3
 2553 00d2 04D8     	 bhi .L161
1174:../Dave/Generated/FREERTOS/stream_buffer.c **** 		{
1175:../Dave/Generated/FREERTOS/stream_buffer.c **** 			xNextTail -= pxStreamBuffer->xLength;
 2554              	 .loc 1 1175 0
 2555 00d4 FB68     	 ldr r3,[r7,#12]
 2556 00d6 9B68     	 ldr r3,[r3,#8]
 2557 00d8 7A6A     	 ldr r2,[r7,#36]
 2558 00da D31A     	 subs r3,r2,r3
 2559 00dc 7B62     	 str r3,[r7,#36]
 2560              	.L161:
1176:../Dave/Generated/FREERTOS/stream_buffer.c **** 		}
1177:../Dave/Generated/FREERTOS/stream_buffer.c **** 
1178:../Dave/Generated/FREERTOS/stream_buffer.c **** 		pxStreamBuffer->xTail = xNextTail;
 2561              	 .loc 1 1178 0
 2562 00de FB68     	 ldr r3,[r7,#12]
 2563 00e0 7A6A     	 ldr r2,[r7,#36]
 2564 00e2 1A60     	 str r2,[r3]
 2565              	.L153:
1179:../Dave/Generated/FREERTOS/stream_buffer.c **** 	}
1180:../Dave/Generated/FREERTOS/stream_buffer.c **** 	else
1181:../Dave/Generated/FREERTOS/stream_buffer.c **** 	{
1182:../Dave/Generated/FREERTOS/stream_buffer.c **** 		mtCOVERAGE_TEST_MARKER();
1183:../Dave/Generated/FREERTOS/stream_buffer.c **** 	}
1184:../Dave/Generated/FREERTOS/stream_buffer.c **** 
1185:../Dave/Generated/FREERTOS/stream_buffer.c **** 	return xCount;
 2566              	 .loc 1 1185 0
 2567 00e4 3B6A     	 ldr r3,[r7,#32]
1186:../Dave/Generated/FREERTOS/stream_buffer.c **** }
 2568              	 .loc 1 1186 0
 2569 00e6 1846     	 mov r0,r3
 2570 00e8 2837     	 adds r7,r7,#40
 2571              	.LCFI96:
 2572              	 .cfi_def_cfa_offset 8
 2573 00ea BD46     	 mov sp,r7
 2574              	.LCFI97:
 2575              	 .cfi_def_cfa_register 13
 2576              	 
 2577 00ec 80BD     	 pop {r7,pc}
 2578              	 .cfi_endproc
 2579              	.LFE155:
 2581 00ee 00BF     	 .section .text.prvBytesInBuffer,"ax",%progbits
 2582              	 .align 2
 2583              	 .thumb
 2584              	 .thumb_func
 2586              	prvBytesInBuffer:
 2587              	.LFB156:
1187:../Dave/Generated/FREERTOS/stream_buffer.c **** /*-----------------------------------------------------------*/
1188:../Dave/Generated/FREERTOS/stream_buffer.c **** 
1189:../Dave/Generated/FREERTOS/stream_buffer.c **** static size_t prvBytesInBuffer( const StreamBuffer_t * const pxStreamBuffer )
1190:../Dave/Generated/FREERTOS/stream_buffer.c **** {
 2588              	 .loc 1 1190 0
 2589              	 .cfi_startproc
 2590              	 
 2591              	 
 2592              	 
 2593 0000 80B4     	 push {r7}
 2594              	.LCFI98:
 2595              	 .cfi_def_cfa_offset 4
 2596              	 .cfi_offset 7,-4
 2597 0002 85B0     	 sub sp,sp,#20
 2598              	.LCFI99:
 2599              	 .cfi_def_cfa_offset 24
 2600 0004 00AF     	 add r7,sp,#0
 2601              	.LCFI100:
 2602              	 .cfi_def_cfa_register 7
 2603 0006 7860     	 str r0,[r7,#4]
1191:../Dave/Generated/FREERTOS/stream_buffer.c **** /* Returns the distance between xTail and xHead. */
1192:../Dave/Generated/FREERTOS/stream_buffer.c **** size_t xCount;
1193:../Dave/Generated/FREERTOS/stream_buffer.c **** 
1194:../Dave/Generated/FREERTOS/stream_buffer.c **** 	xCount = pxStreamBuffer->xLength + pxStreamBuffer->xHead;
 2604              	 .loc 1 1194 0
 2605 0008 7B68     	 ldr r3,[r7,#4]
 2606 000a 9A68     	 ldr r2,[r3,#8]
 2607 000c 7B68     	 ldr r3,[r7,#4]
 2608 000e 5B68     	 ldr r3,[r3,#4]
 2609 0010 1344     	 add r3,r3,r2
 2610 0012 FB60     	 str r3,[r7,#12]
1195:../Dave/Generated/FREERTOS/stream_buffer.c **** 	xCount -= pxStreamBuffer->xTail;
 2611              	 .loc 1 1195 0
 2612 0014 7B68     	 ldr r3,[r7,#4]
 2613 0016 1B68     	 ldr r3,[r3]
 2614 0018 FA68     	 ldr r2,[r7,#12]
 2615 001a D31A     	 subs r3,r2,r3
 2616 001c FB60     	 str r3,[r7,#12]
1196:../Dave/Generated/FREERTOS/stream_buffer.c **** 	if ( xCount >= pxStreamBuffer->xLength )
 2617              	 .loc 1 1196 0
 2618 001e 7B68     	 ldr r3,[r7,#4]
 2619 0020 9A68     	 ldr r2,[r3,#8]
 2620 0022 FB68     	 ldr r3,[r7,#12]
 2621 0024 9A42     	 cmp r2,r3
 2622 0026 04D8     	 bhi .L164
1197:../Dave/Generated/FREERTOS/stream_buffer.c **** 	{
1198:../Dave/Generated/FREERTOS/stream_buffer.c **** 		xCount -= pxStreamBuffer->xLength;
 2623              	 .loc 1 1198 0
 2624 0028 7B68     	 ldr r3,[r7,#4]
 2625 002a 9B68     	 ldr r3,[r3,#8]
 2626 002c FA68     	 ldr r2,[r7,#12]
 2627 002e D31A     	 subs r3,r2,r3
 2628 0030 FB60     	 str r3,[r7,#12]
 2629              	.L164:
1199:../Dave/Generated/FREERTOS/stream_buffer.c **** 	}
1200:../Dave/Generated/FREERTOS/stream_buffer.c **** 	else
1201:../Dave/Generated/FREERTOS/stream_buffer.c **** 	{
1202:../Dave/Generated/FREERTOS/stream_buffer.c **** 		mtCOVERAGE_TEST_MARKER();
1203:../Dave/Generated/FREERTOS/stream_buffer.c **** 	}
1204:../Dave/Generated/FREERTOS/stream_buffer.c **** 
1205:../Dave/Generated/FREERTOS/stream_buffer.c **** 	return xCount;
 2630              	 .loc 1 1205 0
 2631 0032 FB68     	 ldr r3,[r7,#12]
1206:../Dave/Generated/FREERTOS/stream_buffer.c **** }
 2632              	 .loc 1 1206 0
 2633 0034 1846     	 mov r0,r3
 2634 0036 1437     	 adds r7,r7,#20
 2635              	.LCFI101:
 2636              	 .cfi_def_cfa_offset 4
 2637 0038 BD46     	 mov sp,r7
 2638              	.LCFI102:
 2639              	 .cfi_def_cfa_register 13
 2640              	 
 2641 003a 5DF8047B 	 ldr r7,[sp],#4
 2642              	.LCFI103:
 2643              	 .cfi_restore 7
 2644              	 .cfi_def_cfa_offset 0
 2645 003e 7047     	 bx lr
 2646              	 .cfi_endproc
 2647              	.LFE156:
 2649              	 .section .text.prvInitialiseNewStreamBuffer,"ax",%progbits
 2650              	 .align 2
 2651              	 .thumb
 2652              	 .thumb_func
 2654              	prvInitialiseNewStreamBuffer:
 2655              	.LFB157:
1207:../Dave/Generated/FREERTOS/stream_buffer.c **** /*-----------------------------------------------------------*/
1208:../Dave/Generated/FREERTOS/stream_buffer.c **** 
1209:../Dave/Generated/FREERTOS/stream_buffer.c **** static void prvInitialiseNewStreamBuffer( StreamBuffer_t * const pxStreamBuffer,
1210:../Dave/Generated/FREERTOS/stream_buffer.c **** 										  uint8_t * const pucBuffer,
1211:../Dave/Generated/FREERTOS/stream_buffer.c **** 										  size_t xBufferSizeBytes,
1212:../Dave/Generated/FREERTOS/stream_buffer.c **** 										  size_t xTriggerLevelBytes,
1213:../Dave/Generated/FREERTOS/stream_buffer.c **** 										  uint8_t ucFlags )
1214:../Dave/Generated/FREERTOS/stream_buffer.c **** {
 2656              	 .loc 1 1214 0
 2657              	 .cfi_startproc
 2658              	 
 2659              	 
 2660 0000 80B5     	 push {r7,lr}
 2661              	.LCFI104:
 2662              	 .cfi_def_cfa_offset 8
 2663              	 .cfi_offset 7,-8
 2664              	 .cfi_offset 14,-4
 2665 0002 86B0     	 sub sp,sp,#24
 2666              	.LCFI105:
 2667              	 .cfi_def_cfa_offset 32
 2668 0004 00AF     	 add r7,sp,#0
 2669              	.LCFI106:
 2670              	 .cfi_def_cfa_register 7
 2671 0006 F860     	 str r0,[r7,#12]
 2672 0008 B960     	 str r1,[r7,#8]
 2673 000a 7A60     	 str r2,[r7,#4]
 2674 000c 3B60     	 str r3,[r7]
 2675              	.LBB165:
1215:../Dave/Generated/FREERTOS/stream_buffer.c **** 	/* Assert here is deliberately writing to the entire buffer to ensure it can
1216:../Dave/Generated/FREERTOS/stream_buffer.c **** 	be written to without generating exceptions, and is setting the buffer to a
1217:../Dave/Generated/FREERTOS/stream_buffer.c **** 	known value to assist in development/debugging. */
1218:../Dave/Generated/FREERTOS/stream_buffer.c **** 	#if( configASSERT_DEFINED == 1 )
1219:../Dave/Generated/FREERTOS/stream_buffer.c **** 	{
1220:../Dave/Generated/FREERTOS/stream_buffer.c **** 		/* The value written just has to be identifiable when looking at the
1221:../Dave/Generated/FREERTOS/stream_buffer.c **** 		memory.  Don't use 0xA5 as that is the stack fill value and could
1222:../Dave/Generated/FREERTOS/stream_buffer.c **** 		result in confusion as to what is actually being observed. */
1223:../Dave/Generated/FREERTOS/stream_buffer.c **** 		const BaseType_t xWriteValue = 0x55;
 2676              	 .loc 1 1223 0
 2677 000e 5523     	 movs r3,#85
 2678 0010 7B61     	 str r3,[r7,#20]
1224:../Dave/Generated/FREERTOS/stream_buffer.c **** 		configASSERT( memset( pucBuffer, ( int ) xWriteValue, xBufferSizeBytes ) == pucBuffer );
 2679              	 .loc 1 1224 0
 2680 0012 B868     	 ldr r0,[r7,#8]
 2681 0014 7969     	 ldr r1,[r7,#20]
 2682 0016 7A68     	 ldr r2,[r7,#4]
 2683 0018 FFF7FEFF 	 bl memset
 2684 001c 0246     	 mov r2,r0
 2685 001e BB68     	 ldr r3,[r7,#8]
 2686 0020 9A42     	 cmp r2,r3
 2687 0022 09D0     	 beq .L167
 2688              	.LBB166:
 2689              	.LBB167:
 195:../Dave/Generated/FREERTOS/portable/GCC/portmacro.h **** 	(
 2690              	 .loc 2 195 0 discriminator 1
 2691              	
 2692 0024 4FF0FC03 	 mov r3,#252
 2693 0028 83F31188 	 msr basepri,r3
 2694 002c BFF36F8F 	 isb 
 2695 0030 BFF34F8F 	 dsb 
 2696              	
 2697              	
 2698              	 .thumb
 2699 0034 3B61     	 str r3,[r7,#16]
 2700              	.L168:
 2701              	.LBE167:
 2702              	.LBE166:
 2703              	 .loc 1 1224 0 discriminator 1
 2704 0036 FEE7     	 b .L168
 2705              	.L167:
 2706              	.LBE165:
1225:../Dave/Generated/FREERTOS/stream_buffer.c **** 	} /*lint !e529 !e438 xWriteValue is only used if configASSERT() is defined. */
1226:../Dave/Generated/FREERTOS/stream_buffer.c **** 	#endif
1227:../Dave/Generated/FREERTOS/stream_buffer.c **** 
1228:../Dave/Generated/FREERTOS/stream_buffer.c **** 	( void ) memset( ( void * ) pxStreamBuffer, 0x00, sizeof( StreamBuffer_t ) ); /*lint !e9087 memset
 2707              	 .loc 1 1228 0
 2708 0038 F868     	 ldr r0,[r7,#12]
 2709 003a 0021     	 movs r1,#0
 2710 003c 2422     	 movs r2,#36
 2711 003e FFF7FEFF 	 bl memset
1229:../Dave/Generated/FREERTOS/stream_buffer.c **** 	pxStreamBuffer->pucBuffer = pucBuffer;
 2712              	 .loc 1 1229 0
 2713 0042 FB68     	 ldr r3,[r7,#12]
 2714 0044 BA68     	 ldr r2,[r7,#8]
 2715 0046 9A61     	 str r2,[r3,#24]
1230:../Dave/Generated/FREERTOS/stream_buffer.c **** 	pxStreamBuffer->xLength = xBufferSizeBytes;
 2716              	 .loc 1 1230 0
 2717 0048 FB68     	 ldr r3,[r7,#12]
 2718 004a 7A68     	 ldr r2,[r7,#4]
 2719 004c 9A60     	 str r2,[r3,#8]
1231:../Dave/Generated/FREERTOS/stream_buffer.c **** 	pxStreamBuffer->xTriggerLevelBytes = xTriggerLevelBytes;
 2720              	 .loc 1 1231 0
 2721 004e FB68     	 ldr r3,[r7,#12]
 2722 0050 3A68     	 ldr r2,[r7]
 2723 0052 DA60     	 str r2,[r3,#12]
1232:../Dave/Generated/FREERTOS/stream_buffer.c **** 	pxStreamBuffer->ucFlags = ucFlags;
 2724              	 .loc 1 1232 0
 2725 0054 FB68     	 ldr r3,[r7,#12]
 2726 0056 97F82020 	 ldrb r2,[r7,#32]
 2727 005a 1A77     	 strb r2,[r3,#28]
1233:../Dave/Generated/FREERTOS/stream_buffer.c **** }
 2728              	 .loc 1 1233 0
 2729 005c 1837     	 adds r7,r7,#24
 2730              	.LCFI107:
 2731              	 .cfi_def_cfa_offset 8
 2732 005e BD46     	 mov sp,r7
 2733              	.LCFI108:
 2734              	 .cfi_def_cfa_register 13
 2735              	 
 2736 0060 80BD     	 pop {r7,pc}
 2737              	 .cfi_endproc
 2738              	.LFE157:
 2740 0062 00BF     	 .section .text.uxStreamBufferGetStreamBufferNumber,"ax",%progbits
 2741              	 .align 2
 2742              	 .global uxStreamBufferGetStreamBufferNumber
 2743              	 .thumb
 2744              	 .thumb_func
 2746              	uxStreamBufferGetStreamBufferNumber:
 2747              	.LFB158:
1234:../Dave/Generated/FREERTOS/stream_buffer.c **** 
1235:../Dave/Generated/FREERTOS/stream_buffer.c **** #if ( configUSE_TRACE_FACILITY == 1 )
1236:../Dave/Generated/FREERTOS/stream_buffer.c **** 
1237:../Dave/Generated/FREERTOS/stream_buffer.c **** 	UBaseType_t uxStreamBufferGetStreamBufferNumber( StreamBufferHandle_t xStreamBuffer )
1238:../Dave/Generated/FREERTOS/stream_buffer.c **** 	{
 2748              	 .loc 1 1238 0
 2749              	 .cfi_startproc
 2750              	 
 2751              	 
 2752              	 
 2753 0000 80B4     	 push {r7}
 2754              	.LCFI109:
 2755              	 .cfi_def_cfa_offset 4
 2756              	 .cfi_offset 7,-4
 2757 0002 83B0     	 sub sp,sp,#12
 2758              	.LCFI110:
 2759              	 .cfi_def_cfa_offset 16
 2760 0004 00AF     	 add r7,sp,#0
 2761              	.LCFI111:
 2762              	 .cfi_def_cfa_register 7
 2763 0006 7860     	 str r0,[r7,#4]
1239:../Dave/Generated/FREERTOS/stream_buffer.c **** 		return xStreamBuffer->uxStreamBufferNumber;
 2764              	 .loc 1 1239 0
 2765 0008 7B68     	 ldr r3,[r7,#4]
 2766 000a 1B6A     	 ldr r3,[r3,#32]
1240:../Dave/Generated/FREERTOS/stream_buffer.c **** 	}
 2767              	 .loc 1 1240 0
 2768 000c 1846     	 mov r0,r3
 2769 000e 0C37     	 adds r7,r7,#12
 2770              	.LCFI112:
 2771              	 .cfi_def_cfa_offset 4
 2772 0010 BD46     	 mov sp,r7
 2773              	.LCFI113:
 2774              	 .cfi_def_cfa_register 13
 2775              	 
 2776 0012 5DF8047B 	 ldr r7,[sp],#4
 2777              	.LCFI114:
 2778              	 .cfi_restore 7
 2779              	 .cfi_def_cfa_offset 0
 2780 0016 7047     	 bx lr
 2781              	 .cfi_endproc
 2782              	.LFE158:
 2784              	 .section .text.vStreamBufferSetStreamBufferNumber,"ax",%progbits
 2785              	 .align 2
 2786              	 .global vStreamBufferSetStreamBufferNumber
 2787              	 .thumb
 2788              	 .thumb_func
 2790              	vStreamBufferSetStreamBufferNumber:
 2791              	.LFB159:
1241:../Dave/Generated/FREERTOS/stream_buffer.c **** 
1242:../Dave/Generated/FREERTOS/stream_buffer.c **** #endif /* configUSE_TRACE_FACILITY */
1243:../Dave/Generated/FREERTOS/stream_buffer.c **** /*-----------------------------------------------------------*/
1244:../Dave/Generated/FREERTOS/stream_buffer.c **** 
1245:../Dave/Generated/FREERTOS/stream_buffer.c **** #if ( configUSE_TRACE_FACILITY == 1 )
1246:../Dave/Generated/FREERTOS/stream_buffer.c **** 
1247:../Dave/Generated/FREERTOS/stream_buffer.c **** 	void vStreamBufferSetStreamBufferNumber( StreamBufferHandle_t xStreamBuffer, UBaseType_t uxStreamB
1248:../Dave/Generated/FREERTOS/stream_buffer.c **** 	{
 2792              	 .loc 1 1248 0
 2793              	 .cfi_startproc
 2794              	 
 2795              	 
 2796              	 
 2797 0000 80B4     	 push {r7}
 2798              	.LCFI115:
 2799              	 .cfi_def_cfa_offset 4
 2800              	 .cfi_offset 7,-4
 2801 0002 83B0     	 sub sp,sp,#12
 2802              	.LCFI116:
 2803              	 .cfi_def_cfa_offset 16
 2804 0004 00AF     	 add r7,sp,#0
 2805              	.LCFI117:
 2806              	 .cfi_def_cfa_register 7
 2807 0006 7860     	 str r0,[r7,#4]
 2808 0008 3960     	 str r1,[r7]
1249:../Dave/Generated/FREERTOS/stream_buffer.c **** 		xStreamBuffer->uxStreamBufferNumber = uxStreamBufferNumber;
 2809              	 .loc 1 1249 0
 2810 000a 7B68     	 ldr r3,[r7,#4]
 2811 000c 3A68     	 ldr r2,[r7]
 2812 000e 1A62     	 str r2,[r3,#32]
1250:../Dave/Generated/FREERTOS/stream_buffer.c **** 	}
 2813              	 .loc 1 1250 0
 2814 0010 0C37     	 adds r7,r7,#12
 2815              	.LCFI118:
 2816              	 .cfi_def_cfa_offset 4
 2817 0012 BD46     	 mov sp,r7
 2818              	.LCFI119:
 2819              	 .cfi_def_cfa_register 13
 2820              	 
 2821 0014 5DF8047B 	 ldr r7,[sp],#4
 2822              	.LCFI120:
 2823              	 .cfi_restore 7
 2824              	 .cfi_def_cfa_offset 0
 2825 0018 7047     	 bx lr
 2826              	 .cfi_endproc
 2827              	.LFE159:
 2829 001a 00BF     	 .section .text.ucStreamBufferGetStreamBufferType,"ax",%progbits
 2830              	 .align 2
 2831              	 .global ucStreamBufferGetStreamBufferType
 2832              	 .thumb
 2833              	 .thumb_func
 2835              	ucStreamBufferGetStreamBufferType:
 2836              	.LFB160:
1251:../Dave/Generated/FREERTOS/stream_buffer.c **** 
1252:../Dave/Generated/FREERTOS/stream_buffer.c **** #endif /* configUSE_TRACE_FACILITY */
1253:../Dave/Generated/FREERTOS/stream_buffer.c **** /*-----------------------------------------------------------*/
1254:../Dave/Generated/FREERTOS/stream_buffer.c **** 
1255:../Dave/Generated/FREERTOS/stream_buffer.c **** #if ( configUSE_TRACE_FACILITY == 1 )
1256:../Dave/Generated/FREERTOS/stream_buffer.c **** 
1257:../Dave/Generated/FREERTOS/stream_buffer.c **** 	uint8_t ucStreamBufferGetStreamBufferType( StreamBufferHandle_t xStreamBuffer )
1258:../Dave/Generated/FREERTOS/stream_buffer.c **** 	{
 2837              	 .loc 1 1258 0
 2838              	 .cfi_startproc
 2839              	 
 2840              	 
 2841              	 
 2842 0000 80B4     	 push {r7}
 2843              	.LCFI121:
 2844              	 .cfi_def_cfa_offset 4
 2845              	 .cfi_offset 7,-4
 2846 0002 83B0     	 sub sp,sp,#12
 2847              	.LCFI122:
 2848              	 .cfi_def_cfa_offset 16
 2849 0004 00AF     	 add r7,sp,#0
 2850              	.LCFI123:
 2851              	 .cfi_def_cfa_register 7
 2852 0006 7860     	 str r0,[r7,#4]
1259:../Dave/Generated/FREERTOS/stream_buffer.c **** 		return ( xStreamBuffer->ucFlags & sbFLAGS_IS_MESSAGE_BUFFER );
 2853              	 .loc 1 1259 0
 2854 0008 7B68     	 ldr r3,[r7,#4]
 2855 000a 1B7F     	 ldrb r3,[r3,#28]
 2856 000c 03F00103 	 and r3,r3,#1
 2857 0010 DBB2     	 uxtb r3,r3
1260:../Dave/Generated/FREERTOS/stream_buffer.c **** 	}
 2858              	 .loc 1 1260 0
 2859 0012 1846     	 mov r0,r3
 2860 0014 0C37     	 adds r7,r7,#12
 2861              	.LCFI124:
 2862              	 .cfi_def_cfa_offset 4
 2863 0016 BD46     	 mov sp,r7
 2864              	.LCFI125:
 2865              	 .cfi_def_cfa_register 13
 2866              	 
 2867 0018 5DF8047B 	 ldr r7,[sp],#4
 2868              	.LCFI126:
 2869              	 .cfi_restore 7
 2870              	 .cfi_def_cfa_offset 0
 2871 001c 7047     	 bx lr
 2872              	 .cfi_endproc
 2873              	.LFE160:
 2875 001e 00BF     	 .text
 2876              	.Letext0:
 2877              	 .file 3 "c:\\dave\\dave-ide-4.4.2-64bit\\eclipse\\arm-gcc-49\\arm-none-eabi\\include\\machine\\_default_types.h"
 2878              	 .file 4 "c:\\dave\\dave-ide-4.4.2-64bit\\eclipse\\arm-gcc-49\\arm-none-eabi\\include\\stdint.h"
 2879              	 .file 5 "c:\\dave\\dave-ide-4.4.2-64bit\\eclipse\\arm-gcc-49\\lib\\gcc\\arm-none-eabi\\4.9.3\\include\\stddef.h"
 2880              	 .file 6 "../Dave/Generated/FREERTOS/task.h"
 2881              	 .file 7 "../Dave/Generated/FREERTOS/stream_buffer.h"
 2882              	 .file 8 "C:/Users/Yoshi/Documents/GitHub/Software/01_jrg/03_VCUJR20/2021_04_29_VCU_jr20_Source/Libraries/CMSIS/Include/cmsis_gcc.h"
 2883              	 .file 9 "C:/Users/Yoshi/Documents/GitHub/Software/01_jrg/03_VCUJR20/2021_04_29_VCU_jr20_Source/Libraries/CMSIS/Include/core_cm4.h"