   1              	 .syntax unified
   2              	 .cpu cortex-m4
   3              	 .eabi_attribute 27,3
   4              	 .fpu fpv4-sp-d16
   5              	 .eabi_attribute 20,1
   6              	 .eabi_attribute 21,1
   7              	 .eabi_attribute 23,3
   8              	 .eabi_attribute 24,1
   9              	 .eabi_attribute 25,1
  10              	 .eabi_attribute 26,1
  11              	 .eabi_attribute 30,4
  12              	 .eabi_attribute 34,1
  13              	 .eabi_attribute 18,4
  14              	 .thumb
  15              	 .file "CAN_2.c"
  16              	 .section .text.CAN_2_Receive,"ax",%progbits
  17              	 .align 1
  18              	 .global CAN_2_Receive
  19              	 .thumb
  20              	 .thumb_func
  22              	CAN_2_Receive:
  23              	 
  24              	 
  25 0000 2DE9F04F 	 push {r4,r5,r6,r7,r8,r9,r10,fp,lr}
  26 0004 2DED028B 	 fstmfdd sp!,{d8}
  27 0008 D04D     	 ldr r5,.L2
  28 000a D148     	 ldr r0,.L2+4
  29 000c D14C     	 ldr r4,.L2+8
  30 000e DFF844B4 	 ldr fp,.L2+264
  31 0012 DFF844A4 	 ldr r10,.L2+268
  32 0016 DFF84494 	 ldr r9,.L2+272
  33 001a DFF84484 	 ldr r8,.L2+276
  34 001e CE4F     	 ldr r7,.L2+12
  35 0020 CE4E     	 ldr r6,.L2+16
  36 0022 9FEDCF8A 	 flds s16,.L2+20
  37 0026 85B0     	 sub sp,sp,#20
  38 0028 FFF7FEFF 	 bl CAN_NODE_MO_ReceiveData
  39 002c 2846     	 mov r0,r5
  40 002e FFF7FEFF 	 bl CAN_NODE_MO_ReceiveData
  41 0032 2B68     	 ldr r3,[r5]
  42 0034 CB4D     	 ldr r5,.L2+24
  43 0036 1533     	 adds r3,r3,#21
  44 0038 2846     	 mov r0,r5
  45 003a 2360     	 str r3,[r4]
  46 003c FFF7FEFF 	 bl CAN_NODE_MO_ReceiveData
  47 0040 2B68     	 ldr r3,[r5]
  48 0042 C949     	 ldr r1,.L2+28
  49 0044 C94D     	 ldr r5,.L2+32
  50 0046 CA48     	 ldr r0,.L2+36
  51 0048 0391     	 str r1,[sp,#12]
  52 004a 1533     	 adds r3,r3,#21
  53 004c 0B60     	 str r3,[r1]
  54 004e FFF7FEFF 	 bl CAN_NODE_MO_ReceiveData
  55 0052 C848     	 ldr r0,.L2+40
  56 0054 FFF7FEFF 	 bl CAN_NODE_MO_ReceiveData
  57 0058 2846     	 mov r0,r5
  58 005a FFF7FEFF 	 bl CAN_NODE_MO_ReceiveData
  59 005e 2868     	 ldr r0,[r5]
  60 0060 C54A     	 ldr r2,.L2+44
  61 0062 0292     	 str r2,[sp,#8]
  62 0064 00F11103 	 add r3,r0,#17
  63 0068 1360     	 str r3,[r2]
  64 006a C44B     	 ldr r3,.L2+48
  65 006c 0193     	 str r3,[sp,#4]
  66 006e 00F11205 	 add r5,r0,#18
  67 0072 1D60     	 str r5,[r3]
  68 0074 00F11305 	 add r5,r0,#19
  69 0078 CBF80050 	 str r5,[fp]
  70 007c 00F11405 	 add r5,r0,#20
  71 0080 CAF80050 	 str r5,[r10]
  72 0084 BE4D     	 ldr r5,.L2+52
  73 0086 1630     	 adds r0,r0,#22
  74 0088 C9F80000 	 str r0,[r9]
  75 008c 2846     	 mov r0,r5
  76 008e FFF7FEFF 	 bl CAN_NODE_MO_ReceiveData
  77 0092 2868     	 ldr r0,[r5]
  78 0094 00F11005 	 add r5,r0,#16
  79 0098 C8F80050 	 str r5,[r8]
  80 009c 00F11205 	 add r5,r0,#18
  81 00a0 3D60     	 str r5,[r7]
  82 00a2 00F11405 	 add r5,r0,#20
  83 00a6 3560     	 str r5,[r6]
  84 00a8 B64D     	 ldr r5,.L2+56
  85 00aa 1630     	 adds r0,r0,#22
  86 00ac 2860     	 str r0,[r5]
  87 00ae B648     	 ldr r0,.L2+60
  88 00b0 FFF7FEFF 	 bl CAN_NODE_MO_ReceiveData
  89 00b4 DFF8ACC3 	 ldr ip,.L2+280
  90 00b8 CDF800C0 	 str ip,[sp]
  91 00bc 6046     	 mov r0,ip
  92 00be FFF7FEFF 	 bl CAN_NODE_MO_ReceiveData
  93 00c2 DDF800C0 	 ldr ip,[sp]
  94 00c6 B14B     	 ldr r3,.L2+64
  95 00c8 DCF80000 	 ldr r0,[ip]
  96 00cc DFF898C3 	 ldr ip,.L2+284
  97 00d0 CDF800C0 	 str ip,[sp]
  98 00d4 1430     	 adds r0,r0,#20
  99 00d6 1860     	 str r0,[r3]
 100 00d8 6046     	 mov r0,ip
 101 00da FFF7FEFF 	 bl CAN_NODE_MO_ReceiveData
 102 00de DDF800C0 	 ldr ip,[sp]
 103 00e2 AB4B     	 ldr r3,.L2+68
 104 00e4 DCF80000 	 ldr r0,[ip]
 105 00e8 DFF880C3 	 ldr ip,.L2+288
 106 00ec CDF800C0 	 str ip,[sp]
 107 00f0 1430     	 adds r0,r0,#20
 108 00f2 1860     	 str r0,[r3]
 109 00f4 6046     	 mov r0,ip
 110 00f6 FFF7FEFF 	 bl CAN_NODE_MO_ReceiveData
 111 00fa DDF800C0 	 ldr ip,[sp]
 112 00fe A54B     	 ldr r3,.L2+72
 113 0100 DCF80000 	 ldr r0,[ip]
 114 0104 DFF868C3 	 ldr ip,.L2+292
 115 0108 CDF800C0 	 str ip,[sp]
 116 010c 00F1100E 	 add lr,r0,#16
 117 0110 C3F800E0 	 str lr,[r3]
 118 0114 A04B     	 ldr r3,.L2+76
 119 0116 00F1110E 	 add lr,r0,#17
 120 011a C3F800E0 	 str lr,[r3]
 121 011e 9F4B     	 ldr r3,.L2+80
 122 0120 00F1120E 	 add lr,r0,#18
 123 0124 C3F800E0 	 str lr,[r3]
 124 0128 9D4B     	 ldr r3,.L2+84
 125 012a 00F1130E 	 add lr,r0,#19
 126 012e C3F800E0 	 str lr,[r3]
 127 0132 9C4B     	 ldr r3,.L2+88
 128 0134 00F1140E 	 add lr,r0,#20
 129 0138 C3F800E0 	 str lr,[r3]
 130 013c 9A4B     	 ldr r3,.L2+92
 131 013e 00F1150E 	 add lr,r0,#21
 132 0142 C3F800E0 	 str lr,[r3]
 133 0146 994B     	 ldr r3,.L2+96
 134 0148 00F1160E 	 add lr,r0,#22
 135 014c C3F800E0 	 str lr,[r3]
 136 0150 974B     	 ldr r3,.L2+100
 137 0152 1730     	 adds r0,r0,#23
 138 0154 1860     	 str r0,[r3]
 139 0156 6046     	 mov r0,ip
 140 0158 FFF7FEFF 	 bl CAN_NODE_MO_ReceiveData
 141 015c DDF800C0 	 ldr ip,[sp]
 142 0160 944B     	 ldr r3,.L2+104
 143 0162 DCF80000 	 ldr r0,[ip]
 144 0166 DFF80CC3 	 ldr ip,.L2+296
 145 016a CDF800C0 	 str ip,[sp]
 146 016e 00F1100E 	 add lr,r0,#16
 147 0172 C3F800E0 	 str lr,[r3]
 148 0176 904B     	 ldr r3,.L2+108
 149 0178 00F1110E 	 add lr,r0,#17
 150 017c C3F800E0 	 str lr,[r3]
 151 0180 8E4B     	 ldr r3,.L2+112
 152 0182 00F1120E 	 add lr,r0,#18
 153 0186 C3F800E0 	 str lr,[r3]
 154 018a 8D4B     	 ldr r3,.L2+116
 155 018c 00F1130E 	 add lr,r0,#19
 156 0190 C3F800E0 	 str lr,[r3]
 157 0194 8B4B     	 ldr r3,.L2+120
 158 0196 00F1140E 	 add lr,r0,#20
 159 019a C3F800E0 	 str lr,[r3]
 160 019e 8A4B     	 ldr r3,.L2+124
 161 01a0 00F1150E 	 add lr,r0,#21
 162 01a4 C3F800E0 	 str lr,[r3]
 163 01a8 884B     	 ldr r3,.L2+128
 164 01aa 00F1160E 	 add lr,r0,#22
 165 01ae C3F800E0 	 str lr,[r3]
 166 01b2 874B     	 ldr r3,.L2+132
 167 01b4 1730     	 adds r0,r0,#23
 168 01b6 1860     	 str r0,[r3]
 169 01b8 6046     	 mov r0,ip
 170 01ba FFF7FEFF 	 bl CAN_NODE_MO_ReceiveData
 171 01be DDF800C0 	 ldr ip,[sp]
 172 01c2 844B     	 ldr r3,.L2+136
 173 01c4 DCF80000 	 ldr r0,[ip]
 174 01c8 DFF8ACC2 	 ldr ip,.L2+300
 175 01cc CDF800C0 	 str ip,[sp]
 176 01d0 00F1100E 	 add lr,r0,#16
 177 01d4 C3F800E0 	 str lr,[r3]
 178 01d8 7F4B     	 ldr r3,.L2+140
 179 01da 00F1110E 	 add lr,r0,#17
 180 01de C3F800E0 	 str lr,[r3]
 181 01e2 7E4B     	 ldr r3,.L2+144
 182 01e4 00F1120E 	 add lr,r0,#18
 183 01e8 C3F800E0 	 str lr,[r3]
 184 01ec 7C4B     	 ldr r3,.L2+148
 185 01ee 00F1130E 	 add lr,r0,#19
 186 01f2 C3F800E0 	 str lr,[r3]
 187 01f6 7B4B     	 ldr r3,.L2+152
 188 01f8 00F1140E 	 add lr,r0,#20
 189 01fc C3F800E0 	 str lr,[r3]
 190 0200 794B     	 ldr r3,.L2+156
 191 0202 00F1150E 	 add lr,r0,#21
 192 0206 C3F800E0 	 str lr,[r3]
 193 020a 784B     	 ldr r3,.L2+160
 194 020c 00F1160E 	 add lr,r0,#22
 195 0210 C3F800E0 	 str lr,[r3]
 196 0214 764B     	 ldr r3,.L2+164
 197 0216 1730     	 adds r0,r0,#23
 198 0218 1860     	 str r0,[r3]
 199 021a 6046     	 mov r0,ip
 200 021c FFF7FEFF 	 bl CAN_NODE_MO_ReceiveData
 201 0220 DDF800C0 	 ldr ip,[sp]
 202 0224 734B     	 ldr r3,.L2+168
 203 0226 DCF80000 	 ldr r0,[ip]
 204 022a DFF850C2 	 ldr ip,.L2+304
 205 022e CDF800C0 	 str ip,[sp]
 206 0232 00F1100E 	 add lr,r0,#16
 207 0236 C3F800E0 	 str lr,[r3]
 208 023a 6F4B     	 ldr r3,.L2+172
 209 023c 00F1110E 	 add lr,r0,#17
 210 0240 C3F800E0 	 str lr,[r3]
 211 0244 6D4B     	 ldr r3,.L2+176
 212 0246 00F1120E 	 add lr,r0,#18
 213 024a C3F800E0 	 str lr,[r3]
 214 024e 6C4B     	 ldr r3,.L2+180
 215 0250 00F1130E 	 add lr,r0,#19
 216 0254 C3F800E0 	 str lr,[r3]
 217 0258 6A4B     	 ldr r3,.L2+184
 218 025a 00F1140E 	 add lr,r0,#20
 219 025e C3F800E0 	 str lr,[r3]
 220 0262 694B     	 ldr r3,.L2+188
 221 0264 00F1150E 	 add lr,r0,#21
 222 0268 C3F800E0 	 str lr,[r3]
 223 026c 674B     	 ldr r3,.L2+192
 224 026e 00F1160E 	 add lr,r0,#22
 225 0272 C3F800E0 	 str lr,[r3]
 226 0276 664B     	 ldr r3,.L2+196
 227 0278 1730     	 adds r0,r0,#23
 228 027a 1860     	 str r0,[r3]
 229 027c 6046     	 mov r0,ip
 230 027e FFF7FEFF 	 bl CAN_NODE_MO_ReceiveData
 231 0282 DDF800C0 	 ldr ip,[sp]
 232 0286 634B     	 ldr r3,.L2+200
 233 0288 DCF80000 	 ldr r0,[ip]
 234 028c DFF8F0C1 	 ldr ip,.L2+308
 235 0290 CDF800C0 	 str ip,[sp]
 236 0294 00F1100E 	 add lr,r0,#16
 237 0298 C3F800E0 	 str lr,[r3]
 238 029c 5E4B     	 ldr r3,.L2+204
 239 029e 00F1110E 	 add lr,r0,#17
 240 02a2 C3F800E0 	 str lr,[r3]
 241 02a6 5D4B     	 ldr r3,.L2+208
 242 02a8 00F1120E 	 add lr,r0,#18
 243 02ac C3F800E0 	 str lr,[r3]
 244 02b0 5B4B     	 ldr r3,.L2+212
 245 02b2 00F1130E 	 add lr,r0,#19
 246 02b6 C3F800E0 	 str lr,[r3]
 247 02ba 5A4B     	 ldr r3,.L2+216
 248 02bc 00F1140E 	 add lr,r0,#20
 249 02c0 C3F800E0 	 str lr,[r3]
 250 02c4 584B     	 ldr r3,.L2+220
 251 02c6 00F1150E 	 add lr,r0,#21
 252 02ca C3F800E0 	 str lr,[r3]
 253 02ce 574B     	 ldr r3,.L2+224
 254 02d0 00F1160E 	 add lr,r0,#22
 255 02d4 C3F800E0 	 str lr,[r3]
 256 02d8 554B     	 ldr r3,.L2+228
 257 02da 1730     	 adds r0,r0,#23
 258 02dc 1860     	 str r0,[r3]
 259 02de 6046     	 mov r0,ip
 260 02e0 FFF7FEFF 	 bl CAN_NODE_MO_ReceiveData
 261 02e4 DDF800C0 	 ldr ip,[sp]
 262 02e8 524B     	 ldr r3,.L2+232
 263 02ea DCF80000 	 ldr r0,[ip]
 264 02ee DFF894C1 	 ldr ip,.L2+312
 265 02f2 CDF800C0 	 str ip,[sp]
 266 02f6 00F1100E 	 add lr,r0,#16
 267 02fa C3F800E0 	 str lr,[r3]
 268 02fe 4E4B     	 ldr r3,.L2+236
 269 0300 00F1110E 	 add lr,r0,#17
 270 0304 C3F800E0 	 str lr,[r3]
 271 0308 4C4B     	 ldr r3,.L2+240
 272 030a 00F1120E 	 add lr,r0,#18
 273 030e C3F800E0 	 str lr,[r3]
 274 0312 4B4B     	 ldr r3,.L2+244
 275 0314 00F1130E 	 add lr,r0,#19
 276 0318 C3F800E0 	 str lr,[r3]
 277 031c 494B     	 ldr r3,.L2+248
 278 031e 00F1140E 	 add lr,r0,#20
 279 0322 C3F800E0 	 str lr,[r3]
 280 0326 484B     	 ldr r3,.L2+252
 281 0328 00F1150E 	 add lr,r0,#21
 282 032c C3F800E0 	 str lr,[r3]
 283 0330 464B     	 ldr r3,.L2+256
 284 0332 00F1160E 	 add lr,r0,#22
 285 0336 C3F800E0 	 str lr,[r3]
 286 033a 454B     	 ldr r3,.L2+260
 287 033c 1730     	 adds r0,r0,#23
 288 033e 1860     	 str r0,[r3]
 289 0340 6046     	 mov r0,ip
 290 0342 FFF7FEFF 	 bl CAN_NODE_MO_ReceiveData
 291 0346 DDF800C0 	 ldr ip,[sp]
 292 034a 9DE0     	 b .L3
 293              	.L4:
 294              	 .align 2
 295              	.L2:
 296 034c 00000000 	 .word CAN_2_LMO_02_Config
 297 0350 00000000 	 .word CAN_2_LMO_01_Config
 298 0354 00000000 	 .word .LANCHOR0
 299 0358 00000000 	 .word .LANCHOR8
 300 035c 00000000 	 .word .LANCHOR9
 301 0360 CDCCCC3D 	 .word 1036831949
 302 0364 00000000 	 .word CAN_2_LMO_03_Config
 303 0368 00000000 	 .word .LANCHOR1
 304 036c 00000000 	 .word CAN_2_LMO_06_Config
 305 0370 00000000 	 .word CAN_2_LMO_04_Config
 306 0374 00000000 	 .word CAN_2_LMO_05_Config
 307 0378 00000000 	 .word .LANCHOR2
 308 037c 00000000 	 .word .LANCHOR3
 309 0380 00000000 	 .word CAN_2_LMO_07_Config
 310 0384 00000000 	 .word .LANCHOR10
 311 0388 00000000 	 .word CAN_2_LMO_08_Config
 312 038c 00000000 	 .word .LANCHOR11
 313 0390 00000000 	 .word .LANCHOR12
 314 0394 00000000 	 .word .LANCHOR13
 315 0398 00000000 	 .word .LANCHOR14
 316 039c 00000000 	 .word .LANCHOR15
 317 03a0 00000000 	 .word .LANCHOR16
 318 03a4 00000000 	 .word .LANCHOR17
 319 03a8 00000000 	 .word .LANCHOR18
 320 03ac 00000000 	 .word .LANCHOR19
 321 03b0 00000000 	 .word .LANCHOR20
 322 03b4 00000000 	 .word .LANCHOR21
 323 03b8 00000000 	 .word .LANCHOR22
 324 03bc 00000000 	 .word .LANCHOR23
 325 03c0 00000000 	 .word .LANCHOR24
 326 03c4 00000000 	 .word .LANCHOR25
 327 03c8 00000000 	 .word .LANCHOR26
 328 03cc 00000000 	 .word .LANCHOR27
 329 03d0 00000000 	 .word .LANCHOR28
 330 03d4 00000000 	 .word .LANCHOR29
 331 03d8 00000000 	 .word .LANCHOR30
 332 03dc 00000000 	 .word .LANCHOR31
 333 03e0 00000000 	 .word .LANCHOR32
 334 03e4 00000000 	 .word .LANCHOR33
 335 03e8 00000000 	 .word .LANCHOR34
 336 03ec 00000000 	 .word .LANCHOR35
 337 03f0 00000000 	 .word .LANCHOR36
 338 03f4 00000000 	 .word .LANCHOR37
 339 03f8 00000000 	 .word .LANCHOR38
 340 03fc 00000000 	 .word .LANCHOR39
 341 0400 00000000 	 .word .LANCHOR40
 342 0404 00000000 	 .word .LANCHOR41
 343 0408 00000000 	 .word .LANCHOR42
 344 040c 00000000 	 .word .LANCHOR43
 345 0410 00000000 	 .word .LANCHOR44
 346 0414 00000000 	 .word .LANCHOR45
 347 0418 00000000 	 .word .LANCHOR46
 348 041c 00000000 	 .word .LANCHOR47
 349 0420 00000000 	 .word .LANCHOR48
 350 0424 00000000 	 .word .LANCHOR49
 351 0428 00000000 	 .word .LANCHOR50
 352 042c 00000000 	 .word .LANCHOR51
 353 0430 00000000 	 .word .LANCHOR52
 354 0434 00000000 	 .word .LANCHOR53
 355 0438 00000000 	 .word .LANCHOR54
 356 043c 00000000 	 .word .LANCHOR55
 357 0440 00000000 	 .word .LANCHOR56
 358 0444 00000000 	 .word .LANCHOR57
 359 0448 00000000 	 .word .LANCHOR58
 360 044c 00000000 	 .word .LANCHOR59
 361 0450 00000000 	 .word .LANCHOR60
 362 0454 00000000 	 .word .LANCHOR4
 363 0458 00000000 	 .word .LANCHOR5
 364 045c 00000000 	 .word .LANCHOR6
 365 0460 00000000 	 .word .LANCHOR7
 366 0464 00000000 	 .word CAN_2_LMO_09_Config
 367 0468 00000000 	 .word CAN_2_LMO_10_Config
 368 046c 00000000 	 .word CAN_2_LMO_11_Config
 369 0470 00000000 	 .word CAN_2_LMO_12_Config
 370 0474 00000000 	 .word CAN_2_LMO_13_Config
 371 0478 00000000 	 .word CAN_2_LMO_14_Config
 372 047c 00000000 	 .word CAN_2_LMO_15_Config
 373 0480 00000000 	 .word CAN_2_LMO_16_Config
 374 0484 00000000 	 .word CAN_2_LMO_17_Config
 375              	.L3:
 376 0488 C34B     	 ldr r3,.L5
 377 048a DCF80000 	 ldr r0,[ip]
 378 048e DFF8D8C3 	 ldr ip,.L5+208
 379 0492 CDF800C0 	 str ip,[sp]
 380 0496 00F1100E 	 add lr,r0,#16
 381 049a C3F800E0 	 str lr,[r3]
 382 049e BF4B     	 ldr r3,.L5+4
 383 04a0 00F1110E 	 add lr,r0,#17
 384 04a4 C3F800E0 	 str lr,[r3]
 385 04a8 BD4B     	 ldr r3,.L5+8
 386 04aa 00F1120E 	 add lr,r0,#18
 387 04ae C3F800E0 	 str lr,[r3]
 388 04b2 BC4B     	 ldr r3,.L5+12
 389 04b4 00F1130E 	 add lr,r0,#19
 390 04b8 C3F800E0 	 str lr,[r3]
 391 04bc BA4B     	 ldr r3,.L5+16
 392 04be 00F1140E 	 add lr,r0,#20
 393 04c2 C3F800E0 	 str lr,[r3]
 394 04c6 B94B     	 ldr r3,.L5+20
 395 04c8 00F1150E 	 add lr,r0,#21
 396 04cc C3F800E0 	 str lr,[r3]
 397 04d0 B74B     	 ldr r3,.L5+24
 398 04d2 00F1160E 	 add lr,r0,#22
 399 04d6 C3F800E0 	 str lr,[r3]
 400 04da B64B     	 ldr r3,.L5+28
 401 04dc 1730     	 adds r0,r0,#23
 402 04de 1860     	 str r0,[r3]
 403 04e0 6046     	 mov r0,ip
 404 04e2 FFF7FEFF 	 bl CAN_NODE_MO_ReceiveData
 405 04e6 DDF800C0 	 ldr ip,[sp]
 406 04ea B34B     	 ldr r3,.L5+32
 407 04ec DCF80000 	 ldr r0,[ip]
 408 04f0 0399     	 ldr r1,[sp,#12]
 409 04f2 DFEDB26A 	 flds s13,.L5+36
 410 04f6 0968     	 ldr r1,[r1]
 411 04f8 00F1100E 	 add lr,r0,#16
 412 04fc C3F800E0 	 str lr,[r3]
 413 0500 AF4B     	 ldr r3,.L5+40
 414 0502 00F1110E 	 add lr,r0,#17
 415 0506 C3F800E0 	 str lr,[r3]
 416 050a AE4B     	 ldr r3,.L5+44
 417 050c 00F1120E 	 add lr,r0,#18
 418 0510 C3F800E0 	 str lr,[r3]
 419 0514 AC4B     	 ldr r3,.L5+48
 420 0516 00F1130E 	 add lr,r0,#19
 421 051a C3F800E0 	 str lr,[r3]
 422 051e AB4B     	 ldr r3,.L5+52
 423 0520 00F1140E 	 add lr,r0,#20
 424 0524 C3F800E0 	 str lr,[r3]
 425 0528 A94B     	 ldr r3,.L5+56
 426 052a 00F1150E 	 add lr,r0,#21
 427 052e C3F800E0 	 str lr,[r3]
 428 0532 A84B     	 ldr r3,.L5+60
 429 0534 00F1160E 	 add lr,r0,#22
 430 0538 C3F800E0 	 str lr,[r3]
 431 053c A64B     	 ldr r3,.L5+64
 432 053e 1730     	 adds r0,r0,#23
 433 0540 1860     	 str r0,[r3]
 434 0542 2068     	 ldr r0,[r4]
 435 0544 A54C     	 ldr r4,.L5+68
 436 0546 0078     	 ldrb r0,[r0]
 437 0548 84F83900 	 strb r0,[r4,#57]
 438 054c 0978     	 ldrb r1,[r1]
 439 054e 84F83A10 	 strb r1,[r4,#58]
 440 0552 A349     	 ldr r1,.L5+72
 441 0554 0968     	 ldr r1,[r1]
 442 0556 0B88     	 ldrh r3,[r1]
 443 0558 A249     	 ldr r1,.L5+76
 444 055a 07EE903A 	 fmsr s15,r3
 445 055e F8EE677A 	 fuitos s15,s15
 446 0562 0968     	 ldr r1,[r1]
 447 0564 67EE887A 	 fmuls s15,s15,s16
 448 0568 17EE903A 	 fmrs r3,s15
 449 056c C4F83B30 	 str r3,[r4,#59]
 450 0570 0B88     	 ldrh r3,[r1]
 451 0572 9D49     	 ldr r1,.L5+80
 452 0574 07EE903A 	 fmsr s15,r3
 453 0578 F8EE677A 	 fuitos s15,s15
 454 057c 0968     	 ldr r1,[r1]
 455 057e 67EE887A 	 fmuls s15,s15,s16
 456 0582 17EE903A 	 fmrs r3,s15
 457 0586 C4F83F30 	 str r3,[r4,#63]
 458 058a 0B88     	 ldrh r3,[r1]
 459 058c 9749     	 ldr r1,.L5+84
 460 058e 07EE103A 	 fmsr s14,r3
 461 0592 B8EE477A 	 fuitos s14,s14
 462 0596 0968     	 ldr r1,[r1]
 463 0598 27EE267A 	 fmuls s14,s14,s13
 464 059c 17EE103A 	 fmrs r3,s14
 465 05a0 C4F84330 	 str r3,[r4,#67]
 466 05a4 0B88     	 ldrh r3,[r1]
 467 05a6 9249     	 ldr r1,.L5+88
 468 05a8 9FED927A 	 flds s14,.L5+92
 469 05ac 0968     	 ldr r1,[r1]
 470 05ae 07EE903A 	 fmsr s15,r3
 471 05b2 F8EE677A 	 fuitos s15,s15
 472 05b6 67EEA67A 	 fmuls s15,s15,s13
 473 05ba DFED8F6A 	 flds s13,.L5+96
 474 05be 17EE903A 	 fmrs r3,s15
 475 05c2 C4F84730 	 str r3,[r4,#71]
 476 05c6 0B88     	 ldrh r3,[r1]
 477 05c8 8C49     	 ldr r1,.L5+100
 478 05ca 07EE903A 	 fmsr s15,r3
 479 05ce F8EE677A 	 fuitos s15,s15
 480 05d2 0968     	 ldr r1,[r1]
 481 05d4 67EE887A 	 fmuls s15,s15,s16
 482 05d8 17EE903A 	 fmrs r3,s15
 483 05dc C4F84B30 	 str r3,[r4,#75]
 484 05e0 0B88     	 ldrh r3,[r1]
 485 05e2 029A     	 ldr r2,[sp,#8]
 486 05e4 07EE903A 	 fmsr s15,r3
 487 05e8 F8EE677A 	 fuitos s15,s15
 488 05ec 1268     	 ldr r2,[r2]
 489 05ee 67EE887A 	 fmuls s15,s15,s16
 490 05f2 17EE903A 	 fmrs r3,s15
 491 05f6 C4F84F30 	 str r3,[r4,#79]
 492 05fa 019B     	 ldr r3,[sp,#4]
 493 05fc 1278     	 ldrb r2,[r2]
 494 05fe 1B68     	 ldr r3,[r3]
 495 0600 84F85320 	 strb r2,[r4,#83]
 496 0604 1B78     	 ldrb r3,[r3]
 497 0606 07EE903A 	 fmsr s15,r3
 498 060a F8EE677A 	 fuitos s15,s15
 499 060e 67EE877A 	 fmuls s15,s15,s14
 500 0612 17EE903A 	 fmrs r3,s15
 501 0616 6365     	 str r3,[r4,#84]
 502 0618 DBF80030 	 ldr r3,[fp]
 503 061c DFF84CB2 	 ldr fp,.L5+212
 504 0620 1B78     	 ldrb r3,[r3]
 505 0622 84F85830 	 strb r3,[r4,#88]
 506 0626 DAF80030 	 ldr r3,[r10]
 507 062a DFF844A2 	 ldr r10,.L5+216
 508 062e 1B78     	 ldrb r3,[r3]
 509 0630 84F85930 	 strb r3,[r4,#89]
 510 0634 D9F80030 	 ldr r3,[r9]
 511 0638 DFF83892 	 ldr r9,.L5+220
 512 063c 1B78     	 ldrb r3,[r3]
 513 063e 07EE903A 	 fmsr s15,r3
 514 0642 F8EE677A 	 fuitos s15,s15
 515 0646 67EE887A 	 fmuls s15,s15,s16
 516 064a 17EE903A 	 fmrs r3,s15
 517 064e C4F85A30 	 str r3,[r4,#90]
 518 0652 D8F80030 	 ldr r3,[r8]
 519 0656 DFF82082 	 ldr r8,.L5+224
 520 065a 1B88     	 ldrh r3,[r3]
 521 065c 07EE103A 	 fmsr s14,r3
 522 0660 B8EE477A 	 fuitos s14,s14
 523 0664 27EE267A 	 fmuls s14,s14,s13
 524 0668 17EE103A 	 fmrs r3,s14
 525 066c C4F85E30 	 str r3,[r4,#94]
 526 0670 3B68     	 ldr r3,[r7]
 527 0672 634F     	 ldr r7,.L5+104
 528 0674 1B88     	 ldrh r3,[r3]
 529 0676 07EE103A 	 fmsr s14,r3
 530 067a B8EE477A 	 fuitos s14,s14
 531 067e 27EE267A 	 fmuls s14,s14,s13
 532 0682 17EE103A 	 fmrs r3,s14
 533 0686 C4F86230 	 str r3,[r4,#98]
 534 068a 3368     	 ldr r3,[r6]
 535 068c 5D4E     	 ldr r6,.L5+108
 536 068e 1B88     	 ldrh r3,[r3]
 537 0690 07EE103A 	 fmsr s14,r3
 538 0694 B8EE477A 	 fuitos s14,s14
 539 0698 27EE267A 	 fmuls s14,s14,s13
 540 069c 17EE103A 	 fmrs r3,s14
 541 06a0 C4F86630 	 str r3,[r4,#102]
 542 06a4 2B68     	 ldr r3,[r5]
 543 06a6 584D     	 ldr r5,.L5+112
 544 06a8 1B88     	 ldrh r3,[r3]
 545 06aa 07EE903A 	 fmsr s15,r3
 546 06ae F8EE677A 	 fuitos s15,s15
 547 06b2 67EEA67A 	 fmuls s15,s15,s13
 548 06b6 DFED556A 	 flds s13,.L5+116
 549 06ba 17EE903A 	 fmrs r3,s15
 550 06be C4F86A30 	 str r3,[r4,#106]
 551 06c2 534B     	 ldr r3,.L5+120
 552 06c4 1B68     	 ldr r3,[r3]
 553 06c6 1B88     	 ldrh r3,[r3]
 554 06c8 07EE103A 	 fmsr s14,r3
 555 06cc B8EE477A 	 fuitos s14,s14
 556 06d0 FBEE047A 	 fconsts s15,#180
 557 06d4 E7EE267A 	 vfma.f32 s15,s14,s13
 558 06d8 DFED4E6A 	 flds s13,.L5+124
 559 06dc 17EE903A 	 fmrs r3,s15
 560 06e0 C4F86E30 	 str r3,[r4,#110]
 561 06e4 4C4B     	 ldr r3,.L5+128
 562 06e6 DFED4D7A 	 flds s15,.L5+132
 563 06ea 1B68     	 ldr r3,[r3]
 564 06ec 1B88     	 ldrh r3,[r3]
 565 06ee 07EE103A 	 fmsr s14,r3
 566 06f2 B8EE477A 	 fuitos s14,s14
 567 06f6 B0EE676A 	 fcpys s12,s15
 568 06fa A7EE266A 	 vfma.f32 s12,s14,s13
 569 06fe 16EE103A 	 fmrs r3,s12
 570 0702 C4F87230 	 str r3,[r4,#114]
 571 0706 464B     	 ldr r3,.L5+136
 572 0708 1B68     	 ldr r3,[r3]
 573 070a 1B88     	 ldrh r3,[r3]
 574 070c 07EE103A 	 fmsr s14,r3
 575 0710 B8EE477A 	 fuitos s14,s14
 576 0714 E7EE267A 	 vfma.f32 s15,s14,s13
 577 0718 17EE903A 	 fmrs r3,s15
 578 071c C4F87630 	 str r3,[r4,#118]
 579 0720 404B     	 ldr r3,.L5+140
 580 0722 1A68     	 ldr r2,[r3]
 581 0724 404B     	 ldr r3,.L5+144
 582 0726 1078     	 ldrb r0,[r2]
 583 0728 1B68     	 ldr r3,[r3]
 584 072a 1978     	 ldrb r1,[r3]
 585 072c FFF7FEFF 	 bl shift
 586 0730 3E4B     	 ldr r3,.L5+148
 587 0732 1880     	 strh r0,[r3]
 588 0734 3E4B     	 ldr r3,.L5+152
 589 0736 1A68     	 ldr r2,[r3]
 590 0738 3E4B     	 ldr r3,.L5+156
 591 073a 1078     	 ldrb r0,[r2]
 592 073c 1B68     	 ldr r3,[r3]
 593 073e 1978     	 ldrb r1,[r3]
 594 0740 FFF7FEFF 	 bl shift
 595 0744 3C4B     	 ldr r3,.L5+160
 596 0746 1880     	 strh r0,[r3]
 597 0748 3C4B     	 ldr r3,.L5+164
 598 074a 1A68     	 ldr r2,[r3]
 599 074c 3C4B     	 ldr r3,.L5+168
 600 074e 1078     	 ldrb r0,[r2]
 601 0750 1B68     	 ldr r3,[r3]
 602 0752 1978     	 ldrb r1,[r3]
 603 0754 FFF7FEFF 	 bl shift
 604 0758 3A4B     	 ldr r3,.L5+172
 605 075a 1880     	 strh r0,[r3]
 606 075c 3A4B     	 ldr r3,.L5+176
 607 075e 1A68     	 ldr r2,[r3]
 608 0760 3A4B     	 ldr r3,.L5+180
 609 0762 1078     	 ldrb r0,[r2]
 610 0764 1B68     	 ldr r3,[r3]
 611 0766 1978     	 ldrb r1,[r3]
 612 0768 FFF7FEFF 	 bl shift
 613 076c 384B     	 ldr r3,.L5+184
 614 076e 1880     	 strh r0,[r3]
 615 0770 384B     	 ldr r3,.L5+188
 616 0772 1A68     	 ldr r2,[r3]
 617 0774 384B     	 ldr r3,.L5+192
 618 0776 1078     	 ldrb r0,[r2]
 619 0778 1B68     	 ldr r3,[r3]
 620 077a 1978     	 ldrb r1,[r3]
 621 077c FFF7FEFF 	 bl shift
 622 0780 364B     	 ldr r3,.L5+196
 623 0782 1880     	 strh r0,[r3]
 624 0784 364B     	 ldr r3,.L5+200
 625 0786 1A68     	 ldr r2,[r3]
 626 0788 364B     	 ldr r3,.L5+204
 627 078a 1078     	 ldrb r0,[r2]
 628 078c 1B68     	 ldr r3,[r3]
 629 078e 1978     	 ldrb r1,[r3]
 630 0790 FFF7FEFF 	 bl shift
 631 0794 72E0     	 b .L6
 632              	.L7:
 633 0796 00BF     	 .align 2
 634              	.L5:
 635 0798 00000000 	 .word .LANCHOR61
 636 079c 00000000 	 .word .LANCHOR62
 637 07a0 00000000 	 .word .LANCHOR63
 638 07a4 00000000 	 .word .LANCHOR64
 639 07a8 00000000 	 .word .LANCHOR65
 640 07ac 00000000 	 .word .LANCHOR66
 641 07b0 00000000 	 .word .LANCHOR67
 642 07b4 00000000 	 .word .LANCHOR68
 643 07b8 00000000 	 .word .LANCHOR69
 644 07bc B1FF153B 	 .word 991297457
 645 07c0 00000000 	 .word .LANCHOR70
 646 07c4 00000000 	 .word .LANCHOR71
 647 07c8 00000000 	 .word .LANCHOR72
 648 07cc 00000000 	 .word .LANCHOR73
 649 07d0 00000000 	 .word .LANCHOR74
 650 07d4 00000000 	 .word .LANCHOR75
 651 07d8 00000000 	 .word .LANCHOR76
 652 07dc 00000000 	 .word carData
 653 07e0 00000000 	 .word .LANCHOR77
 654 07e4 00000000 	 .word .LANCHOR78
 655 07e8 00000000 	 .word .LANCHOR79
 656 07ec 00000000 	 .word .LANCHOR80
 657 07f0 00000000 	 .word .LANCHOR81
 658 07f4 1F852B3F 	 .word 1059816735
 659 07f8 6666663D 	 .word 1030121062
 660 07fc 00000000 	 .word .LANCHOR82
 661 0800 00000000 	 .word .LANCHOR112
 662 0804 00000000 	 .word .LANCHOR113
 663 0808 00000000 	 .word .LANCHOR114
 664 080c DAAC7A3C 	 .word 1014672602
 665 0810 00000000 	 .word .LANCHOR83
 666 0814 FD600539 	 .word 956653821
 667 0818 00000000 	 .word .LANCHOR11
 668 081c 58A885C0 	 .word -1064982440
 669 0820 00000000 	 .word .LANCHOR12
 670 0824 00000000 	 .word .LANCHOR13
 671 0828 00000000 	 .word .LANCHOR14
 672 082c 00000000 	 .word .LANCHOR84
 673 0830 00000000 	 .word .LANCHOR15
 674 0834 00000000 	 .word .LANCHOR16
 675 0838 00000000 	 .word .LANCHOR85
 676 083c 00000000 	 .word .LANCHOR17
 677 0840 00000000 	 .word .LANCHOR18
 678 0844 00000000 	 .word .LANCHOR86
 679 0848 00000000 	 .word .LANCHOR19
 680 084c 00000000 	 .word .LANCHOR20
 681 0850 00000000 	 .word .LANCHOR87
 682 0854 00000000 	 .word .LANCHOR21
 683 0858 00000000 	 .word .LANCHOR22
 684 085c 00000000 	 .word .LANCHOR88
 685 0860 00000000 	 .word .LANCHOR23
 686 0864 00000000 	 .word .LANCHOR24
 687 0868 00000000 	 .word CAN_2_LMO_18_Config
 688 086c 00000000 	 .word .LANCHOR108
 689 0870 00000000 	 .word .LANCHOR109
 690 0874 00000000 	 .word .LANCHOR110
 691 0878 00000000 	 .word .LANCHOR111
 692              	.L6:
 693 087c 974B     	 ldr r3,.L8
 694 087e 1880     	 strh r0,[r3]
 695 0880 974B     	 ldr r3,.L8+4
 696 0882 1A68     	 ldr r2,[r3]
 697 0884 974B     	 ldr r3,.L8+8
 698 0886 1078     	 ldrb r0,[r2]
 699 0888 1B68     	 ldr r3,[r3]
 700 088a 1978     	 ldrb r1,[r3]
 701 088c FFF7FEFF 	 bl shift
 702 0890 954B     	 ldr r3,.L8+12
 703 0892 1880     	 strh r0,[r3]
 704 0894 954B     	 ldr r3,.L8+16
 705 0896 1A68     	 ldr r2,[r3]
 706 0898 954B     	 ldr r3,.L8+20
 707 089a 1078     	 ldrb r0,[r2]
 708 089c 1B68     	 ldr r3,[r3]
 709 089e 1978     	 ldrb r1,[r3]
 710 08a0 FFF7FEFF 	 bl shift
 711 08a4 934B     	 ldr r3,.L8+24
 712 08a6 1880     	 strh r0,[r3]
 713 08a8 934B     	 ldr r3,.L8+28
 714 08aa 1A68     	 ldr r2,[r3]
 715 08ac 934B     	 ldr r3,.L8+32
 716 08ae 1078     	 ldrb r0,[r2]
 717 08b0 1B68     	 ldr r3,[r3]
 718 08b2 1978     	 ldrb r1,[r3]
 719 08b4 FFF7FEFF 	 bl shift
 720 08b8 914B     	 ldr r3,.L8+36
 721 08ba 1880     	 strh r0,[r3]
 722 08bc 914B     	 ldr r3,.L8+40
 723 08be 1A68     	 ldr r2,[r3]
 724 08c0 914B     	 ldr r3,.L8+44
 725 08c2 1078     	 ldrb r0,[r2]
 726 08c4 1B68     	 ldr r3,[r3]
 727 08c6 1978     	 ldrb r1,[r3]
 728 08c8 FFF7FEFF 	 bl shift
 729 08cc 8F4B     	 ldr r3,.L8+48
 730 08ce 1880     	 strh r0,[r3]
 731 08d0 8F4B     	 ldr r3,.L8+52
 732 08d2 1A68     	 ldr r2,[r3]
 733 08d4 8F4B     	 ldr r3,.L8+56
 734 08d6 1078     	 ldrb r0,[r2]
 735 08d8 1B68     	 ldr r3,[r3]
 736 08da 1978     	 ldrb r1,[r3]
 737 08dc FFF7FEFF 	 bl shift
 738 08e0 8D4B     	 ldr r3,.L8+60
 739 08e2 1880     	 strh r0,[r3]
 740 08e4 8D4B     	 ldr r3,.L8+64
 741 08e6 1A68     	 ldr r2,[r3]
 742 08e8 8D4B     	 ldr r3,.L8+68
 743 08ea 1078     	 ldrb r0,[r2]
 744 08ec 1B68     	 ldr r3,[r3]
 745 08ee 1978     	 ldrb r1,[r3]
 746 08f0 FFF7FEFF 	 bl shift
 747 08f4 8B4B     	 ldr r3,.L8+72
 748 08f6 1880     	 strh r0,[r3]
 749 08f8 8B4B     	 ldr r3,.L8+76
 750 08fa 1A68     	 ldr r2,[r3]
 751 08fc 8B4B     	 ldr r3,.L8+80
 752 08fe 1078     	 ldrb r0,[r2]
 753 0900 1B68     	 ldr r3,[r3]
 754 0902 1978     	 ldrb r1,[r3]
 755 0904 FFF7FEFF 	 bl shift
 756 0908 894B     	 ldr r3,.L8+84
 757 090a 1880     	 strh r0,[r3]
 758 090c 894B     	 ldr r3,.L8+88
 759 090e 1A68     	 ldr r2,[r3]
 760 0910 894B     	 ldr r3,.L8+92
 761 0912 1078     	 ldrb r0,[r2]
 762 0914 1B68     	 ldr r3,[r3]
 763 0916 1978     	 ldrb r1,[r3]
 764 0918 FFF7FEFF 	 bl shift
 765 091c 874B     	 ldr r3,.L8+96
 766 091e 1880     	 strh r0,[r3]
 767 0920 874B     	 ldr r3,.L8+100
 768 0922 1A68     	 ldr r2,[r3]
 769 0924 874B     	 ldr r3,.L8+104
 770 0926 1078     	 ldrb r0,[r2]
 771 0928 1B68     	 ldr r3,[r3]
 772 092a 1978     	 ldrb r1,[r3]
 773 092c FFF7FEFF 	 bl shift
 774 0930 854B     	 ldr r3,.L8+108
 775 0932 1880     	 strh r0,[r3]
 776 0934 854B     	 ldr r3,.L8+112
 777 0936 1A68     	 ldr r2,[r3]
 778 0938 854B     	 ldr r3,.L8+116
 779 093a 1078     	 ldrb r0,[r2]
 780 093c 1B68     	 ldr r3,[r3]
 781 093e 1978     	 ldrb r1,[r3]
 782 0940 FFF7FEFF 	 bl shift
 783 0944 834B     	 ldr r3,.L8+120
 784 0946 1880     	 strh r0,[r3]
 785 0948 834B     	 ldr r3,.L8+124
 786 094a 1A68     	 ldr r2,[r3]
 787 094c 834B     	 ldr r3,.L8+128
 788 094e 1078     	 ldrb r0,[r2]
 789 0950 1B68     	 ldr r3,[r3]
 790 0952 1978     	 ldrb r1,[r3]
 791 0954 FFF7FEFF 	 bl shift
 792 0958 814B     	 ldr r3,.L8+132
 793 095a 1880     	 strh r0,[r3]
 794 095c 814B     	 ldr r3,.L8+136
 795 095e 1A68     	 ldr r2,[r3]
 796 0960 814B     	 ldr r3,.L8+140
 797 0962 1078     	 ldrb r0,[r2]
 798 0964 1B68     	 ldr r3,[r3]
 799 0966 1978     	 ldrb r1,[r3]
 800 0968 FFF7FEFF 	 bl shift
 801 096c 7F4B     	 ldr r3,.L8+144
 802 096e 1880     	 strh r0,[r3]
 803 0970 7F4B     	 ldr r3,.L8+148
 804 0972 1A68     	 ldr r2,[r3]
 805 0974 7F4B     	 ldr r3,.L8+152
 806 0976 1078     	 ldrb r0,[r2]
 807 0978 1B68     	 ldr r3,[r3]
 808 097a 1978     	 ldrb r1,[r3]
 809 097c FFF7FEFF 	 bl shift
 810 0980 7D4B     	 ldr r3,.L8+156
 811 0982 1880     	 strh r0,[r3]
 812 0984 7D4B     	 ldr r3,.L8+160
 813 0986 1A68     	 ldr r2,[r3]
 814 0988 7D4B     	 ldr r3,.L8+164
 815 098a 1078     	 ldrb r0,[r2]
 816 098c 1B68     	 ldr r3,[r3]
 817 098e 1978     	 ldrb r1,[r3]
 818 0990 FFF7FEFF 	 bl shift
 819 0994 7B4B     	 ldr r3,.L8+168
 820 0996 1880     	 strh r0,[r3]
 821 0998 7B4B     	 ldr r3,.L8+172
 822 099a 1A68     	 ldr r2,[r3]
 823 099c 7B4B     	 ldr r3,.L8+176
 824 099e 1078     	 ldrb r0,[r2]
 825 09a0 1B68     	 ldr r3,[r3]
 826 09a2 1978     	 ldrb r1,[r3]
 827 09a4 FFF7FEFF 	 bl shift
 828 09a8 794B     	 ldr r3,.L8+180
 829 09aa 1880     	 strh r0,[r3]
 830 09ac 794B     	 ldr r3,.L8+184
 831 09ae 1A68     	 ldr r2,[r3]
 832 09b0 794B     	 ldr r3,.L8+188
 833 09b2 1078     	 ldrb r0,[r2]
 834 09b4 1B68     	 ldr r3,[r3]
 835 09b6 1978     	 ldrb r1,[r3]
 836 09b8 FFF7FEFF 	 bl shift
 837 09bc 774B     	 ldr r3,.L8+192
 838 09be DFF848C2 	 ldr ip,.L8+300
 839 09c2 1A68     	 ldr r2,[r3]
 840 09c4 764B     	 ldr r3,.L8+196
 841 09c6 ACF80000 	 strh r0,[ip]
 842 09ca 1B68     	 ldr r3,[r3]
 843 09cc 1078     	 ldrb r0,[r2]
 844 09ce 1978     	 ldrb r1,[r3]
 845 09d0 CDF808C0 	 str ip,[sp,#8]
 846 09d4 FFF7FEFF 	 bl shift
 847 09d8 724B     	 ldr r3,.L8+200
 848 09da 734A     	 ldr r2,.L8+204
 849 09dc 1968     	 ldr r1,[r3]
 850 09de 734B     	 ldr r3,.L8+208
 851 09e0 1080     	 strh r0,[r2]
 852 09e2 1B68     	 ldr r3,[r3]
 853 09e4 0878     	 ldrb r0,[r1]
 854 09e6 1978     	 ldrb r1,[r3]
 855 09e8 0192     	 str r2,[sp,#4]
 856 09ea FFF7FEFF 	 bl shift
 857 09ee 704B     	 ldr r3,.L8+212
 858 09f0 0093     	 str r3,[sp]
 859 09f2 1880     	 strh r0,[r3]
 860 09f4 6F4B     	 ldr r3,.L8+216
 861 09f6 1868     	 ldr r0,[r3]
 862 09f8 6F4B     	 ldr r3,.L8+220
 863 09fa 0078     	 ldrb r0,[r0]
 864 09fc 1968     	 ldr r1,[r3]
 865 09fe 0978     	 ldrb r1,[r1]
 866 0a00 FFF7FEFF 	 bl shift
 867 0a04 6D4B     	 ldr r3,.L8+224
 868 0a06 ABF80000 	 strh r0,[fp]
 869 0a0a 1868     	 ldr r0,[r3]
 870 0a0c 6C4B     	 ldr r3,.L8+228
 871 0a0e 0078     	 ldrb r0,[r0]
 872 0a10 1968     	 ldr r1,[r3]
 873 0a12 0978     	 ldrb r1,[r1]
 874 0a14 FFF7FEFF 	 bl shift
 875 0a18 6A4B     	 ldr r3,.L8+232
 876 0a1a AAF80000 	 strh r0,[r10]
 877 0a1e 1868     	 ldr r0,[r3]
 878 0a20 694B     	 ldr r3,.L8+236
 879 0a22 0078     	 ldrb r0,[r0]
 880 0a24 1968     	 ldr r1,[r3]
 881 0a26 0978     	 ldrb r1,[r1]
 882 0a28 FFF7FEFF 	 bl shift
 883 0a2c 674B     	 ldr r3,.L8+240
 884 0a2e A9F80000 	 strh r0,[r9]
 885 0a32 1868     	 ldr r0,[r3]
 886 0a34 664B     	 ldr r3,.L8+244
 887 0a36 0078     	 ldrb r0,[r0]
 888 0a38 1968     	 ldr r1,[r3]
 889 0a3a 0978     	 ldrb r1,[r1]
 890 0a3c FFF7FEFF 	 bl shift
 891 0a40 644B     	 ldr r3,.L8+248
 892 0a42 A8F80000 	 strh r0,[r8]
 893 0a46 1868     	 ldr r0,[r3]
 894 0a48 634B     	 ldr r3,.L8+252
 895 0a4a 0078     	 ldrb r0,[r0]
 896 0a4c 1968     	 ldr r1,[r3]
 897 0a4e 0978     	 ldrb r1,[r1]
 898 0a50 FFF7FEFF 	 bl shift
 899 0a54 614B     	 ldr r3,.L8+256
 900 0a56 3880     	 strh r0,[r7]
 901 0a58 1868     	 ldr r0,[r3]
 902 0a5a 614B     	 ldr r3,.L8+260
 903 0a5c 0078     	 ldrb r0,[r0]
 904 0a5e 1968     	 ldr r1,[r3]
 905 0a60 0978     	 ldrb r1,[r1]
 906 0a62 FFF7FEFF 	 bl shift
 907 0a66 5F4B     	 ldr r3,.L8+264
 908 0a68 3080     	 strh r0,[r6]
 909 0a6a 1868     	 ldr r0,[r3]
 910 0a6c 5E4B     	 ldr r3,.L8+268
 911 0a6e 0078     	 ldrb r0,[r0]
 912 0a70 1968     	 ldr r1,[r3]
 913 0a72 0978     	 ldrb r1,[r1]
 914 0a74 FFF7FEFF 	 bl shift
 915 0a78 5C4B     	 ldr r3,.L8+272
 916 0a7a 2880     	 strh r0,[r5]
 917 0a7c 1868     	 ldr r0,[r3]
 918 0a7e 5C4B     	 ldr r3,.L8+276
 919 0a80 0078     	 ldrb r0,[r0]
 920 0a82 1968     	 ldr r1,[r3]
 921 0a84 0978     	 ldrb r1,[r1]
 922 0a86 FFF7FEFF 	 bl shift
 923 0a8a 5A4B     	 ldr r3,.L8+280
 924 0a8c DFED5A7A 	 flds s15,.L8+284
 925 0a90 1B88     	 ldrh r3,[r3]
 926 0a92 5A49     	 ldr r1,.L8+288
 927 0a94 07EE103A 	 fmsr s14,r3
 928 0a98 B8EE477A 	 fuitos s14,s14
 929 0a9c F0EE676A 	 fcpys s13,s15
 930 0aa0 E7EE086A 	 vfma.f32 s13,s14,s16
 931 0aa4 564B     	 ldr r3,.L8+292
 932 0aa6 1B88     	 ldrh r3,[r3]
 933 0aa8 BCEEE67A 	 ftouizs s14,s13
 934 0aac 80B2     	 uxth r0,r0
 935 0aae 0880     	 strh r0,[r1]
 936 0ab0 17EE101A 	 fmrs r1,s14
 937 0ab4 07EE103A 	 fmsr s14,r3
 938 0ab8 B8EE477A 	 fuitos s14,s14
 939 0abc F0EE676A 	 fcpys s13,s15
 940 0ac0 E7EE086A 	 vfma.f32 s13,s14,s16
 941 0ac4 4F4B     	 ldr r3,.L8+296
 942 0ac6 A4F87A10 	 strh r1,[r4,#122]
 943 0aca 1B88     	 ldrh r3,[r3]
 944 0acc BCEEE67A 	 ftouizs s14,s13
 945 0ad0 F0EE676A 	 fcpys s13,s15
 946 0ad4 17EE101A 	 fmrs r1,s14
 947 0ad8 98E0     	 b .L9
 948              	.L10:
 949 0ada 00BF     	 .align 2
 950              	.L8:
 951 0adc 00000000 	 .word .LANCHOR89
 952 0ae0 00000000 	 .word .LANCHOR25
 953 0ae4 00000000 	 .word .LANCHOR26
 954 0ae8 00000000 	 .word .LANCHOR90
 955 0aec 00000000 	 .word .LANCHOR27
 956 0af0 00000000 	 .word .LANCHOR28
 957 0af4 00000000 	 .word .LANCHOR91
 958 0af8 00000000 	 .word .LANCHOR29
 959 0afc 00000000 	 .word .LANCHOR30
 960 0b00 00000000 	 .word .LANCHOR92
 961 0b04 00000000 	 .word .LANCHOR31
 962 0b08 00000000 	 .word .LANCHOR32
 963 0b0c 00000000 	 .word .LANCHOR93
 964 0b10 00000000 	 .word .LANCHOR33
 965 0b14 00000000 	 .word .LANCHOR34
 966 0b18 00000000 	 .word .LANCHOR94
 967 0b1c 00000000 	 .word .LANCHOR35
 968 0b20 00000000 	 .word .LANCHOR36
 969 0b24 00000000 	 .word .LANCHOR95
 970 0b28 00000000 	 .word .LANCHOR37
 971 0b2c 00000000 	 .word .LANCHOR38
 972 0b30 00000000 	 .word .LANCHOR96
 973 0b34 00000000 	 .word .LANCHOR39
 974 0b38 00000000 	 .word .LANCHOR40
 975 0b3c 00000000 	 .word .LANCHOR97
 976 0b40 00000000 	 .word .LANCHOR41
 977 0b44 00000000 	 .word .LANCHOR42
 978 0b48 00000000 	 .word .LANCHOR98
 979 0b4c 00000000 	 .word .LANCHOR43
 980 0b50 00000000 	 .word .LANCHOR44
 981 0b54 00000000 	 .word .LANCHOR99
 982 0b58 00000000 	 .word .LANCHOR45
 983 0b5c 00000000 	 .word .LANCHOR46
 984 0b60 00000000 	 .word .LANCHOR100
 985 0b64 00000000 	 .word .LANCHOR47
 986 0b68 00000000 	 .word .LANCHOR48
 987 0b6c 00000000 	 .word .LANCHOR101
 988 0b70 00000000 	 .word .LANCHOR49
 989 0b74 00000000 	 .word .LANCHOR50
 990 0b78 00000000 	 .word .LANCHOR102
 991 0b7c 00000000 	 .word .LANCHOR51
 992 0b80 00000000 	 .word .LANCHOR52
 993 0b84 00000000 	 .word .LANCHOR103
 994 0b88 00000000 	 .word .LANCHOR53
 995 0b8c 00000000 	 .word .LANCHOR54
 996 0b90 00000000 	 .word .LANCHOR104
 997 0b94 00000000 	 .word .LANCHOR55
 998 0b98 00000000 	 .word .LANCHOR56
 999 0b9c 00000000 	 .word .LANCHOR57
 1000 0ba0 00000000 	 .word .LANCHOR58
 1001 0ba4 00000000 	 .word .LANCHOR59
 1002 0ba8 00000000 	 .word .LANCHOR106
 1003 0bac 00000000 	 .word .LANCHOR60
 1004 0bb0 00000000 	 .word .LANCHOR107
 1005 0bb4 00000000 	 .word .LANCHOR61
 1006 0bb8 00000000 	 .word .LANCHOR62
 1007 0bbc 00000000 	 .word .LANCHOR63
 1008 0bc0 00000000 	 .word .LANCHOR64
 1009 0bc4 00000000 	 .word .LANCHOR65
 1010 0bc8 00000000 	 .word .LANCHOR66
 1011 0bcc 00000000 	 .word .LANCHOR67
 1012 0bd0 00000000 	 .word .LANCHOR68
 1013 0bd4 00000000 	 .word .LANCHOR69
 1014 0bd8 00000000 	 .word .LANCHOR70
 1015 0bdc 00000000 	 .word .LANCHOR71
 1016 0be0 00000000 	 .word .LANCHOR72
 1017 0be4 00000000 	 .word .LANCHOR73
 1018 0be8 00000000 	 .word .LANCHOR74
 1019 0bec 00000000 	 .word .LANCHOR75
 1020 0bf0 00000000 	 .word .LANCHOR76
 1021 0bf4 00000000 	 .word .LANCHOR84
 1022 0bf8 0000C8C2 	 .word -1027080192
 1023 0bfc 00000000 	 .word .LANCHOR115
 1024 0c00 00000000 	 .word .LANCHOR85
 1025 0c04 00000000 	 .word .LANCHOR86
 1026 0c08 00000000 	 .word .LANCHOR105
 1027              	.L9:
 1028 0c0c 07EE103A 	 fmsr s14,r3
 1029 0c10 B8EE477A 	 fuitos s14,s14
 1030 0c14 E84B     	 ldr r3,.L11
 1031 0c16 A4F87C10 	 strh r1,[r4,#124]
 1032 0c1a E7EE086A 	 vfma.f32 s13,s14,s16
 1033 0c1e 1B88     	 ldrh r3,[r3]
 1034 0c20 BCEEE67A 	 ftouizs s14,s13
 1035 0c24 F0EE676A 	 fcpys s13,s15
 1036 0c28 17EE101A 	 fmrs r1,s14
 1037 0c2c 07EE103A 	 fmsr s14,r3
 1038 0c30 B8EE477A 	 fuitos s14,s14
 1039 0c34 E14B     	 ldr r3,.L11+4
 1040 0c36 A4F87E10 	 strh r1,[r4,#126]
 1041 0c3a E7EE086A 	 vfma.f32 s13,s14,s16
 1042 0c3e 1B88     	 ldrh r3,[r3]
 1043 0c40 BCEEE67A 	 ftouizs s14,s13
 1044 0c44 F0EE676A 	 fcpys s13,s15
 1045 0c48 17EE101A 	 fmrs r1,s14
 1046 0c4c 07EE103A 	 fmsr s14,r3
 1047 0c50 B8EE477A 	 fuitos s14,s14
 1048 0c54 DA4B     	 ldr r3,.L11+8
 1049 0c56 A4F88010 	 strh r1,[r4,#128]
 1050 0c5a E7EE086A 	 vfma.f32 s13,s14,s16
 1051 0c5e 1B88     	 ldrh r3,[r3]
 1052 0c60 BCEEE67A 	 ftouizs s14,s13
 1053 0c64 F0EE676A 	 fcpys s13,s15
 1054 0c68 17EE101A 	 fmrs r1,s14
 1055 0c6c 07EE103A 	 fmsr s14,r3
 1056 0c70 B8EE477A 	 fuitos s14,s14
 1057 0c74 D34B     	 ldr r3,.L11+12
 1058 0c76 A4F88210 	 strh r1,[r4,#130]
 1059 0c7a E7EE086A 	 vfma.f32 s13,s14,s16
 1060 0c7e 1B88     	 ldrh r3,[r3]
 1061 0c80 BCEEE67A 	 ftouizs s14,s13
 1062 0c84 F0EE676A 	 fcpys s13,s15
 1063 0c88 17EE101A 	 fmrs r1,s14
 1064 0c8c 07EE103A 	 fmsr s14,r3
 1065 0c90 B8EE477A 	 fuitos s14,s14
 1066 0c94 CC4B     	 ldr r3,.L11+16
 1067 0c96 A4F88410 	 strh r1,[r4,#132]
 1068 0c9a E7EE086A 	 vfma.f32 s13,s14,s16
 1069 0c9e 1B88     	 ldrh r3,[r3]
 1070 0ca0 BCEEE67A 	 ftouizs s14,s13
 1071 0ca4 F0EE676A 	 fcpys s13,s15
 1072 0ca8 17EE101A 	 fmrs r1,s14
 1073 0cac 07EE103A 	 fmsr s14,r3
 1074 0cb0 B8EE477A 	 fuitos s14,s14
 1075 0cb4 C54B     	 ldr r3,.L11+20
 1076 0cb6 A4F88610 	 strh r1,[r4,#134]
 1077 0cba E7EE086A 	 vfma.f32 s13,s14,s16
 1078 0cbe 1B88     	 ldrh r3,[r3]
 1079 0cc0 BCEEE67A 	 ftouizs s14,s13
 1080 0cc4 F0EE676A 	 fcpys s13,s15
 1081 0cc8 17EE101A 	 fmrs r1,s14
 1082 0ccc 07EE103A 	 fmsr s14,r3
 1083 0cd0 B8EE477A 	 fuitos s14,s14
 1084 0cd4 BE4B     	 ldr r3,.L11+24
 1085 0cd6 A4F88810 	 strh r1,[r4,#136]
 1086 0cda E7EE086A 	 vfma.f32 s13,s14,s16
 1087 0cde 1B88     	 ldrh r3,[r3]
 1088 0ce0 BCEEE67A 	 ftouizs s14,s13
 1089 0ce4 F0EE676A 	 fcpys s13,s15
 1090 0ce8 17EE101A 	 fmrs r1,s14
 1091 0cec 07EE103A 	 fmsr s14,r3
 1092 0cf0 B8EE477A 	 fuitos s14,s14
 1093 0cf4 B74B     	 ldr r3,.L11+28
 1094 0cf6 A4F88A10 	 strh r1,[r4,#138]
 1095 0cfa E7EE086A 	 vfma.f32 s13,s14,s16
 1096 0cfe 1B88     	 ldrh r3,[r3]
 1097 0d00 BCEEE67A 	 ftouizs s14,s13
 1098 0d04 F0EE676A 	 fcpys s13,s15
 1099 0d08 17EE101A 	 fmrs r1,s14
 1100 0d0c 07EE103A 	 fmsr s14,r3
 1101 0d10 B8EE477A 	 fuitos s14,s14
 1102 0d14 B04B     	 ldr r3,.L11+32
 1103 0d16 A4F88C10 	 strh r1,[r4,#140]
 1104 0d1a E7EE086A 	 vfma.f32 s13,s14,s16
 1105 0d1e 1B88     	 ldrh r3,[r3]
 1106 0d20 BCEEE67A 	 ftouizs s14,s13
 1107 0d24 F0EE676A 	 fcpys s13,s15
 1108 0d28 17EE101A 	 fmrs r1,s14
 1109 0d2c 07EE103A 	 fmsr s14,r3
 1110 0d30 B8EE477A 	 fuitos s14,s14
 1111 0d34 A94B     	 ldr r3,.L11+36
 1112 0d36 A4F88E10 	 strh r1,[r4,#142]
 1113 0d3a E7EE086A 	 vfma.f32 s13,s14,s16
 1114 0d3e 1B88     	 ldrh r3,[r3]
 1115 0d40 BCEEE67A 	 ftouizs s14,s13
 1116 0d44 F0EE676A 	 fcpys s13,s15
 1117 0d48 17EE101A 	 fmrs r1,s14
 1118 0d4c 07EE103A 	 fmsr s14,r3
 1119 0d50 B8EE477A 	 fuitos s14,s14
 1120 0d54 A24B     	 ldr r3,.L11+40
 1121 0d56 A4F89010 	 strh r1,[r4,#144]
 1122 0d5a E7EE086A 	 vfma.f32 s13,s14,s16
 1123 0d5e 1B88     	 ldrh r3,[r3]
 1124 0d60 BCEEE67A 	 ftouizs s14,s13
 1125 0d64 F0EE676A 	 fcpys s13,s15
 1126 0d68 17EE101A 	 fmrs r1,s14
 1127 0d6c 07EE103A 	 fmsr s14,r3
 1128 0d70 B8EE477A 	 fuitos s14,s14
 1129 0d74 9B4B     	 ldr r3,.L11+44
 1130 0d76 A4F89210 	 strh r1,[r4,#146]
 1131 0d7a E7EE086A 	 vfma.f32 s13,s14,s16
 1132 0d7e 1B88     	 ldrh r3,[r3]
 1133 0d80 BCEEE67A 	 ftouizs s14,s13
 1134 0d84 F0EE676A 	 fcpys s13,s15
 1135 0d88 17EE101A 	 fmrs r1,s14
 1136 0d8c 07EE103A 	 fmsr s14,r3
 1137 0d90 B8EE477A 	 fuitos s14,s14
 1138 0d94 944B     	 ldr r3,.L11+48
 1139 0d96 A4F89410 	 strh r1,[r4,#148]
 1140 0d9a E7EE086A 	 vfma.f32 s13,s14,s16
 1141 0d9e 1B88     	 ldrh r3,[r3]
 1142 0da0 BCEEE67A 	 ftouizs s14,s13
 1143 0da4 F0EE676A 	 fcpys s13,s15
 1144 0da8 17EE101A 	 fmrs r1,s14
 1145 0dac 07EE103A 	 fmsr s14,r3
 1146 0db0 B8EE477A 	 fuitos s14,s14
 1147 0db4 A4F89610 	 strh r1,[r4,#150]
 1148 0db8 E7EE086A 	 vfma.f32 s13,s14,s16
 1149 0dbc 8B4B     	 ldr r3,.L11+52
 1150 0dbe BCEEE67A 	 ftouizs s14,s13
 1151 0dc2 F0EE676A 	 fcpys s13,s15
 1152 0dc6 17EE101A 	 fmrs r1,s14
 1153 0dca A4F89810 	 strh r1,[r4,#152]
 1154 0dce 1B88     	 ldrh r3,[r3]
 1155 0dd0 DDF808C0 	 ldr ip,[sp,#8]
 1156 0dd4 019A     	 ldr r2,[sp,#4]
 1157 0dd6 07EE103A 	 fmsr s14,r3
 1158 0dda B8EE477A 	 fuitos s14,s14
 1159 0dde 844B     	 ldr r3,.L11+56
 1160 0de0 E7EE086A 	 vfma.f32 s13,s14,s16
 1161 0de4 1B88     	 ldrh r3,[r3]
 1162 0de6 BCEEE67A 	 ftouizs s14,s13
 1163 0dea F0EE676A 	 fcpys s13,s15
 1164 0dee 17EE101A 	 fmrs r1,s14
 1165 0df2 07EE103A 	 fmsr s14,r3
 1166 0df6 B8EE477A 	 fuitos s14,s14
 1167 0dfa 7E4B     	 ldr r3,.L11+60
 1168 0dfc A4F89A10 	 strh r1,[r4,#154]
 1169 0e00 E7EE086A 	 vfma.f32 s13,s14,s16
 1170 0e04 1B88     	 ldrh r3,[r3]
 1171 0e06 BCEEE67A 	 ftouizs s14,s13
 1172 0e0a F0EE676A 	 fcpys s13,s15
 1173 0e0e 17EE101A 	 fmrs r1,s14
 1174 0e12 07EE103A 	 fmsr s14,r3
 1175 0e16 B8EE477A 	 fuitos s14,s14
 1176 0e1a 774B     	 ldr r3,.L11+64
 1177 0e1c A4F89C10 	 strh r1,[r4,#156]
 1178 0e20 E7EE086A 	 vfma.f32 s13,s14,s16
 1179 0e24 1B88     	 ldrh r3,[r3]
 1180 0e26 BCEEE67A 	 ftouizs s14,s13
 1181 0e2a F0EE676A 	 fcpys s13,s15
 1182 0e2e 17EE101A 	 fmrs r1,s14
 1183 0e32 07EE103A 	 fmsr s14,r3
 1184 0e36 B8EE477A 	 fuitos s14,s14
 1185 0e3a 704B     	 ldr r3,.L11+68
 1186 0e3c A4F89E10 	 strh r1,[r4,#158]
 1187 0e40 E7EE086A 	 vfma.f32 s13,s14,s16
 1188 0e44 1B88     	 ldrh r3,[r3]
 1189 0e46 BCEEE67A 	 ftouizs s14,s13
 1190 0e4a F0EE676A 	 fcpys s13,s15
 1191 0e4e 17EE101A 	 fmrs r1,s14
 1192 0e52 07EE103A 	 fmsr s14,r3
 1193 0e56 B8EE477A 	 fuitos s14,s14
 1194 0e5a BCF80030 	 ldrh r3,[ip]
 1195 0e5e A4F8A010 	 strh r1,[r4,#160]
 1196 0e62 E7EE086A 	 vfma.f32 s13,s14,s16
 1197 0e66 BCEEE67A 	 ftouizs s14,s13
 1198 0e6a F0EE676A 	 fcpys s13,s15
 1199 0e6e 17EE101A 	 fmrs r1,s14
 1200 0e72 07EE103A 	 fmsr s14,r3
 1201 0e76 B8EE477A 	 fuitos s14,s14
 1202 0e7a 1388     	 ldrh r3,[r2]
 1203 0e7c A4F8A210 	 strh r1,[r4,#162]
 1204 0e80 E7EE086A 	 vfma.f32 s13,s14,s16
 1205 0e84 BCEEE67A 	 ftouizs s14,s13
 1206 0e88 F0EE676A 	 fcpys s13,s15
 1207 0e8c 17EE101A 	 fmrs r1,s14
 1208 0e90 07EE103A 	 fmsr s14,r3
 1209 0e94 B8EE477A 	 fuitos s14,s14
 1210 0e98 009B     	 ldr r3,[sp]
 1211 0e9a A4F8A410 	 strh r1,[r4,#164]
 1212 0e9e E7EE086A 	 vfma.f32 s13,s14,s16
 1213 0ea2 1B88     	 ldrh r3,[r3]
 1214 0ea4 BCEEE67A 	 ftouizs s14,s13
 1215 0ea8 F0EE676A 	 fcpys s13,s15
 1216 0eac 17EE102A 	 fmrs r2,s14
 1217 0eb0 07EE103A 	 fmsr s14,r3
 1218 0eb4 B8EE477A 	 fuitos s14,s14
 1219 0eb8 A4F8A620 	 strh r2,[r4,#166]
 1220 0ebc E7EE086A 	 vfma.f32 s13,s14,s16
 1221 0ec0 BCEEE67A 	 ftouizs s14,s13
 1222 0ec4 F0EE676A 	 fcpys s13,s15
 1223 0ec8 17EE103A 	 fmrs r3,s14
 1224 0ecc A4F8A830 	 strh r3,[r4,#168]
 1225 0ed0 BBF80030 	 ldrh r3,[fp]
 1226 0ed4 07EE103A 	 fmsr s14,r3
 1227 0ed8 B8EE477A 	 fuitos s14,s14
 1228 0edc E7EE086A 	 vfma.f32 s13,s14,s16
 1229 0ee0 BCEEE67A 	 ftouizs s14,s13
 1230 0ee4 F0EE676A 	 fcpys s13,s15
 1231 0ee8 17EE103A 	 fmrs r3,s14
 1232 0eec A4F8AA30 	 strh r3,[r4,#170]
 1233 0ef0 BAF80030 	 ldrh r3,[r10]
 1234 0ef4 07EE103A 	 fmsr s14,r3
 1235 0ef8 B8EE477A 	 fuitos s14,s14
 1236 0efc E7EE086A 	 vfma.f32 s13,s14,s16
 1237 0f00 BCEEE67A 	 ftouizs s14,s13
 1238 0f04 F0EE676A 	 fcpys s13,s15
 1239 0f08 17EE103A 	 fmrs r3,s14
 1240 0f0c A4F8AC30 	 strh r3,[r4,#172]
 1241 0f10 B9F80030 	 ldrh r3,[r9]
 1242 0f14 07EE103A 	 fmsr s14,r3
 1243 0f18 B8EE477A 	 fuitos s14,s14
 1244 0f1c E7EE086A 	 vfma.f32 s13,s14,s16
 1245 0f20 BCEEE67A 	 ftouizs s14,s13
 1246 0f24 F0EE676A 	 fcpys s13,s15
 1247 0f28 17EE103A 	 fmrs r3,s14
 1248 0f2c A4F8AE30 	 strh r3,[r4,#174]
 1249 0f30 B8F80030 	 ldrh r3,[r8]
 1250 0f34 07EE103A 	 fmsr s14,r3
 1251 0f38 B8EE477A 	 fuitos s14,s14
 1252 0f3c E7EE086A 	 vfma.f32 s13,s14,s16
 1253 0f40 BCEEE67A 	 ftouizs s14,s13
 1254 0f44 F0EE676A 	 fcpys s13,s15
 1255 0f48 17EE103A 	 fmrs r3,s14
 1256 0f4c A4F8B030 	 strh r3,[r4,#176]
 1257 0f50 3B88     	 ldrh r3,[r7]
 1258 0f52 07EE103A 	 fmsr s14,r3
 1259 0f56 B8EE477A 	 fuitos s14,s14
 1260 0f5a E7EE086A 	 vfma.f32 s13,s14,s16
 1261 0f5e BCEEE67A 	 ftouizs s14,s13
 1262 0f62 F0EE676A 	 fcpys s13,s15
 1263 0f66 17EE103A 	 fmrs r3,s14
 1264 0f6a A4F8B230 	 strh r3,[r4,#178]
 1265 0f6e 3388     	 ldrh r3,[r6]
 1266 0f70 07EE103A 	 fmsr s14,r3
 1267 0f74 B8EE477A 	 fuitos s14,s14
 1268 0f78 E7EE086A 	 vfma.f32 s13,s14,s16
 1269 0f7c BCEEE67A 	 ftouizs s14,s13
 1270 0f80 F0EE676A 	 fcpys s13,s15
 1271 0f84 17EE103A 	 fmrs r3,s14
 1272 0f88 A4F8B430 	 strh r3,[r4,#180]
 1273 0f8c 2B88     	 ldrh r3,[r5]
 1274 0f8e 07EE103A 	 fmsr s14,r3
 1275 0f92 B8EE477A 	 fuitos s14,s14
 1276 0f96 E7EE086A 	 vfma.f32 s13,s14,s16
 1277 0f9a BCEEE67A 	 ftouizs s14,s13
 1278 0f9e 17EE103A 	 fmrs r3,s14
 1279 0fa2 07EE100A 	 fmsr s14,r0
 1280 0fa6 B8EE477A 	 fuitos s14,s14
 1281 0faa A4F8B630 	 strh r3,[r4,#182]
 1282 0fae E7EE087A 	 vfma.f32 s15,s14,s16
 1283 0fb2 FCEEE77A 	 ftouizs s15,s15
 1284 0fb6 23E0     	 b .L12
 1285              	.L13:
 1286              	 .align 2
 1287              	.L11:
 1288 0fb8 00000000 	 .word .LANCHOR87
 1289 0fbc 00000000 	 .word .LANCHOR88
 1290 0fc0 00000000 	 .word .LANCHOR89
 1291 0fc4 00000000 	 .word .LANCHOR90
 1292 0fc8 00000000 	 .word .LANCHOR91
 1293 0fcc 00000000 	 .word .LANCHOR92
 1294 0fd0 00000000 	 .word .LANCHOR93
 1295 0fd4 00000000 	 .word .LANCHOR94
 1296 0fd8 00000000 	 .word .LANCHOR95
 1297 0fdc 00000000 	 .word .LANCHOR96
 1298 0fe0 00000000 	 .word .LANCHOR97
 1299 0fe4 00000000 	 .word .LANCHOR98
 1300 0fe8 00000000 	 .word .LANCHOR99
 1301 0fec 00000000 	 .word .LANCHOR100
 1302 0ff0 00000000 	 .word .LANCHOR101
 1303 0ff4 00000000 	 .word .LANCHOR102
 1304 0ff8 00000000 	 .word .LANCHOR103
 1305 0ffc 00000000 	 .word .LANCHOR104
 1306              	.L12:
 1307 1000 17EE903A 	 fmrs r3,s15
 1308 1004 A4F8B830 	 strh r3,[r4,#184]
 1309 1008 05B0     	 add sp,sp,#20
 1310              	 
 1311 100a BDEC028B 	 fldmfdd sp!,{d8}
 1312 100e BDE8F08F 	 pop {r4,r5,r6,r7,r8,r9,r10,fp,pc}
 1314              	 .global t_tyre_RR_8
 1315              	 .global t_tyre_RR_7
 1316              	 .global t_tyre_RR_6
 1317              	 .global t_tyre_RR_5
 1318              	 .global t_tyre_RR_4
 1319              	 .global t_tyre_RR_3
 1320              	 .global t_tyre_RR_2
 1321              	 .global t_tyre_RR_1
 1322              	 .global t_tyre_RL_8
 1323              	 .global t_tyre_RL_7
 1324              	 .global t_tyre_RL_6
 1325              	 .global t_tyre_RL_5
 1326              	 .global t_tyre_RL_4
 1327              	 .global t_tyre_RL_3
 1328              	 .global t_tyre_RL_2
 1329              	 .global t_tyre_RL_1
 1330              	 .global t_tyre_FR_8
 1331              	 .global t_tyre_FR_7
 1332              	 .global t_tyre_FR_6
 1333              	 .global t_tyre_FR_5
 1334              	 .global t_tyre_FR_4
 1335              	 .global t_tyre_FR_3
 1336              	 .global t_tyre_FR_2
 1337              	 .global t_tyre_FR_1
 1338              	 .global t_tyre_FL_8
 1339              	 .global t_tyre_FL_7
 1340              	 .global t_tyre_FL_6
 1341              	 .global t_tyre_FL_5
 1342              	 .global t_tyre_FL_4
 1343              	 .global t_tyre_FL_3
 1344              	 .global t_tyre_FL_2
 1345              	 .global t_tyre_FL_1
 1346              	 .global t_tyre_RR_8_LSB
 1347              	 .global t_tyre_RR_8_MSB
 1348              	 .global t_tyre_RR_7_LSB
 1349              	 .global t_tyre_RR_7_MSB
 1350              	 .global t_tyre_RR_6_LSB
 1351              	 .global t_tyre_RR_6_MSB
 1352              	 .global t_tyre_RR_5_LSB
 1353              	 .global t_tyre_RR_5_MSB
 1354              	 .global t_tyre_RR_4_LSB
 1355              	 .global t_tyre_RR_4_MSB
 1356              	 .global t_tyre_RR_3_LSB
 1357              	 .global t_tyre_RR_3_MSB
 1358              	 .global t_tyre_RR_2_LSB
 1359              	 .global t_tyre_RR_2_MSB
 1360              	 .global t_tyre_RR_1_LSB
 1361              	 .global t_tyre_RR_1_MSB
 1362              	 .global t_tyre_RL_8_LSB
 1363              	 .global t_tyre_RL_8_MSB
 1364              	 .global t_tyre_RL_7_LSB
 1365              	 .global t_tyre_RL_7_MSB
 1366              	 .global t_tyre_RL_6_LSB
 1367              	 .global t_tyre_RL_6_MSB
 1368              	 .global t_tyre_RL_5_LSB
 1369              	 .global t_tyre_RL_5_MSB
 1370              	 .global t_tyre_RL_4_LSB
 1371              	 .global t_tyre_RL_4_MSB
 1372              	 .global t_tyre_RL_3_LSB
 1373              	 .global t_tyre_RL_3_MSB
 1374              	 .global t_tyre_RL_2_LSB
 1375              	 .global t_tyre_RL_2_MSB
 1376              	 .global t_tyre_RL_1_LSB
 1377              	 .global t_tyre_RL_1_MSB
 1378              	 .global t_tyre_FR_8_LSB
 1379              	 .global t_tyre_FR_8_MSB
 1380              	 .global t_tyre_FR_7_LSB
 1381              	 .global t_tyre_FR_7_MSB
 1382              	 .global t_tyre_FR_6_LSB
 1383              	 .global t_tyre_FR_6_MSB
 1384              	 .global t_tyre_FR_5_LSB
 1385              	 .global t_tyre_FR_5_MSB
 1386              	 .global t_tyre_FR_4_LSB
 1387              	 .global t_tyre_FR_4_MSB
 1388              	 .global t_tyre_FR_3_LSB
 1389              	 .global t_tyre_FR_3_MSB
 1390              	 .global t_tyre_FR_2_LSB
 1391              	 .global t_tyre_FR_2_MSB
 1392              	 .global t_tyre_FR_1_LSB
 1393              	 .global t_tyre_FR_1_MSB
 1394              	 .global t_tyre_FL_8_LSB
 1395              	 .global t_tyre_FL_8_MSB
 1396              	 .global t_tyre_FL_7_LSB
 1397              	 .global t_tyre_FL_7_MSB
 1398              	 .global t_tyre_FL_6_LSB
 1399              	 .global t_tyre_FL_6_MSB
 1400              	 .global t_tyre_FL_5_LSB
 1401              	 .global t_tyre_FL_5_MSB
 1402              	 .global t_tyre_FL_4_LSB
 1403              	 .global t_tyre_FL_4_MSB
 1404              	 .global t_tyre_FL_3_LSB
 1405              	 .global t_tyre_FL_3_MSB
 1406              	 .global t_tyre_FL_2_LSB
 1407              	 .global t_tyre_FL_2_MSB
 1408              	 .global t_tyre_FL_1_LSB
 1409              	 .global t_tyre_FL_1_MSB
 1410              	 .global AX
 1411              	 .global AY
 1412              	 .global p_brake_front
 1413              	 .global n_wheel_RR
 1414              	 .global n_wheel_RL
 1415              	 .global n_wheel_FR
 1416              	 .global n_wheel_FL
 1417              	 .global u_bat
 1418              	 .global x_clutch_STW
 1419              	 .global x_clutch
 1420              	 .global x_RH_F
 1421              	 .global t_VCU
 1422              	 .global f_fr
 1423              	 .global f_fl
 1424              	 .global x_dp_RR
 1425              	 .global x_dp_RL
 1426              	 .global f_rr
 1427              	 .global f_rl
 1428              	 .global t_pcm
 1429              	 .global i_tot
 1430 1012 00BF     	 .section .bss.f_fr,"aw",%nobits
 1431              	 .align 2
 1432              	 .set .LANCHOR82,.+0
 1435              	f_fr:
 1436 0000 00000000 	 .space 4
 1437              	 .section .bss.u_bat,"aw",%nobits
 1438              	 .align 2
 1439              	 .set .LANCHOR6,.+0
 1442              	u_bat:
 1443 0000 00000000 	 .space 4
 1444              	 .section .bss.t_tyre_FL_4_LSB,"aw",%nobits
 1445              	 .align 2
 1446              	 .set .LANCHOR20,.+0
 1449              	t_tyre_FL_4_LSB:
 1450 0000 00000000 	 .space 4
 1451              	 .section .bss.n_wheel_FL,"aw",%nobits
 1452              	 .align 2
 1453              	 .set .LANCHOR7,.+0
 1456              	n_wheel_FL:
 1457 0000 00000000 	 .space 4
 1458              	 .section .bss.t_tyre_RL_8_LSB,"aw",%nobits
 1459              	 .align 2
 1460              	 .set .LANCHOR60,.+0
 1463              	t_tyre_RL_8_LSB:
 1464 0000 00000000 	 .space 4
 1465              	 .section .bss.n_wheel_FR,"aw",%nobits
 1466              	 .align 2
 1467              	 .set .LANCHOR8,.+0
 1470              	n_wheel_FR:
 1471 0000 00000000 	 .space 4
 1472              	 .section .bss.t_tyre_RR_3_LSB,"aw",%nobits
 1473              	 .align 2
 1474              	 .set .LANCHOR66,.+0
 1477              	t_tyre_RR_3_LSB:
 1478 0000 00000000 	 .space 4
 1479              	 .section .bss.t_tyre_FL_7_LSB,"aw",%nobits
 1480              	 .align 2
 1481              	 .set .LANCHOR26,.+0
 1484              	t_tyre_FL_7_LSB:
 1485 0000 00000000 	 .space 4
 1486              	 .section .bss.t_tyre_FL_5_MSB,"aw",%nobits
 1487              	 .align 2
 1488              	 .set .LANCHOR21,.+0
 1491              	t_tyre_FL_5_MSB:
 1492 0000 00000000 	 .space 4
 1493              	 .section .bss.t_tyre_RR_6_LSB,"aw",%nobits
 1494              	 .align 2
 1495              	 .set .LANCHOR72,.+0
 1498              	t_tyre_RR_6_LSB:
 1499 0000 00000000 	 .space 4
 1500              	 .section .bss.t_tyre_RR_7_MSB,"aw",%nobits
 1501              	 .align 2
 1502              	 .set .LANCHOR73,.+0
 1505              	t_tyre_RR_7_MSB:
 1506 0000 00000000 	 .space 4
 1507              	 .section .bss.t_tyre_RL_5,"aw",%nobits
 1508              	 .align 1
 1509              	 .set .LANCHOR104,.+0
 1512              	t_tyre_RL_5:
 1513 0000 0000     	 .space 2
 1514              	 .section .bss.t_tyre_FR_7,"aw",%nobits
 1515              	 .align 1
 1516              	 .set .LANCHOR98,.+0
 1519              	t_tyre_FR_7:
 1520 0000 0000     	 .space 2
 1521              	 .section .bss.x_clutch_STW,"aw",%nobits
 1522              	 .align 2
 1523              	 .set .LANCHOR5,.+0
 1526              	x_clutch_STW:
 1527 0000 00000000 	 .space 4
 1528              	 .section .bss.x_dp_RR,"aw",%nobits
 1529              	 .align 2
 1530              	 .set .LANCHOR80,.+0
 1533              	x_dp_RR:
 1534 0000 00000000 	 .space 4
 1535              	 .section .bss.t_tyre_FR_4_MSB,"aw",%nobits
 1536              	 .align 2
 1537              	 .set .LANCHOR35,.+0
 1540              	t_tyre_FR_4_MSB:
 1541 0000 00000000 	 .space 4
 1542              	 .section .bss.t_tyre_RL_3_MSB,"aw",%nobits
 1543              	 .align 2
 1544              	 .set .LANCHOR49,.+0
 1547              	t_tyre_RL_3_MSB:
 1548 0000 00000000 	 .space 4
 1549              	 .section .bss.t_tyre_RR_7_LSB,"aw",%nobits
 1550              	 .align 2
 1551              	 .set .LANCHOR74,.+0
 1554              	t_tyre_RR_7_LSB:
 1555 0000 00000000 	 .space 4
 1556              	 .section .bss.t_tyre_FL_2_MSB,"aw",%nobits
 1557              	 .align 2
 1558              	 .set .LANCHOR15,.+0
 1561              	t_tyre_FL_2_MSB:
 1562 0000 00000000 	 .space 4
 1563              	 .section .bss.t_tyre_FR_7_MSB,"aw",%nobits
 1564              	 .align 2
 1565              	 .set .LANCHOR41,.+0
 1568              	t_tyre_FR_7_MSB:
 1569 0000 00000000 	 .space 4
 1570              	 .section .bss.t_tyre_FR_1_LSB,"aw",%nobits
 1571              	 .align 2
 1572              	 .set .LANCHOR30,.+0
 1575              	t_tyre_FR_1_LSB:
 1576 0000 00000000 	 .space 4
 1577              	 .section .bss.t_tyre_RL_6_MSB,"aw",%nobits
 1578              	 .align 2
 1579              	 .set .LANCHOR55,.+0
 1582              	t_tyre_RL_6_MSB:
 1583 0000 00000000 	 .space 4
 1584              	 .section .bss.t_tyre_RL_6_LSB,"aw",%nobits
 1585              	 .align 2
 1586              	 .set .LANCHOR56,.+0
 1589              	t_tyre_RL_6_LSB:
 1590 0000 00000000 	 .space 4
 1591              	 .section .bss.t_tyre_RR_1_MSB,"aw",%nobits
 1592              	 .align 2
 1593              	 .set .LANCHOR61,.+0
 1596              	t_tyre_RR_1_MSB:
 1597 0000 00000000 	 .space 4
 1598              	 .section .bss.t_tyre_RL_6,"aw",%nobits
 1599              	 .align 1
 1600              	 .set .LANCHOR105,.+0
 1603              	t_tyre_RL_6:
 1604 0000 0000     	 .space 2
 1605              	 .section .bss.n_wheel_RR,"aw",%nobits
 1606              	 .align 2
 1607              	 .set .LANCHOR10,.+0
 1610              	n_wheel_RR:
 1611 0000 00000000 	 .space 4
 1612              	 .section .bss.x_clutch,"aw",%nobits
 1613              	 .align 2
 1614              	 .set .LANCHOR4,.+0
 1617              	x_clutch:
 1618 0000 00000000 	 .space 4
 1619              	 .section .bss.n_wheel_RL,"aw",%nobits
 1620              	 .align 2
 1621              	 .set .LANCHOR9,.+0
 1624              	n_wheel_RL:
 1625 0000 00000000 	 .space 4
 1626              	 .section .bss.t_tyre_RL_8,"aw",%nobits
 1627              	 .align 1
 1628              	 .set .LANCHOR107,.+0
 1631              	t_tyre_RL_8:
 1632 0000 0000     	 .space 2
 1633              	 .section .bss.t_tyre_FR_4_LSB,"aw",%nobits
 1634              	 .align 2
 1635              	 .set .LANCHOR36,.+0
 1638              	t_tyre_FR_4_LSB:
 1639 0000 00000000 	 .space 4
 1640              	 .section .bss.x_dp_RL,"aw",%nobits
 1641              	 .align 2
 1642              	 .set .LANCHOR79,.+0
 1645              	x_dp_RL:
 1646 0000 00000000 	 .space 4
 1647              	 .section .bss.t_tyre_RR_4_MSB,"aw",%nobits
 1648              	 .align 2
 1649              	 .set .LANCHOR67,.+0
 1652              	t_tyre_RR_4_MSB:
 1653 0000 00000000 	 .space 4
 1654              	 .section .bss.t_tyre_RL_3_LSB,"aw",%nobits
 1655              	 .align 2
 1656              	 .set .LANCHOR50,.+0
 1659              	t_tyre_RL_3_LSB:
 1660 0000 00000000 	 .space 4
 1661              	 .section .bss.f_fl,"aw",%nobits
 1662              	 .align 2
 1663              	 .set .LANCHOR81,.+0
 1666              	f_fl:
 1667 0000 00000000 	 .space 4
 1668              	 .section .bss.t_tyre_FL_8_MSB,"aw",%nobits
 1669              	 .align 2
 1670              	 .set .LANCHOR27,.+0
 1673              	t_tyre_FL_8_MSB:
 1674 0000 00000000 	 .space 4
 1675              	 .section .bss.t_tyre_FL_2_LSB,"aw",%nobits
 1676              	 .align 2
 1677              	 .set .LANCHOR16,.+0
 1680              	t_tyre_FL_2_LSB:
 1681 0000 00000000 	 .space 4
 1682              	 .section .bss.t_tyre_FR_7_LSB,"aw",%nobits
 1683              	 .align 2
 1684              	 .set .LANCHOR42,.+0
 1687              	t_tyre_FR_7_LSB:
 1688 0000 00000000 	 .space 4
 1689              	 .section .bss.t_tyre_RL_3,"aw",%nobits
 1690              	 .align 1
 1691              	 .set .LANCHOR102,.+0
 1694              	t_tyre_RL_3:
 1695 0000 0000     	 .space 2
 1696              	 .section .bss.t_tyre_FL_1,"aw",%nobits
 1697              	 .align 1
 1698              	 .set .LANCHOR84,.+0
 1701              	t_tyre_FL_1:
 1702 0000 0000     	 .space 2
 1703              	 .section .bss.t_tyre_FL_2,"aw",%nobits
 1704              	 .align 1
 1705              	 .set .LANCHOR85,.+0
 1708              	t_tyre_FL_2:
 1709 0000 0000     	 .space 2
 1710              	 .section .bss.t_tyre_FL_3,"aw",%nobits
 1711              	 .align 1
 1712              	 .set .LANCHOR86,.+0
 1715              	t_tyre_FL_3:
 1716 0000 0000     	 .space 2
 1717              	 .section .bss.t_tyre_RR_1_LSB,"aw",%nobits
 1718              	 .align 2
 1719              	 .set .LANCHOR62,.+0
 1722              	t_tyre_RR_1_LSB:
 1723 0000 00000000 	 .space 4
 1724              	 .section .bss.t_tyre_FL_5,"aw",%nobits
 1725              	 .align 1
 1726              	 .set .LANCHOR88,.+0
 1729              	t_tyre_FL_5:
 1730 0000 0000     	 .space 2
 1731              	 .section .bss.t_tyre_FL_6,"aw",%nobits
 1732              	 .align 1
 1733              	 .set .LANCHOR89,.+0
 1736              	t_tyre_FL_6:
 1737 0000 0000     	 .space 2
 1738              	 .section .bss.t_tyre_FL_7,"aw",%nobits
 1739              	 .align 1
 1740              	 .set .LANCHOR90,.+0
 1743              	t_tyre_FL_7:
 1744 0000 0000     	 .space 2
 1745              	 .section .bss.t_tyre_FL_8,"aw",%nobits
 1746              	 .align 1
 1747              	 .set .LANCHOR91,.+0
 1750              	t_tyre_FL_8:
 1751 0000 0000     	 .space 2
 1752              	 .section .bss.t_tyre_FL_5_LSB,"aw",%nobits
 1753              	 .align 2
 1754              	 .set .LANCHOR22,.+0
 1757              	t_tyre_FL_5_LSB:
 1758 0000 00000000 	 .space 4
 1759              	 .section .bss.t_tyre_RR_4_LSB,"aw",%nobits
 1760              	 .align 2
 1761              	 .set .LANCHOR68,.+0
 1764              	t_tyre_RR_4_LSB:
 1765 0000 00000000 	 .space 4
 1766              	 .section .bss.t_tyre_FL_8_LSB,"aw",%nobits
 1767              	 .align 2
 1768              	 .set .LANCHOR28,.+0
 1771              	t_tyre_FL_8_LSB:
 1772 0000 00000000 	 .space 4
 1773              	 .section .bss.t_tyre_RL_1,"aw",%nobits
 1774              	 .align 1
 1775              	 .set .LANCHOR100,.+0
 1778              	t_tyre_RL_1:
 1779 0000 0000     	 .space 2
 1780              	 .section .bss.t_tyre_RL_2,"aw",%nobits
 1781              	 .align 1
 1782              	 .set .LANCHOR101,.+0
 1785              	t_tyre_RL_2:
 1786 0000 0000     	 .space 2
 1787              	 .section .bss.t_tyre_FR_2_MSB,"aw",%nobits
 1788              	 .align 2
 1789              	 .set .LANCHOR31,.+0
 1792              	t_tyre_FR_2_MSB:
 1793 0000 00000000 	 .space 4
 1794              	 .section .bss.t_tyre_RL_4,"aw",%nobits
 1795              	 .align 1
 1796              	 .set .LANCHOR103,.+0
 1799              	t_tyre_RL_4:
 1800 0000 0000     	 .space 2
 1801              	 .section .bss.p_brake_front,"aw",%nobits
 1802              	 .align 2
 1803              	 .set .LANCHOR83,.+0
 1806              	p_brake_front:
 1807 0000 00000000 	 .space 4
 1808              	 .section .bss.t_tyre_FR_1_MSB,"aw",%nobits
 1809              	 .align 2
 1810              	 .set .LANCHOR29,.+0
 1813              	t_tyre_FR_1_MSB:
 1814 0000 00000000 	 .space 4
 1815              	 .section .bss.t_tyre_RL_7,"aw",%nobits
 1816              	 .align 1
 1817              	 .set .LANCHOR106,.+0
 1820              	t_tyre_RL_7:
 1821 0000 0000     	 .space 2
 1822              	 .section .bss.t_tyre_RL_1_MSB,"aw",%nobits
 1823              	 .align 2
 1824              	 .set .LANCHOR45,.+0
 1827              	t_tyre_RL_1_MSB:
 1828 0000 00000000 	 .space 4
 1829              	 .section .bss.f_rl,"aw",%nobits
 1830              	 .align 2
 1831              	 .set .LANCHOR77,.+0
 1834              	f_rl:
 1835 0000 00000000 	 .space 4
 1836              	 .section .bss.t_tyre_FR_5_MSB,"aw",%nobits
 1837              	 .align 2
 1838              	 .set .LANCHOR37,.+0
 1841              	t_tyre_FR_5_MSB:
 1842 0000 00000000 	 .space 4
 1843              	 .section .bss.f_rr,"aw",%nobits
 1844              	 .align 2
 1845              	 .set .LANCHOR78,.+0
 1848              	f_rr:
 1849 0000 00000000 	 .space 4
 1850              	 .section .bss.t_tyre_RL_4_MSB,"aw",%nobits
 1851              	 .align 2
 1852              	 .set .LANCHOR51,.+0
 1855              	t_tyre_RL_4_MSB:
 1856 0000 00000000 	 .space 4
 1857              	 .section .bss.t_tyre_FR_8,"aw",%nobits
 1858              	 .align 1
 1859              	 .set .LANCHOR99,.+0
 1862              	t_tyre_FR_8:
 1863 0000 0000     	 .space 2
 1864              	 .section .bss.t_pcm,"aw",%nobits
 1865              	 .align 2
 1866              	 .set .LANCHOR1,.+0
 1869              	t_pcm:
 1870 0000 00000000 	 .space 4
 1871              	 .section .bss.t_tyre_FL_3_MSB,"aw",%nobits
 1872              	 .align 2
 1873              	 .set .LANCHOR17,.+0
 1876              	t_tyre_FL_3_MSB:
 1877 0000 00000000 	 .space 4
 1878              	 .section .bss.t_tyre_FR_8_MSB,"aw",%nobits
 1879              	 .align 2
 1880              	 .set .LANCHOR43,.+0
 1883              	t_tyre_FR_8_MSB:
 1884 0000 00000000 	 .space 4
 1885              	 .section .bss.t_tyre_FR_2_LSB,"aw",%nobits
 1886              	 .align 2
 1887              	 .set .LANCHOR32,.+0
 1890              	t_tyre_FR_2_LSB:
 1891 0000 00000000 	 .space 4
 1892              	 .section .bss.t_tyre_RL_7_MSB,"aw",%nobits
 1893              	 .align 2
 1894              	 .set .LANCHOR57,.+0
 1897              	t_tyre_RL_7_MSB:
 1898 0000 00000000 	 .space 4
 1899              	 .section .bss.t_tyre_RR_2_MSB,"aw",%nobits
 1900              	 .align 2
 1901              	 .set .LANCHOR63,.+0
 1904              	t_tyre_RR_2_MSB:
 1905 0000 00000000 	 .space 4
 1906              	 .section .bss.t_tyre_RL_1_LSB,"aw",%nobits
 1907              	 .align 2
 1908              	 .set .LANCHOR46,.+0
 1911              	t_tyre_RL_1_LSB:
 1912 0000 00000000 	 .space 4
 1913              	 .section .bss.t_tyre_FL_6_MSB,"aw",%nobits
 1914              	 .align 2
 1915              	 .set .LANCHOR23,.+0
 1918              	t_tyre_FL_6_MSB:
 1919 0000 00000000 	 .space 4
 1920              	 .section .bss.t_tyre_FR_5_LSB,"aw",%nobits
 1921              	 .align 2
 1922              	 .set .LANCHOR38,.+0
 1925              	t_tyre_FR_5_LSB:
 1926 0000 00000000 	 .space 4
 1927              	 .section .bss.t_tyre_FL_4,"aw",%nobits
 1928              	 .align 1
 1929              	 .set .LANCHOR87,.+0
 1932              	t_tyre_FL_4:
 1933 0000 0000     	 .space 2
 1934              	 .section .bss.t_tyre_RR_5_MSB,"aw",%nobits
 1935              	 .align 2
 1936              	 .set .LANCHOR69,.+0
 1939              	t_tyre_RR_5_MSB:
 1940 0000 00000000 	 .space 4
 1941              	 .section .bss.t_tyre_RL_4_LSB,"aw",%nobits
 1942              	 .align 2
 1943              	 .set .LANCHOR52,.+0
 1946              	t_tyre_RL_4_LSB:
 1947 0000 00000000 	 .space 4
 1948              	 .section .bss.t_tyre_FR_1,"aw",%nobits
 1949              	 .align 1
 1950              	 .set .LANCHOR92,.+0
 1953              	t_tyre_FR_1:
 1954 0000 0000     	 .space 2
 1955              	 .section .bss.t_tyre_FR_2,"aw",%nobits
 1956              	 .align 1
 1957              	 .set .LANCHOR93,.+0
 1960              	t_tyre_FR_2:
 1961 0000 0000     	 .space 2
 1962              	 .section .bss.t_tyre_FR_3,"aw",%nobits
 1963              	 .align 1
 1964              	 .set .LANCHOR94,.+0
 1967              	t_tyre_FR_3:
 1968 0000 0000     	 .space 2
 1969              	 .section .bss.t_tyre_FR_4,"aw",%nobits
 1970              	 .align 1
 1971              	 .set .LANCHOR95,.+0
 1974              	t_tyre_FR_4:
 1975 0000 0000     	 .space 2
 1976              	 .section .bss.t_tyre_FR_5,"aw",%nobits
 1977              	 .align 1
 1978              	 .set .LANCHOR96,.+0
 1981              	t_tyre_FR_5:
 1982 0000 0000     	 .space 2
 1983              	 .section .bss.t_tyre_FR_6,"aw",%nobits
 1984              	 .align 1
 1985              	 .set .LANCHOR97,.+0
 1988              	t_tyre_FR_6:
 1989 0000 0000     	 .space 2
 1990              	 .section .bss.t_tyre_FL_3_LSB,"aw",%nobits
 1991              	 .align 2
 1992              	 .set .LANCHOR18,.+0
 1995              	t_tyre_FL_3_LSB:
 1996 0000 00000000 	 .space 4
 1997              	 .section .bss.t_tyre_FR_8_LSB,"aw",%nobits
 1998              	 .align 2
 1999              	 .set .LANCHOR44,.+0
 2002              	t_tyre_FR_8_LSB:
 2003 0000 00000000 	 .space 4
 2004              	 .section .bss.t_tyre_RR_8_MSB,"aw",%nobits
 2005              	 .align 2
 2006              	 .set .LANCHOR75,.+0
 2009              	t_tyre_RR_8_MSB:
 2010 0000 00000000 	 .space 4
 2011              	 .section .bss.t_tyre_RL_7_LSB,"aw",%nobits
 2012              	 .align 2
 2013              	 .set .LANCHOR58,.+0
 2016              	t_tyre_RL_7_LSB:
 2017 0000 00000000 	 .space 4
 2018              	 .section .bss.t_tyre_RR_2_LSB,"aw",%nobits
 2019              	 .align 2
 2020              	 .set .LANCHOR64,.+0
 2023              	t_tyre_RR_2_LSB:
 2024 0000 00000000 	 .space 4
 2025              	 .section .bss.t_tyre_FL_6_LSB,"aw",%nobits
 2026              	 .align 2
 2027              	 .set .LANCHOR24,.+0
 2030              	t_tyre_FL_6_LSB:
 2031 0000 00000000 	 .space 4
 2032              	 .section .bss.x_RH_F,"aw",%nobits
 2033              	 .align 2
 2034              	 .set .LANCHOR3,.+0
 2037              	x_RH_F:
 2038 0000 00000000 	 .space 4
 2039              	 .section .bss.t_tyre_RR_8_LSB,"aw",%nobits
 2040              	 .align 2
 2041              	 .set .LANCHOR76,.+0
 2044              	t_tyre_RR_8_LSB:
 2045 0000 00000000 	 .space 4
 2046              	 .section .bss.t_tyre_RR_5_LSB,"aw",%nobits
 2047              	 .align 2
 2048              	 .set .LANCHOR70,.+0
 2051              	t_tyre_RR_5_LSB:
 2052 0000 00000000 	 .space 4
 2053              	 .section .bss.t_tyre_RR_2,"aw",%nobits
 2054              	 .align 1
 2055              	 .set .LANCHOR109,.+0
 2058              	t_tyre_RR_2:
 2059 0000 0000     	 .space 2
 2060              	 .section .bss.t_tyre_RR_3,"aw",%nobits
 2061              	 .align 1
 2062              	 .set .LANCHOR110,.+0
 2065              	t_tyre_RR_3:
 2066 0000 0000     	 .space 2
 2067              	 .section .bss.t_tyre_RR_4,"aw",%nobits
 2068              	 .align 1
 2069              	 .set .LANCHOR111,.+0
 2072              	t_tyre_RR_4:
 2073 0000 0000     	 .space 2
 2074              	 .section .bss.t_tyre_RR_5,"aw",%nobits
 2075              	 .align 1
 2076              	 .set .LANCHOR112,.+0
 2079              	t_tyre_RR_5:
 2080 0000 0000     	 .space 2
 2081              	 .section .bss.t_tyre_RR_6,"aw",%nobits
 2082              	 .align 1
 2083              	 .set .LANCHOR113,.+0
 2086              	t_tyre_RR_6:
 2087 0000 0000     	 .space 2
 2088              	 .section .bss.t_tyre_RR_7,"aw",%nobits
 2089              	 .align 1
 2090              	 .set .LANCHOR114,.+0
 2093              	t_tyre_RR_7:
 2094 0000 0000     	 .space 2
 2095              	 .section .bss.t_tyre_RR_8,"aw",%nobits
 2096              	 .align 1
 2097              	 .set .LANCHOR115,.+0
 2100              	t_tyre_RR_8:
 2101 0000 0000     	 .space 2
 2102              	 .section .bss.t_tyre_RR_1,"aw",%nobits
 2103              	 .align 1
 2104              	 .set .LANCHOR108,.+0
 2107              	t_tyre_RR_1:
 2108 0000 0000     	 .space 2
 2109              	 .section .bss.t_tyre_FR_3_MSB,"aw",%nobits
 2110              	 .align 2
 2111              	 .set .LANCHOR33,.+0
 2114              	t_tyre_FR_3_MSB:
 2115 0000 00000000 	 .space 4
 2116              	 .section .bss.AX,"aw",%nobits
 2117              	 .align 2
 2118              	 .set .LANCHOR12,.+0
 2121              	AX:
 2122 0000 00000000 	 .space 4
 2123              	 .section .bss.AY,"aw",%nobits
 2124              	 .align 2
 2125              	 .set .LANCHOR11,.+0
 2128              	AY:
 2129 0000 00000000 	 .space 4
 2130              	 .section .bss.t_tyre_RL_2_MSB,"aw",%nobits
 2131              	 .align 2
 2132              	 .set .LANCHOR47,.+0
 2135              	t_tyre_RL_2_MSB:
 2136 0000 00000000 	 .space 4
 2137              	 .section .bss.t_tyre_FL_1_MSB,"aw",%nobits
 2138              	 .align 2
 2139              	 .set .LANCHOR13,.+0
 2142              	t_tyre_FL_1_MSB:
 2143 0000 00000000 	 .space 4
 2144              	 .section .bss.t_tyre_FR_6_MSB,"aw",%nobits
 2145              	 .align 2
 2146              	 .set .LANCHOR39,.+0
 2149              	t_tyre_FR_6_MSB:
 2150 0000 00000000 	 .space 4
 2151              	 .section .bss.t_tyre_RL_5_MSB,"aw",%nobits
 2152              	 .align 2
 2153              	 .set .LANCHOR53,.+0
 2156              	t_tyre_RL_5_MSB:
 2157 0000 00000000 	 .space 4
 2158              	 .section .bss.t_tyre_FL_4_MSB,"aw",%nobits
 2159              	 .align 2
 2160              	 .set .LANCHOR19,.+0
 2163              	t_tyre_FL_4_MSB:
 2164 0000 00000000 	 .space 4
 2165              	 .section .bss.t_VCU,"aw",%nobits
 2166              	 .align 2
 2167              	 .set .LANCHOR2,.+0
 2170              	t_VCU:
 2171 0000 00000000 	 .space 4
 2172              	 .section .bss.t_tyre_FR_3_LSB,"aw",%nobits
 2173              	 .align 2
 2174              	 .set .LANCHOR34,.+0
 2177              	t_tyre_FR_3_LSB:
 2178 0000 00000000 	 .space 4
 2179              	 .section .bss.t_tyre_RL_8_MSB,"aw",%nobits
 2180              	 .align 2
 2181              	 .set .LANCHOR59,.+0
 2184              	t_tyre_RL_8_MSB:
 2185 0000 00000000 	 .space 4
 2186              	 .section .bss.t_tyre_RR_3_MSB,"aw",%nobits
 2187              	 .align 2
 2188              	 .set .LANCHOR65,.+0
 2191              	t_tyre_RR_3_MSB:
 2192 0000 00000000 	 .space 4
 2193              	 .section .bss.t_tyre_RL_2_LSB,"aw",%nobits
 2194              	 .align 2
 2195              	 .set .LANCHOR48,.+0
 2198              	t_tyre_RL_2_LSB:
 2199 0000 00000000 	 .space 4
 2200              	 .section .bss.i_tot,"aw",%nobits
 2201              	 .align 2
 2202              	 .set .LANCHOR0,.+0
 2205              	i_tot:
 2206 0000 00000000 	 .space 4
 2207              	 .section .bss.t_tyre_FL_7_MSB,"aw",%nobits
 2208              	 .align 2
 2209              	 .set .LANCHOR25,.+0
 2212              	t_tyre_FL_7_MSB:
 2213 0000 00000000 	 .space 4
 2214              	 .section .bss.t_tyre_FL_1_LSB,"aw",%nobits
 2215              	 .align 2
 2216              	 .set .LANCHOR14,.+0
 2219              	t_tyre_FL_1_LSB:
 2220 0000 00000000 	 .space 4
 2221              	 .section .bss.t_tyre_FR_6_LSB,"aw",%nobits
 2222              	 .align 2
 2223              	 .set .LANCHOR40,.+0
 2226              	t_tyre_FR_6_LSB:
 2227 0000 00000000 	 .space 4
 2228              	 .section .bss.t_tyre_RR_6_MSB,"aw",%nobits
 2229              	 .align 2
 2230              	 .set .LANCHOR71,.+0
 2233              	t_tyre_RR_6_MSB:
 2234 0000 00000000 	 .space 4
 2235              	 .section .bss.t_tyre_RL_5_LSB,"aw",%nobits
 2236              	 .align 2
 2237              	 .set .LANCHOR54,.+0
 2240              	t_tyre_RL_5_LSB:
 2241 0000 00000000 	 .space 4
 2242              	 .ident "GCC: (GNU Tools for ARM Embedded Processors) 4.9.3 20141119 (release) [ARM/embedded-4_9-branch revision 218278]"
DEFINED SYMBOLS
                            *ABS*:00000000 CAN_2.c
    {standard input}:17     .text.CAN_2_Receive:00000000 $t
    {standard input}:22     .text.CAN_2_Receive:00000000 CAN_2_Receive
    {standard input}:296    .text.CAN_2_Receive:0000034c $d
    {standard input}:376    .text.CAN_2_Receive:00000488 $t
    {standard input}:635    .text.CAN_2_Receive:00000798 $d
    {standard input}:693    .text.CAN_2_Receive:0000087c $t
    {standard input}:951    .text.CAN_2_Receive:00000adc $d
    {standard input}:1028   .text.CAN_2_Receive:00000c0c $t
    {standard input}:1288   .text.CAN_2_Receive:00000fb8 $d
    {standard input}:1307   .text.CAN_2_Receive:00001000 $t
    {standard input}:2100   .bss.t_tyre_RR_8:00000000 t_tyre_RR_8
    {standard input}:2093   .bss.t_tyre_RR_7:00000000 t_tyre_RR_7
    {standard input}:2086   .bss.t_tyre_RR_6:00000000 t_tyre_RR_6
    {standard input}:2079   .bss.t_tyre_RR_5:00000000 t_tyre_RR_5
    {standard input}:2072   .bss.t_tyre_RR_4:00000000 t_tyre_RR_4
    {standard input}:2065   .bss.t_tyre_RR_3:00000000 t_tyre_RR_3
    {standard input}:2058   .bss.t_tyre_RR_2:00000000 t_tyre_RR_2
    {standard input}:2107   .bss.t_tyre_RR_1:00000000 t_tyre_RR_1
    {standard input}:1631   .bss.t_tyre_RL_8:00000000 t_tyre_RL_8
    {standard input}:1820   .bss.t_tyre_RL_7:00000000 t_tyre_RL_7
    {standard input}:1603   .bss.t_tyre_RL_6:00000000 t_tyre_RL_6
    {standard input}:1512   .bss.t_tyre_RL_5:00000000 t_tyre_RL_5
    {standard input}:1799   .bss.t_tyre_RL_4:00000000 t_tyre_RL_4
    {standard input}:1694   .bss.t_tyre_RL_3:00000000 t_tyre_RL_3
    {standard input}:1785   .bss.t_tyre_RL_2:00000000 t_tyre_RL_2
    {standard input}:1778   .bss.t_tyre_RL_1:00000000 t_tyre_RL_1
    {standard input}:1862   .bss.t_tyre_FR_8:00000000 t_tyre_FR_8
    {standard input}:1519   .bss.t_tyre_FR_7:00000000 t_tyre_FR_7
    {standard input}:1988   .bss.t_tyre_FR_6:00000000 t_tyre_FR_6
    {standard input}:1981   .bss.t_tyre_FR_5:00000000 t_tyre_FR_5
    {standard input}:1974   .bss.t_tyre_FR_4:00000000 t_tyre_FR_4
    {standard input}:1967   .bss.t_tyre_FR_3:00000000 t_tyre_FR_3
    {standard input}:1960   .bss.t_tyre_FR_2:00000000 t_tyre_FR_2
    {standard input}:1953   .bss.t_tyre_FR_1:00000000 t_tyre_FR_1
    {standard input}:1750   .bss.t_tyre_FL_8:00000000 t_tyre_FL_8
    {standard input}:1743   .bss.t_tyre_FL_7:00000000 t_tyre_FL_7
    {standard input}:1736   .bss.t_tyre_FL_6:00000000 t_tyre_FL_6
    {standard input}:1729   .bss.t_tyre_FL_5:00000000 t_tyre_FL_5
    {standard input}:1932   .bss.t_tyre_FL_4:00000000 t_tyre_FL_4
    {standard input}:1715   .bss.t_tyre_FL_3:00000000 t_tyre_FL_3
    {standard input}:1708   .bss.t_tyre_FL_2:00000000 t_tyre_FL_2
    {standard input}:1701   .bss.t_tyre_FL_1:00000000 t_tyre_FL_1
    {standard input}:2044   .bss.t_tyre_RR_8_LSB:00000000 t_tyre_RR_8_LSB
    {standard input}:2009   .bss.t_tyre_RR_8_MSB:00000000 t_tyre_RR_8_MSB
    {standard input}:1554   .bss.t_tyre_RR_7_LSB:00000000 t_tyre_RR_7_LSB
    {standard input}:1505   .bss.t_tyre_RR_7_MSB:00000000 t_tyre_RR_7_MSB
    {standard input}:1498   .bss.t_tyre_RR_6_LSB:00000000 t_tyre_RR_6_LSB
    {standard input}:2233   .bss.t_tyre_RR_6_MSB:00000000 t_tyre_RR_6_MSB
    {standard input}:2051   .bss.t_tyre_RR_5_LSB:00000000 t_tyre_RR_5_LSB
    {standard input}:1939   .bss.t_tyre_RR_5_MSB:00000000 t_tyre_RR_5_MSB
    {standard input}:1764   .bss.t_tyre_RR_4_LSB:00000000 t_tyre_RR_4_LSB
    {standard input}:1652   .bss.t_tyre_RR_4_MSB:00000000 t_tyre_RR_4_MSB
    {standard input}:1477   .bss.t_tyre_RR_3_LSB:00000000 t_tyre_RR_3_LSB
    {standard input}:2191   .bss.t_tyre_RR_3_MSB:00000000 t_tyre_RR_3_MSB
    {standard input}:2023   .bss.t_tyre_RR_2_LSB:00000000 t_tyre_RR_2_LSB
    {standard input}:1904   .bss.t_tyre_RR_2_MSB:00000000 t_tyre_RR_2_MSB
    {standard input}:1722   .bss.t_tyre_RR_1_LSB:00000000 t_tyre_RR_1_LSB
    {standard input}:1596   .bss.t_tyre_RR_1_MSB:00000000 t_tyre_RR_1_MSB
    {standard input}:1463   .bss.t_tyre_RL_8_LSB:00000000 t_tyre_RL_8_LSB
    {standard input}:2184   .bss.t_tyre_RL_8_MSB:00000000 t_tyre_RL_8_MSB
    {standard input}:2016   .bss.t_tyre_RL_7_LSB:00000000 t_tyre_RL_7_LSB
    {standard input}:1897   .bss.t_tyre_RL_7_MSB:00000000 t_tyre_RL_7_MSB
    {standard input}:1589   .bss.t_tyre_RL_6_LSB:00000000 t_tyre_RL_6_LSB
    {standard input}:1582   .bss.t_tyre_RL_6_MSB:00000000 t_tyre_RL_6_MSB
    {standard input}:2240   .bss.t_tyre_RL_5_LSB:00000000 t_tyre_RL_5_LSB
    {standard input}:2156   .bss.t_tyre_RL_5_MSB:00000000 t_tyre_RL_5_MSB
    {standard input}:1946   .bss.t_tyre_RL_4_LSB:00000000 t_tyre_RL_4_LSB
    {standard input}:1855   .bss.t_tyre_RL_4_MSB:00000000 t_tyre_RL_4_MSB
    {standard input}:1659   .bss.t_tyre_RL_3_LSB:00000000 t_tyre_RL_3_LSB
    {standard input}:1547   .bss.t_tyre_RL_3_MSB:00000000 t_tyre_RL_3_MSB
    {standard input}:2198   .bss.t_tyre_RL_2_LSB:00000000 t_tyre_RL_2_LSB
    {standard input}:2135   .bss.t_tyre_RL_2_MSB:00000000 t_tyre_RL_2_MSB
    {standard input}:1911   .bss.t_tyre_RL_1_LSB:00000000 t_tyre_RL_1_LSB
    {standard input}:1827   .bss.t_tyre_RL_1_MSB:00000000 t_tyre_RL_1_MSB
    {standard input}:2002   .bss.t_tyre_FR_8_LSB:00000000 t_tyre_FR_8_LSB
    {standard input}:1883   .bss.t_tyre_FR_8_MSB:00000000 t_tyre_FR_8_MSB
    {standard input}:1687   .bss.t_tyre_FR_7_LSB:00000000 t_tyre_FR_7_LSB
    {standard input}:1568   .bss.t_tyre_FR_7_MSB:00000000 t_tyre_FR_7_MSB
    {standard input}:2226   .bss.t_tyre_FR_6_LSB:00000000 t_tyre_FR_6_LSB
    {standard input}:2149   .bss.t_tyre_FR_6_MSB:00000000 t_tyre_FR_6_MSB
    {standard input}:1925   .bss.t_tyre_FR_5_LSB:00000000 t_tyre_FR_5_LSB
    {standard input}:1841   .bss.t_tyre_FR_5_MSB:00000000 t_tyre_FR_5_MSB
    {standard input}:1638   .bss.t_tyre_FR_4_LSB:00000000 t_tyre_FR_4_LSB
    {standard input}:1540   .bss.t_tyre_FR_4_MSB:00000000 t_tyre_FR_4_MSB
    {standard input}:2177   .bss.t_tyre_FR_3_LSB:00000000 t_tyre_FR_3_LSB
    {standard input}:2114   .bss.t_tyre_FR_3_MSB:00000000 t_tyre_FR_3_MSB
    {standard input}:1890   .bss.t_tyre_FR_2_LSB:00000000 t_tyre_FR_2_LSB
    {standard input}:1792   .bss.t_tyre_FR_2_MSB:00000000 t_tyre_FR_2_MSB
    {standard input}:1575   .bss.t_tyre_FR_1_LSB:00000000 t_tyre_FR_1_LSB
    {standard input}:1813   .bss.t_tyre_FR_1_MSB:00000000 t_tyre_FR_1_MSB
    {standard input}:1771   .bss.t_tyre_FL_8_LSB:00000000 t_tyre_FL_8_LSB
    {standard input}:1673   .bss.t_tyre_FL_8_MSB:00000000 t_tyre_FL_8_MSB
    {standard input}:1484   .bss.t_tyre_FL_7_LSB:00000000 t_tyre_FL_7_LSB
    {standard input}:2212   .bss.t_tyre_FL_7_MSB:00000000 t_tyre_FL_7_MSB
    {standard input}:2030   .bss.t_tyre_FL_6_LSB:00000000 t_tyre_FL_6_LSB
    {standard input}:1918   .bss.t_tyre_FL_6_MSB:00000000 t_tyre_FL_6_MSB
    {standard input}:1757   .bss.t_tyre_FL_5_LSB:00000000 t_tyre_FL_5_LSB
    {standard input}:1491   .bss.t_tyre_FL_5_MSB:00000000 t_tyre_FL_5_MSB
    {standard input}:1449   .bss.t_tyre_FL_4_LSB:00000000 t_tyre_FL_4_LSB
    {standard input}:2163   .bss.t_tyre_FL_4_MSB:00000000 t_tyre_FL_4_MSB
    {standard input}:1995   .bss.t_tyre_FL_3_LSB:00000000 t_tyre_FL_3_LSB
    {standard input}:1876   .bss.t_tyre_FL_3_MSB:00000000 t_tyre_FL_3_MSB
    {standard input}:1680   .bss.t_tyre_FL_2_LSB:00000000 t_tyre_FL_2_LSB
    {standard input}:1561   .bss.t_tyre_FL_2_MSB:00000000 t_tyre_FL_2_MSB
    {standard input}:2219   .bss.t_tyre_FL_1_LSB:00000000 t_tyre_FL_1_LSB
    {standard input}:2142   .bss.t_tyre_FL_1_MSB:00000000 t_tyre_FL_1_MSB
    {standard input}:2121   .bss.AX:00000000 AX
    {standard input}:2128   .bss.AY:00000000 AY
    {standard input}:1806   .bss.p_brake_front:00000000 p_brake_front
    {standard input}:1610   .bss.n_wheel_RR:00000000 n_wheel_RR
    {standard input}:1624   .bss.n_wheel_RL:00000000 n_wheel_RL
    {standard input}:1470   .bss.n_wheel_FR:00000000 n_wheel_FR
    {standard input}:1456   .bss.n_wheel_FL:00000000 n_wheel_FL
    {standard input}:1442   .bss.u_bat:00000000 u_bat
    {standard input}:1526   .bss.x_clutch_STW:00000000 x_clutch_STW
    {standard input}:1617   .bss.x_clutch:00000000 x_clutch
    {standard input}:2037   .bss.x_RH_F:00000000 x_RH_F
    {standard input}:2170   .bss.t_VCU:00000000 t_VCU
    {standard input}:1435   .bss.f_fr:00000000 f_fr
    {standard input}:1666   .bss.f_fl:00000000 f_fl
    {standard input}:1533   .bss.x_dp_RR:00000000 x_dp_RR
    {standard input}:1645   .bss.x_dp_RL:00000000 x_dp_RL
    {standard input}:1848   .bss.f_rr:00000000 f_rr
    {standard input}:1834   .bss.f_rl:00000000 f_rl
    {standard input}:1869   .bss.t_pcm:00000000 t_pcm
    {standard input}:2205   .bss.i_tot:00000000 i_tot
    {standard input}:1431   .bss.f_fr:00000000 $d
    {standard input}:1438   .bss.u_bat:00000000 $d
    {standard input}:1445   .bss.t_tyre_FL_4_LSB:00000000 $d
    {standard input}:1452   .bss.n_wheel_FL:00000000 $d
    {standard input}:1459   .bss.t_tyre_RL_8_LSB:00000000 $d
    {standard input}:1466   .bss.n_wheel_FR:00000000 $d
    {standard input}:1473   .bss.t_tyre_RR_3_LSB:00000000 $d
    {standard input}:1480   .bss.t_tyre_FL_7_LSB:00000000 $d
    {standard input}:1487   .bss.t_tyre_FL_5_MSB:00000000 $d
    {standard input}:1494   .bss.t_tyre_RR_6_LSB:00000000 $d
    {standard input}:1501   .bss.t_tyre_RR_7_MSB:00000000 $d
    {standard input}:1508   .bss.t_tyre_RL_5:00000000 $d
    {standard input}:1515   .bss.t_tyre_FR_7:00000000 $d
    {standard input}:1522   .bss.x_clutch_STW:00000000 $d
    {standard input}:1529   .bss.x_dp_RR:00000000 $d
    {standard input}:1536   .bss.t_tyre_FR_4_MSB:00000000 $d
    {standard input}:1543   .bss.t_tyre_RL_3_MSB:00000000 $d
    {standard input}:1550   .bss.t_tyre_RR_7_LSB:00000000 $d
    {standard input}:1557   .bss.t_tyre_FL_2_MSB:00000000 $d
    {standard input}:1564   .bss.t_tyre_FR_7_MSB:00000000 $d
    {standard input}:1571   .bss.t_tyre_FR_1_LSB:00000000 $d
    {standard input}:1578   .bss.t_tyre_RL_6_MSB:00000000 $d
    {standard input}:1585   .bss.t_tyre_RL_6_LSB:00000000 $d
    {standard input}:1592   .bss.t_tyre_RR_1_MSB:00000000 $d
    {standard input}:1599   .bss.t_tyre_RL_6:00000000 $d
    {standard input}:1606   .bss.n_wheel_RR:00000000 $d
    {standard input}:1613   .bss.x_clutch:00000000 $d
    {standard input}:1620   .bss.n_wheel_RL:00000000 $d
    {standard input}:1627   .bss.t_tyre_RL_8:00000000 $d
    {standard input}:1634   .bss.t_tyre_FR_4_LSB:00000000 $d
    {standard input}:1641   .bss.x_dp_RL:00000000 $d
    {standard input}:1648   .bss.t_tyre_RR_4_MSB:00000000 $d
    {standard input}:1655   .bss.t_tyre_RL_3_LSB:00000000 $d
    {standard input}:1662   .bss.f_fl:00000000 $d
    {standard input}:1669   .bss.t_tyre_FL_8_MSB:00000000 $d
    {standard input}:1676   .bss.t_tyre_FL_2_LSB:00000000 $d
    {standard input}:1683   .bss.t_tyre_FR_7_LSB:00000000 $d
    {standard input}:1690   .bss.t_tyre_RL_3:00000000 $d
    {standard input}:1697   .bss.t_tyre_FL_1:00000000 $d
    {standard input}:1704   .bss.t_tyre_FL_2:00000000 $d
    {standard input}:1711   .bss.t_tyre_FL_3:00000000 $d
    {standard input}:1718   .bss.t_tyre_RR_1_LSB:00000000 $d
    {standard input}:1725   .bss.t_tyre_FL_5:00000000 $d
    {standard input}:1732   .bss.t_tyre_FL_6:00000000 $d
    {standard input}:1739   .bss.t_tyre_FL_7:00000000 $d
    {standard input}:1746   .bss.t_tyre_FL_8:00000000 $d
    {standard input}:1753   .bss.t_tyre_FL_5_LSB:00000000 $d
    {standard input}:1760   .bss.t_tyre_RR_4_LSB:00000000 $d
    {standard input}:1767   .bss.t_tyre_FL_8_LSB:00000000 $d
    {standard input}:1774   .bss.t_tyre_RL_1:00000000 $d
    {standard input}:1781   .bss.t_tyre_RL_2:00000000 $d
    {standard input}:1788   .bss.t_tyre_FR_2_MSB:00000000 $d
    {standard input}:1795   .bss.t_tyre_RL_4:00000000 $d
    {standard input}:1802   .bss.p_brake_front:00000000 $d
    {standard input}:1809   .bss.t_tyre_FR_1_MSB:00000000 $d
    {standard input}:1816   .bss.t_tyre_RL_7:00000000 $d
    {standard input}:1823   .bss.t_tyre_RL_1_MSB:00000000 $d
    {standard input}:1830   .bss.f_rl:00000000 $d
    {standard input}:1837   .bss.t_tyre_FR_5_MSB:00000000 $d
    {standard input}:1844   .bss.f_rr:00000000 $d
    {standard input}:1851   .bss.t_tyre_RL_4_MSB:00000000 $d
    {standard input}:1858   .bss.t_tyre_FR_8:00000000 $d
    {standard input}:1865   .bss.t_pcm:00000000 $d
    {standard input}:1872   .bss.t_tyre_FL_3_MSB:00000000 $d
    {standard input}:1879   .bss.t_tyre_FR_8_MSB:00000000 $d
    {standard input}:1886   .bss.t_tyre_FR_2_LSB:00000000 $d
    {standard input}:1893   .bss.t_tyre_RL_7_MSB:00000000 $d
    {standard input}:1900   .bss.t_tyre_RR_2_MSB:00000000 $d
    {standard input}:1907   .bss.t_tyre_RL_1_LSB:00000000 $d
    {standard input}:1914   .bss.t_tyre_FL_6_MSB:00000000 $d
    {standard input}:1921   .bss.t_tyre_FR_5_LSB:00000000 $d
    {standard input}:1928   .bss.t_tyre_FL_4:00000000 $d
    {standard input}:1935   .bss.t_tyre_RR_5_MSB:00000000 $d
    {standard input}:1942   .bss.t_tyre_RL_4_LSB:00000000 $d
    {standard input}:1949   .bss.t_tyre_FR_1:00000000 $d
    {standard input}:1956   .bss.t_tyre_FR_2:00000000 $d
    {standard input}:1963   .bss.t_tyre_FR_3:00000000 $d
    {standard input}:1970   .bss.t_tyre_FR_4:00000000 $d
    {standard input}:1977   .bss.t_tyre_FR_5:00000000 $d
    {standard input}:1984   .bss.t_tyre_FR_6:00000000 $d
    {standard input}:1991   .bss.t_tyre_FL_3_LSB:00000000 $d
    {standard input}:1998   .bss.t_tyre_FR_8_LSB:00000000 $d
    {standard input}:2005   .bss.t_tyre_RR_8_MSB:00000000 $d
    {standard input}:2012   .bss.t_tyre_RL_7_LSB:00000000 $d
    {standard input}:2019   .bss.t_tyre_RR_2_LSB:00000000 $d
    {standard input}:2026   .bss.t_tyre_FL_6_LSB:00000000 $d
    {standard input}:2033   .bss.x_RH_F:00000000 $d
    {standard input}:2040   .bss.t_tyre_RR_8_LSB:00000000 $d
    {standard input}:2047   .bss.t_tyre_RR_5_LSB:00000000 $d
    {standard input}:2054   .bss.t_tyre_RR_2:00000000 $d
    {standard input}:2061   .bss.t_tyre_RR_3:00000000 $d
    {standard input}:2068   .bss.t_tyre_RR_4:00000000 $d
    {standard input}:2075   .bss.t_tyre_RR_5:00000000 $d
    {standard input}:2082   .bss.t_tyre_RR_6:00000000 $d
    {standard input}:2089   .bss.t_tyre_RR_7:00000000 $d
    {standard input}:2096   .bss.t_tyre_RR_8:00000000 $d
    {standard input}:2103   .bss.t_tyre_RR_1:00000000 $d
    {standard input}:2110   .bss.t_tyre_FR_3_MSB:00000000 $d
    {standard input}:2117   .bss.AX:00000000 $d
    {standard input}:2124   .bss.AY:00000000 $d
    {standard input}:2131   .bss.t_tyre_RL_2_MSB:00000000 $d
    {standard input}:2138   .bss.t_tyre_FL_1_MSB:00000000 $d
    {standard input}:2145   .bss.t_tyre_FR_6_MSB:00000000 $d
    {standard input}:2152   .bss.t_tyre_RL_5_MSB:00000000 $d
    {standard input}:2159   .bss.t_tyre_FL_4_MSB:00000000 $d
    {standard input}:2166   .bss.t_VCU:00000000 $d
    {standard input}:2173   .bss.t_tyre_FR_3_LSB:00000000 $d
    {standard input}:2180   .bss.t_tyre_RL_8_MSB:00000000 $d
    {standard input}:2187   .bss.t_tyre_RR_3_MSB:00000000 $d
    {standard input}:2194   .bss.t_tyre_RL_2_LSB:00000000 $d
    {standard input}:2201   .bss.i_tot:00000000 $d
    {standard input}:2208   .bss.t_tyre_FL_7_MSB:00000000 $d
    {standard input}:2215   .bss.t_tyre_FL_1_LSB:00000000 $d
    {standard input}:2222   .bss.t_tyre_FR_6_LSB:00000000 $d
    {standard input}:2229   .bss.t_tyre_RR_6_MSB:00000000 $d
    {standard input}:2236   .bss.t_tyre_RL_5_LSB:00000000 $d

UNDEFINED SYMBOLS
CAN_NODE_MO_ReceiveData
CAN_2_LMO_02_Config
CAN_2_LMO_01_Config
CAN_2_LMO_03_Config
CAN_2_LMO_06_Config
CAN_2_LMO_04_Config
CAN_2_LMO_05_Config
CAN_2_LMO_07_Config
CAN_2_LMO_08_Config
CAN_2_LMO_09_Config
CAN_2_LMO_10_Config
CAN_2_LMO_11_Config
CAN_2_LMO_12_Config
CAN_2_LMO_13_Config
CAN_2_LMO_14_Config
CAN_2_LMO_15_Config
CAN_2_LMO_16_Config
CAN_2_LMO_17_Config
shift
carData
CAN_2_LMO_18_Config
