
Telemetrie_Jr18.elf:     file format elf32-littlearm

Sections:
Idx Name          Size      VMA       LMA       File off  Algn
  0 .text         000031dc  08000000  0c000000  00008000  2**2
                  CONTENTS, ALLOC, LOAD, READONLY, CODE
  1 Stack         00000800  10000000  10000000  00018000  2**0
                  ALLOC
  2 .data         00000404  20000000  0c0031dc  00010000  2**3
                  CONTENTS, ALLOC, LOAD, DATA
  3 .bss          000002ec  20000404  0c0035e0  00010404  2**2
                  ALLOC
  4 .no_init      00000014  2000ffc0  2000ffc0  00017fc0  2**2
                  ALLOC
  5 .debug_frame  0000002c  00000000  00000000  00010404  2**2
                  CONTENTS, READONLY, DEBUGGING
  6 .build_attributes 00000881  00000000  00000000  00010430  2**0
                  CONTENTS, READONLY

Disassembly of section .text:

08000000 <__Vectors>:
 8000000:	00 08 00 10 01 02 00 08 b1 02 00 08 b1 02 00 08     ................
 8000010:	b1 02 00 08 b1 02 00 08 b1 02 00 08 00 00 00 00     ................
	...
 800002c:	b1 02 00 08 b1 02 00 08 00 00 00 00 b1 02 00 08     ................
 800003c:	b1 02 00 08 b1 02 00 08 b1 02 00 08 b1 02 00 08     ................
 800004c:	b1 02 00 08 b1 02 00 08 b1 02 00 08 b1 02 00 08     ................
 800005c:	b1 02 00 08 b1 02 00 08 00 00 00 00 00 00 00 00     ................
 800006c:	00 00 00 00 b1 02 00 08 00 00 00 00 b1 02 00 08     ................
 800007c:	b1 02 00 08 b1 02 00 08 b1 02 00 08 b1 02 00 08     ................
 800008c:	b1 02 00 08 b1 02 00 08 b1 02 00 08 b1 02 00 08     ................
 800009c:	b1 02 00 08 b1 02 00 08 b1 02 00 08 b1 02 00 08     ................
 80000ac:	b1 02 00 08 b1 02 00 08 b1 02 00 08 b1 02 00 08     ................
 80000bc:	b1 02 00 08 b1 02 00 08 b1 02 00 08 b1 02 00 08     ................
 80000cc:	b1 02 00 08 b1 02 00 08 b1 02 00 08 b1 02 00 08     ................
 80000dc:	b1 02 00 08 b1 02 00 08 b1 02 00 08 b1 02 00 08     ................
 80000ec:	b1 02 00 08 b1 02 00 08 b1 02 00 08 b1 02 00 08     ................
 80000fc:	b1 02 00 08 b1 02 00 08 b1 02 00 08 b1 02 00 08     ................
 800010c:	b1 02 00 08 b1 02 00 08 b1 02 00 08 b1 02 00 08     ................
 800011c:	b1 02 00 08 b1 02 00 08 85 2d 00 08 b1 02 00 08     .........-......
 800012c:	b1 02 00 08 b1 02 00 08 b1 02 00 08 b1 02 00 08     ................
 800013c:	b1 02 00 08 b1 02 00 08 b1 02 00 08 b1 02 00 08     ................
 800014c:	b1 02 00 08 b1 02 00 08 b1 02 00 08 b1 02 00 08     ................
 800015c:	b1 02 00 08 00 00 00 00 00 00 00 00 00 00 00 00     ................
 800016c:	00 00 00 00 b1 02 00 08 b1 02 00 08 b1 02 00 08     ................
 800017c:	b1 02 00 08 b1 02 00 08 b1 02 00 08 b1 02 00 08     ................
 800018c:	b1 02 00 08 b1 02 00 08 b1 02 00 08 b1 02 00 08     ................
 800019c:	b1 02 00 08 b1 02 00 08 b1 02 00 08 95 13 00 08     ................
 80001ac:	b1 02 00 08 b1 02 00 08 b1 02 00 08 b1 02 00 08     ................
 80001bc:	b1 02 00 08 b1 02 00 08 b1 02 00 08 b1 02 00 08     ................
 80001cc:	b1 02 00 08 b1 02 00 08 b1 02 00 08 b1 02 00 08     ................
 80001dc:	00 00 00 00 b1 02 00 08 b1 02 00 08 b1 02 00 08     ................
 80001ec:	b1 02 00 08 b1 02 00 08 00 00 00 00 b1 02 00 08     ................
 80001fc:	00 00 00 00                                         ....

08000200 <Reset_Handler>:
 8000200:	f8df d08c 	ldr.w	sp, [pc, #140]	; 8000290 <__zero_table_end__>
 8000204:	4823      	ldr	r0, [pc, #140]	; (8000294 <__zero_table_end__+0x4>)
 8000206:	4780      	blx	r0
 8000208:	4c23      	ldr	r4, [pc, #140]	; (8000298 <__zero_table_end__+0x8>)
 800020a:	4d24      	ldr	r5, [pc, #144]	; (800029c <__zero_table_end__+0xc>)
 800020c:	42ac      	cmp	r4, r5
 800020e:	da09      	bge.n	8000224 <Reset_Handler+0x24>
 8000210:	6821      	ldr	r1, [r4, #0]
 8000212:	6862      	ldr	r2, [r4, #4]
 8000214:	68a3      	ldr	r3, [r4, #8]
 8000216:	3b04      	subs	r3, #4
 8000218:	bfa2      	ittt	ge
 800021a:	58c8      	ldrge	r0, [r1, r3]
 800021c:	50d0      	strge	r0, [r2, r3]
 800021e:	e7fa      	bge.n	8000216 <Reset_Handler+0x16>
 8000220:	340c      	adds	r4, #12
 8000222:	e7f3      	b.n	800020c <Reset_Handler+0xc>
 8000224:	4b1e      	ldr	r3, [pc, #120]	; (80002a0 <__zero_table_end__+0x10>)
 8000226:	4c1f      	ldr	r4, [pc, #124]	; (80002a4 <__zero_table_end__+0x14>)
 8000228:	42a3      	cmp	r3, r4
 800022a:	da08      	bge.n	800023e <Reset_Handler+0x3e>
 800022c:	6819      	ldr	r1, [r3, #0]
 800022e:	685a      	ldr	r2, [r3, #4]
 8000230:	2000      	movs	r0, #0
 8000232:	3a04      	subs	r2, #4
 8000234:	bfa4      	itt	ge
 8000236:	5088      	strge	r0, [r1, r2]
 8000238:	e7fb      	bge.n	8000232 <Reset_Handler+0x32>
 800023a:	3308      	adds	r3, #8
 800023c:	e7f4      	b.n	8000228 <Reset_Handler+0x28>
 800023e:	481a      	ldr	r0, [pc, #104]	; (80002a8 <__zero_table_end__+0x18>)
 8000240:	4780      	blx	r0
 8000242:	481a      	ldr	r0, [pc, #104]	; (80002ac <__zero_table_end__+0x1c>)
 8000244:	4780      	blx	r0
	...

08000248 <__copy_table_start__>:
 8000248:	0c0031dc 	.word	0x0c0031dc
 800024c:	20000000 	.word	0x20000000
 8000250:	00000404 	.word	0x00000404
 8000254:	0c0035e0 	.word	0x0c0035e0
 8000258:	30000000 	.word	0x30000000
 800025c:	00000000 	.word	0x00000000
 8000260:	0c0031dc 	.word	0x0c0031dc
 8000264:	10000800 	.word	0x10000800
 8000268:	00000000 	.word	0x00000000
 800026c:	0c0031dc 	.word	0x0c0031dc
 8000270:	10000800 	.word	0x10000800
 8000274:	00000000 	.word	0x00000000

08000278 <__copy_table_end__>:
 8000278:	20000404 	.word	0x20000404
 800027c:	000002e8 	.word	0x000002e8
 8000280:	30000000 	.word	0x30000000
 8000284:	00000000 	.word	0x00000000
 8000288:	10000800 	.word	0x10000800
 800028c:	00000000 	.word	0x00000000

08000290 <__zero_table_end__>:
 8000290:	10000800 	.word	0x10000800
 8000294:	0800033d 	.word	0x0800033d
 8000298:	08000248 	.word	0x08000248
 800029c:	08000278 	.word	0x08000278
 80002a0:	08000278 	.word	0x08000278
 80002a4:	08000290 	.word	0x08000290
 80002a8:	08002d89 	.word	0x08002d89
 80002ac:	08002cdd 	.word	0x08002cdd

080002b0 <BusFault_Handler>:
 80002b0:	e7fe      	b.n	80002b0 <BusFault_Handler>
	...

080002b4 <SystemCoreClockUpdate>:
 80002b4:	4b1d      	ldr	r3, [pc, #116]	; (800032c <SystemCoreClockUpdate+0x78>)
 80002b6:	68db      	ldr	r3, [r3, #12]
 80002b8:	03d9      	lsls	r1, r3, #15
 80002ba:	b510      	push	{r4, lr}
 80002bc:	d525      	bpl.n	800030a <SystemCoreClockUpdate+0x56>
 80002be:	4b1c      	ldr	r3, [pc, #112]	; (8000330 <SystemCoreClockUpdate+0x7c>)
 80002c0:	68da      	ldr	r2, [r3, #12]
 80002c2:	f012 0f01 	tst.w	r2, #1
 80002c6:	461c      	mov	r4, r3
 80002c8:	d102      	bne.n	80002d0 <SystemCoreClockUpdate+0x1c>
 80002ca:	f001 f993 	bl	80015f4 <OSCHP_GetFrequency>
 80002ce:	e000      	b.n	80002d2 <SystemCoreClockUpdate+0x1e>
 80002d0:	4818      	ldr	r0, [pc, #96]	; (8000334 <SystemCoreClockUpdate+0x80>)
 80002d2:	6822      	ldr	r2, [r4, #0]
 80002d4:	4b16      	ldr	r3, [pc, #88]	; (8000330 <SystemCoreClockUpdate+0x7c>)
 80002d6:	0752      	lsls	r2, r2, #29
 80002d8:	d510      	bpl.n	80002fc <SystemCoreClockUpdate+0x48>
 80002da:	689a      	ldr	r2, [r3, #8]
 80002dc:	6899      	ldr	r1, [r3, #8]
 80002de:	689b      	ldr	r3, [r3, #8]
 80002e0:	f3c2 6203 	ubfx	r2, r2, #24, #4
 80002e4:	f3c3 4406 	ubfx	r4, r3, #16, #7
 80002e8:	1c53      	adds	r3, r2, #1
 80002ea:	fb04 3303 	mla	r3, r4, r3, r3
 80002ee:	fbb0 f0f3 	udiv	r0, r0, r3
 80002f2:	f3c1 2306 	ubfx	r3, r1, #8, #7
 80002f6:	fb03 0000 	mla	r0, r3, r0, r0
 80002fa:	e007      	b.n	800030c <SystemCoreClockUpdate+0x58>
 80002fc:	689b      	ldr	r3, [r3, #8]
 80002fe:	f003 037f 	and.w	r3, r3, #127	; 0x7f
 8000302:	3301      	adds	r3, #1
 8000304:	fbb0 f0f3 	udiv	r0, r0, r3
 8000308:	e000      	b.n	800030c <SystemCoreClockUpdate+0x58>
 800030a:	480a      	ldr	r0, [pc, #40]	; (8000334 <SystemCoreClockUpdate+0x80>)
 800030c:	4a07      	ldr	r2, [pc, #28]	; (800032c <SystemCoreClockUpdate+0x78>)
 800030e:	68d3      	ldr	r3, [r2, #12]
 8000310:	b2db      	uxtb	r3, r3
 8000312:	3301      	adds	r3, #1
 8000314:	fbb0 f0f3 	udiv	r0, r0, r3
 8000318:	6913      	ldr	r3, [r2, #16]
 800031a:	f003 0301 	and.w	r3, r3, #1
 800031e:	3301      	adds	r3, #1
 8000320:	fbb0 f0f3 	udiv	r0, r0, r3
 8000324:	4b04      	ldr	r3, [pc, #16]	; (8000338 <SystemCoreClockUpdate+0x84>)
 8000326:	6018      	str	r0, [r3, #0]
 8000328:	bd10      	pop	{r4, pc}
 800032a:	bf00      	nop
 800032c:	50004600 	.word	0x50004600
 8000330:	50004710 	.word	0x50004710
 8000334:	016e3600 	.word	0x016e3600
 8000338:	2000ffc0 	.word	0x2000ffc0

0800033c <SystemInit>:
 800033c:	b538      	push	{r3, r4, r5, lr}
 800033e:	4a09      	ldr	r2, [pc, #36]	; (8000364 <SystemInit+0x28>)
 8000340:	4d09      	ldr	r5, [pc, #36]	; (8000368 <SystemInit+0x2c>)
 8000342:	f04f 5400 	mov.w	r4, #536870912	; 0x20000000
 8000346:	4623      	mov	r3, r4
 8000348:	cb03      	ldmia	r3!, {r0, r1}
 800034a:	42ab      	cmp	r3, r5
 800034c:	6010      	str	r0, [r2, #0]
 800034e:	6051      	str	r1, [r2, #4]
 8000350:	461c      	mov	r4, r3
 8000352:	f102 0208 	add.w	r2, r2, #8
 8000356:	d1f6      	bne.n	8000346 <SystemInit+0xa>
 8000358:	f001 f90c 	bl	8001574 <SystemCoreSetup>
 800035c:	f001 f94e 	bl	80015fc <SystemCoreClockSetup>
 8000360:	bd38      	pop	{r3, r4, r5, pc}
 8000362:	bf00      	nop
 8000364:	2000ffc4 	.word	0x2000ffc4
 8000368:	20000010 	.word	0x20000010

0800036c <XMC_GPIO_Init>:
 800036c:	f001 03fc 	and.w	r3, r1, #252	; 0xfc
 8000370:	4403      	add	r3, r0
 8000372:	b5f0      	push	{r4, r5, r6, r7, lr}
 8000374:	f001 0403 	and.w	r4, r1, #3
 8000378:	691e      	ldr	r6, [r3, #16]
 800037a:	00e4      	lsls	r4, r4, #3
 800037c:	25f8      	movs	r5, #248	; 0xf8
 800037e:	40a5      	lsls	r5, r4
 8000380:	ea26 0505 	bic.w	r5, r6, r5
 8000384:	611d      	str	r5, [r3, #16]
 8000386:	6f46      	ldr	r6, [r0, #116]	; 0x74
 8000388:	004f      	lsls	r7, r1, #1
 800038a:	2503      	movs	r5, #3
 800038c:	40bd      	lsls	r5, r7
 800038e:	ea26 0505 	bic.w	r5, r6, r5
 8000392:	6745      	str	r5, [r0, #116]	; 0x74
 8000394:	4d16      	ldr	r5, [pc, #88]	; (80003f0 <XMC_GPIO_Init+0x84>)
 8000396:	42a8      	cmp	r0, r5
 8000398:	d003      	beq.n	80003a2 <XMC_GPIO_Init+0x36>
 800039a:	f505 7580 	add.w	r5, r5, #256	; 0x100
 800039e:	42a8      	cmp	r0, r5
 80003a0:	d107      	bne.n	80003b2 <XMC_GPIO_Init+0x46>
 80003a2:	6e05      	ldr	r5, [r0, #96]	; 0x60
 80003a4:	2601      	movs	r6, #1
 80003a6:	fa06 f101 	lsl.w	r1, r6, r1
 80003aa:	ea25 0101 	bic.w	r1, r5, r1
 80003ae:	6601      	str	r1, [r0, #96]	; 0x60
 80003b0:	e018      	b.n	80003e4 <XMC_GPIO_Init+0x78>
 80003b2:	f992 5000 	ldrsb.w	r5, [r2]
 80003b6:	2d00      	cmp	r5, #0
 80003b8:	da14      	bge.n	80003e4 <XMC_GPIO_Init+0x78>
 80003ba:	6855      	ldr	r5, [r2, #4]
 80003bc:	408d      	lsls	r5, r1
 80003be:	6045      	str	r5, [r0, #4]
 80003c0:	08cd      	lsrs	r5, r1, #3
 80003c2:	eb00 0085 	add.w	r0, r0, r5, lsl #2
 80003c6:	f001 0107 	and.w	r1, r1, #7
 80003ca:	6c06      	ldr	r6, [r0, #64]	; 0x40
 80003cc:	0089      	lsls	r1, r1, #2
 80003ce:	2507      	movs	r5, #7
 80003d0:	408d      	lsls	r5, r1
 80003d2:	ea26 0505 	bic.w	r5, r6, r5
 80003d6:	6405      	str	r5, [r0, #64]	; 0x40
 80003d8:	7a16      	ldrb	r6, [r2, #8]
 80003da:	6c05      	ldr	r5, [r0, #64]	; 0x40
 80003dc:	fa06 f101 	lsl.w	r1, r6, r1
 80003e0:	4329      	orrs	r1, r5
 80003e2:	6401      	str	r1, [r0, #64]	; 0x40
 80003e4:	7812      	ldrb	r2, [r2, #0]
 80003e6:	6919      	ldr	r1, [r3, #16]
 80003e8:	40a2      	lsls	r2, r4
 80003ea:	430a      	orrs	r2, r1
 80003ec:	611a      	str	r2, [r3, #16]
 80003ee:	bdf0      	pop	{r4, r5, r6, r7, pc}
 80003f0:	48028e00 	.word	0x48028e00

080003f4 <XMC_SCU_lDelay>:
 80003f4:	b510      	push	{r4, lr}
 80003f6:	4604      	mov	r4, r0
 80003f8:	f7ff ff5c 	bl	80002b4 <SystemCoreClockUpdate>
 80003fc:	4b06      	ldr	r3, [pc, #24]	; (8000418 <XMC_SCU_lDelay+0x24>)
 80003fe:	4807      	ldr	r0, [pc, #28]	; (800041c <XMC_SCU_lDelay+0x28>)
 8000400:	681b      	ldr	r3, [r3, #0]
 8000402:	fbb3 f3f0 	udiv	r3, r3, r0
 8000406:	fb03 f004 	mul.w	r0, r3, r4
 800040a:	2300      	movs	r3, #0
 800040c:	4283      	cmp	r3, r0
 800040e:	d002      	beq.n	8000416 <XMC_SCU_lDelay+0x22>
 8000410:	bf00      	nop
 8000412:	3301      	adds	r3, #1
 8000414:	e7fa      	b.n	800040c <XMC_SCU_lDelay+0x18>
 8000416:	bd10      	pop	{r4, pc}
 8000418:	2000ffc0 	.word	0x2000ffc0
 800041c:	000f4240 	.word	0x000f4240

08000420 <XMC_SCU_RESET_DeassertPeripheralReset>:
 8000420:	0f02      	lsrs	r2, r0, #28
 8000422:	230c      	movs	r3, #12
 8000424:	4353      	muls	r3, r2
 8000426:	4a02      	ldr	r2, [pc, #8]	; (8000430 <XMC_SCU_RESET_DeassertPeripheralReset+0x10>)
 8000428:	f020 4070 	bic.w	r0, r0, #4026531840	; 0xf0000000
 800042c:	5098      	str	r0, [r3, r2]
 800042e:	4770      	bx	lr
 8000430:	50004414 	.word	0x50004414

08000434 <XMC_SCU_CLOCK_GetPeripheralClockFrequency>:
 8000434:	4b03      	ldr	r3, [pc, #12]	; (8000444 <XMC_SCU_CLOCK_GetPeripheralClockFrequency+0x10>)
 8000436:	4a04      	ldr	r2, [pc, #16]	; (8000448 <XMC_SCU_CLOCK_GetPeripheralClockFrequency+0x14>)
 8000438:	695b      	ldr	r3, [r3, #20]
 800043a:	6810      	ldr	r0, [r2, #0]
 800043c:	f003 0301 	and.w	r3, r3, #1
 8000440:	40d8      	lsrs	r0, r3
 8000442:	4770      	bx	lr
 8000444:	50004600 	.word	0x50004600
 8000448:	2000ffc0 	.word	0x2000ffc0

0800044c <XMC_SCU_CLOCK_SetSystemClockSource>:
 800044c:	4a03      	ldr	r2, [pc, #12]	; (800045c <XMC_SCU_CLOCK_SetSystemClockSource+0x10>)
 800044e:	68d3      	ldr	r3, [r2, #12]
 8000450:	f423 3380 	bic.w	r3, r3, #65536	; 0x10000
 8000454:	4318      	orrs	r0, r3
 8000456:	60d0      	str	r0, [r2, #12]
 8000458:	4770      	bx	lr
 800045a:	bf00      	nop
 800045c:	50004600 	.word	0x50004600

08000460 <XMC_SCU_CLOCK_SetUsbClockSource>:
 8000460:	4a03      	ldr	r2, [pc, #12]	; (8000470 <XMC_SCU_CLOCK_SetUsbClockSource+0x10>)
 8000462:	6993      	ldr	r3, [r2, #24]
 8000464:	f423 3380 	bic.w	r3, r3, #65536	; 0x10000
 8000468:	4318      	orrs	r0, r3
 800046a:	6190      	str	r0, [r2, #24]
 800046c:	4770      	bx	lr
 800046e:	bf00      	nop
 8000470:	50004600 	.word	0x50004600

08000474 <XMC_SCU_CLOCK_SetWdtClockSource>:
 8000474:	4a03      	ldr	r2, [pc, #12]	; (8000484 <XMC_SCU_CLOCK_SetWdtClockSource+0x10>)
 8000476:	6a53      	ldr	r3, [r2, #36]	; 0x24
 8000478:	f423 3340 	bic.w	r3, r3, #196608	; 0x30000
 800047c:	4318      	orrs	r0, r3
 800047e:	6250      	str	r0, [r2, #36]	; 0x24
 8000480:	4770      	bx	lr
 8000482:	bf00      	nop
 8000484:	50004600 	.word	0x50004600

08000488 <XMC_SCU_CLOCK_SetSystemPllClockSource>:
 8000488:	4a06      	ldr	r2, [pc, #24]	; (80004a4 <XMC_SCU_CLOCK_SetSystemPllClockSource+0x1c>)
 800048a:	68d3      	ldr	r3, [r2, #12]
 800048c:	b920      	cbnz	r0, 8000498 <XMC_SCU_CLOCK_SetSystemPllClockSource+0x10>
 800048e:	f423 7380 	bic.w	r3, r3, #256	; 0x100
 8000492:	f023 0301 	bic.w	r3, r3, #1
 8000496:	e003      	b.n	80004a0 <XMC_SCU_CLOCK_SetSystemPllClockSource+0x18>
 8000498:	f443 7380 	orr.w	r3, r3, #256	; 0x100
 800049c:	f043 0301 	orr.w	r3, r3, #1
 80004a0:	60d3      	str	r3, [r2, #12]
 80004a2:	4770      	bx	lr
 80004a4:	50004710 	.word	0x50004710

080004a8 <XMC_SCU_HIB_SetRtcClockSource>:
 80004a8:	4b05      	ldr	r3, [pc, #20]	; (80004c0 <XMC_SCU_HIB_SetRtcClockSource+0x18>)
 80004aa:	f8d3 30c4 	ldr.w	r3, [r3, #196]	; 0xc4
 80004ae:	071b      	lsls	r3, r3, #28
 80004b0:	d4fa      	bmi.n	80004a8 <XMC_SCU_HIB_SetRtcClockSource>
 80004b2:	4a04      	ldr	r2, [pc, #16]	; (80004c4 <XMC_SCU_HIB_SetRtcClockSource+0x1c>)
 80004b4:	68d3      	ldr	r3, [r2, #12]
 80004b6:	f023 0340 	bic.w	r3, r3, #64	; 0x40
 80004ba:	4318      	orrs	r0, r3
 80004bc:	60d0      	str	r0, [r2, #12]
 80004be:	4770      	bx	lr
 80004c0:	50004000 	.word	0x50004000
 80004c4:	50004300 	.word	0x50004300

080004c8 <XMC_SCU_HIB_SetStandbyClockSource>:
 80004c8:	4b05      	ldr	r3, [pc, #20]	; (80004e0 <XMC_SCU_HIB_SetStandbyClockSource+0x18>)
 80004ca:	f8d3 30c4 	ldr.w	r3, [r3, #196]	; 0xc4
 80004ce:	071b      	lsls	r3, r3, #28
 80004d0:	d4fa      	bmi.n	80004c8 <XMC_SCU_HIB_SetStandbyClockSource>
 80004d2:	4a04      	ldr	r2, [pc, #16]	; (80004e4 <XMC_SCU_HIB_SetStandbyClockSource+0x1c>)
 80004d4:	68d3      	ldr	r3, [r2, #12]
 80004d6:	f023 0380 	bic.w	r3, r3, #128	; 0x80
 80004da:	4318      	orrs	r0, r3
 80004dc:	60d0      	str	r0, [r2, #12]
 80004de:	4770      	bx	lr
 80004e0:	50004000 	.word	0x50004000
 80004e4:	50004300 	.word	0x50004300

080004e8 <XMC_SCU_CLOCK_SetSystemClockDivider>:
 80004e8:	4a03      	ldr	r2, [pc, #12]	; (80004f8 <XMC_SCU_CLOCK_SetSystemClockDivider+0x10>)
 80004ea:	68d3      	ldr	r3, [r2, #12]
 80004ec:	3801      	subs	r0, #1
 80004ee:	f023 03ff 	bic.w	r3, r3, #255	; 0xff
 80004f2:	4303      	orrs	r3, r0
 80004f4:	60d3      	str	r3, [r2, #12]
 80004f6:	4770      	bx	lr
 80004f8:	50004600 	.word	0x50004600

080004fc <XMC_SCU_CLOCK_SetCcuClockDivider>:
 80004fc:	4a03      	ldr	r2, [pc, #12]	; (800050c <XMC_SCU_CLOCK_SetCcuClockDivider+0x10>)
 80004fe:	6a13      	ldr	r3, [r2, #32]
 8000500:	3801      	subs	r0, #1
 8000502:	f023 0301 	bic.w	r3, r3, #1
 8000506:	4303      	orrs	r3, r0
 8000508:	6213      	str	r3, [r2, #32]
 800050a:	4770      	bx	lr
 800050c:	50004600 	.word	0x50004600

08000510 <XMC_SCU_CLOCK_SetCpuClockDivider>:
 8000510:	4a03      	ldr	r2, [pc, #12]	; (8000520 <XMC_SCU_CLOCK_SetCpuClockDivider+0x10>)
 8000512:	6913      	ldr	r3, [r2, #16]
 8000514:	3801      	subs	r0, #1
 8000516:	f023 0301 	bic.w	r3, r3, #1
 800051a:	4303      	orrs	r3, r0
 800051c:	6113      	str	r3, [r2, #16]
 800051e:	4770      	bx	lr
 8000520:	50004600 	.word	0x50004600

08000524 <XMC_SCU_CLOCK_SetPeripheralClockDivider>:
 8000524:	4a03      	ldr	r2, [pc, #12]	; (8000534 <XMC_SCU_CLOCK_SetPeripheralClockDivider+0x10>)
 8000526:	6953      	ldr	r3, [r2, #20]
 8000528:	3801      	subs	r0, #1
 800052a:	f023 0301 	bic.w	r3, r3, #1
 800052e:	4303      	orrs	r3, r0
 8000530:	6153      	str	r3, [r2, #20]
 8000532:	4770      	bx	lr
 8000534:	50004600 	.word	0x50004600

08000538 <XMC_SCU_CLOCK_SetUsbClockDivider>:
 8000538:	4a03      	ldr	r2, [pc, #12]	; (8000548 <XMC_SCU_CLOCK_SetUsbClockDivider+0x10>)
 800053a:	6993      	ldr	r3, [r2, #24]
 800053c:	3801      	subs	r0, #1
 800053e:	f023 0307 	bic.w	r3, r3, #7
 8000542:	4303      	orrs	r3, r0
 8000544:	6193      	str	r3, [r2, #24]
 8000546:	4770      	bx	lr
 8000548:	50004600 	.word	0x50004600

0800054c <XMC_SCU_CLOCK_SetEbuClockDivider>:
 800054c:	4a03      	ldr	r2, [pc, #12]	; (800055c <XMC_SCU_CLOCK_SetEbuClockDivider+0x10>)
 800054e:	69d3      	ldr	r3, [r2, #28]
 8000550:	3801      	subs	r0, #1
 8000552:	f023 033f 	bic.w	r3, r3, #63	; 0x3f
 8000556:	4303      	orrs	r3, r0
 8000558:	61d3      	str	r3, [r2, #28]
 800055a:	4770      	bx	lr
 800055c:	50004600 	.word	0x50004600

08000560 <XMC_SCU_CLOCK_SetWdtClockDivider>:
 8000560:	4a03      	ldr	r2, [pc, #12]	; (8000570 <XMC_SCU_CLOCK_SetWdtClockDivider+0x10>)
 8000562:	6a53      	ldr	r3, [r2, #36]	; 0x24
 8000564:	3801      	subs	r0, #1
 8000566:	f023 03ff 	bic.w	r3, r3, #255	; 0xff
 800056a:	4303      	orrs	r3, r0
 800056c:	6253      	str	r3, [r2, #36]	; 0x24
 800056e:	4770      	bx	lr
 8000570:	50004600 	.word	0x50004600

08000574 <XMC_SCU_CLOCK_EnableClock>:
 8000574:	4b01      	ldr	r3, [pc, #4]	; (800057c <XMC_SCU_CLOCK_EnableClock+0x8>)
 8000576:	6058      	str	r0, [r3, #4]
 8000578:	4770      	bx	lr
 800057a:	bf00      	nop
 800057c:	50004600 	.word	0x50004600

08000580 <XMC_SCU_CLOCK_StartUsbPll>:
 8000580:	4b0f      	ldr	r3, [pc, #60]	; (80005c0 <XMC_SCU_CLOCK_StartUsbPll+0x40>)
 8000582:	695a      	ldr	r2, [r3, #20]
 8000584:	f042 0201 	orr.w	r2, r2, #1
 8000588:	615a      	str	r2, [r3, #20]
 800058a:	695a      	ldr	r2, [r3, #20]
 800058c:	3801      	subs	r0, #1
 800058e:	3901      	subs	r1, #1
 8000590:	0600      	lsls	r0, r0, #24
 8000592:	f042 0210 	orr.w	r2, r2, #16
 8000596:	ea40 2101 	orr.w	r1, r0, r1, lsl #8
 800059a:	615a      	str	r2, [r3, #20]
 800059c:	6159      	str	r1, [r3, #20]
 800059e:	695a      	ldr	r2, [r3, #20]
 80005a0:	f042 0240 	orr.w	r2, r2, #64	; 0x40
 80005a4:	615a      	str	r2, [r3, #20]
 80005a6:	695a      	ldr	r2, [r3, #20]
 80005a8:	f022 0210 	bic.w	r2, r2, #16
 80005ac:	615a      	str	r2, [r3, #20]
 80005ae:	695a      	ldr	r2, [r3, #20]
 80005b0:	f442 2280 	orr.w	r2, r2, #262144	; 0x40000
 80005b4:	615a      	str	r2, [r3, #20]
 80005b6:	691a      	ldr	r2, [r3, #16]
 80005b8:	0752      	lsls	r2, r2, #29
 80005ba:	d5fc      	bpl.n	80005b6 <XMC_SCU_CLOCK_StartUsbPll+0x36>
 80005bc:	4770      	bx	lr
 80005be:	bf00      	nop
 80005c0:	50004710 	.word	0x50004710

080005c4 <XMC_SCU_CLOCK_SetBackupClockCalibrationMode>:
 80005c4:	b510      	push	{r4, lr}
 80005c6:	4c0b      	ldr	r4, [pc, #44]	; (80005f4 <XMC_SCU_CLOCK_SetBackupClockCalibrationMode+0x30>)
 80005c8:	6863      	ldr	r3, [r4, #4]
 80005ca:	2801      	cmp	r0, #1
 80005cc:	f443 1380 	orr.w	r3, r3, #1048576	; 0x100000
 80005d0:	6063      	str	r3, [r4, #4]
 80005d2:	d10a      	bne.n	80005ea <XMC_SCU_CLOCK_SetBackupClockCalibrationMode+0x26>
 80005d4:	6863      	ldr	r3, [r4, #4]
 80005d6:	f423 1380 	bic.w	r3, r3, #1048576	; 0x100000
 80005da:	6063      	str	r3, [r4, #4]
 80005dc:	2064      	movs	r0, #100	; 0x64
 80005de:	f7ff ff09 	bl	80003f4 <XMC_SCU_lDelay>
 80005e2:	6863      	ldr	r3, [r4, #4]
 80005e4:	f443 2300 	orr.w	r3, r3, #524288	; 0x80000
 80005e8:	6063      	str	r3, [r4, #4]
 80005ea:	2064      	movs	r0, #100	; 0x64
 80005ec:	e8bd 4010 	ldmia.w	sp!, {r4, lr}
 80005f0:	f7ff bf00 	b.w	80003f4 <XMC_SCU_lDelay>
 80005f4:	50004710 	.word	0x50004710

080005f8 <XMC_SCU_HIB_EnableHibernateDomain>:
 80005f8:	4b0a      	ldr	r3, [pc, #40]	; (8000624 <XMC_SCU_HIB_EnableHibernateDomain+0x2c>)
 80005fa:	681a      	ldr	r2, [r3, #0]
 80005fc:	07d2      	lsls	r2, r2, #31
 80005fe:	d504      	bpl.n	800060a <XMC_SCU_HIB_EnableHibernateDomain+0x12>
 8000600:	4b09      	ldr	r3, [pc, #36]	; (8000628 <XMC_SCU_HIB_EnableHibernateDomain+0x30>)
 8000602:	681a      	ldr	r2, [r3, #0]
 8000604:	0590      	lsls	r0, r2, #22
 8000606:	d406      	bmi.n	8000616 <XMC_SCU_HIB_EnableHibernateDomain+0x1e>
 8000608:	4770      	bx	lr
 800060a:	2201      	movs	r2, #1
 800060c:	605a      	str	r2, [r3, #4]
 800060e:	681a      	ldr	r2, [r3, #0]
 8000610:	07d1      	lsls	r1, r2, #31
 8000612:	d5fc      	bpl.n	800060e <XMC_SCU_HIB_EnableHibernateDomain+0x16>
 8000614:	e7f4      	b.n	8000600 <XMC_SCU_HIB_EnableHibernateDomain+0x8>
 8000616:	f44f 7200 	mov.w	r2, #512	; 0x200
 800061a:	609a      	str	r2, [r3, #8]
 800061c:	681a      	ldr	r2, [r3, #0]
 800061e:	0592      	lsls	r2, r2, #22
 8000620:	d4fc      	bmi.n	800061c <XMC_SCU_HIB_EnableHibernateDomain+0x24>
 8000622:	4770      	bx	lr
 8000624:	50004200 	.word	0x50004200
 8000628:	50004400 	.word	0x50004400

0800062c <XMC_SCU_CLOCK_IsLowPowerOscillatorStable>:
 800062c:	4b03      	ldr	r3, [pc, #12]	; (800063c <XMC_SCU_CLOCK_IsLowPowerOscillatorStable+0x10>)
 800062e:	6818      	ldr	r0, [r3, #0]
 8000630:	f080 0008 	eor.w	r0, r0, #8
 8000634:	f3c0 00c0 	ubfx	r0, r0, #3, #1
 8000638:	4770      	bx	lr
 800063a:	bf00      	nop
 800063c:	50004300 	.word	0x50004300

08000640 <XMC_SCU_CLOCK_EnableLowPowerOscillator>:
 8000640:	4b10      	ldr	r3, [pc, #64]	; (8000684 <XMC_SCU_CLOCK_EnableLowPowerOscillator+0x44>)
 8000642:	f8d3 20c4 	ldr.w	r2, [r3, #196]	; 0xc4
 8000646:	f012 0f80 	tst.w	r2, #128	; 0x80
 800064a:	461a      	mov	r2, r3
 800064c:	d1f8      	bne.n	8000640 <XMC_SCU_CLOCK_EnableLowPowerOscillator>
 800064e:	f503 7340 	add.w	r3, r3, #768	; 0x300
 8000652:	69d9      	ldr	r1, [r3, #28]
 8000654:	f021 0130 	bic.w	r1, r1, #48	; 0x30
 8000658:	61d9      	str	r1, [r3, #28]
 800065a:	f8d2 10c4 	ldr.w	r1, [r2, #196]	; 0xc4
 800065e:	0709      	lsls	r1, r1, #28
 8000660:	d4fb      	bmi.n	800065a <XMC_SCU_CLOCK_EnableLowPowerOscillator+0x1a>
 8000662:	68da      	ldr	r2, [r3, #12]
 8000664:	f042 0208 	orr.w	r2, r2, #8
 8000668:	60da      	str	r2, [r3, #12]
 800066a:	4b06      	ldr	r3, [pc, #24]	; (8000684 <XMC_SCU_CLOCK_EnableLowPowerOscillator+0x44>)
 800066c:	f8d3 20c4 	ldr.w	r2, [r3, #196]	; 0xc4
 8000670:	0752      	lsls	r2, r2, #29
 8000672:	d4fa      	bmi.n	800066a <XMC_SCU_CLOCK_EnableLowPowerOscillator+0x2a>
 8000674:	4a04      	ldr	r2, [pc, #16]	; (8000688 <XMC_SCU_CLOCK_EnableLowPowerOscillator+0x48>)
 8000676:	2108      	movs	r1, #8
 8000678:	6091      	str	r1, [r2, #8]
 800067a:	f8d3 20c4 	ldr.w	r2, [r3, #196]	; 0xc4
 800067e:	2a00      	cmp	r2, #0
 8000680:	d1fb      	bne.n	800067a <XMC_SCU_CLOCK_EnableLowPowerOscillator+0x3a>
 8000682:	4770      	bx	lr
 8000684:	50004000 	.word	0x50004000
 8000688:	50004300 	.word	0x50004300

0800068c <XMC_SCU_CLOCK_EnableHighPerformanceOscillator>:
 800068c:	b570      	push	{r4, r5, r6, lr}
 800068e:	4d0c      	ldr	r5, [pc, #48]	; (80006c0 <XMC_SCU_CLOCK_EnableHighPerformanceOscillator+0x34>)
 8000690:	4e0c      	ldr	r6, [pc, #48]	; (80006c4 <XMC_SCU_CLOCK_EnableHighPerformanceOscillator+0x38>)
 8000692:	686b      	ldr	r3, [r5, #4]
 8000694:	f423 3380 	bic.w	r3, r3, #65536	; 0x10000
 8000698:	606b      	str	r3, [r5, #4]
 800069a:	6874      	ldr	r4, [r6, #4]
 800069c:	f000 ffaa 	bl	80015f4 <OSCHP_GetFrequency>
 80006a0:	4b09      	ldr	r3, [pc, #36]	; (80006c8 <XMC_SCU_CLOCK_EnableHighPerformanceOscillator+0x3c>)
 80006a2:	fbb0 f0f3 	udiv	r0, r0, r3
 80006a6:	f424 2370 	bic.w	r3, r4, #983040	; 0xf0000
 80006aa:	3801      	subs	r0, #1
 80006ac:	f023 0330 	bic.w	r3, r3, #48	; 0x30
 80006b0:	ea43 4300 	orr.w	r3, r3, r0, lsl #16
 80006b4:	6073      	str	r3, [r6, #4]
 80006b6:	686b      	ldr	r3, [r5, #4]
 80006b8:	f423 3300 	bic.w	r3, r3, #131072	; 0x20000
 80006bc:	606b      	str	r3, [r5, #4]
 80006be:	bd70      	pop	{r4, r5, r6, pc}
 80006c0:	50004710 	.word	0x50004710
 80006c4:	50004700 	.word	0x50004700
 80006c8:	002625a0 	.word	0x002625a0

080006cc <XMC_SCU_CLOCK_IsHighPerformanceOscillatorStable>:
 80006cc:	4b04      	ldr	r3, [pc, #16]	; (80006e0 <XMC_SCU_CLOCK_IsHighPerformanceOscillatorStable+0x14>)
 80006ce:	6818      	ldr	r0, [r3, #0]
 80006d0:	f400 7060 	and.w	r0, r0, #896	; 0x380
 80006d4:	f5a0 7360 	sub.w	r3, r0, #896	; 0x380
 80006d8:	4258      	negs	r0, r3
 80006da:	4158      	adcs	r0, r3
 80006dc:	4770      	bx	lr
 80006de:	bf00      	nop
 80006e0:	50004710 	.word	0x50004710

080006e4 <XMC_SCU_CLOCK_EnableSystemPll>:
 80006e4:	4a03      	ldr	r2, [pc, #12]	; (80006f4 <XMC_SCU_CLOCK_EnableSystemPll+0x10>)
 80006e6:	6853      	ldr	r3, [r2, #4]
 80006e8:	f423 3380 	bic.w	r3, r3, #65536	; 0x10000
 80006ec:	f023 0302 	bic.w	r3, r3, #2
 80006f0:	6053      	str	r3, [r2, #4]
 80006f2:	4770      	bx	lr
 80006f4:	50004710 	.word	0x50004710

080006f8 <XMC_SCU_CLOCK_DisableSystemPll>:
 80006f8:	4a03      	ldr	r2, [pc, #12]	; (8000708 <XMC_SCU_CLOCK_DisableSystemPll+0x10>)
 80006fa:	6853      	ldr	r3, [r2, #4]
 80006fc:	f443 3380 	orr.w	r3, r3, #65536	; 0x10000
 8000700:	f043 0302 	orr.w	r3, r3, #2
 8000704:	6053      	str	r3, [r2, #4]
 8000706:	4770      	bx	lr
 8000708:	50004710 	.word	0x50004710

0800070c <XMC_SCU_CLOCK_StepSystemPllFrequency>:
 800070c:	4a05      	ldr	r2, [pc, #20]	; (8000724 <XMC_SCU_CLOCK_StepSystemPllFrequency+0x18>)
 800070e:	6893      	ldr	r3, [r2, #8]
 8000710:	3801      	subs	r0, #1
 8000712:	f423 03fe 	bic.w	r3, r3, #8323072	; 0x7f0000
 8000716:	ea43 4300 	orr.w	r3, r3, r0, lsl #16
 800071a:	6093      	str	r3, [r2, #8]
 800071c:	2032      	movs	r0, #50	; 0x32
 800071e:	f7ff be69 	b.w	80003f4 <XMC_SCU_lDelay>
 8000722:	bf00      	nop
 8000724:	50004710 	.word	0x50004710

08000728 <XMC_SCU_CLOCK_StartSystemPll>:
 8000728:	e92d 41f0 	stmdb	sp!, {r4, r5, r6, r7, r8, lr}
 800072c:	460c      	mov	r4, r1
 800072e:	4605      	mov	r5, r0
 8000730:	4690      	mov	r8, r2
 8000732:	461f      	mov	r7, r3
 8000734:	9e06      	ldr	r6, [sp, #24]
 8000736:	f7ff fea7 	bl	8000488 <XMC_SCU_CLOCK_SetSystemPllClockSource>
 800073a:	2c01      	cmp	r4, #1
 800073c:	4c31      	ldr	r4, [pc, #196]	; (8000804 <XMC_SCU_CLOCK_StartSystemPll+0xdc>)
 800073e:	d152      	bne.n	80007e6 <XMC_SCU_CLOCK_StartSystemPll+0xbe>
 8000740:	b935      	cbnz	r5, 8000750 <XMC_SCU_CLOCK_StartSystemPll+0x28>
 8000742:	f000 ff57 	bl	80015f4 <OSCHP_GetFrequency>
 8000746:	4d30      	ldr	r5, [pc, #192]	; (8000808 <XMC_SCU_CLOCK_StartSystemPll+0xe0>)
 8000748:	fbb0 f0f5 	udiv	r0, r0, r5
 800074c:	0580      	lsls	r0, r0, #22
 800074e:	e001      	b.n	8000754 <XMC_SCU_CLOCK_StartSystemPll+0x2c>
 8000750:	f04f 60c0 	mov.w	r0, #100663296	; 0x6000000
 8000754:	6863      	ldr	r3, [r4, #4]
 8000756:	f043 0301 	orr.w	r3, r3, #1
 800075a:	6063      	str	r3, [r4, #4]
 800075c:	6863      	ldr	r3, [r4, #4]
 800075e:	f043 0310 	orr.w	r3, r3, #16
 8000762:	6063      	str	r3, [r4, #4]
 8000764:	68a1      	ldr	r1, [r4, #8]
 8000766:	4b29      	ldr	r3, [pc, #164]	; (800080c <XMC_SCU_CLOCK_StartSystemPll+0xe4>)
 8000768:	f108 32ff 	add.w	r2, r8, #4294967295
 800076c:	400b      	ands	r3, r1
 800076e:	ea43 6302 	orr.w	r3, r3, r2, lsl #24
 8000772:	1e7a      	subs	r2, r7, #1
 8000774:	ea43 2202 	orr.w	r2, r3, r2, lsl #8
 8000778:	4378      	muls	r0, r7
 800077a:	2318      	movs	r3, #24
 800077c:	fbb0 f5f8 	udiv	r5, r0, r8
 8000780:	fbb5 f3f3 	udiv	r3, r5, r3
 8000784:	0d9b      	lsrs	r3, r3, #22
 8000786:	3b01      	subs	r3, #1
 8000788:	ea42 4303 	orr.w	r3, r2, r3, lsl #16
 800078c:	60a3      	str	r3, [r4, #8]
 800078e:	6863      	ldr	r3, [r4, #4]
 8000790:	f043 0340 	orr.w	r3, r3, #64	; 0x40
 8000794:	6063      	str	r3, [r4, #4]
 8000796:	6863      	ldr	r3, [r4, #4]
 8000798:	f023 0310 	bic.w	r3, r3, #16
 800079c:	6063      	str	r3, [r4, #4]
 800079e:	6863      	ldr	r3, [r4, #4]
 80007a0:	f443 2380 	orr.w	r3, r3, #262144	; 0x40000
 80007a4:	6063      	str	r3, [r4, #4]
 80007a6:	6823      	ldr	r3, [r4, #0]
 80007a8:	4a16      	ldr	r2, [pc, #88]	; (8000804 <XMC_SCU_CLOCK_StartSystemPll+0xdc>)
 80007aa:	0759      	lsls	r1, r3, #29
 80007ac:	d5fb      	bpl.n	80007a6 <XMC_SCU_CLOCK_StartSystemPll+0x7e>
 80007ae:	6853      	ldr	r3, [r2, #4]
 80007b0:	f023 0301 	bic.w	r3, r3, #1
 80007b4:	6053      	str	r3, [r2, #4]
 80007b6:	6823      	ldr	r3, [r4, #0]
 80007b8:	07da      	lsls	r2, r3, #31
 80007ba:	d4fc      	bmi.n	80007b6 <XMC_SCU_CLOCK_StartSystemPll+0x8e>
 80007bc:	203c      	movs	r0, #60	; 0x3c
 80007be:	fbb5 f0f0 	udiv	r0, r5, r0
 80007c2:	0d80      	lsrs	r0, r0, #22
 80007c4:	4286      	cmp	r6, r0
 80007c6:	d201      	bcs.n	80007cc <XMC_SCU_CLOCK_StartSystemPll+0xa4>
 80007c8:	f7ff ffa0 	bl	800070c <XMC_SCU_CLOCK_StepSystemPllFrequency>
 80007cc:	205a      	movs	r0, #90	; 0x5a
 80007ce:	fbb5 f0f0 	udiv	r0, r5, r0
 80007d2:	0d80      	lsrs	r0, r0, #22
 80007d4:	4286      	cmp	r6, r0
 80007d6:	d201      	bcs.n	80007dc <XMC_SCU_CLOCK_StartSystemPll+0xb4>
 80007d8:	f7ff ff98 	bl	800070c <XMC_SCU_CLOCK_StepSystemPllFrequency>
 80007dc:	4630      	mov	r0, r6
 80007de:	e8bd 41f0 	ldmia.w	sp!, {r4, r5, r6, r7, r8, lr}
 80007e2:	f7ff bf93 	b.w	800070c <XMC_SCU_CLOCK_StepSystemPllFrequency>
 80007e6:	68a3      	ldr	r3, [r4, #8]
 80007e8:	3e01      	subs	r6, #1
 80007ea:	f023 037f 	bic.w	r3, r3, #127	; 0x7f
 80007ee:	431e      	orrs	r6, r3
 80007f0:	60a6      	str	r6, [r4, #8]
 80007f2:	6863      	ldr	r3, [r4, #4]
 80007f4:	f043 0301 	orr.w	r3, r3, #1
 80007f8:	6063      	str	r3, [r4, #4]
 80007fa:	6823      	ldr	r3, [r4, #0]
 80007fc:	07db      	lsls	r3, r3, #31
 80007fe:	d5fc      	bpl.n	80007fa <XMC_SCU_CLOCK_StartSystemPll+0xd2>
 8000800:	e8bd 81f0 	ldmia.w	sp!, {r4, r5, r6, r7, r8, pc}
 8000804:	50004710 	.word	0x50004710
 8000808:	000f4240 	.word	0x000f4240
 800080c:	f08080ff 	.word	0xf08080ff

08000810 <XMC_SCU_CLOCK_Init>:
 8000810:	b537      	push	{r0, r1, r2, r4, r5, lr}
 8000812:	4604      	mov	r4, r0
 8000814:	2000      	movs	r0, #0
 8000816:	f7ff fe19 	bl	800044c <XMC_SCU_CLOCK_SetSystemClockSource>
 800081a:	f7ff feed 	bl	80005f8 <XMC_SCU_HIB_EnableHibernateDomain>
 800081e:	79e3      	ldrb	r3, [r4, #7]
 8000820:	b91b      	cbnz	r3, 800082a <XMC_SCU_CLOCK_Init+0x1a>
 8000822:	7a60      	ldrb	r0, [r4, #9]
 8000824:	f7ff fe50 	bl	80004c8 <XMC_SCU_HIB_SetStandbyClockSource>
 8000828:	e006      	b.n	8000838 <XMC_SCU_CLOCK_Init+0x28>
 800082a:	f7ff ff09 	bl	8000640 <XMC_SCU_CLOCK_EnableLowPowerOscillator>
 800082e:	f7ff fefd 	bl	800062c <XMC_SCU_CLOCK_IsLowPowerOscillatorStable>
 8000832:	2800      	cmp	r0, #0
 8000834:	d0fb      	beq.n	800082e <XMC_SCU_CLOCK_Init+0x1e>
 8000836:	e7f4      	b.n	8000822 <XMC_SCU_CLOCK_Init+0x12>
 8000838:	4b1b      	ldr	r3, [pc, #108]	; (80008a8 <XMC_SCU_CLOCK_Init+0x98>)
 800083a:	f8d3 30c4 	ldr.w	r3, [r3, #196]	; 0xc4
 800083e:	2b00      	cmp	r3, #0
 8000840:	d1fa      	bne.n	8000838 <XMC_SCU_CLOCK_Init+0x28>
 8000842:	7a20      	ldrb	r0, [r4, #8]
 8000844:	f7ff febe 	bl	80005c4 <XMC_SCU_CLOCK_SetBackupClockCalibrationMode>
 8000848:	7c20      	ldrb	r0, [r4, #16]
 800084a:	f7ff fe4d 	bl	80004e8 <XMC_SCU_CLOCK_SetSystemClockDivider>
 800084e:	7c60      	ldrb	r0, [r4, #17]
 8000850:	f7ff fe5e 	bl	8000510 <XMC_SCU_CLOCK_SetCpuClockDivider>
 8000854:	7ca0      	ldrb	r0, [r4, #18]
 8000856:	f7ff fe51 	bl	80004fc <XMC_SCU_CLOCK_SetCcuClockDivider>
 800085a:	7ce0      	ldrb	r0, [r4, #19]
 800085c:	f7ff fe62 	bl	8000524 <XMC_SCU_CLOCK_SetPeripheralClockDivider>
 8000860:	79a3      	ldrb	r3, [r4, #6]
 8000862:	b923      	cbnz	r3, 800086e <XMC_SCU_CLOCK_Init+0x5e>
 8000864:	78e3      	ldrb	r3, [r4, #3]
 8000866:	b94b      	cbnz	r3, 800087c <XMC_SCU_CLOCK_Init+0x6c>
 8000868:	f7ff ff46 	bl	80006f8 <XMC_SCU_CLOCK_DisableSystemPll>
 800086c:	e010      	b.n	8000890 <XMC_SCU_CLOCK_Init+0x80>
 800086e:	f7ff ff0d 	bl	800068c <XMC_SCU_CLOCK_EnableHighPerformanceOscillator>
 8000872:	f7ff ff2b 	bl	80006cc <XMC_SCU_CLOCK_IsHighPerformanceOscillatorStable>
 8000876:	2800      	cmp	r0, #0
 8000878:	d0fb      	beq.n	8000872 <XMC_SCU_CLOCK_Init+0x62>
 800087a:	e7f3      	b.n	8000864 <XMC_SCU_CLOCK_Init+0x54>
 800087c:	f7ff ff32 	bl	80006e4 <XMC_SCU_CLOCK_EnableSystemPll>
 8000880:	78a5      	ldrb	r5, [r4, #2]
 8000882:	88a0      	ldrh	r0, [r4, #4]
 8000884:	78e1      	ldrb	r1, [r4, #3]
 8000886:	7862      	ldrb	r2, [r4, #1]
 8000888:	7823      	ldrb	r3, [r4, #0]
 800088a:	9500      	str	r5, [sp, #0]
 800088c:	f7ff ff4c 	bl	8000728 <XMC_SCU_CLOCK_StartSystemPll>
 8000890:	68e0      	ldr	r0, [r4, #12]
 8000892:	f5b0 3f80 	cmp.w	r0, #65536	; 0x10000
 8000896:	d101      	bne.n	800089c <XMC_SCU_CLOCK_Init+0x8c>
 8000898:	f7ff fdd8 	bl	800044c <XMC_SCU_CLOCK_SetSystemClockSource>
 800089c:	b003      	add	sp, #12
 800089e:	e8bd 4030 	ldmia.w	sp!, {r4, r5, lr}
 80008a2:	f7ff bd07 	b.w	80002b4 <SystemCoreClockUpdate>
 80008a6:	bf00      	nop
 80008a8:	50004000 	.word	0x50004000

080008ac <XMC_CAN_NODE_NominalBitTimeConfigure>:
 80008ac:	680b      	ldr	r3, [r1, #0]
 80008ae:	e92d 43f0 	stmdb	sp!, {r4, r5, r6, r7, r8, r9, lr}
 80008b2:	f04f 080a 	mov.w	r8, #10
 80008b6:	fb08 f803 	mul.w	r8, r8, r3
 80008ba:	f8d1 e004 	ldr.w	lr, [r1, #4]
 80008be:	2300      	movs	r3, #0
 80008c0:	f242 7910 	movw	r9, #10000	; 0x2710
 80008c4:	461e      	mov	r6, r3
 80008c6:	2701      	movs	r7, #1
 80008c8:	220a      	movs	r2, #10
 80008ca:	fbb8 f4f7 	udiv	r4, r8, r7
 80008ce:	fbb4 fcfe 	udiv	ip, r4, lr
 80008d2:	fbbc f5f2 	udiv	r5, ip, r2
 80008d6:	fb02 cc15 	mls	ip, r2, r5, ip
 80008da:	f1bc 0f05 	cmp.w	ip, #5
 80008de:	4694      	mov	ip, r2
 80008e0:	d901      	bls.n	80008e6 <XMC_CAN_NODE_NominalBitTimeConfigure+0x3a>
 80008e2:	3501      	adds	r5, #1
 80008e4:	e000      	b.n	80008e8 <XMC_CAN_NODE_NominalBitTimeConfigure+0x3c>
 80008e6:	b125      	cbz	r5, 80008f2 <XMC_CAN_NODE_NominalBitTimeConfigure+0x46>
 80008e8:	fb0c f205 	mul.w	r2, ip, r5
 80008ec:	fbb4 f2f2 	udiv	r2, r4, r2
 80008f0:	e002      	b.n	80008f8 <XMC_CAN_NODE_NominalBitTimeConfigure+0x4c>
 80008f2:	2501      	movs	r5, #1
 80008f4:	fbb4 f2f2 	udiv	r2, r4, r2
 80008f8:	4572      	cmp	r2, lr
 80008fa:	bf2c      	ite	cs
 80008fc:	ebce 0202 	rsbcs	r2, lr, r2
 8000900:	ebc2 020e 	rsbcc	r2, r2, lr
 8000904:	2d14      	cmp	r5, #20
 8000906:	d807      	bhi.n	8000918 <XMC_CAN_NODE_NominalBitTimeConfigure+0x6c>
 8000908:	4591      	cmp	r9, r2
 800090a:	d905      	bls.n	8000918 <XMC_CAN_NODE_NominalBitTimeConfigure+0x6c>
 800090c:	f5b2 7f7a 	cmp.w	r2, #1000	; 0x3e8
 8000910:	d306      	bcc.n	8000920 <XMC_CAN_NODE_NominalBitTimeConfigure+0x74>
 8000912:	4691      	mov	r9, r2
 8000914:	462b      	mov	r3, r5
 8000916:	463e      	mov	r6, r7
 8000918:	3701      	adds	r7, #1
 800091a:	2f41      	cmp	r7, #65	; 0x41
 800091c:	d1d4      	bne.n	80008c8 <XMC_CAN_NODE_NominalBitTimeConfigure+0x1c>
 800091e:	e001      	b.n	8000924 <XMC_CAN_NODE_NominalBitTimeConfigure+0x78>
 8000920:	462b      	mov	r3, r5
 8000922:	463e      	mov	r6, r7
 8000924:	890f      	ldrh	r7, [r1, #8]
 8000926:	f242 7e10 	movw	lr, #10000	; 0x2710
 800092a:	2401      	movs	r4, #1
 800092c:	2540      	movs	r5, #64	; 0x40
 800092e:	f242 7210 	movw	r2, #10000	; 0x2710
 8000932:	fb05 2202 	mla	r2, r5, r2, r2
 8000936:	fbb2 f2f3 	udiv	r2, r2, r3
 800093a:	42ba      	cmp	r2, r7
 800093c:	d305      	bcc.n	800094a <XMC_CAN_NODE_NominalBitTimeConfigure+0x9e>
 800093e:	1bd2      	subs	r2, r2, r7
 8000940:	4596      	cmp	lr, r2
 8000942:	d907      	bls.n	8000954 <XMC_CAN_NODE_NominalBitTimeConfigure+0xa8>
 8000944:	4696      	mov	lr, r2
 8000946:	462c      	mov	r4, r5
 8000948:	e004      	b.n	8000954 <XMC_CAN_NODE_NominalBitTimeConfigure+0xa8>
 800094a:	1aba      	subs	r2, r7, r2
 800094c:	4596      	cmp	lr, r2
 800094e:	bf88      	it	hi
 8000950:	462c      	movhi	r4, r5
 8000952:	e002      	b.n	800095a <XMC_CAN_NODE_NominalBitTimeConfigure+0xae>
 8000954:	3d01      	subs	r5, #1
 8000956:	2d02      	cmp	r5, #2
 8000958:	d1e9      	bne.n	800092e <XMC_CAN_NODE_NominalBitTimeConfigure+0x82>
 800095a:	6802      	ldr	r2, [r0, #0]
 800095c:	f042 0240 	orr.w	r2, r2, #64	; 0x40
 8000960:	6002      	str	r2, [r0, #0]
 8000962:	894a      	ldrh	r2, [r1, #10]
 8000964:	3a01      	subs	r2, #1
 8000966:	3e01      	subs	r6, #1
 8000968:	0192      	lsls	r2, r2, #6
 800096a:	1e61      	subs	r1, r4, #1
 800096c:	f006 063f 	and.w	r6, r6, #63	; 0x3f
 8000970:	b2d2      	uxtb	r2, r2
 8000972:	0209      	lsls	r1, r1, #8
 8000974:	4332      	orrs	r2, r6
 8000976:	f401 6170 	and.w	r1, r1, #3840	; 0xf00
 800097a:	4311      	orrs	r1, r2
 800097c:	1e9a      	subs	r2, r3, #2
 800097e:	1b13      	subs	r3, r2, r4
 8000980:	031b      	lsls	r3, r3, #12
 8000982:	f403 43e0 	and.w	r3, r3, #28672	; 0x7000
 8000986:	430b      	orrs	r3, r1
 8000988:	6103      	str	r3, [r0, #16]
 800098a:	6803      	ldr	r3, [r0, #0]
 800098c:	f023 0340 	bic.w	r3, r3, #64	; 0x40
 8000990:	6003      	str	r3, [r0, #0]
 8000992:	e8bd 83f0 	ldmia.w	sp!, {r4, r5, r6, r7, r8, r9, pc}

08000996 <XMC_CAN_AllocateMOtoNodeList>:
 8000996:	f8d0 31c4 	ldr.w	r3, [r0, #452]	; 0x1c4
 800099a:	f413 7f40 	tst.w	r3, #768	; 0x300
 800099e:	d1fa      	bne.n	8000996 <XMC_CAN_AllocateMOtoNodeList>
 80009a0:	0412      	lsls	r2, r2, #16
 80009a2:	f042 0202 	orr.w	r2, r2, #2
 80009a6:	3101      	adds	r1, #1
 80009a8:	ea42 6101 	orr.w	r1, r2, r1, lsl #24
 80009ac:	f8c0 11c4 	str.w	r1, [r0, #452]	; 0x1c4
 80009b0:	4770      	bx	lr
	...

080009b4 <XMC_CAN_Enable>:
 80009b4:	b510      	push	{r4, lr}
 80009b6:	4604      	mov	r4, r0
 80009b8:	4805      	ldr	r0, [pc, #20]	; (80009d0 <XMC_CAN_Enable+0x1c>)
 80009ba:	f7ff fd31 	bl	8000420 <XMC_SCU_RESET_DeassertPeripheralReset>
 80009be:	6823      	ldr	r3, [r4, #0]
 80009c0:	f023 0301 	bic.w	r3, r3, #1
 80009c4:	6023      	str	r3, [r4, #0]
 80009c6:	6823      	ldr	r3, [r4, #0]
 80009c8:	079b      	lsls	r3, r3, #30
 80009ca:	d4fc      	bmi.n	80009c6 <XMC_CAN_Enable+0x12>
 80009cc:	bd10      	pop	{r4, pc}
 80009ce:	bf00      	nop
 80009d0:	10000010 	.word	0x10000010

080009d4 <XMC_CAN_Init>:
 80009d4:	b570      	push	{r4, r5, r6, lr}
 80009d6:	460e      	mov	r6, r1
 80009d8:	4605      	mov	r5, r0
 80009da:	f7ff fd2b 	bl	8000434 <XMC_SCU_CLOCK_GetPeripheralClockFrequency>
 80009de:	4604      	mov	r4, r0
 80009e0:	4628      	mov	r0, r5
 80009e2:	f7ff ffe7 	bl	80009b4 <XMC_CAN_Enable>
 80009e6:	fbb4 f2f6 	udiv	r2, r4, r6
 80009ea:	f5c2 6280 	rsb	r2, r2, #1024	; 0x400
 80009ee:	2a00      	cmp	r2, #0
 80009f0:	f240 31ff 	movw	r1, #1023	; 0x3ff
 80009f4:	bf38      	it	cc
 80009f6:	2200      	movcc	r2, #0
 80009f8:	428a      	cmp	r2, r1
 80009fa:	ea4f 1396 	mov.w	r3, r6, lsr #6
 80009fe:	bf28      	it	cs
 8000a00:	460a      	movcs	r2, r1
 8000a02:	09a0      	lsrs	r0, r4, #6
 8000a04:	029b      	lsls	r3, r3, #10
 8000a06:	fbb3 f3f0 	udiv	r3, r3, r0
 8000a0a:	428b      	cmp	r3, r1
 8000a0c:	bf28      	it	cs
 8000a0e:	460b      	movcs	r3, r1
 8000a10:	4358      	muls	r0, r3
 8000a12:	0a80      	lsrs	r0, r0, #10
 8000a14:	f5c2 6180 	rsb	r1, r2, #1024	; 0x400
 8000a18:	fbb4 f4f1 	udiv	r4, r4, r1
 8000a1c:	eba6 1180 	sub.w	r1, r6, r0, lsl #6
 8000a20:	1b34      	subs	r4, r6, r4
 8000a22:	428c      	cmp	r4, r1
 8000a24:	bf98      	it	ls
 8000a26:	4613      	movls	r3, r2
 8000a28:	68ea      	ldr	r2, [r5, #12]
 8000a2a:	f422 4243 	bic.w	r2, r2, #49920	; 0xc300
 8000a2e:	f022 02ff 	bic.w	r2, r2, #255	; 0xff
 8000a32:	60ea      	str	r2, [r5, #12]
 8000a34:	68ea      	ldr	r2, [r5, #12]
 8000a36:	bf8c      	ite	hi
 8000a38:	2102      	movhi	r1, #2
 8000a3a:	2101      	movls	r1, #1
 8000a3c:	4313      	orrs	r3, r2
 8000a3e:	ea43 3381 	orr.w	r3, r3, r1, lsl #14
 8000a42:	60eb      	str	r3, [r5, #12]
 8000a44:	bd70      	pop	{r4, r5, r6, pc}
	...

08000a48 <XMC_CAN_MO_UpdateData>:
 8000a48:	7e03      	ldrb	r3, [r0, #24]
 8000a4a:	2b01      	cmp	r3, #1
 8000a4c:	d114      	bne.n	8000a78 <XMC_CAN_MO_UpdateData+0x30>
 8000a4e:	6803      	ldr	r3, [r0, #0]
 8000a50:	2220      	movs	r2, #32
 8000a52:	61da      	str	r2, [r3, #28]
 8000a54:	6803      	ldr	r3, [r0, #0]
 8000a56:	7b01      	ldrb	r1, [r0, #12]
 8000a58:	681a      	ldr	r2, [r3, #0]
 8000a5a:	0609      	lsls	r1, r1, #24
 8000a5c:	f001 6170 	and.w	r1, r1, #251658240	; 0xf000000
 8000a60:	f022 6270 	bic.w	r2, r2, #251658240	; 0xf000000
 8000a64:	430a      	orrs	r2, r1
 8000a66:	601a      	str	r2, [r3, #0]
 8000a68:	6902      	ldr	r2, [r0, #16]
 8000a6a:	611a      	str	r2, [r3, #16]
 8000a6c:	6942      	ldr	r2, [r0, #20]
 8000a6e:	615a      	str	r2, [r3, #20]
 8000a70:	4a02      	ldr	r2, [pc, #8]	; (8000a7c <XMC_CAN_MO_UpdateData+0x34>)
 8000a72:	61da      	str	r2, [r3, #28]
 8000a74:	2000      	movs	r0, #0
 8000a76:	4770      	bx	lr
 8000a78:	2003      	movs	r0, #3
 8000a7a:	4770      	bx	lr
 8000a7c:	00280040 	.word	0x00280040

08000a80 <XMC_CAN_MO_Config>:
 8000a80:	6802      	ldr	r2, [r0, #0]
 8000a82:	6891      	ldr	r1, [r2, #8]
 8000a84:	f102 4338 	add.w	r3, r2, #3087007744	; 0xb8000000
 8000a88:	f421 417f 	bic.w	r1, r1, #65280	; 0xff00
 8000a8c:	b510      	push	{r4, lr}
 8000a8e:	f5a3 33a8 	sub.w	r3, r3, #86016	; 0x15000
 8000a92:	6091      	str	r1, [r2, #8]
 8000a94:	6891      	ldr	r1, [r2, #8]
 8000a96:	00db      	lsls	r3, r3, #3
 8000a98:	f023 03ff 	bic.w	r3, r3, #255	; 0xff
 8000a9c:	430b      	orrs	r3, r1
 8000a9e:	6093      	str	r3, [r2, #8]
 8000aa0:	7e03      	ldrb	r3, [r0, #24]
 8000aa2:	2b01      	cmp	r3, #1
 8000aa4:	4604      	mov	r4, r0
 8000aa6:	d828      	bhi.n	8000afa <XMC_CAN_MO_Config+0x7a>
 8000aa8:	2320      	movs	r3, #32
 8000aaa:	61d3      	str	r3, [r2, #28]
 8000aac:	79c3      	ldrb	r3, [r0, #7]
 8000aae:	6842      	ldr	r2, [r0, #4]
 8000ab0:	f013 0f20 	tst.w	r3, #32
 8000ab4:	bf08      	it	eq
 8000ab6:	f002 4160 	andeq.w	r1, r2, #3758096384	; 0xe0000000
 8000aba:	6803      	ldr	r3, [r0, #0]
 8000abc:	bf03      	ittte	eq
 8000abe:	ea41 4282 	orreq.w	r2, r1, r2, lsl #18
 8000ac2:	619a      	streq	r2, [r3, #24]
 8000ac4:	6881      	ldreq	r1, [r0, #8]
 8000ac6:	619a      	strne	r2, [r3, #24]
 8000ac8:	bf06      	itte	eq
 8000aca:	f001 4260 	andeq.w	r2, r1, #3758096384	; 0xe0000000
 8000ace:	ea42 4281 	orreq.w	r2, r2, r1, lsl #18
 8000ad2:	6882      	ldrne	r2, [r0, #8]
 8000ad4:	60da      	str	r2, [r3, #12]
 8000ad6:	7e02      	ldrb	r2, [r0, #24]
 8000ad8:	2a01      	cmp	r2, #1
 8000ada:	d108      	bne.n	8000aee <XMC_CAN_MO_Config+0x6e>
 8000adc:	f7ff ffb4 	bl	8000a48 <XMC_CAN_MO_UpdateData>
 8000ae0:	6823      	ldr	r3, [r4, #0]
 8000ae2:	f04f 6200 	mov.w	r2, #134217728	; 0x8000000
 8000ae6:	61da      	str	r2, [r3, #28]
 8000ae8:	6823      	ldr	r3, [r4, #0]
 8000aea:	4a04      	ldr	r2, [pc, #16]	; (8000afc <XMC_CAN_MO_Config+0x7c>)
 8000aec:	e004      	b.n	8000af8 <XMC_CAN_MO_Config+0x78>
 8000aee:	f44f 6200 	mov.w	r2, #2048	; 0x800
 8000af2:	61da      	str	r2, [r3, #28]
 8000af4:	6803      	ldr	r3, [r0, #0]
 8000af6:	4a02      	ldr	r2, [pc, #8]	; (8000b00 <XMC_CAN_MO_Config+0x80>)
 8000af8:	61da      	str	r2, [r3, #28]
 8000afa:	bd10      	pop	{r4, pc}
 8000afc:	062000c0 	.word	0x062000c0
 8000b00:	00a00640 	.word	0x00a00640

08000b04 <XMC_CAN_MO_ReceiveData>:
 8000b04:	6802      	ldr	r2, [r0, #0]
 8000b06:	69d1      	ldr	r1, [r2, #28]
 8000b08:	69d3      	ldr	r3, [r2, #28]
 8000b0a:	0509      	lsls	r1, r1, #20
 8000b0c:	d410      	bmi.n	8000b30 <XMC_CAN_MO_ReceiveData+0x2c>
 8000b0e:	075b      	lsls	r3, r3, #29
 8000b10:	d410      	bmi.n	8000b34 <XMC_CAN_MO_ReceiveData+0x30>
 8000b12:	6913      	ldr	r3, [r2, #16]
 8000b14:	6103      	str	r3, [r0, #16]
 8000b16:	6953      	ldr	r3, [r2, #20]
 8000b18:	6143      	str	r3, [r0, #20]
 8000b1a:	69d3      	ldr	r3, [r2, #28]
 8000b1c:	69d1      	ldr	r1, [r2, #28]
 8000b1e:	f3c3 0380 	ubfx	r3, r3, #2, #1
 8000b22:	f3c1 01c0 	ubfx	r1, r1, #3, #1
 8000b26:	b13b      	cbz	r3, 8000b38 <XMC_CAN_MO_ReceiveData+0x34>
 8000b28:	2900      	cmp	r1, #0
 8000b2a:	d1f2      	bne.n	8000b12 <XMC_CAN_MO_ReceiveData+0xe>
 8000b2c:	4608      	mov	r0, r1
 8000b2e:	4770      	bx	lr
 8000b30:	2003      	movs	r0, #3
 8000b32:	4770      	bx	lr
 8000b34:	2002      	movs	r0, #2
 8000b36:	4770      	bx	lr
 8000b38:	4618      	mov	r0, r3
 8000b3a:	4770      	bx	lr

08000b3c <XMC_CAN_MO_Receive>:
 8000b3c:	6803      	ldr	r3, [r0, #0]
 8000b3e:	69da      	ldr	r2, [r3, #28]
 8000b40:	69db      	ldr	r3, [r3, #28]
 8000b42:	0512      	lsls	r2, r2, #20
 8000b44:	d44e      	bmi.n	8000be4 <XMC_CAN_MO_Receive+0xa8>
 8000b46:	0759      	lsls	r1, r3, #29
 8000b48:	d44e      	bmi.n	8000be8 <XMC_CAN_MO_Receive+0xac>
 8000b4a:	6803      	ldr	r3, [r0, #0]
 8000b4c:	2208      	movs	r2, #8
 8000b4e:	61da      	str	r2, [r3, #28]
 8000b50:	6803      	ldr	r3, [r0, #0]
 8000b52:	79c2      	ldrb	r2, [r0, #7]
 8000b54:	6999      	ldr	r1, [r3, #24]
 8000b56:	f3c1 7140 	ubfx	r1, r1, #29, #1
 8000b5a:	b9d9      	cbnz	r1, 8000b94 <XMC_CAN_MO_Receive+0x58>
 8000b5c:	f361 1245 	bfi	r2, r1, #5, #1
 8000b60:	71c2      	strb	r2, [r0, #7]
 8000b62:	699a      	ldr	r2, [r3, #24]
 8000b64:	6841      	ldr	r1, [r0, #4]
 8000b66:	f3c2 428a 	ubfx	r2, r2, #18, #11
 8000b6a:	f362 011c 	bfi	r1, r2, #0, #29
 8000b6e:	6041      	str	r1, [r0, #4]
 8000b70:	68d9      	ldr	r1, [r3, #12]
 8000b72:	7ac2      	ldrb	r2, [r0, #11]
 8000b74:	f3c1 7140 	ubfx	r1, r1, #29, #1
 8000b78:	f361 1245 	bfi	r2, r1, #5, #1
 8000b7c:	72c2      	strb	r2, [r0, #11]
 8000b7e:	68d9      	ldr	r1, [r3, #12]
 8000b80:	f012 0f20 	tst.w	r2, #32
 8000b84:	6882      	ldr	r2, [r0, #8]
 8000b86:	bf18      	it	ne
 8000b88:	f3c1 418a 	ubfxne	r1, r1, #18, #11
 8000b8c:	f361 021c 	bfi	r2, r1, #0, #29
 8000b90:	6082      	str	r2, [r0, #8]
 8000b92:	e013      	b.n	8000bbc <XMC_CAN_MO_Receive+0x80>
 8000b94:	f042 0220 	orr.w	r2, r2, #32
 8000b98:	71c2      	strb	r2, [r0, #7]
 8000b9a:	6999      	ldr	r1, [r3, #24]
 8000b9c:	6842      	ldr	r2, [r0, #4]
 8000b9e:	f361 021c 	bfi	r2, r1, #0, #29
 8000ba2:	6042      	str	r2, [r0, #4]
 8000ba4:	68d9      	ldr	r1, [r3, #12]
 8000ba6:	6882      	ldr	r2, [r0, #8]
 8000ba8:	f361 021c 	bfi	r2, r1, #0, #29
 8000bac:	6082      	str	r2, [r0, #8]
 8000bae:	68da      	ldr	r2, [r3, #12]
 8000bb0:	7ac1      	ldrb	r1, [r0, #11]
 8000bb2:	f3c2 7240 	ubfx	r2, r2, #29, #1
 8000bb6:	f362 1145 	bfi	r1, r2, #5, #1
 8000bba:	72c1      	strb	r1, [r0, #11]
 8000bbc:	681a      	ldr	r2, [r3, #0]
 8000bbe:	f3c2 6203 	ubfx	r2, r2, #24, #4
 8000bc2:	7302      	strb	r2, [r0, #12]
 8000bc4:	691a      	ldr	r2, [r3, #16]
 8000bc6:	6102      	str	r2, [r0, #16]
 8000bc8:	695a      	ldr	r2, [r3, #20]
 8000bca:	6142      	str	r2, [r0, #20]
 8000bcc:	69da      	ldr	r2, [r3, #28]
 8000bce:	69db      	ldr	r3, [r3, #28]
 8000bd0:	0752      	lsls	r2, r2, #29
 8000bd2:	f3c3 03c0 	ubfx	r3, r3, #3, #1
 8000bd6:	d501      	bpl.n	8000bdc <XMC_CAN_MO_Receive+0xa0>
 8000bd8:	2b00      	cmp	r3, #0
 8000bda:	d1b6      	bne.n	8000b4a <XMC_CAN_MO_Receive+0xe>
 8000bdc:	2300      	movs	r3, #0
 8000bde:	7603      	strb	r3, [r0, #24]
 8000be0:	4618      	mov	r0, r3
 8000be2:	4770      	bx	lr
 8000be4:	2003      	movs	r0, #3
 8000be6:	4770      	bx	lr
 8000be8:	2002      	movs	r0, #2
 8000bea:	4770      	bx	lr

08000bec <XMC_CAN_NODE_EnableEvent>:
 8000bec:	f5b1 0f80 	cmp.w	r1, #4194304	; 0x400000
 8000bf0:	bf15      	itete	ne
 8000bf2:	6803      	ldrne	r3, [r0, #0]
 8000bf4:	6983      	ldreq	r3, [r0, #24]
 8000bf6:	4319      	orrne	r1, r3
 8000bf8:	f443 0380 	orreq.w	r3, r3, #4194304	; 0x400000
 8000bfc:	bf14      	ite	ne
 8000bfe:	6001      	strne	r1, [r0, #0]
 8000c00:	6183      	streq	r3, [r0, #24]
 8000c02:	4770      	bx	lr

08000c04 <XMC_CCU4_EnableModule>:
 8000c04:	b510      	push	{r4, lr}
 8000c06:	4604      	mov	r4, r0
 8000c08:	2010      	movs	r0, #16
 8000c0a:	f7ff fcb3 	bl	8000574 <XMC_SCU_CLOCK_EnableClock>
 8000c0e:	4b0c      	ldr	r3, [pc, #48]	; (8000c40 <XMC_CCU4_EnableModule+0x3c>)
 8000c10:	429c      	cmp	r4, r3
 8000c12:	d101      	bne.n	8000c18 <XMC_CCU4_EnableModule+0x14>
 8000c14:	2004      	movs	r0, #4
 8000c16:	e00d      	b.n	8000c34 <XMC_CCU4_EnableModule+0x30>
 8000c18:	4b0a      	ldr	r3, [pc, #40]	; (8000c44 <XMC_CCU4_EnableModule+0x40>)
 8000c1a:	429c      	cmp	r4, r3
 8000c1c:	d101      	bne.n	8000c22 <XMC_CCU4_EnableModule+0x1e>
 8000c1e:	2008      	movs	r0, #8
 8000c20:	e008      	b.n	8000c34 <XMC_CCU4_EnableModule+0x30>
 8000c22:	4b09      	ldr	r3, [pc, #36]	; (8000c48 <XMC_CCU4_EnableModule+0x44>)
 8000c24:	429c      	cmp	r4, r3
 8000c26:	d101      	bne.n	8000c2c <XMC_CCU4_EnableModule+0x28>
 8000c28:	2010      	movs	r0, #16
 8000c2a:	e003      	b.n	8000c34 <XMC_CCU4_EnableModule+0x30>
 8000c2c:	4b07      	ldr	r3, [pc, #28]	; (8000c4c <XMC_CCU4_EnableModule+0x48>)
 8000c2e:	429c      	cmp	r4, r3
 8000c30:	d104      	bne.n	8000c3c <XMC_CCU4_EnableModule+0x38>
 8000c32:	4807      	ldr	r0, [pc, #28]	; (8000c50 <XMC_CCU4_EnableModule+0x4c>)
 8000c34:	e8bd 4010 	ldmia.w	sp!, {r4, lr}
 8000c38:	f7ff bbf2 	b.w	8000420 <XMC_SCU_RESET_DeassertPeripheralReset>
 8000c3c:	bd10      	pop	{r4, pc}
 8000c3e:	bf00      	nop
 8000c40:	4000c000 	.word	0x4000c000
 8000c44:	40010000 	.word	0x40010000
 8000c48:	40014000 	.word	0x40014000
 8000c4c:	48004000 	.word	0x48004000
 8000c50:	10000001 	.word	0x10000001

08000c54 <XMC_CCU4_Init>:
 8000c54:	b538      	push	{r3, r4, r5, lr}
 8000c56:	4604      	mov	r4, r0
 8000c58:	460d      	mov	r5, r1
 8000c5a:	f7ff ffd3 	bl	8000c04 <XMC_CCU4_EnableModule>
 8000c5e:	68e3      	ldr	r3, [r4, #12]
 8000c60:	f443 7380 	orr.w	r3, r3, #256	; 0x100
 8000c64:	60e3      	str	r3, [r4, #12]
 8000c66:	6823      	ldr	r3, [r4, #0]
 8000c68:	f423 4340 	bic.w	r3, r3, #49152	; 0xc000
 8000c6c:	ea43 3185 	orr.w	r1, r3, r5, lsl #14
 8000c70:	6021      	str	r1, [r4, #0]
 8000c72:	bd38      	pop	{r3, r4, r5, pc}

08000c74 <XMC_CCU4_SLICE_CompareInit>:
 8000c74:	680b      	ldr	r3, [r1, #0]
 8000c76:	6143      	str	r3, [r0, #20]
 8000c78:	794b      	ldrb	r3, [r1, #5]
 8000c7a:	f3c3 1340 	ubfx	r3, r3, #5, #1
 8000c7e:	051b      	lsls	r3, r3, #20
 8000c80:	6043      	str	r3, [r0, #4]
 8000c82:	790b      	ldrb	r3, [r1, #4]
 8000c84:	f003 030f 	and.w	r3, r3, #15
 8000c88:	6243      	str	r3, [r0, #36]	; 0x24
 8000c8a:	794b      	ldrb	r3, [r1, #5]
 8000c8c:	f003 030f 	and.w	r3, r3, #15
 8000c90:	6203      	str	r3, [r0, #32]
 8000c92:	794b      	ldrb	r3, [r1, #5]
 8000c94:	f3c3 1300 	ubfx	r3, r3, #4, #1
 8000c98:	6183      	str	r3, [r0, #24]
 8000c9a:	790b      	ldrb	r3, [r1, #4]
 8000c9c:	091b      	lsrs	r3, r3, #4
 8000c9e:	62c3      	str	r3, [r0, #44]	; 0x2c
 8000ca0:	4770      	bx	lr
	...

08000ca4 <XMC_CCU4_SLICE_SetInterruptNode>:
 8000ca4:	2909      	cmp	r1, #9
 8000ca6:	b530      	push	{r4, r5, lr}
 8000ca8:	bf9c      	itt	ls
 8000caa:	4c09      	ldrls	r4, [pc, #36]	; (8000cd0 <XMC_CCU4_SLICE_SetInterruptNode+0x2c>)
 8000cac:	4d09      	ldrls	r5, [pc, #36]	; (8000cd4 <XMC_CCU4_SLICE_SetInterruptNode+0x30>)
 8000cae:	f8d0 30a8 	ldr.w	r3, [r0, #168]	; 0xa8
 8000cb2:	bf99      	ittee	ls
 8000cb4:	5c64      	ldrbls	r4, [r4, r1]
 8000cb6:	f835 1011 	ldrhls.w	r1, [r5, r1, lsl #1]
 8000cba:	f44f 5140 	movhi.w	r1, #12288	; 0x3000
 8000cbe:	240c      	movhi	r4, #12
 8000cc0:	ea23 0301 	bic.w	r3, r3, r1
 8000cc4:	40a2      	lsls	r2, r4
 8000cc6:	431a      	orrs	r2, r3
 8000cc8:	f8c0 20a8 	str.w	r2, [r0, #168]	; 0xa8
 8000ccc:	bd30      	pop	{r4, r5, pc}
 8000cce:	bf00      	nop
 8000cd0:	08002dd4 	.word	0x08002dd4
 8000cd4:	08002dde 	.word	0x08002dde

08000cd8 <XMC_GPIO_SetHardwareControl>:
 8000cd8:	6f43      	ldr	r3, [r0, #116]	; 0x74
 8000cda:	0049      	lsls	r1, r1, #1
 8000cdc:	b510      	push	{r4, lr}
 8000cde:	2403      	movs	r4, #3
 8000ce0:	408c      	lsls	r4, r1
 8000ce2:	ea23 0304 	bic.w	r3, r3, r4
 8000ce6:	6743      	str	r3, [r0, #116]	; 0x74
 8000ce8:	6f43      	ldr	r3, [r0, #116]	; 0x74
 8000cea:	408a      	lsls	r2, r1
 8000cec:	4313      	orrs	r3, r2
 8000cee:	6743      	str	r3, [r0, #116]	; 0x74
 8000cf0:	bd10      	pop	{r4, pc}

08000cf2 <XMC_UART_CH_Init>:
 8000cf2:	b570      	push	{r4, r5, r6, lr}
 8000cf4:	460e      	mov	r6, r1
 8000cf6:	4604      	mov	r4, r0
 8000cf8:	f000 f848 	bl	8000d8c <XMC_USIC_CH_Enable>
 8000cfc:	79f5      	ldrb	r5, [r6, #7]
 8000cfe:	6831      	ldr	r1, [r6, #0]
 8000d00:	2d00      	cmp	r5, #0
 8000d02:	bf08      	it	eq
 8000d04:	2510      	moveq	r5, #16
 8000d06:	462a      	mov	r2, r5
 8000d08:	4620      	mov	r0, r4
 8000d0a:	f000 f873 	bl	8000df4 <XMC_USIC_CH_SetBaudrate>
 8000d0e:	79b3      	ldrb	r3, [r6, #6]
 8000d10:	3b01      	subs	r3, #1
 8000d12:	005b      	lsls	r3, r3, #1
 8000d14:	f443 3340 	orr.w	r3, r3, #196608	; 0x30000
 8000d18:	086d      	lsrs	r5, r5, #1
 8000d1a:	f043 0301 	orr.w	r3, r3, #1
 8000d1e:	3501      	adds	r5, #1
 8000d20:	ea43 2305 	orr.w	r3, r3, r5, lsl #8
 8000d24:	63e3      	str	r3, [r4, #60]	; 0x3c
 8000d26:	7933      	ldrb	r3, [r6, #4]
 8000d28:	3b01      	subs	r3, #1
 8000d2a:	061b      	lsls	r3, r3, #24
 8000d2c:	f443 7381 	orr.w	r3, r3, #258	; 0x102
 8000d30:	6363      	str	r3, [r4, #52]	; 0x34
 8000d32:	7973      	ldrb	r3, [r6, #5]
 8000d34:	6b62      	ldr	r2, [r4, #52]	; 0x34
 8000d36:	b903      	cbnz	r3, 8000d3a <XMC_UART_CH_Init+0x48>
 8000d38:	7933      	ldrb	r3, [r6, #4]
 8000d3a:	3b01      	subs	r3, #1
 8000d3c:	ea42 4303 	orr.w	r3, r2, r3, lsl #16
 8000d40:	6363      	str	r3, [r4, #52]	; 0x34
 8000d42:	f44f 63a0 	mov.w	r3, #1280	; 0x500
 8000d46:	63a3      	str	r3, [r4, #56]	; 0x38
 8000d48:	f04f 33ff 	mov.w	r3, #4294967295
 8000d4c:	64e3      	str	r3, [r4, #76]	; 0x4c
 8000d4e:	8933      	ldrh	r3, [r6, #8]
 8000d50:	6423      	str	r3, [r4, #64]	; 0x40
 8000d52:	bd70      	pop	{r4, r5, r6, pc}

08000d54 <XMC_UART_CH_Transmit>:
 8000d54:	f8d0 3108 	ldr.w	r3, [r0, #264]	; 0x108
 8000d58:	f013 6fe0 	tst.w	r3, #117440512	; 0x7000000
 8000d5c:	d108      	bne.n	8000d70 <XMC_UART_CH_Transmit+0x1c>
 8000d5e:	6b83      	ldr	r3, [r0, #56]	; 0x38
 8000d60:	061b      	lsls	r3, r3, #24
 8000d62:	d4fc      	bmi.n	8000d5e <XMC_UART_CH_Transmit+0xa>
 8000d64:	f44f 5300 	mov.w	r3, #8192	; 0x2000
 8000d68:	64c3      	str	r3, [r0, #76]	; 0x4c
 8000d6a:	f8c0 1080 	str.w	r1, [r0, #128]	; 0x80
 8000d6e:	4770      	bx	lr
 8000d70:	f8c0 1180 	str.w	r1, [r0, #384]	; 0x180
 8000d74:	4770      	bx	lr

08000d76 <XMC_UART_CH_GetReceivedData>:
 8000d76:	f8d0 310c 	ldr.w	r3, [r0, #268]	; 0x10c
 8000d7a:	f013 6fe0 	tst.w	r3, #117440512	; 0x7000000
 8000d7e:	bf0c      	ite	eq
 8000d80:	6d40      	ldreq	r0, [r0, #84]	; 0x54
 8000d82:	f8d0 011c 	ldrne.w	r0, [r0, #284]	; 0x11c
 8000d86:	b280      	uxth	r0, r0
 8000d88:	4770      	bx	lr
	...

08000d8c <XMC_USIC_CH_Enable>:
 8000d8c:	4b14      	ldr	r3, [pc, #80]	; (8000de0 <XMC_USIC_CH_Enable+0x54>)
 8000d8e:	4298      	cmp	r0, r3
 8000d90:	b510      	push	{r4, lr}
 8000d92:	4604      	mov	r4, r0
 8000d94:	d003      	beq.n	8000d9e <XMC_USIC_CH_Enable+0x12>
 8000d96:	f503 7300 	add.w	r3, r3, #512	; 0x200
 8000d9a:	4298      	cmp	r0, r3
 8000d9c:	d102      	bne.n	8000da4 <XMC_USIC_CH_Enable+0x18>
 8000d9e:	f44f 6000 	mov.w	r0, #2048	; 0x800
 8000da2:	e010      	b.n	8000dc6 <XMC_USIC_CH_Enable+0x3a>
 8000da4:	4b0f      	ldr	r3, [pc, #60]	; (8000de4 <XMC_USIC_CH_Enable+0x58>)
 8000da6:	4298      	cmp	r0, r3
 8000da8:	d003      	beq.n	8000db2 <XMC_USIC_CH_Enable+0x26>
 8000daa:	f503 7300 	add.w	r3, r3, #512	; 0x200
 8000dae:	4298      	cmp	r0, r3
 8000db0:	d101      	bne.n	8000db6 <XMC_USIC_CH_Enable+0x2a>
 8000db2:	480d      	ldr	r0, [pc, #52]	; (8000de8 <XMC_USIC_CH_Enable+0x5c>)
 8000db4:	e007      	b.n	8000dc6 <XMC_USIC_CH_Enable+0x3a>
 8000db6:	4b0d      	ldr	r3, [pc, #52]	; (8000dec <XMC_USIC_CH_Enable+0x60>)
 8000db8:	4298      	cmp	r0, r3
 8000dba:	d003      	beq.n	8000dc4 <XMC_USIC_CH_Enable+0x38>
 8000dbc:	f503 7300 	add.w	r3, r3, #512	; 0x200
 8000dc0:	4298      	cmp	r0, r3
 8000dc2:	d102      	bne.n	8000dca <XMC_USIC_CH_Enable+0x3e>
 8000dc4:	480a      	ldr	r0, [pc, #40]	; (8000df0 <XMC_USIC_CH_Enable+0x64>)
 8000dc6:	f7ff fb2b 	bl	8000420 <XMC_SCU_RESET_DeassertPeripheralReset>
 8000dca:	2303      	movs	r3, #3
 8000dcc:	60e3      	str	r3, [r4, #12]
 8000dce:	68e3      	ldr	r3, [r4, #12]
 8000dd0:	07db      	lsls	r3, r3, #31
 8000dd2:	d5fc      	bpl.n	8000dce <XMC_USIC_CH_Enable+0x42>
 8000dd4:	6c23      	ldr	r3, [r4, #64]	; 0x40
 8000dd6:	f023 030f 	bic.w	r3, r3, #15
 8000dda:	6423      	str	r3, [r4, #64]	; 0x40
 8000ddc:	bd10      	pop	{r4, pc}
 8000dde:	bf00      	nop
 8000de0:	40030000 	.word	0x40030000
 8000de4:	48020000 	.word	0x48020000
 8000de8:	10000080 	.word	0x10000080
 8000dec:	48024000 	.word	0x48024000
 8000df0:	10000100 	.word	0x10000100

08000df4 <XMC_USIC_CH_SetBaudrate>:
 8000df4:	2963      	cmp	r1, #99	; 0x63
 8000df6:	e92d 41f0 	stmdb	sp!, {r4, r5, r6, r7, r8, lr}
 8000dfa:	4605      	mov	r5, r0
 8000dfc:	460c      	mov	r4, r1
 8000dfe:	4616      	mov	r6, r2
 8000e00:	d930      	bls.n	8000e64 <XMC_USIC_CH_SetBaudrate+0x70>
 8000e02:	b37a      	cbz	r2, 8000e64 <XMC_USIC_CH_SetBaudrate+0x70>
 8000e04:	f7ff fb16 	bl	8000434 <XMC_SCU_CLOCK_GetPeripheralClockFrequency>
 8000e08:	2164      	movs	r1, #100	; 0x64
 8000e0a:	f240 3cff 	movw	ip, #1023	; 0x3ff
 8000e0e:	fbb0 fef1 	udiv	lr, r0, r1
 8000e12:	fbb4 f4f1 	udiv	r4, r4, r1
 8000e16:	2101      	movs	r1, #1
 8000e18:	4374      	muls	r4, r6
 8000e1a:	ebce 278e 	rsb	r7, lr, lr, lsl #10
 8000e1e:	460a      	mov	r2, r1
 8000e20:	4660      	mov	r0, ip
 8000e22:	fbb7 f3f4 	udiv	r3, r7, r4
 8000e26:	ea4f 2893 	mov.w	r8, r3, lsr #10
 8000e2a:	f5b8 6f80 	cmp.w	r8, #1024	; 0x400
 8000e2e:	d206      	bcs.n	8000e3e <XMC_USIC_CH_SetBaudrate+0x4a>
 8000e30:	f3c3 0309 	ubfx	r3, r3, #0, #10
 8000e34:	4563      	cmp	r3, ip
 8000e36:	bf3e      	ittt	cc
 8000e38:	469c      	movcc	ip, r3
 8000e3a:	4641      	movcc	r1, r8
 8000e3c:	4602      	movcc	r2, r0
 8000e3e:	3801      	subs	r0, #1
 8000e40:	ebce 0707 	rsb	r7, lr, r7
 8000e44:	d1ed      	bne.n	8000e22 <XMC_USIC_CH_SetBaudrate+0x2e>
 8000e46:	f442 4200 	orr.w	r2, r2, #32768	; 0x8000
 8000e4a:	612a      	str	r2, [r5, #16]
 8000e4c:	696a      	ldr	r2, [r5, #20]
 8000e4e:	4b07      	ldr	r3, [pc, #28]	; (8000e6c <XMC_USIC_CH_SetBaudrate+0x78>)
 8000e50:	3e01      	subs	r6, #1
 8000e52:	4013      	ands	r3, r2
 8000e54:	ea43 2386 	orr.w	r3, r3, r6, lsl #10
 8000e58:	3901      	subs	r1, #1
 8000e5a:	ea43 4301 	orr.w	r3, r3, r1, lsl #16
 8000e5e:	616b      	str	r3, [r5, #20]
 8000e60:	e8bd 81f0 	ldmia.w	sp!, {r4, r5, r6, r7, r8, pc}
 8000e64:	2001      	movs	r0, #1
 8000e66:	e8bd 81f0 	ldmia.w	sp!, {r4, r5, r6, r7, r8, pc}
 8000e6a:	bf00      	nop
 8000e6c:	fc0080ef 	.word	0xfc0080ef

08000e70 <XMC_USIC_CH_RXFIFO_Configure>:
 8000e70:	b530      	push	{r4, r5, lr}
 8000e72:	f8d0 410c 	ldr.w	r4, [r0, #268]	; 0x10c
 8000e76:	f024 64e0 	bic.w	r4, r4, #117440512	; 0x7000000
 8000e7a:	f8c0 410c 	str.w	r4, [r0, #268]	; 0x10c
 8000e7e:	f8d0 510c 	ldr.w	r5, [r0, #268]	; 0x10c
 8000e82:	4c06      	ldr	r4, [pc, #24]	; (8000e9c <XMC_USIC_CH_RXFIFO_Configure+0x2c>)
 8000e84:	402c      	ands	r4, r5
 8000e86:	f044 5480 	orr.w	r4, r4, #268435456	; 0x10000000
 8000e8a:	4321      	orrs	r1, r4
 8000e8c:	ea41 6202 	orr.w	r2, r1, r2, lsl #24
 8000e90:	ea42 2303 	orr.w	r3, r2, r3, lsl #8
 8000e94:	f8c0 310c 	str.w	r3, [r0, #268]	; 0x10c
 8000e98:	bd30      	pop	{r4, r5, pc}
 8000e9a:	bf00      	nop
 8000e9c:	efffc0c0 	.word	0xefffc0c0

08000ea0 <XMC_USIC_CH_RXFIFO_SetSizeTriggerLimit>:
 8000ea0:	f8d0 310c 	ldr.w	r3, [r0, #268]	; 0x10c
 8000ea4:	f023 63e0 	bic.w	r3, r3, #117440512	; 0x7000000
 8000ea8:	f8c0 310c 	str.w	r3, [r0, #268]	; 0x10c
 8000eac:	f8d0 310c 	ldr.w	r3, [r0, #268]	; 0x10c
 8000eb0:	0609      	lsls	r1, r1, #24
 8000eb2:	ea41 2202 	orr.w	r2, r1, r2, lsl #8
 8000eb6:	f423 537c 	bic.w	r3, r3, #16128	; 0x3f00
 8000eba:	4313      	orrs	r3, r2
 8000ebc:	f8c0 310c 	str.w	r3, [r0, #268]	; 0x10c
 8000ec0:	4770      	bx	lr

08000ec2 <XMC_USIC_CH_SetInterruptNodePointer>:
 8000ec2:	b510      	push	{r4, lr}
 8000ec4:	2307      	movs	r3, #7
 8000ec6:	6984      	ldr	r4, [r0, #24]
 8000ec8:	408b      	lsls	r3, r1
 8000eca:	ea24 0303 	bic.w	r3, r4, r3
 8000ece:	408a      	lsls	r2, r1
 8000ed0:	431a      	orrs	r2, r3
 8000ed2:	6182      	str	r2, [r0, #24]
 8000ed4:	bd10      	pop	{r4, pc}

08000ed6 <XMC_USIC_CH_RXFIFO_SetInterruptNodePointer>:
 8000ed6:	b510      	push	{r4, lr}
 8000ed8:	2307      	movs	r3, #7
 8000eda:	f8d0 410c 	ldr.w	r4, [r0, #268]	; 0x10c
 8000ede:	408b      	lsls	r3, r1
 8000ee0:	ea24 0303 	bic.w	r3, r4, r3
 8000ee4:	408a      	lsls	r2, r1
 8000ee6:	431a      	orrs	r2, r3
 8000ee8:	f8c0 210c 	str.w	r2, [r0, #268]	; 0x10c
 8000eec:	bd10      	pop	{r4, pc}

08000eee <XMC_VADC_GLOBAL_EnableModule>:
 8000eee:	2001      	movs	r0, #1
 8000ef0:	f7ff ba96 	b.w	8000420 <XMC_SCU_RESET_DeassertPeripheralReset>

08000ef4 <XMC_VADC_GLOBAL_Init>:
 8000ef4:	b538      	push	{r3, r4, r5, lr}
 8000ef6:	460d      	mov	r5, r1
 8000ef8:	4604      	mov	r4, r0
 8000efa:	f7ff fff8 	bl	8000eee <XMC_VADC_GLOBAL_EnableModule>
 8000efe:	696b      	ldr	r3, [r5, #20]
 8000f00:	6023      	str	r3, [r4, #0]
 8000f02:	686b      	ldr	r3, [r5, #4]
 8000f04:	f443 4300 	orr.w	r3, r3, #32768	; 0x8000
 8000f08:	f8c4 3080 	str.w	r3, [r4, #128]	; 0x80
 8000f0c:	68ab      	ldr	r3, [r5, #8]
 8000f0e:	f8c4 30a0 	str.w	r3, [r4, #160]	; 0xa0
 8000f12:	68eb      	ldr	r3, [r5, #12]
 8000f14:	f8c4 30a4 	str.w	r3, [r4, #164]	; 0xa4
 8000f18:	692b      	ldr	r3, [r5, #16]
 8000f1a:	f8c4 3280 	str.w	r3, [r4, #640]	; 0x280
 8000f1e:	682b      	ldr	r3, [r5, #0]
 8000f20:	f8c4 30b8 	str.w	r3, [r4, #184]	; 0xb8
 8000f24:	bd38      	pop	{r3, r4, r5, pc}
	...

08000f28 <XMC_VADC_GLOBAL_InputClassInit>:
 8000f28:	3328      	adds	r3, #40	; 0x28
 8000f2a:	b912      	cbnz	r2, 8000f32 <XMC_VADC_GLOBAL_InputClassInit+0xa>
 8000f2c:	f240 721f 	movw	r2, #1823	; 0x71f
 8000f30:	e000      	b.n	8000f34 <XMC_VADC_GLOBAL_InputClassInit+0xc>
 8000f32:	4a02      	ldr	r2, [pc, #8]	; (8000f3c <XMC_VADC_GLOBAL_InputClassInit+0x14>)
 8000f34:	400a      	ands	r2, r1
 8000f36:	f840 2023 	str.w	r2, [r0, r3, lsl #2]
 8000f3a:	4770      	bx	lr
 8000f3c:	071f0000 	.word	0x071f0000

08000f40 <XMC_VADC_GLOBAL_StartupCalibration>:
 8000f40:	f8d0 3080 	ldr.w	r3, [r0, #128]	; 0x80
 8000f44:	f043 4300 	orr.w	r3, r3, #2147483648	; 0x80000000
 8000f48:	f8c0 3080 	str.w	r3, [r0, #128]	; 0x80
 8000f4c:	2300      	movs	r3, #0
 8000f4e:	4a08      	ldr	r2, [pc, #32]	; (8000f70 <XMC_VADC_GLOBAL_StartupCalibration+0x30>)
 8000f50:	f852 2023 	ldr.w	r2, [r2, r3, lsl #2]
 8000f54:	f8d2 1080 	ldr.w	r1, [r2, #128]	; 0x80
 8000f58:	f411 3f40 	tst.w	r1, #196608	; 0x30000
 8000f5c:	d004      	beq.n	8000f68 <XMC_VADC_GLOBAL_StartupCalibration+0x28>
 8000f5e:	f8d2 1080 	ldr.w	r1, [r2, #128]	; 0x80
 8000f62:	f011 5f80 	tst.w	r1, #268435456	; 0x10000000
 8000f66:	e7f9      	b.n	8000f5c <XMC_VADC_GLOBAL_StartupCalibration+0x1c>
 8000f68:	3301      	adds	r3, #1
 8000f6a:	2b04      	cmp	r3, #4
 8000f6c:	d1ef      	bne.n	8000f4e <XMC_VADC_GLOBAL_StartupCalibration+0xe>
 8000f6e:	4770      	bx	lr
 8000f70:	08002df4 	.word	0x08002df4

08000f74 <XMC_VADC_GLOBAL_BackgroundSetReqSrcEventInterruptNode>:
 8000f74:	f8d0 3140 	ldr.w	r3, [r0, #320]	; 0x140
 8000f78:	f023 030f 	bic.w	r3, r3, #15
 8000f7c:	f8c0 3140 	str.w	r3, [r0, #320]	; 0x140
 8000f80:	2903      	cmp	r1, #3
 8000f82:	f8d0 3140 	ldr.w	r3, [r0, #320]	; 0x140
 8000f86:	bf88      	it	hi
 8000f88:	3904      	subhi	r1, #4
 8000f8a:	4319      	orrs	r1, r3
 8000f8c:	f8c0 1140 	str.w	r1, [r0, #320]	; 0x140
 8000f90:	4770      	bx	lr

08000f92 <XMC_VADC_GROUP_InputClassInit>:
 8000f92:	b5f0      	push	{r4, r5, r6, r7, lr}
 8000f94:	b942      	cbnz	r2, 8000fa8 <XMC_VADC_GROUP_InputClassInit+0x16>
 8000f96:	f001 051f 	and.w	r5, r1, #31
 8000f9a:	261f      	movs	r6, #31
 8000f9c:	f3c1 2102 	ubfx	r1, r1, #8, #3
 8000fa0:	f44f 6ee0 	mov.w	lr, #1792	; 0x700
 8000fa4:	2708      	movs	r7, #8
 8000fa6:	e009      	b.n	8000fbc <XMC_VADC_GROUP_InputClassInit+0x2a>
 8000fa8:	f3c1 4504 	ubfx	r5, r1, #16, #5
 8000fac:	f44f 16f8 	mov.w	r6, #2031616	; 0x1f0000
 8000fb0:	f3c1 6102 	ubfx	r1, r1, #24, #3
 8000fb4:	f04f 6ee0 	mov.w	lr, #117440512	; 0x7000000
 8000fb8:	2210      	movs	r2, #16
 8000fba:	2718      	movs	r7, #24
 8000fbc:	eb00 0383 	add.w	r3, r0, r3, lsl #2
 8000fc0:	40b9      	lsls	r1, r7
 8000fc2:	f8d3 40a0 	ldr.w	r4, [r3, #160]	; 0xa0
 8000fc6:	ea24 040e 	bic.w	r4, r4, lr
 8000fca:	4321      	orrs	r1, r4
 8000fcc:	ea21 0106 	bic.w	r1, r1, r6
 8000fd0:	4095      	lsls	r5, r2
 8000fd2:	4329      	orrs	r1, r5
 8000fd4:	f8c3 10a0 	str.w	r1, [r3, #160]	; 0xa0
 8000fd8:	bdf0      	pop	{r4, r5, r6, r7, pc}

08000fda <XMC_VADC_GROUP_Init>:
 8000fda:	b5f8      	push	{r3, r4, r5, r6, r7, lr}
 8000fdc:	2200      	movs	r2, #0
 8000fde:	460c      	mov	r4, r1
 8000fe0:	4605      	mov	r5, r0
 8000fe2:	4613      	mov	r3, r2
 8000fe4:	6849      	ldr	r1, [r1, #4]
 8000fe6:	f7ff ffd4 	bl	8000f92 <XMC_VADC_GROUP_InputClassInit>
 8000fea:	4628      	mov	r0, r5
 8000fec:	6861      	ldr	r1, [r4, #4]
 8000fee:	2201      	movs	r2, #1
 8000ff0:	2300      	movs	r3, #0
 8000ff2:	f7ff ffce 	bl	8000f92 <XMC_VADC_GROUP_InputClassInit>
 8000ff6:	4628      	mov	r0, r5
 8000ff8:	68a1      	ldr	r1, [r4, #8]
 8000ffa:	2200      	movs	r2, #0
 8000ffc:	2301      	movs	r3, #1
 8000ffe:	f7ff ffc8 	bl	8000f92 <XMC_VADC_GROUP_InputClassInit>
 8001002:	2201      	movs	r2, #1
 8001004:	4613      	mov	r3, r2
 8001006:	4628      	mov	r0, r5
 8001008:	68a1      	ldr	r1, [r4, #8]
 800100a:	f7ff ffc2 	bl	8000f92 <XMC_VADC_GROUP_InputClassInit>
 800100e:	78a0      	ldrb	r0, [r4, #2]
 8001010:	6923      	ldr	r3, [r4, #16]
 8001012:	f8c5 3080 	str.w	r3, [r5, #128]	; 0x80
 8001016:	f000 061f 	and.w	r6, r0, #31
 800101a:	7820      	ldrb	r0, [r4, #0]
 800101c:	68e3      	ldr	r3, [r4, #12]
 800101e:	78e1      	ldrb	r1, [r4, #3]
 8001020:	f8c5 30b8 	str.w	r3, [r5, #184]	; 0xb8
 8001024:	f000 0007 	and.w	r0, r0, #7
 8001028:	ea40 4006 	orr.w	r0, r0, r6, lsl #16
 800102c:	f8c5 01f0 	str.w	r0, [r5, #496]	; 0x1f0
 8001030:	f8d5 21f0 	ldr.w	r2, [r5, #496]	; 0x1f0
 8001034:	f3c1 1700 	ubfx	r7, r1, #4, #1
 8001038:	f042 4200 	orr.w	r2, r2, #2147483648	; 0x80000000
 800103c:	f3c1 0381 	ubfx	r3, r1, #2, #2
 8001040:	ea42 7207 	orr.w	r2, r2, r7, lsl #28
 8001044:	f3c1 1140 	ubfx	r1, r1, #5, #1
 8001048:	ea42 6383 	orr.w	r3, r2, r3, lsl #26
 800104c:	ea43 7341 	orr.w	r3, r3, r1, lsl #29
 8001050:	f8c5 31f0 	str.w	r3, [r5, #496]	; 0x1f0
 8001054:	bdf8      	pop	{r3, r4, r5, r6, r7, pc}

08001056 <XMC_VADC_GROUP_SetPowerMode>:
 8001056:	f8d0 3080 	ldr.w	r3, [r0, #128]	; 0x80
 800105a:	f023 0303 	bic.w	r3, r3, #3
 800105e:	4319      	orrs	r1, r3
 8001060:	f8c0 1080 	str.w	r1, [r0, #128]	; 0x80
 8001064:	4770      	bx	lr
	...

08001068 <XMC_VADC_GLOBAL_BackgroundInit>:
 8001068:	4a30      	ldr	r2, [pc, #192]	; (800112c <XMC_VADC_GLOBAL_BackgroundInit+0xc4>)
 800106a:	f8d2 3084 	ldr.w	r3, [r2, #132]	; 0x84
 800106e:	f023 6380 	bic.w	r3, r3, #67108864	; 0x4000000
 8001072:	b5f0      	push	{r4, r5, r6, r7, lr}
 8001074:	f8c2 3084 	str.w	r3, [r2, #132]	; 0x84
 8001078:	f8d2 3484 	ldr.w	r3, [r2, #1156]	; 0x484
 800107c:	f023 6380 	bic.w	r3, r3, #67108864	; 0x4000000
 8001080:	f8c2 3484 	str.w	r3, [r2, #1156]	; 0x484
 8001084:	f8d2 3884 	ldr.w	r3, [r2, #2180]	; 0x884
 8001088:	f023 6380 	bic.w	r3, r3, #67108864	; 0x4000000
 800108c:	f8c2 3884 	str.w	r3, [r2, #2180]	; 0x884
 8001090:	f8d2 3c84 	ldr.w	r3, [r2, #3204]	; 0xc84
 8001094:	f023 6380 	bic.w	r3, r3, #67108864	; 0x4000000
 8001098:	f8c2 3c84 	str.w	r3, [r2, #3204]	; 0xc84
 800109c:	780b      	ldrb	r3, [r1, #0]
 800109e:	f013 0503 	ands.w	r5, r3, #3
 80010a2:	f3c3 0381 	ubfx	r3, r3, #2, #2
 80010a6:	bf0c      	ite	eq
 80010a8:	2700      	moveq	r7, #0
 80010aa:	f44f 6700 	movne.w	r7, #2048	; 0x800
 80010ae:	021a      	lsls	r2, r3, #8
 80010b0:	2400      	movs	r4, #0
 80010b2:	4b1f      	ldr	r3, [pc, #124]	; (8001130 <XMC_VADC_GLOBAL_BackgroundInit+0xc8>)
 80010b4:	f853 6024 	ldr.w	r6, [r3, r4, lsl #2]
 80010b8:	f8d6 3084 	ldr.w	r3, [r6, #132]	; 0x84
 80010bc:	f423 7340 	bic.w	r3, r3, #768	; 0x300
 80010c0:	4313      	orrs	r3, r2
 80010c2:	3401      	adds	r4, #1
 80010c4:	433b      	orrs	r3, r7
 80010c6:	2c04      	cmp	r4, #4
 80010c8:	f8c6 3084 	str.w	r3, [r6, #132]	; 0x84
 80010cc:	d1f1      	bne.n	80010b2 <XMC_VADC_GLOBAL_BackgroundInit+0x4a>
 80010ce:	684b      	ldr	r3, [r1, #4]
 80010d0:	4a16      	ldr	r2, [pc, #88]	; (800112c <XMC_VADC_GLOBAL_BackgroundInit+0xc4>)
 80010d2:	f443 0300 	orr.w	r3, r3, #8388608	; 0x800000
 80010d6:	f443 4300 	orr.w	r3, r3, #32768	; 0x8000
 80010da:	f8c0 3200 	str.w	r3, [r0, #512]	; 0x200
 80010de:	688b      	ldr	r3, [r1, #8]
 80010e0:	f043 0301 	orr.w	r3, r3, #1
 80010e4:	f8c0 3204 	str.w	r3, [r0, #516]	; 0x204
 80010e8:	2d02      	cmp	r5, #2
 80010ea:	bf02      	ittt	eq
 80010ec:	f8d0 3204 	ldreq.w	r3, [r0, #516]	; 0x204
 80010f0:	f443 3380 	orreq.w	r3, r3, #65536	; 0x10000
 80010f4:	f8c0 3204 	streq.w	r3, [r0, #516]	; 0x204
 80010f8:	f8d2 3084 	ldr.w	r3, [r2, #132]	; 0x84
 80010fc:	f043 6380 	orr.w	r3, r3, #67108864	; 0x4000000
 8001100:	f8c2 3084 	str.w	r3, [r2, #132]	; 0x84
 8001104:	f8d2 3484 	ldr.w	r3, [r2, #1156]	; 0x484
 8001108:	f043 6380 	orr.w	r3, r3, #67108864	; 0x4000000
 800110c:	f8c2 3484 	str.w	r3, [r2, #1156]	; 0x484
 8001110:	f8d2 3884 	ldr.w	r3, [r2, #2180]	; 0x884
 8001114:	f043 6380 	orr.w	r3, r3, #67108864	; 0x4000000
 8001118:	f8c2 3884 	str.w	r3, [r2, #2180]	; 0x884
 800111c:	f8d2 3c84 	ldr.w	r3, [r2, #3204]	; 0xc84
 8001120:	f043 6380 	orr.w	r3, r3, #67108864	; 0x4000000
 8001124:	f8c2 3c84 	str.w	r3, [r2, #3204]	; 0xc84
 8001128:	bdf0      	pop	{r4, r5, r6, r7, pc}
 800112a:	bf00      	nop
 800112c:	40004400 	.word	0x40004400
 8001130:	08002df4 	.word	0x08002df4

08001134 <XMC_VADC_GROUP_ChannelInit>:
 8001134:	b530      	push	{r4, r5, lr}
 8001136:	2301      	movs	r3, #1
 8001138:	f8d0 5088 	ldr.w	r5, [r0, #136]	; 0x88
 800113c:	408b      	lsls	r3, r1
 800113e:	ea25 0403 	bic.w	r4, r5, r3
 8001142:	7a13      	ldrb	r3, [r2, #8]
 8001144:	408b      	lsls	r3, r1
 8001146:	4323      	orrs	r3, r4
 8001148:	f8c0 3088 	str.w	r3, [r0, #136]	; 0x88
 800114c:	f992 3009 	ldrsb.w	r3, [r2, #9]
 8001150:	2b00      	cmp	r3, #0
 8001152:	db19      	blt.n	8001188 <XMC_VADC_GROUP_ChannelInit+0x54>
 8001154:	2901      	cmp	r1, #1
 8001156:	d107      	bne.n	8001168 <XMC_VADC_GROUP_ChannelInit+0x34>
 8001158:	f8d0 30b0 	ldr.w	r3, [r0, #176]	; 0xb0
 800115c:	f423 53f8 	bic.w	r3, r3, #7936	; 0x1f00
 8001160:	f8c0 30b0 	str.w	r3, [r0, #176]	; 0xb0
 8001164:	2508      	movs	r5, #8
 8001166:	e007      	b.n	8001178 <XMC_VADC_GROUP_ChannelInit+0x44>
 8001168:	b929      	cbnz	r1, 8001176 <XMC_VADC_GROUP_ChannelInit+0x42>
 800116a:	f8d0 30b0 	ldr.w	r3, [r0, #176]	; 0xb0
 800116e:	f023 031f 	bic.w	r3, r3, #31
 8001172:	f8c0 30b0 	str.w	r3, [r0, #176]	; 0xb0
 8001176:	2500      	movs	r5, #0
 8001178:	f992 3009 	ldrsb.w	r3, [r2, #9]
 800117c:	f8d0 40b0 	ldr.w	r4, [r0, #176]	; 0xb0
 8001180:	40ab      	lsls	r3, r5
 8001182:	4323      	orrs	r3, r4
 8001184:	f8c0 30b0 	str.w	r3, [r0, #176]	; 0xb0
 8001188:	f8d0 40c8 	ldr.w	r4, [r0, #200]	; 0xc8
 800118c:	6853      	ldr	r3, [r2, #4]
 800118e:	4323      	orrs	r3, r4
 8001190:	f8c0 30c8 	str.w	r3, [r0, #200]	; 0xc8
 8001194:	3180      	adds	r1, #128	; 0x80
 8001196:	6813      	ldr	r3, [r2, #0]
 8001198:	f840 3021 	str.w	r3, [r0, r1, lsl #2]
 800119c:	bd30      	pop	{r4, r5, pc}

0800119e <_init>:
 800119e:	4770      	bx	lr

080011a0 <UART_lReconfigureRxFIFO>:
 80011a0:	6843      	ldr	r3, [r0, #4]
 80011a2:	6800      	ldr	r0, [r0, #0]
 80011a4:	f893 3028 	ldrb.w	r3, [r3, #40]	; 0x28
 80011a8:	2201      	movs	r2, #1
 80011aa:	409a      	lsls	r2, r3
 80011ac:	4291      	cmp	r1, r2
 80011ae:	bf34      	ite	cc
 80011b0:	f101 32ff 	addcc.w	r2, r1, #4294967295
 80011b4:	f102 32ff 	addcs.w	r2, r2, #4294967295
 80011b8:	4619      	mov	r1, r3
 80011ba:	f7ff be71 	b.w	8000ea0 <XMC_USIC_CH_RXFIFO_SetSizeTriggerLimit>

080011be <UART_Init>:
 80011be:	6843      	ldr	r3, [r0, #4]
 80011c0:	685b      	ldr	r3, [r3, #4]
 80011c2:	4718      	bx	r3

080011c4 <UART_StartReceiveIRQ>:
 80011c4:	b5f8      	push	{r3, r4, r5, r6, r7, lr}
 80011c6:	6845      	ldr	r5, [r0, #4]
 80011c8:	6883      	ldr	r3, [r0, #8]
 80011ca:	f895 6026 	ldrb.w	r6, [r5, #38]	; 0x26
 80011ce:	4604      	mov	r4, r0
 80011d0:	bb26      	cbnz	r6, 800121c <UART_StartReceiveIRQ+0x58>
 80011d2:	7e5f      	ldrb	r7, [r3, #25]
 80011d4:	f007 06ff 	and.w	r6, r7, #255	; 0xff
 80011d8:	bb17      	cbnz	r7, 8001220 <UART_StartReceiveIRQ+0x5c>
 80011da:	b319      	cbz	r1, 8001224 <UART_StartReceiveIRQ+0x60>
 80011dc:	b312      	cbz	r2, 8001224 <UART_StartReceiveIRQ+0x60>
 80011de:	6059      	str	r1, [r3, #4]
 80011e0:	2101      	movs	r1, #1
 80011e2:	611a      	str	r2, [r3, #16]
 80011e4:	7659      	strb	r1, [r3, #25]
 80011e6:	615e      	str	r6, [r3, #20]
 80011e8:	f895 3028 	ldrb.w	r3, [r5, #40]	; 0x28
 80011ec:	6805      	ldr	r5, [r0, #0]
 80011ee:	b17b      	cbz	r3, 8001210 <UART_StartReceiveIRQ+0x4c>
 80011f0:	f44f 4380 	mov.w	r3, #16384	; 0x4000
 80011f4:	f8c5 3118 	str.w	r3, [r5, #280]	; 0x118
 80011f8:	4611      	mov	r1, r2
 80011fa:	f7ff ffd1 	bl	80011a0 <UART_lReconfigureRxFIFO>
 80011fe:	6822      	ldr	r2, [r4, #0]
 8001200:	f8d2 310c 	ldr.w	r3, [r2, #268]	; 0x10c
 8001204:	f043 43c0 	orr.w	r3, r3, #1610612736	; 0x60000000
 8001208:	f8c2 310c 	str.w	r3, [r2, #268]	; 0x10c
 800120c:	4630      	mov	r0, r6
 800120e:	bdf8      	pop	{r3, r4, r5, r6, r7, pc}
 8001210:	6c2a      	ldr	r2, [r5, #64]	; 0x40
 8001212:	f442 4240 	orr.w	r2, r2, #49152	; 0xc000
 8001216:	642a      	str	r2, [r5, #64]	; 0x40
 8001218:	4618      	mov	r0, r3
 800121a:	bdf8      	pop	{r3, r4, r5, r6, r7, pc}
 800121c:	2004      	movs	r0, #4
 800121e:	bdf8      	pop	{r3, r4, r5, r6, r7, pc}
 8001220:	2002      	movs	r0, #2
 8001222:	bdf8      	pop	{r3, r4, r5, r6, r7, pc}
 8001224:	2003      	movs	r0, #3
 8001226:	bdf8      	pop	{r3, r4, r5, r6, r7, pc}

08001228 <UART_Receive>:
 8001228:	6843      	ldr	r3, [r0, #4]
 800122a:	f893 3026 	ldrb.w	r3, [r3, #38]	; 0x26
 800122e:	b90b      	cbnz	r3, 8001234 <UART_Receive+0xc>
 8001230:	f7ff bfc8 	b.w	80011c4 <UART_StartReceiveIRQ>
 8001234:	2004      	movs	r0, #4
 8001236:	4770      	bx	lr

08001238 <UART_lReceiveHandler>:
 8001238:	6843      	ldr	r3, [r0, #4]
 800123a:	f893 3028 	ldrb.w	r3, [r3, #40]	; 0x28
 800123e:	e92d 41f0 	stmdb	sp!, {r4, r5, r6, r7, r8, lr}
 8001242:	4605      	mov	r5, r0
 8001244:	6884      	ldr	r4, [r0, #8]
 8001246:	b353      	cbz	r3, 800129e <UART_lReceiveHandler+0x66>
 8001248:	6828      	ldr	r0, [r5, #0]
 800124a:	f8d0 3114 	ldr.w	r3, [r0, #276]	; 0x114
 800124e:	071b      	lsls	r3, r3, #28
 8001250:	d41b      	bmi.n	800128a <UART_lReceiveHandler+0x52>
 8001252:	6966      	ldr	r6, [r4, #20]
 8001254:	6923      	ldr	r3, [r4, #16]
 8001256:	429e      	cmp	r6, r3
 8001258:	d206      	bcs.n	8001268 <UART_lReceiveHandler+0x30>
 800125a:	6867      	ldr	r7, [r4, #4]
 800125c:	f7ff fd8b 	bl	8000d76 <XMC_UART_CH_GetReceivedData>
 8001260:	55b8      	strb	r0, [r7, r6]
 8001262:	6963      	ldr	r3, [r4, #20]
 8001264:	3301      	adds	r3, #1
 8001266:	6163      	str	r3, [r4, #20]
 8001268:	6962      	ldr	r2, [r4, #20]
 800126a:	6923      	ldr	r3, [r4, #16]
 800126c:	429a      	cmp	r2, r3
 800126e:	d1eb      	bne.n	8001248 <UART_lReceiveHandler+0x10>
 8001270:	2300      	movs	r3, #0
 8001272:	682a      	ldr	r2, [r5, #0]
 8001274:	7663      	strb	r3, [r4, #25]
 8001276:	f8d2 310c 	ldr.w	r3, [r2, #268]	; 0x10c
 800127a:	f023 43c0 	bic.w	r3, r3, #1610612736	; 0x60000000
 800127e:	f8c2 310c 	str.w	r3, [r2, #268]	; 0x10c
 8001282:	686b      	ldr	r3, [r5, #4]
 8001284:	689b      	ldr	r3, [r3, #8]
 8001286:	b103      	cbz	r3, 800128a <UART_lReceiveHandler+0x52>
 8001288:	4798      	blx	r3
 800128a:	6963      	ldr	r3, [r4, #20]
 800128c:	6921      	ldr	r1, [r4, #16]
 800128e:	428b      	cmp	r3, r1
 8001290:	d222      	bcs.n	80012d8 <UART_lReceiveHandler+0xa0>
 8001292:	4628      	mov	r0, r5
 8001294:	1ac9      	subs	r1, r1, r3
 8001296:	e8bd 41f0 	ldmia.w	sp!, {r4, r5, r6, r7, r8, lr}
 800129a:	f7ff bf81 	b.w	80011a0 <UART_lReconfigureRxFIFO>
 800129e:	6966      	ldr	r6, [r4, #20]
 80012a0:	6923      	ldr	r3, [r4, #16]
 80012a2:	429e      	cmp	r6, r3
 80012a4:	d207      	bcs.n	80012b6 <UART_lReceiveHandler+0x7e>
 80012a6:	6800      	ldr	r0, [r0, #0]
 80012a8:	6867      	ldr	r7, [r4, #4]
 80012aa:	f7ff fd64 	bl	8000d76 <XMC_UART_CH_GetReceivedData>
 80012ae:	55b8      	strb	r0, [r7, r6]
 80012b0:	6963      	ldr	r3, [r4, #20]
 80012b2:	3301      	adds	r3, #1
 80012b4:	6163      	str	r3, [r4, #20]
 80012b6:	6962      	ldr	r2, [r4, #20]
 80012b8:	6923      	ldr	r3, [r4, #16]
 80012ba:	429a      	cmp	r2, r3
 80012bc:	d10c      	bne.n	80012d8 <UART_lReceiveHandler+0xa0>
 80012be:	2300      	movs	r3, #0
 80012c0:	682a      	ldr	r2, [r5, #0]
 80012c2:	7663      	strb	r3, [r4, #25]
 80012c4:	6c13      	ldr	r3, [r2, #64]	; 0x40
 80012c6:	f423 4340 	bic.w	r3, r3, #49152	; 0xc000
 80012ca:	6413      	str	r3, [r2, #64]	; 0x40
 80012cc:	686b      	ldr	r3, [r5, #4]
 80012ce:	689b      	ldr	r3, [r3, #8]
 80012d0:	b113      	cbz	r3, 80012d8 <UART_lReceiveHandler+0xa0>
 80012d2:	e8bd 41f0 	ldmia.w	sp!, {r4, r5, r6, r7, r8, lr}
 80012d6:	4718      	bx	r3
 80012d8:	e8bd 81f0 	ldmia.w	sp!, {r4, r5, r6, r7, r8, pc}

080012dc <UART_0_init>:
 80012dc:	b510      	push	{r4, lr}
 80012de:	4c26      	ldr	r4, [pc, #152]	; (8001378 <UART_0_init+0x9c>)
 80012e0:	4a26      	ldr	r2, [pc, #152]	; (800137c <UART_0_init+0xa0>)
 80012e2:	4827      	ldr	r0, [pc, #156]	; (8001380 <UART_0_init+0xa4>)
 80012e4:	2100      	movs	r1, #0
 80012e6:	f7ff f841 	bl	800036c <XMC_GPIO_Init>
 80012ea:	4620      	mov	r0, r4
 80012ec:	4925      	ldr	r1, [pc, #148]	; (8001384 <UART_0_init+0xa8>)
 80012ee:	f7ff fd00 	bl	8000cf2 <XMC_UART_CH_Init>
 80012f2:	69e3      	ldr	r3, [r4, #28]
 80012f4:	f023 0307 	bic.w	r3, r3, #7
 80012f8:	2100      	movs	r1, #0
 80012fa:	f043 0303 	orr.w	r3, r3, #3
 80012fe:	61e3      	str	r3, [r4, #28]
 8001300:	4620      	mov	r0, r4
 8001302:	460b      	mov	r3, r1
 8001304:	2204      	movs	r2, #4
 8001306:	f7ff fdb3 	bl	8000e70 <XMC_USIC_CH_RXFIFO_Configure>
 800130a:	6c23      	ldr	r3, [r4, #64]	; 0x40
 800130c:	481c      	ldr	r0, [pc, #112]	; (8001380 <UART_0_init+0xa4>)
 800130e:	4a1e      	ldr	r2, [pc, #120]	; (8001388 <UART_0_init+0xac>)
 8001310:	f023 030f 	bic.w	r3, r3, #15
 8001314:	f043 0302 	orr.w	r3, r3, #2
 8001318:	6423      	str	r3, [r4, #64]	; 0x40
 800131a:	2101      	movs	r1, #1
 800131c:	f7ff f826 	bl	800036c <XMC_GPIO_Init>
 8001320:	4620      	mov	r0, r4
 8001322:	2110      	movs	r1, #16
 8001324:	2201      	movs	r2, #1
 8001326:	f7ff fdcc 	bl	8000ec2 <XMC_USIC_CH_SetInterruptNodePointer>
 800132a:	4620      	mov	r0, r4
 800132c:	2110      	movs	r1, #16
 800132e:	2200      	movs	r2, #0
 8001330:	f7ff fdd1 	bl	8000ed6 <XMC_USIC_CH_RXFIFO_SetInterruptNodePointer>
 8001334:	2113      	movs	r1, #19
 8001336:	4620      	mov	r0, r4
 8001338:	2200      	movs	r2, #0
 800133a:	f7ff fdcc 	bl	8000ed6 <XMC_USIC_CH_RXFIFO_SetInterruptNodePointer>
 800133e:	4b13      	ldr	r3, [pc, #76]	; (800138c <UART_0_init+0xb0>)
 8001340:	68db      	ldr	r3, [r3, #12]
 8001342:	f3c3 2302 	ubfx	r3, r3, #8, #3
 8001346:	f1c3 0107 	rsb	r1, r3, #7
 800134a:	2906      	cmp	r1, #6
 800134c:	bf28      	it	cs
 800134e:	2106      	movcs	r1, #6
 8001350:	b10b      	cbz	r3, 8001356 <UART_0_init+0x7a>
 8001352:	1e5a      	subs	r2, r3, #1
 8001354:	e000      	b.n	8001358 <UART_0_init+0x7c>
 8001356:	461a      	mov	r2, r3
 8001358:	2301      	movs	r3, #1
 800135a:	408b      	lsls	r3, r1
 800135c:	3b01      	subs	r3, #1
 800135e:	f003 0305 	and.w	r3, r3, #5
 8001362:	4093      	lsls	r3, r2
 8001364:	009b      	lsls	r3, r3, #2
 8001366:	4a0a      	ldr	r2, [pc, #40]	; (8001390 <UART_0_init+0xb4>)
 8001368:	b2db      	uxtb	r3, r3
 800136a:	f882 335a 	strb.w	r3, [r2, #858]	; 0x35a
 800136e:	f04f 6380 	mov.w	r3, #67108864	; 0x4000000
 8001372:	6093      	str	r3, [r2, #8]
 8001374:	2000      	movs	r0, #0
 8001376:	bd10      	pop	{r4, pc}
 8001378:	48020200 	.word	0x48020200
 800137c:	08002e30 	.word	0x08002e30
 8001380:	48028000 	.word	0x48028000
 8001384:	08002e54 	.word	0x08002e54
 8001388:	08002e48 	.word	0x08002e48
 800138c:	e000ed00 	.word	0xe000ed00
 8001390:	e000e100 	.word	0xe000e100

08001394 <USIC1_0_IRQHandler>:
 8001394:	4801      	ldr	r0, [pc, #4]	; (800139c <USIC1_0_IRQHandler+0x8>)
 8001396:	f7ff bf4f 	b.w	8001238 <UART_lReceiveHandler>
 800139a:	bf00      	nop
 800139c:	20000000 	.word	0x20000000

080013a0 <TIMER_CCU4_lShadowTransfer>:
 80013a0:	6943      	ldr	r3, [r0, #20]
 80013a2:	8c42      	ldrh	r2, [r0, #34]	; 0x22
 80013a4:	635a      	str	r2, [r3, #52]	; 0x34
 80013a6:	2200      	movs	r2, #0
 80013a8:	63da      	str	r2, [r3, #60]	; 0x3c
 80013aa:	6903      	ldr	r3, [r0, #16]
 80013ac:	68c2      	ldr	r2, [r0, #12]
 80013ae:	689b      	ldr	r3, [r3, #8]
 80013b0:	611a      	str	r2, [r3, #16]
 80013b2:	4770      	bx	lr

080013b4 <TIMER_CCU4_lInit>:
 80013b4:	b538      	push	{r3, r4, r5, lr}
 80013b6:	4604      	mov	r4, r0
 80013b8:	6900      	ldr	r0, [r0, #16]
 80013ba:	f000 f87f 	bl	80014bc <GLOBAL_CCU4_Init>
 80013be:	6923      	ldr	r3, [r4, #16]
 80013c0:	6899      	ldr	r1, [r3, #8]
 80013c2:	4605      	mov	r5, r0
 80013c4:	7e20      	ldrb	r0, [r4, #24]
 80013c6:	68ca      	ldr	r2, [r1, #12]
 80013c8:	2301      	movs	r3, #1
 80013ca:	4083      	lsls	r3, r0
 80013cc:	4313      	orrs	r3, r2
 80013ce:	60cb      	str	r3, [r1, #12]
 80013d0:	6960      	ldr	r0, [r4, #20]
 80013d2:	69e1      	ldr	r1, [r4, #28]
 80013d4:	f7ff fc4e 	bl	8000c74 <XMC_CCU4_SLICE_CompareInit>
 80013d8:	4620      	mov	r0, r4
 80013da:	f7ff ffe1 	bl	80013a0 <TIMER_CCU4_lShadowTransfer>
 80013de:	f894 3025 	ldrb.w	r3, [r4, #37]	; 0x25
 80013e2:	b163      	cbz	r3, 80013fe <TIMER_CCU4_lInit+0x4a>
 80013e4:	f894 2020 	ldrb.w	r2, [r4, #32]
 80013e8:	6960      	ldr	r0, [r4, #20]
 80013ea:	2100      	movs	r1, #0
 80013ec:	f7ff fc5a 	bl	8000ca4 <XMC_CCU4_SLICE_SetInterruptNode>
 80013f0:	6962      	ldr	r2, [r4, #20]
 80013f2:	f8d2 30a4 	ldr.w	r3, [r2, #164]	; 0xa4
 80013f6:	f043 0301 	orr.w	r3, r3, #1
 80013fa:	f8c2 30a4 	str.w	r3, [r2, #164]	; 0xa4
 80013fe:	6963      	ldr	r3, [r4, #20]
 8001400:	f894 1024 	ldrb.w	r1, [r4, #36]	; 0x24
 8001404:	2202      	movs	r2, #2
 8001406:	611a      	str	r2, [r3, #16]
 8001408:	2201      	movs	r2, #1
 800140a:	f884 2026 	strb.w	r2, [r4, #38]	; 0x26
 800140e:	b101      	cbz	r1, 8001412 <TIMER_CCU4_lInit+0x5e>
 8001410:	60da      	str	r2, [r3, #12]
 8001412:	4628      	mov	r0, r5
 8001414:	bd38      	pop	{r3, r4, r5, pc}

08001416 <TIMER_Init>:
 8001416:	f890 2026 	ldrb.w	r2, [r0, #38]	; 0x26
 800141a:	b922      	cbnz	r2, 8001426 <TIMER_Init+0x10>
 800141c:	f890 3021 	ldrb.w	r3, [r0, #33]	; 0x21
 8001420:	b90b      	cbnz	r3, 8001426 <TIMER_Init+0x10>
 8001422:	f7ff bfc7 	b.w	80013b4 <TIMER_CCU4_lInit>
 8001426:	2000      	movs	r0, #0
 8001428:	4770      	bx	lr
	...

0800142c <INTERRUPT_Init>:
 800142c:	4b20      	ldr	r3, [pc, #128]	; (80014b0 <INTERRUPT_Init+0x84>)
 800142e:	b5f0      	push	{r4, r5, r6, r7, lr}
 8001430:	68d9      	ldr	r1, [r3, #12]
 8001432:	7805      	ldrb	r5, [r0, #0]
 8001434:	7842      	ldrb	r2, [r0, #1]
 8001436:	7887      	ldrb	r7, [r0, #2]
 8001438:	f3c1 2102 	ubfx	r1, r1, #8, #3
 800143c:	f1c1 0e07 	rsb	lr, r1, #7
 8001440:	f1be 0f06 	cmp.w	lr, #6
 8001444:	bf28      	it	cs
 8001446:	f04f 0e06 	movcs.w	lr, #6
 800144a:	b101      	cbz	r1, 800144e <INTERRUPT_Init+0x22>
 800144c:	3901      	subs	r1, #1
 800144e:	2401      	movs	r4, #1
 8001450:	fa04 f301 	lsl.w	r3, r4, r1
 8001454:	3b01      	subs	r3, #1
 8001456:	fa04 f40e 	lsl.w	r4, r4, lr
 800145a:	ea03 0607 	and.w	r6, r3, r7
 800145e:	1e63      	subs	r3, r4, #1
 8001460:	4013      	ands	r3, r2
 8001462:	408b      	lsls	r3, r1
 8001464:	b26a      	sxtb	r2, r5
 8001466:	2a00      	cmp	r2, #0
 8001468:	ea43 0306 	orr.w	r3, r3, r6
 800146c:	ea4f 0383 	mov.w	r3, r3, lsl #2
 8001470:	bfaf      	iteee	ge
 8001472:	f102 4260 	addge.w	r2, r2, #3758096384	; 0xe0000000
 8001476:	f005 050f 	andlt.w	r5, r5, #15
 800147a:	4a0e      	ldrlt	r2, [pc, #56]	; (80014b4 <INTERRUPT_Init+0x88>)
 800147c:	b2db      	uxtblt	r3, r3
 800147e:	bfa5      	ittet	ge
 8001480:	f502 4261 	addge.w	r2, r2, #57600	; 0xe100
 8001484:	b2db      	uxtbge	r3, r3
 8001486:	5553      	strblt	r3, [r2, r5]
 8001488:	f882 3300 	strbge.w	r3, [r2, #768]	; 0x300
 800148c:	78c3      	ldrb	r3, [r0, #3]
 800148e:	b16b      	cbz	r3, 80014ac <INTERRUPT_Init+0x80>
 8001490:	7802      	ldrb	r2, [r0, #0]
 8001492:	b253      	sxtb	r3, r2
 8001494:	2b00      	cmp	r3, #0
 8001496:	bfa1      	itttt	ge
 8001498:	2101      	movge	r1, #1
 800149a:	f002 021f 	andge.w	r2, r2, #31
 800149e:	fa01 f202 	lslge.w	r2, r1, r2
 80014a2:	095b      	lsrge	r3, r3, #5
 80014a4:	bfa4      	itt	ge
 80014a6:	4904      	ldrge	r1, [pc, #16]	; (80014b8 <INTERRUPT_Init+0x8c>)
 80014a8:	f841 2023 	strge.w	r2, [r1, r3, lsl #2]
 80014ac:	2000      	movs	r0, #0
 80014ae:	bdf0      	pop	{r4, r5, r6, r7, pc}
 80014b0:	e000ed00 	.word	0xe000ed00
 80014b4:	e000ed14 	.word	0xe000ed14
 80014b8:	e000e100 	.word	0xe000e100

080014bc <GLOBAL_CCU4_Init>:
 80014bc:	7b43      	ldrb	r3, [r0, #13]
 80014be:	b510      	push	{r4, lr}
 80014c0:	4604      	mov	r4, r0
 80014c2:	b953      	cbnz	r3, 80014da <GLOBAL_CCU4_Init+0x1e>
 80014c4:	6880      	ldr	r0, [r0, #8]
 80014c6:	7b21      	ldrb	r1, [r4, #12]
 80014c8:	f7ff fbc4 	bl	8000c54 <XMC_CCU4_Init>
 80014cc:	68a2      	ldr	r2, [r4, #8]
 80014ce:	68d3      	ldr	r3, [r2, #12]
 80014d0:	f443 7380 	orr.w	r3, r3, #256	; 0x100
 80014d4:	60d3      	str	r3, [r2, #12]
 80014d6:	2301      	movs	r3, #1
 80014d8:	7363      	strb	r3, [r4, #13]
 80014da:	2000      	movs	r0, #0
 80014dc:	bd10      	pop	{r4, pc}

080014de <GLOBAL_CAN_Init>:
 80014de:	7a43      	ldrb	r3, [r0, #9]
 80014e0:	b510      	push	{r4, lr}
 80014e2:	4604      	mov	r4, r0
 80014e4:	b92b      	cbnz	r3, 80014f2 <GLOBAL_CAN_Init+0x14>
 80014e6:	6840      	ldr	r0, [r0, #4]
 80014e8:	6821      	ldr	r1, [r4, #0]
 80014ea:	f7ff fa73 	bl	80009d4 <XMC_CAN_Init>
 80014ee:	2301      	movs	r3, #1
 80014f0:	7263      	strb	r3, [r4, #9]
 80014f2:	2000      	movs	r0, #0
 80014f4:	bd10      	pop	{r4, pc}

080014f6 <GLOBAL_ADC_Init>:
 80014f6:	b5f8      	push	{r3, r4, r5, r6, r7, lr}
 80014f8:	7e03      	ldrb	r3, [r0, #24]
 80014fa:	2b02      	cmp	r3, #2
 80014fc:	4604      	mov	r4, r0
 80014fe:	d129      	bne.n	8001554 <GLOBAL_ADC_Init+0x5e>
 8001500:	6940      	ldr	r0, [r0, #20]
 8001502:	6921      	ldr	r1, [r4, #16]
 8001504:	f7ff fcf6 	bl	8000ef4 <XMC_VADC_GLOBAL_Init>
 8001508:	1f27      	subs	r7, r4, #4
 800150a:	2600      	movs	r6, #0
 800150c:	f857 3f04 	ldr.w	r3, [r7, #4]!
 8001510:	e893 0003 	ldmia.w	r3, {r0, r1}
 8001514:	f7ff fd61 	bl	8000fda <XMC_VADC_GROUP_Init>
 8001518:	683b      	ldr	r3, [r7, #0]
 800151a:	2103      	movs	r1, #3
 800151c:	6818      	ldr	r0, [r3, #0]
 800151e:	f7ff fd9a 	bl	8001056 <XMC_VADC_GROUP_SetPowerMode>
 8001522:	6839      	ldr	r1, [r7, #0]
 8001524:	7a0b      	ldrb	r3, [r1, #8]
 8001526:	b94b      	cbnz	r3, 800153c <GLOBAL_ADC_Init+0x46>
 8001528:	6960      	ldr	r0, [r4, #20]
 800152a:	f106 0510 	add.w	r5, r6, #16
 800152e:	f8d0 2080 	ldr.w	r2, [r0, #128]	; 0x80
 8001532:	2301      	movs	r3, #1
 8001534:	40ab      	lsls	r3, r5
 8001536:	4313      	orrs	r3, r2
 8001538:	f8c0 3080 	str.w	r3, [r0, #128]	; 0x80
 800153c:	3601      	adds	r6, #1
 800153e:	2300      	movs	r3, #0
 8001540:	2e04      	cmp	r6, #4
 8001542:	724b      	strb	r3, [r1, #9]
 8001544:	461d      	mov	r5, r3
 8001546:	d1e1      	bne.n	800150c <GLOBAL_ADC_Init+0x16>
 8001548:	7e63      	ldrb	r3, [r4, #25]
 800154a:	b113      	cbz	r3, 8001552 <GLOBAL_ADC_Init+0x5c>
 800154c:	6960      	ldr	r0, [r4, #20]
 800154e:	f7ff fcf7 	bl	8000f40 <XMC_VADC_GLOBAL_StartupCalibration>
 8001552:	7625      	strb	r5, [r4, #24]
 8001554:	7e20      	ldrb	r0, [r4, #24]
 8001556:	bdf8      	pop	{r3, r4, r5, r6, r7, pc}

08001558 <DIGITAL_IO_Init>:
 8001558:	b510      	push	{r4, lr}
 800155a:	4604      	mov	r4, r0
 800155c:	1d22      	adds	r2, r4, #4
 800155e:	7c21      	ldrb	r1, [r4, #16]
 8001560:	6800      	ldr	r0, [r0, #0]
 8001562:	f7fe ff03 	bl	800036c <XMC_GPIO_Init>
 8001566:	6820      	ldr	r0, [r4, #0]
 8001568:	7c21      	ldrb	r1, [r4, #16]
 800156a:	7c62      	ldrb	r2, [r4, #17]
 800156c:	f7ff fbb4 	bl	8000cd8 <XMC_GPIO_SetHardwareControl>
 8001570:	2000      	movs	r0, #0
 8001572:	bd10      	pop	{r4, pc}

08001574 <SystemCoreSetup>:
 8001574:	4b19      	ldr	r3, [pc, #100]	; (80015dc <SystemCoreSetup+0x68>)
 8001576:	4a1a      	ldr	r2, [pc, #104]	; (80015e0 <SystemCoreSetup+0x6c>)
 8001578:	68d9      	ldr	r1, [r3, #12]
 800157a:	f421 61e0 	bic.w	r1, r1, #1792	; 0x700
 800157e:	0409      	lsls	r1, r1, #16
 8001580:	0c09      	lsrs	r1, r1, #16
 8001582:	430a      	orrs	r2, r1
 8001584:	60da      	str	r2, [r3, #12]
 8001586:	b672      	cpsid	i
 8001588:	4a16      	ldr	r2, [pc, #88]	; (80015e4 <SystemCoreSetup+0x70>)
 800158a:	609a      	str	r2, [r3, #8]
 800158c:	f3bf 8f4f 	dsb	sy
 8001590:	b662      	cpsie	i
 8001592:	f8d3 2088 	ldr.w	r2, [r3, #136]	; 0x88
 8001596:	4814      	ldr	r0, [pc, #80]	; (80015e8 <SystemCoreSetup+0x74>)
 8001598:	f442 0270 	orr.w	r2, r2, #15728640	; 0xf00000
 800159c:	f241 0114 	movw	r1, #4116	; 0x1014
 80015a0:	f8c3 2088 	str.w	r2, [r3, #136]	; 0x88
 80015a4:	5842      	ldr	r2, [r0, r1]
 80015a6:	f022 020f 	bic.w	r2, r2, #15
 80015aa:	f042 0203 	orr.w	r2, r2, #3
 80015ae:	5042      	str	r2, [r0, r1]
 80015b0:	695a      	ldr	r2, [r3, #20]
 80015b2:	f022 0210 	bic.w	r2, r2, #16
 80015b6:	615a      	str	r2, [r3, #20]
 80015b8:	695a      	ldr	r2, [r3, #20]
 80015ba:	f022 0208 	bic.w	r2, r2, #8
 80015be:	615a      	str	r2, [r3, #20]
 80015c0:	6a5a      	ldr	r2, [r3, #36]	; 0x24
 80015c2:	f422 3280 	bic.w	r2, r2, #65536	; 0x10000
 80015c6:	625a      	str	r2, [r3, #36]	; 0x24
 80015c8:	6a5a      	ldr	r2, [r3, #36]	; 0x24
 80015ca:	f422 3200 	bic.w	r2, r2, #131072	; 0x20000
 80015ce:	625a      	str	r2, [r3, #36]	; 0x24
 80015d0:	6a5a      	ldr	r2, [r3, #36]	; 0x24
 80015d2:	f422 2280 	bic.w	r2, r2, #262144	; 0x40000
 80015d6:	625a      	str	r2, [r3, #36]	; 0x24
 80015d8:	4770      	bx	lr
 80015da:	bf00      	nop
 80015dc:	e000ed00 	.word	0xe000ed00
 80015e0:	05fa0100 	.word	0x05fa0100
 80015e4:	08000000 	.word	0x08000000
 80015e8:	58001000 	.word	0x58001000

080015ec <CLOCK_XMC4_Init>:
 80015ec:	2301      	movs	r3, #1
 80015ee:	7003      	strb	r3, [r0, #0]
 80015f0:	2000      	movs	r0, #0
 80015f2:	4770      	bx	lr

080015f4 <OSCHP_GetFrequency>:
 80015f4:	4800      	ldr	r0, [pc, #0]	; (80015f8 <OSCHP_GetFrequency+0x4>)
 80015f6:	4770      	bx	lr
 80015f8:	00b71b00 	.word	0x00b71b00

080015fc <SystemCoreClockSetup>:
 80015fc:	b530      	push	{r4, r5, lr}
 80015fe:	4d11      	ldr	r5, [pc, #68]	; (8001644 <SystemCoreClockSetup+0x48>)
 8001600:	cd0f      	ldmia	r5!, {r0, r1, r2, r3}
 8001602:	b087      	sub	sp, #28
 8001604:	ac01      	add	r4, sp, #4
 8001606:	c40f      	stmia	r4!, {r0, r1, r2, r3}
 8001608:	682b      	ldr	r3, [r5, #0]
 800160a:	6023      	str	r3, [r4, #0]
 800160c:	a801      	add	r0, sp, #4
 800160e:	f7ff f8ff 	bl	8000810 <XMC_SCU_CLOCK_Init>
 8001612:	2000      	movs	r0, #0
 8001614:	f7fe ff48 	bl	80004a8 <XMC_SCU_HIB_SetRtcClockSource>
 8001618:	2000      	movs	r0, #0
 800161a:	f7fe ff21 	bl	8000460 <XMC_SCU_CLOCK_SetUsbClockSource>
 800161e:	2004      	movs	r0, #4
 8001620:	f7fe ff8a 	bl	8000538 <XMC_SCU_CLOCK_SetUsbClockDivider>
 8001624:	2120      	movs	r1, #32
 8001626:	2001      	movs	r0, #1
 8001628:	f7fe ffaa 	bl	8000580 <XMC_SCU_CLOCK_StartUsbPll>
 800162c:	2000      	movs	r0, #0
 800162e:	f7fe ff21 	bl	8000474 <XMC_SCU_CLOCK_SetWdtClockSource>
 8001632:	2001      	movs	r0, #1
 8001634:	f7fe ff94 	bl	8000560 <XMC_SCU_CLOCK_SetWdtClockDivider>
 8001638:	2001      	movs	r0, #1
 800163a:	f7fe ff87 	bl	800054c <XMC_SCU_CLOCK_SetEbuClockDivider>
 800163e:	b007      	add	sp, #28
 8001640:	bd30      	pop	{r4, r5, pc}
 8001642:	bf00      	nop
 8001644:	08002ee0 	.word	0x08002ee0

08001648 <CAN_NODE_MO_Init>:
 8001648:	b510      	push	{r4, lr}
 800164a:	4604      	mov	r4, r0
 800164c:	6800      	ldr	r0, [r0, #0]
 800164e:	f7ff fa17 	bl	8000a80 <XMC_CAN_MO_Config>
 8001652:	79e3      	ldrb	r3, [r4, #7]
 8001654:	b163      	cbz	r3, 8001670 <CAN_NODE_MO_Init+0x28>
 8001656:	6823      	ldr	r3, [r4, #0]
 8001658:	7961      	ldrb	r1, [r4, #5]
 800165a:	681a      	ldr	r2, [r3, #0]
 800165c:	6893      	ldr	r3, [r2, #8]
 800165e:	f023 0370 	bic.w	r3, r3, #112	; 0x70
 8001662:	ea43 1301 	orr.w	r3, r3, r1, lsl #4
 8001666:	6093      	str	r3, [r2, #8]
 8001668:	6813      	ldr	r3, [r2, #0]
 800166a:	f443 3300 	orr.w	r3, r3, #131072	; 0x20000
 800166e:	6013      	str	r3, [r2, #0]
 8001670:	7a23      	ldrb	r3, [r4, #8]
 8001672:	b15b      	cbz	r3, 800168c <CAN_NODE_MO_Init+0x44>
 8001674:	6823      	ldr	r3, [r4, #0]
 8001676:	681b      	ldr	r3, [r3, #0]
 8001678:	689a      	ldr	r2, [r3, #8]
 800167a:	f022 0107 	bic.w	r1, r2, #7
 800167e:	79a2      	ldrb	r2, [r4, #6]
 8001680:	430a      	orrs	r2, r1
 8001682:	609a      	str	r2, [r3, #8]
 8001684:	681a      	ldr	r2, [r3, #0]
 8001686:	f442 3280 	orr.w	r2, r2, #65536	; 0x10000
 800168a:	601a      	str	r2, [r3, #0]
 800168c:	bd10      	pop	{r4, pc}

0800168e <CAN_NODE_MO_Receive>:
 800168e:	6800      	ldr	r0, [r0, #0]
 8001690:	f7ff ba54 	b.w	8000b3c <XMC_CAN_MO_Receive>

08001694 <CAN_NODE_MO_ReceiveData>:
 8001694:	6800      	ldr	r0, [r0, #0]
 8001696:	f7ff ba35 	b.w	8000b04 <XMC_CAN_MO_ReceiveData>

0800169a <CAN_NODE_Init>:
 800169a:	e92d 43f8 	stmdb	sp!, {r3, r4, r5, r6, r7, r8, r9, lr}
 800169e:	f8d0 6090 	ldr.w	r6, [r0, #144]	; 0x90
 80016a2:	4604      	mov	r4, r0
 80016a4:	6800      	ldr	r0, [r0, #0]
 80016a6:	f7ff ff1a 	bl	80014de <GLOBAL_CAN_Init>
 80016aa:	4605      	mov	r5, r0
 80016ac:	2800      	cmp	r0, #0
 80016ae:	f040 8088 	bne.w	80017c2 <CAN_NODE_Init+0x128>
 80016b2:	6860      	ldr	r0, [r4, #4]
 80016b4:	68a1      	ldr	r1, [r4, #8]
 80016b6:	f7ff f8f9 	bl	80008ac <XMC_CAN_NODE_NominalBitTimeConfigure>
 80016ba:	6863      	ldr	r3, [r4, #4]
 80016bc:	681a      	ldr	r2, [r3, #0]
 80016be:	f042 0240 	orr.w	r2, r2, #64	; 0x40
 80016c2:	601a      	str	r2, [r3, #0]
 80016c4:	681a      	ldr	r2, [r3, #0]
 80016c6:	f042 0201 	orr.w	r2, r2, #1
 80016ca:	601a      	str	r2, [r3, #0]
 80016cc:	f894 20a7 	ldrb.w	r2, [r4, #167]	; 0xa7
 80016d0:	b122      	cbz	r2, 80016dc <CAN_NODE_Init+0x42>
 80016d2:	68da      	ldr	r2, [r3, #12]
 80016d4:	f442 7280 	orr.w	r2, r2, #256	; 0x100
 80016d8:	60da      	str	r2, [r3, #12]
 80016da:	e011      	b.n	8001700 <CAN_NODE_Init+0x66>
 80016dc:	f8d4 3098 	ldr.w	r3, [r4, #152]	; 0x98
 80016e0:	f8d4 209c 	ldr.w	r2, [r4, #156]	; 0x9c
 80016e4:	7919      	ldrb	r1, [r3, #4]
 80016e6:	6818      	ldr	r0, [r3, #0]
 80016e8:	f7fe fe40 	bl	800036c <XMC_GPIO_Init>
 80016ec:	6861      	ldr	r1, [r4, #4]
 80016ee:	f894 20a0 	ldrb.w	r2, [r4, #160]	; 0xa0
 80016f2:	68cb      	ldr	r3, [r1, #12]
 80016f4:	f002 0207 	and.w	r2, r2, #7
 80016f8:	f023 0307 	bic.w	r3, r3, #7
 80016fc:	4313      	orrs	r3, r2
 80016fe:	60cb      	str	r3, [r1, #12]
 8001700:	6860      	ldr	r0, [r4, #4]
 8001702:	f8d4 208c 	ldr.w	r2, [r4, #140]	; 0x8c
 8001706:	6883      	ldr	r3, [r0, #8]
 8001708:	f023 0107 	bic.w	r1, r3, #7
 800170c:	7813      	ldrb	r3, [r2, #0]
 800170e:	430b      	orrs	r3, r1
 8001710:	6083      	str	r3, [r0, #8]
 8001712:	6883      	ldr	r3, [r0, #8]
 8001714:	7851      	ldrb	r1, [r2, #1]
 8001716:	f023 0370 	bic.w	r3, r3, #112	; 0x70
 800171a:	ea43 1301 	orr.w	r3, r3, r1, lsl #4
 800171e:	6083      	str	r3, [r0, #8]
 8001720:	6883      	ldr	r3, [r0, #8]
 8001722:	7891      	ldrb	r1, [r2, #2]
 8001724:	f423 63e0 	bic.w	r3, r3, #1792	; 0x700
 8001728:	ea43 2301 	orr.w	r3, r3, r1, lsl #8
 800172c:	6083      	str	r3, [r0, #8]
 800172e:	6883      	ldr	r3, [r0, #8]
 8001730:	78d2      	ldrb	r2, [r2, #3]
 8001732:	f423 43e0 	bic.w	r3, r3, #28672	; 0x7000
 8001736:	ea43 3302 	orr.w	r3, r3, r2, lsl #12
 800173a:	6083      	str	r3, [r0, #8]
 800173c:	f894 30a4 	ldrb.w	r3, [r4, #164]	; 0xa4
 8001740:	2b00      	cmp	r3, #0
 8001742:	f894 30a3 	ldrb.w	r3, [r4, #163]	; 0xa3
 8001746:	bf0c      	ite	eq
 8001748:	2100      	moveq	r1, #0
 800174a:	2102      	movne	r1, #2
 800174c:	b10b      	cbz	r3, 8001752 <CAN_NODE_Init+0xb8>
 800174e:	f041 0104 	orr.w	r1, r1, #4
 8001752:	f894 30a5 	ldrb.w	r3, [r4, #165]	; 0xa5
 8001756:	b10b      	cbz	r3, 800175c <CAN_NODE_Init+0xc2>
 8001758:	f041 0108 	orr.w	r1, r1, #8
 800175c:	f7ff fa46 	bl	8000bec <XMC_CAN_NODE_EnableEvent>
 8001760:	f894 30a6 	ldrb.w	r3, [r4, #166]	; 0xa6
 8001764:	b123      	cbz	r3, 8001770 <CAN_NODE_Init+0xd6>
 8001766:	6860      	ldr	r0, [r4, #4]
 8001768:	f44f 0180 	mov.w	r1, #4194304	; 0x400000
 800176c:	f7ff fa3e 	bl	8000bec <XMC_CAN_NODE_EnableEvent>
 8001770:	f104 0808 	add.w	r8, r4, #8
 8001774:	2700      	movs	r7, #0
 8001776:	f894 30a2 	ldrb.w	r3, [r4, #162]	; 0xa2
 800177a:	429f      	cmp	r7, r3
 800177c:	d20e      	bcs.n	800179c <CAN_NODE_Init+0x102>
 800177e:	f858 9f04 	ldr.w	r9, [r8, #4]!
 8001782:	6823      	ldr	r3, [r4, #0]
 8001784:	f894 10a1 	ldrb.w	r1, [r4, #161]	; 0xa1
 8001788:	6858      	ldr	r0, [r3, #4]
 800178a:	f899 2004 	ldrb.w	r2, [r9, #4]
 800178e:	f7ff f902 	bl	8000996 <XMC_CAN_AllocateMOtoNodeList>
 8001792:	4648      	mov	r0, r9
 8001794:	f7ff ff58 	bl	8001648 <CAN_NODE_MO_Init>
 8001798:	3701      	adds	r7, #1
 800179a:	e7ec      	b.n	8001776 <CAN_NODE_Init+0xdc>
 800179c:	6863      	ldr	r3, [r4, #4]
 800179e:	681a      	ldr	r2, [r3, #0]
 80017a0:	f022 0240 	bic.w	r2, r2, #64	; 0x40
 80017a4:	601a      	str	r2, [r3, #0]
 80017a6:	681a      	ldr	r2, [r3, #0]
 80017a8:	f022 0201 	bic.w	r2, r2, #1
 80017ac:	601a      	str	r2, [r3, #0]
 80017ae:	f894 30a7 	ldrb.w	r3, [r4, #167]	; 0xa7
 80017b2:	b93b      	cbnz	r3, 80017c4 <CAN_NODE_Init+0x12a>
 80017b4:	6830      	ldr	r0, [r6, #0]
 80017b6:	7931      	ldrb	r1, [r6, #4]
 80017b8:	f8d4 2094 	ldr.w	r2, [r4, #148]	; 0x94
 80017bc:	f7fe fdd6 	bl	800036c <XMC_GPIO_Init>
 80017c0:	e000      	b.n	80017c4 <CAN_NODE_Init+0x12a>
 80017c2:	2501      	movs	r5, #1
 80017c4:	4628      	mov	r0, r5
 80017c6:	e8bd 83f8 	ldmia.w	sp!, {r3, r4, r5, r6, r7, r8, r9, pc}

080017ca <ANALOG_IO_Init>:
 80017ca:	6843      	ldr	r3, [r0, #4]
 80017cc:	781b      	ldrb	r3, [r3, #0]
 80017ce:	b510      	push	{r4, lr}
 80017d0:	4604      	mov	r4, r0
 80017d2:	b92b      	cbnz	r3, 80017e0 <ANALOG_IO_Init+0x16>
 80017d4:	6803      	ldr	r3, [r0, #0]
 80017d6:	b103      	cbz	r3, 80017da <ANALOG_IO_Init+0x10>
 80017d8:	4798      	blx	r3
 80017da:	6863      	ldr	r3, [r4, #4]
 80017dc:	2201      	movs	r2, #1
 80017de:	701a      	strb	r2, [r3, #0]
 80017e0:	2000      	movs	r0, #0
 80017e2:	bd10      	pop	{r4, pc}

080017e4 <ADC_MEASUREMENT_Init>:
 80017e4:	b5f8      	push	{r3, r4, r5, r6, r7, lr}
 80017e6:	7e03      	ldrb	r3, [r0, #24]
 80017e8:	2b02      	cmp	r3, #2
 80017ea:	4604      	mov	r4, r0
 80017ec:	f040 8091 	bne.w	8001912 <ADC_MEASUREMENT_Init+0x12e>
 80017f0:	68c0      	ldr	r0, [r0, #12]
 80017f2:	f7ff fe80 	bl	80014f6 <GLOBAL_ADC_Init>
 80017f6:	68e2      	ldr	r2, [r4, #12]
 80017f8:	68a3      	ldr	r3, [r4, #8]
 80017fa:	4605      	mov	r5, r0
 80017fc:	6950      	ldr	r0, [r2, #20]
 80017fe:	6819      	ldr	r1, [r3, #0]
 8001800:	2200      	movs	r2, #0
 8001802:	4613      	mov	r3, r2
 8001804:	f7ff fb90 	bl	8000f28 <XMC_VADC_GLOBAL_InputClassInit>
 8001808:	68e3      	ldr	r3, [r4, #12]
 800180a:	6861      	ldr	r1, [r4, #4]
 800180c:	6958      	ldr	r0, [r3, #20]
 800180e:	f7ff fc2b 	bl	8001068 <XMC_VADC_GLOBAL_BackgroundInit>
 8001812:	6823      	ldr	r3, [r4, #0]
 8001814:	681e      	ldr	r6, [r3, #0]
 8001816:	68b0      	ldr	r0, [r6, #8]
 8001818:	7c71      	ldrb	r1, [r6, #17]
 800181a:	6832      	ldr	r2, [r6, #0]
 800181c:	f7ff fc8a 	bl	8001134 <XMC_VADC_GROUP_ChannelInit>
 8001820:	6833      	ldr	r3, [r6, #0]
 8001822:	6871      	ldr	r1, [r6, #4]
 8001824:	789b      	ldrb	r3, [r3, #2]
 8001826:	68b2      	ldr	r2, [r6, #8]
 8001828:	6809      	ldr	r1, [r1, #0]
 800182a:	f003 030f 	and.w	r3, r3, #15
 800182e:	33a0      	adds	r3, #160	; 0xa0
 8001830:	f842 1023 	str.w	r1, [r2, r3, lsl #2]
 8001834:	68e3      	ldr	r3, [r4, #12]
 8001836:	7c32      	ldrb	r2, [r6, #16]
 8001838:	695b      	ldr	r3, [r3, #20]
 800183a:	7c70      	ldrb	r0, [r6, #17]
 800183c:	eb03 0382 	add.w	r3, r3, r2, lsl #2
 8001840:	2201      	movs	r2, #1
 8001842:	f8d3 1180 	ldr.w	r1, [r3, #384]	; 0x180
 8001846:	4082      	lsls	r2, r0
 8001848:	68f0      	ldr	r0, [r6, #12]
 800184a:	430a      	orrs	r2, r1
 800184c:	f8c3 2180 	str.w	r2, [r3, #384]	; 0x180
 8001850:	b118      	cbz	r0, 800185a <ADC_MEASUREMENT_Init+0x76>
 8001852:	f7ff ffba 	bl	80017ca <ANALOG_IO_Init>
 8001856:	4328      	orrs	r0, r5
 8001858:	b2c5      	uxtb	r5, r0
 800185a:	6863      	ldr	r3, [r4, #4]
 800185c:	7a1b      	ldrb	r3, [r3, #8]
 800185e:	071b      	lsls	r3, r3, #28
 8001860:	d549      	bpl.n	80018f6 <ADC_MEASUREMENT_Init+0x112>
 8001862:	6923      	ldr	r3, [r4, #16]
 8001864:	2b00      	cmp	r3, #0
 8001866:	d046      	beq.n	80018f6 <ADC_MEASUREMENT_Init+0x112>
 8001868:	4a2b      	ldr	r2, [pc, #172]	; (8001918 <ADC_MEASUREMENT_Init+0x134>)
 800186a:	681e      	ldr	r6, [r3, #0]
 800186c:	68d1      	ldr	r1, [r2, #12]
 800186e:	685a      	ldr	r2, [r3, #4]
 8001870:	689b      	ldr	r3, [r3, #8]
 8001872:	f3c1 2102 	ubfx	r1, r1, #8, #3
 8001876:	f1c1 0c07 	rsb	ip, r1, #7
 800187a:	f1bc 0f06 	cmp.w	ip, #6
 800187e:	b2f7      	uxtb	r7, r6
 8001880:	bf28      	it	cs
 8001882:	f04f 0c06 	movcs.w	ip, #6
 8001886:	b109      	cbz	r1, 800188c <ADC_MEASUREMENT_Init+0xa8>
 8001888:	1e48      	subs	r0, r1, #1
 800188a:	e000      	b.n	800188e <ADC_MEASUREMENT_Init+0xaa>
 800188c:	4608      	mov	r0, r1
 800188e:	2101      	movs	r1, #1
 8001890:	fa01 fe00 	lsl.w	lr, r1, r0
 8001894:	f10e 3eff 	add.w	lr, lr, #4294967295
 8001898:	fa01 f10c 	lsl.w	r1, r1, ip
 800189c:	ea0e 0e03 	and.w	lr, lr, r3
 80018a0:	1e4b      	subs	r3, r1, #1
 80018a2:	4013      	ands	r3, r2
 80018a4:	4083      	lsls	r3, r0
 80018a6:	b27a      	sxtb	r2, r7
 80018a8:	2a00      	cmp	r2, #0
 80018aa:	ea4e 0303 	orr.w	r3, lr, r3
 80018ae:	ea4f 0383 	mov.w	r3, r3, lsl #2
 80018b2:	bfad      	iteet	ge
 80018b4:	f102 4260 	addge.w	r2, r2, #3758096384	; 0xe0000000
 80018b8:	4a18      	ldrlt	r2, [pc, #96]	; (800191c <ADC_MEASUREMENT_Init+0x138>)
 80018ba:	f006 060f 	andlt.w	r6, r6, #15
 80018be:	f502 4261 	addge.w	r2, r2, #57600	; 0xe100
 80018c2:	bfb9      	ittee	lt
 80018c4:	b2db      	uxtblt	r3, r3
 80018c6:	5593      	strblt	r3, [r2, r6]
 80018c8:	b2db      	uxtbge	r3, r3
 80018ca:	f882 3300 	strbge.w	r3, [r2, #768]	; 0x300
 80018ce:	68e3      	ldr	r3, [r4, #12]
 80018d0:	7e61      	ldrb	r1, [r4, #25]
 80018d2:	6958      	ldr	r0, [r3, #20]
 80018d4:	f7ff fb4e 	bl	8000f74 <XMC_VADC_GLOBAL_BackgroundSetReqSrcEventInterruptNode>
 80018d8:	6923      	ldr	r3, [r4, #16]
 80018da:	681a      	ldr	r2, [r3, #0]
 80018dc:	b253      	sxtb	r3, r2
 80018de:	2b00      	cmp	r3, #0
 80018e0:	bfa1      	itttt	ge
 80018e2:	2101      	movge	r1, #1
 80018e4:	f002 021f 	andge.w	r2, r2, #31
 80018e8:	fa01 f202 	lslge.w	r2, r1, r2
 80018ec:	095b      	lsrge	r3, r3, #5
 80018ee:	bfa4      	itt	ge
 80018f0:	490b      	ldrge	r1, [pc, #44]	; (8001920 <ADC_MEASUREMENT_Init+0x13c>)
 80018f2:	f841 2023 	strge.w	r2, [r1, r3, lsl #2]
 80018f6:	6963      	ldr	r3, [r4, #20]
 80018f8:	b103      	cbz	r3, 80018fc <ADC_MEASUREMENT_Init+0x118>
 80018fa:	4798      	blx	r3
 80018fc:	7ea3      	ldrb	r3, [r4, #26]
 80018fe:	b13b      	cbz	r3, 8001910 <ADC_MEASUREMENT_Init+0x12c>
 8001900:	68e3      	ldr	r3, [r4, #12]
 8001902:	695a      	ldr	r2, [r3, #20]
 8001904:	f8d2 3204 	ldr.w	r3, [r2, #516]	; 0x204
 8001908:	f443 7300 	orr.w	r3, r3, #512	; 0x200
 800190c:	f8c2 3204 	str.w	r3, [r2, #516]	; 0x204
 8001910:	7625      	strb	r5, [r4, #24]
 8001912:	7e20      	ldrb	r0, [r4, #24]
 8001914:	bdf8      	pop	{r3, r4, r5, r6, r7, pc}
 8001916:	bf00      	nop
 8001918:	e000ed00 	.word	0xe000ed00
 800191c:	e000ed14 	.word	0xe000ed14
 8001920:	e000e100 	.word	0xe000e100

08001924 <DAVE_Init>:
 8001924:	b508      	push	{r3, lr}
 8001926:	4811      	ldr	r0, [pc, #68]	; (800196c <DAVE_Init+0x48>)
 8001928:	f7ff fe60 	bl	80015ec <CLOCK_XMC4_Init>
 800192c:	b9e0      	cbnz	r0, 8001968 <DAVE_Init+0x44>
 800192e:	4810      	ldr	r0, [pc, #64]	; (8001970 <DAVE_Init+0x4c>)
 8001930:	f7ff feb3 	bl	800169a <CAN_NODE_Init>
 8001934:	b9c0      	cbnz	r0, 8001968 <DAVE_Init+0x44>
 8001936:	480f      	ldr	r0, [pc, #60]	; (8001974 <DAVE_Init+0x50>)
 8001938:	f7ff feaf 	bl	800169a <CAN_NODE_Init>
 800193c:	b9a0      	cbnz	r0, 8001968 <DAVE_Init+0x44>
 800193e:	480e      	ldr	r0, [pc, #56]	; (8001978 <DAVE_Init+0x54>)
 8001940:	f7ff fc3d 	bl	80011be <UART_Init>
 8001944:	b980      	cbnz	r0, 8001968 <DAVE_Init+0x44>
 8001946:	480d      	ldr	r0, [pc, #52]	; (800197c <DAVE_Init+0x58>)
 8001948:	f7ff fe06 	bl	8001558 <DIGITAL_IO_Init>
 800194c:	b960      	cbnz	r0, 8001968 <DAVE_Init+0x44>
 800194e:	480c      	ldr	r0, [pc, #48]	; (8001980 <DAVE_Init+0x5c>)
 8001950:	f7ff fd61 	bl	8001416 <TIMER_Init>
 8001954:	b940      	cbnz	r0, 8001968 <DAVE_Init+0x44>
 8001956:	480b      	ldr	r0, [pc, #44]	; (8001984 <DAVE_Init+0x60>)
 8001958:	f7ff fd68 	bl	800142c <INTERRUPT_Init>
 800195c:	b920      	cbnz	r0, 8001968 <DAVE_Init+0x44>
 800195e:	480a      	ldr	r0, [pc, #40]	; (8001988 <DAVE_Init+0x64>)
 8001960:	e8bd 4008 	ldmia.w	sp!, {r3, lr}
 8001964:	f7ff bf3e 	b.w	80017e4 <ADC_MEASUREMENT_Init>
 8001968:	bd08      	pop	{r3, pc}
 800196a:	bf00      	nop
 800196c:	20000420 	.word	0x20000420
 8001970:	080030a8 	.word	0x080030a8
 8001974:	08003000 	.word	0x08003000
 8001978:	20000000 	.word	0x20000000
 800197c:	08002ecc 	.word	0x08002ecc
 8001980:	2000000c 	.word	0x2000000c
 8001984:	08002e60 	.word	0x08002e60
 8001988:	200003c0 	.word	0x200003c0

0800198c <CAN_1_Receive>:
 800198c:	e92d 4ff0 	stmdb	sp!, {r4, r5, r6, r7, r8, r9, sl, fp, lr}
 8001990:	4ca1      	ldr	r4, [pc, #644]	; (8001c18 <CAN_1_Receive+0x28c>)
 8001992:	f8df b308 	ldr.w	fp, [pc, #776]	; 8001c9c <CAN_1_Receive+0x310>
 8001996:	f8df a308 	ldr.w	sl, [pc, #776]	; 8001ca0 <CAN_1_Receive+0x314>
 800199a:	f8df 9308 	ldr.w	r9, [pc, #776]	; 8001ca4 <CAN_1_Receive+0x318>
 800199e:	f8df 8308 	ldr.w	r8, [pc, #776]	; 8001ca8 <CAN_1_Receive+0x31c>
 80019a2:	4f9e      	ldr	r7, [pc, #632]	; (8001c1c <CAN_1_Receive+0x290>)
 80019a4:	4e9e      	ldr	r6, [pc, #632]	; (8001c20 <CAN_1_Receive+0x294>)
 80019a6:	4d9f      	ldr	r5, [pc, #636]	; (8001c24 <CAN_1_Receive+0x298>)
 80019a8:	b085      	sub	sp, #20
 80019aa:	4620      	mov	r0, r4
 80019ac:	f7ff fe6f 	bl	800168e <CAN_NODE_MO_Receive>
 80019b0:	6822      	ldr	r2, [r4, #0]
 80019b2:	f8df c2f8 	ldr.w	ip, [pc, #760]	; 8001cac <CAN_1_Receive+0x320>
 80019b6:	f8cd c00c 	str.w	ip, [sp, #12]
 80019ba:	f102 0310 	add.w	r3, r2, #16
 80019be:	f8cc 3000 	str.w	r3, [ip]
 80019c2:	4b99      	ldr	r3, [pc, #612]	; (8001c28 <CAN_1_Receive+0x29c>)
 80019c4:	9302      	str	r3, [sp, #8]
 80019c6:	f102 0112 	add.w	r1, r2, #18
 80019ca:	6019      	str	r1, [r3, #0]
 80019cc:	4997      	ldr	r1, [pc, #604]	; (8001c2c <CAN_1_Receive+0x2a0>)
 80019ce:	4c98      	ldr	r4, [pc, #608]	; (8001c30 <CAN_1_Receive+0x2a4>)
 80019d0:	f102 0014 	add.w	r0, r2, #20
 80019d4:	6008      	str	r0, [r1, #0]
 80019d6:	7d11      	ldrb	r1, [r2, #20]
 80019d8:	08c9      	lsrs	r1, r1, #3
 80019da:	f88b 1000 	strb.w	r1, [fp]
 80019de:	4995      	ldr	r1, [pc, #596]	; (8001c34 <CAN_1_Receive+0x2a8>)
 80019e0:	6008      	str	r0, [r1, #0]
 80019e2:	2117      	movs	r1, #23
 80019e4:	6950      	ldr	r0, [r2, #20]
 80019e6:	2210      	movs	r2, #16
 80019e8:	f001 f96c 	bl	8002cc4 <getbits>
 80019ec:	f8aa 0000 	strh.w	r0, [sl]
 80019f0:	4620      	mov	r0, r4
 80019f2:	f7ff fe4c 	bl	800168e <CAN_NODE_MO_Receive>
 80019f6:	6822      	ldr	r2, [r4, #0]
 80019f8:	4c8f      	ldr	r4, [pc, #572]	; (8001c38 <CAN_1_Receive+0x2ac>)
 80019fa:	4b90      	ldr	r3, [pc, #576]	; (8001c3c <CAN_1_Receive+0x2b0>)
 80019fc:	3210      	adds	r2, #16
 80019fe:	bf18      	it	ne
 8001a00:	2201      	movne	r2, #1
 8001a02:	4620      	mov	r0, r4
 8001a04:	f889 2000 	strb.w	r2, [r9]
 8001a08:	f888 2000 	strb.w	r2, [r8]
 8001a0c:	701a      	strb	r2, [r3, #0]
 8001a0e:	f7ff fe3e 	bl	800168e <CAN_NODE_MO_Receive>
 8001a12:	6822      	ldr	r2, [r4, #0]
 8001a14:	4b8a      	ldr	r3, [pc, #552]	; (8001c40 <CAN_1_Receive+0x2b4>)
 8001a16:	4c8b      	ldr	r4, [pc, #556]	; (8001c44 <CAN_1_Receive+0x2b8>)
 8001a18:	f102 0110 	add.w	r1, r2, #16
 8001a1c:	6019      	str	r1, [r3, #0]
 8001a1e:	4b8a      	ldr	r3, [pc, #552]	; (8001c48 <CAN_1_Receive+0x2bc>)
 8001a20:	f102 0111 	add.w	r1, r2, #17
 8001a24:	6019      	str	r1, [r3, #0]
 8001a26:	4b89      	ldr	r3, [pc, #548]	; (8001c4c <CAN_1_Receive+0x2c0>)
 8001a28:	f102 0112 	add.w	r1, r2, #18
 8001a2c:	6019      	str	r1, [r3, #0]
 8001a2e:	4b88      	ldr	r3, [pc, #544]	; (8001c50 <CAN_1_Receive+0x2c4>)
 8001a30:	f102 0115 	add.w	r1, r2, #21
 8001a34:	6019      	str	r1, [r3, #0]
 8001a36:	4b87      	ldr	r3, [pc, #540]	; (8001c54 <CAN_1_Receive+0x2c8>)
 8001a38:	3216      	adds	r2, #22
 8001a3a:	4620      	mov	r0, r4
 8001a3c:	601a      	str	r2, [r3, #0]
 8001a3e:	f7ff fe26 	bl	800168e <CAN_NODE_MO_Receive>
 8001a42:	6822      	ldr	r2, [r4, #0]
 8001a44:	4b84      	ldr	r3, [pc, #528]	; (8001c58 <CAN_1_Receive+0x2cc>)
 8001a46:	4c85      	ldr	r4, [pc, #532]	; (8001c5c <CAN_1_Receive+0x2d0>)
 8001a48:	f102 0110 	add.w	r1, r2, #16
 8001a4c:	6019      	str	r1, [r3, #0]
 8001a4e:	4b84      	ldr	r3, [pc, #528]	; (8001c60 <CAN_1_Receive+0x2d4>)
 8001a50:	f102 0111 	add.w	r1, r2, #17
 8001a54:	6019      	str	r1, [r3, #0]
 8001a56:	4b83      	ldr	r3, [pc, #524]	; (8001c64 <CAN_1_Receive+0x2d8>)
 8001a58:	f102 0112 	add.w	r1, r2, #18
 8001a5c:	6019      	str	r1, [r3, #0]
 8001a5e:	f102 0113 	add.w	r1, r2, #19
 8001a62:	6039      	str	r1, [r7, #0]
 8001a64:	4620      	mov	r0, r4
 8001a66:	f102 0114 	add.w	r1, r2, #20
 8001a6a:	3215      	adds	r2, #21
 8001a6c:	6031      	str	r1, [r6, #0]
 8001a6e:	602a      	str	r2, [r5, #0]
 8001a70:	f7ff fe0d 	bl	800168e <CAN_NODE_MO_Receive>
 8001a74:	6824      	ldr	r4, [r4, #0]
 8001a76:	4a7c      	ldr	r2, [pc, #496]	; (8001c68 <CAN_1_Receive+0x2dc>)
 8001a78:	6920      	ldr	r0, [r4, #16]
 8001a7a:	f104 0110 	add.w	r1, r4, #16
 8001a7e:	6011      	str	r1, [r2, #0]
 8001a80:	2117      	movs	r1, #23
 8001a82:	2210      	movs	r2, #16
 8001a84:	f001 f91e 	bl	8002cc4 <getbits>
 8001a88:	4a78      	ldr	r2, [pc, #480]	; (8001c6c <CAN_1_Receive+0x2e0>)
 8001a8a:	4979      	ldr	r1, [pc, #484]	; (8001c70 <CAN_1_Receive+0x2e4>)
 8001a8c:	9101      	str	r1, [sp, #4]
 8001a8e:	3416      	adds	r4, #22
 8001a90:	6014      	str	r4, [r2, #0]
 8001a92:	4c78      	ldr	r4, [pc, #480]	; (8001c74 <CAN_1_Receive+0x2e8>)
 8001a94:	8008      	strh	r0, [r1, #0]
 8001a96:	4620      	mov	r0, r4
 8001a98:	9200      	str	r2, [sp, #0]
 8001a9a:	f7ff fdf8 	bl	800168e <CAN_NODE_MO_Receive>
 8001a9e:	6820      	ldr	r0, [r4, #0]
 8001aa0:	f8dd c00c 	ldr.w	ip, [sp, #12]
 8001aa4:	4c74      	ldr	r4, [pc, #464]	; (8001c78 <CAN_1_Receive+0x2ec>)
 8001aa6:	ed9f 7a75 	vldr	s14, [pc, #468]	; 8001c7c <CAN_1_Receive+0x2f0>
 8001aaa:	eddf 6a75 	vldr	s13, [pc, #468]	; 8001c80 <CAN_1_Receive+0x2f4>
 8001aae:	f100 0e10 	add.w	lr, r0, #16
 8001ab2:	f8c4 e000 	str.w	lr, [r4]
 8001ab6:	f8dc e000 	ldr.w	lr, [ip]
 8001aba:	4c72      	ldr	r4, [pc, #456]	; (8001c84 <CAN_1_Receive+0x2f8>)
 8001abc:	f89e 3000 	ldrb.w	r3, [lr]
 8001ac0:	ee07 3a90 	vmov	s15, r3
 8001ac4:	eef8 7a67 	vcvt.f32.u32	s15, s15
 8001ac8:	ee67 7a87 	vmul.f32	s15, s15, s14
 8001acc:	ee17 3a90 	vmov	r3, s15
 8001ad0:	6063      	str	r3, [r4, #4]
 8001ad2:	9b02      	ldr	r3, [sp, #8]
 8001ad4:	eddf 7a6c 	vldr	s15, [pc, #432]	; 8001c88 <CAN_1_Receive+0x2fc>
 8001ad8:	681b      	ldr	r3, [r3, #0]
 8001ada:	881b      	ldrh	r3, [r3, #0]
 8001adc:	8063      	strh	r3, [r4, #2]
 8001ade:	f89b 3000 	ldrb.w	r3, [fp]
 8001ae2:	7223      	strb	r3, [r4, #8]
 8001ae4:	f8ba 3000 	ldrh.w	r3, [sl]
 8001ae8:	ee07 3a10 	vmov	s14, r3
 8001aec:	eeb8 7a47 	vcvt.f32.u32	s14, s14
 8001af0:	eee7 7a26 	vfma.f32	s15, s14, s13
 8001af4:	ed9f 7a65 	vldr	s14, [pc, #404]	; 8001c8c <CAN_1_Receive+0x300>
 8001af8:	ee17 3a90 	vmov	r3, s15
 8001afc:	f8c4 3009 	str.w	r3, [r4, #9]
 8001b00:	f899 3000 	ldrb.w	r3, [r9]
 8001b04:	7363      	strb	r3, [r4, #13]
 8001b06:	f898 3000 	ldrb.w	r3, [r8]
 8001b0a:	73a3      	strb	r3, [r4, #14]
 8001b0c:	4b4b      	ldr	r3, [pc, #300]	; (8001c3c <CAN_1_Receive+0x2b0>)
 8001b0e:	781b      	ldrb	r3, [r3, #0]
 8001b10:	73e3      	strb	r3, [r4, #15]
 8001b12:	4b4b      	ldr	r3, [pc, #300]	; (8001c40 <CAN_1_Receive+0x2b4>)
 8001b14:	681b      	ldr	r3, [r3, #0]
 8001b16:	781b      	ldrb	r3, [r3, #0]
 8001b18:	ee07 3a90 	vmov	s15, r3
 8001b1c:	eef8 7a67 	vcvt.f32.u32	s15, s15
 8001b20:	eef6 6a00 	vmov.f32	s13, #96	; 0x60
 8001b24:	ee67 7a87 	vmul.f32	s15, s15, s14
 8001b28:	ee17 3a90 	vmov	r3, s15
 8001b2c:	6123      	str	r3, [r4, #16]
 8001b2e:	4b46      	ldr	r3, [pc, #280]	; (8001c48 <CAN_1_Receive+0x2bc>)
 8001b30:	681b      	ldr	r3, [r3, #0]
 8001b32:	781b      	ldrb	r3, [r3, #0]
 8001b34:	ee07 3a10 	vmov	s14, r3
 8001b38:	eeb8 7a47 	vcvt.f32.u32	s14, s14
 8001b3c:	ee27 7a26 	vmul.f32	s14, s14, s13
 8001b40:	ee17 3a10 	vmov	r3, s14
 8001b44:	6163      	str	r3, [r4, #20]
 8001b46:	4b41      	ldr	r3, [pc, #260]	; (8001c4c <CAN_1_Receive+0x2c0>)
 8001b48:	681b      	ldr	r3, [r3, #0]
 8001b4a:	781b      	ldrb	r3, [r3, #0]
 8001b4c:	ee07 3a90 	vmov	s15, r3
 8001b50:	eef8 7a67 	vcvt.f32.u32	s15, s15
 8001b54:	ee67 7aa6 	vmul.f32	s15, s15, s13
 8001b58:	eddf 6a4d 	vldr	s13, [pc, #308]	; 8001c90 <CAN_1_Receive+0x304>
 8001b5c:	ee17 3a90 	vmov	r3, s15
 8001b60:	61a3      	str	r3, [r4, #24]
 8001b62:	4b3b      	ldr	r3, [pc, #236]	; (8001c50 <CAN_1_Receive+0x2c4>)
 8001b64:	681b      	ldr	r3, [r3, #0]
 8001b66:	781b      	ldrb	r3, [r3, #0]
 8001b68:	7723      	strb	r3, [r4, #28]
 8001b6a:	4b3a      	ldr	r3, [pc, #232]	; (8001c54 <CAN_1_Receive+0x2c8>)
 8001b6c:	681b      	ldr	r3, [r3, #0]
 8001b6e:	781b      	ldrb	r3, [r3, #0]
 8001b70:	7763      	strb	r3, [r4, #29]
 8001b72:	4b39      	ldr	r3, [pc, #228]	; (8001c58 <CAN_1_Receive+0x2cc>)
 8001b74:	9901      	ldr	r1, [sp, #4]
 8001b76:	681b      	ldr	r3, [r3, #0]
 8001b78:	9a00      	ldr	r2, [sp, #0]
 8001b7a:	781b      	ldrb	r3, [r3, #0]
 8001b7c:	ee07 3a10 	vmov	s14, r3
 8001b80:	eeb8 7a47 	vcvt.f32.u32	s14, s14
 8001b84:	ee27 7a26 	vmul.f32	s14, s14, s13
 8001b88:	ee17 3a10 	vmov	r3, s14
 8001b8c:	f8c4 301e 	str.w	r3, [r4, #30]
 8001b90:	4b33      	ldr	r3, [pc, #204]	; (8001c60 <CAN_1_Receive+0x2d4>)
 8001b92:	ed9f 7a40 	vldr	s14, [pc, #256]	; 8001c94 <CAN_1_Receive+0x308>
 8001b96:	681b      	ldr	r3, [r3, #0]
 8001b98:	781b      	ldrb	r3, [r3, #0]
 8001b9a:	ee07 3a90 	vmov	s15, r3
 8001b9e:	eef8 7a67 	vcvt.f32.u32	s15, s15
 8001ba2:	ee67 7aa6 	vmul.f32	s15, s15, s13
 8001ba6:	ee17 3a90 	vmov	r3, s15
 8001baa:	f8c4 3022 	str.w	r3, [r4, #34]	; 0x22
 8001bae:	4b2d      	ldr	r3, [pc, #180]	; (8001c64 <CAN_1_Receive+0x2d8>)
 8001bb0:	681b      	ldr	r3, [r3, #0]
 8001bb2:	781b      	ldrb	r3, [r3, #0]
 8001bb4:	ee07 3a90 	vmov	s15, r3
 8001bb8:	eef8 7a67 	vcvt.f32.u32	s15, s15
 8001bbc:	ee67 7a87 	vmul.f32	s15, s15, s14
 8001bc0:	ed9f 7a35 	vldr	s14, [pc, #212]	; 8001c98 <CAN_1_Receive+0x30c>
 8001bc4:	ee17 3a90 	vmov	r3, s15
 8001bc8:	f8c4 3026 	str.w	r3, [r4, #38]	; 0x26
 8001bcc:	683b      	ldr	r3, [r7, #0]
 8001bce:	781b      	ldrb	r3, [r3, #0]
 8001bd0:	3b32      	subs	r3, #50	; 0x32
 8001bd2:	8563      	strh	r3, [r4, #42]	; 0x2a
 8001bd4:	6833      	ldr	r3, [r6, #0]
 8001bd6:	781b      	ldrb	r3, [r3, #0]
 8001bd8:	3b32      	subs	r3, #50	; 0x32
 8001bda:	85a3      	strh	r3, [r4, #44]	; 0x2c
 8001bdc:	682b      	ldr	r3, [r5, #0]
 8001bde:	781b      	ldrb	r3, [r3, #0]
 8001be0:	3b32      	subs	r3, #50	; 0x32
 8001be2:	85e3      	strh	r3, [r4, #46]	; 0x2e
 8001be4:	880b      	ldrh	r3, [r1, #0]
 8001be6:	ee07 3a90 	vmov	s15, r3
 8001bea:	eef8 7a67 	vcvt.f32.u32	s15, s15
 8001bee:	ee67 7a87 	vmul.f32	s15, s15, s14
 8001bf2:	ee17 3a90 	vmov	r3, s15
 8001bf6:	6323      	str	r3, [r4, #48]	; 0x30
 8001bf8:	6813      	ldr	r3, [r2, #0]
 8001bfa:	781b      	ldrb	r3, [r3, #0]
 8001bfc:	f884 3034 	strb.w	r3, [r4, #52]	; 0x34
 8001c00:	7c03      	ldrb	r3, [r0, #16]
 8001c02:	ee07 3a90 	vmov	s15, r3
 8001c06:	eef8 7a67 	vcvt.f32.u32	s15, s15
 8001c0a:	ee17 3a90 	vmov	r3, s15
 8001c0e:	f8c4 3035 	str.w	r3, [r4, #53]	; 0x35
 8001c12:	b005      	add	sp, #20
 8001c14:	e8bd 8ff0 	ldmia.w	sp!, {r4, r5, r6, r7, r8, r9, sl, fp, pc}
 8001c18:	08002f30 	.word	0x08002f30
 8001c1c:	20000480 	.word	0x20000480
 8001c20:	20000438 	.word	0x20000438
 8001c24:	20000448 	.word	0x20000448
 8001c28:	2000043c 	.word	0x2000043c
 8001c2c:	20000428 	.word	0x20000428
 8001c30:	080031a4 	.word	0x080031a4
 8001c34:	20000440 	.word	0x20000440
 8001c38:	08002ff4 	.word	0x08002ff4
 8001c3c:	20000454 	.word	0x20000454
 8001c40:	20000474 	.word	0x20000474
 8001c44:	08002fb0 	.word	0x08002fb0
 8001c48:	2000045c 	.word	0x2000045c
 8001c4c:	20000468 	.word	0x20000468
 8001c50:	2000047c 	.word	0x2000047c
 8001c54:	20000478 	.word	0x20000478
 8001c58:	20000458 	.word	0x20000458
 8001c5c:	08002f84 	.word	0x08002f84
 8001c60:	20000434 	.word	0x20000434
 8001c64:	20000460 	.word	0x20000460
 8001c68:	2000044c 	.word	0x2000044c
 8001c6c:	20000430 	.word	0x20000430
 8001c70:	2000042c 	.word	0x2000042c
 8001c74:	08002f3c 	.word	0x08002f3c
 8001c78:	20000450 	.word	0x20000450
 8001c7c:	3c23d70a 	.word	0x3c23d70a
 8001c80:	3dcccccd 	.word	0x3dcccccd
 8001c84:	20000628 	.word	0x20000628
 8001c88:	c2c80000 	.word	0xc2c80000
 8001c8c:	3d23d70a 	.word	0x3d23d70a
 8001c90:	3d03126f 	.word	0x3d03126f
 8001c94:	3ecccccd 	.word	0x3ecccccd
 8001c98:	3a83126f 	.word	0x3a83126f
 8001c9c:	20000444 	.word	0x20000444
 8001ca0:	20000484 	.word	0x20000484
 8001ca4:	20000464 	.word	0x20000464
 8001ca8:	20000470 	.word	0x20000470
 8001cac:	2000046c 	.word	0x2000046c

08001cb0 <CAN_2_Receive>:
 8001cb0:	e92d 4ff0 	stmdb	sp!, {r4, r5, r6, r7, r8, r9, sl, fp, lr}
 8001cb4:	ed2d 8b02 	vpush	{d8}
 8001cb8:	4dd0      	ldr	r5, [pc, #832]	; (8001ffc <CAN_2_Receive+0x34c>)
 8001cba:	48d1      	ldr	r0, [pc, #836]	; (8002000 <CAN_2_Receive+0x350>)
 8001cbc:	4cd1      	ldr	r4, [pc, #836]	; (8002004 <CAN_2_Receive+0x354>)
 8001cbe:	f8df b444 	ldr.w	fp, [pc, #1092]	; 8002104 <CAN_2_Receive+0x454>
 8001cc2:	f8df a444 	ldr.w	sl, [pc, #1092]	; 8002108 <CAN_2_Receive+0x458>
 8001cc6:	f8df 9444 	ldr.w	r9, [pc, #1092]	; 800210c <CAN_2_Receive+0x45c>
 8001cca:	f8df 8444 	ldr.w	r8, [pc, #1092]	; 8002110 <CAN_2_Receive+0x460>
 8001cce:	4fce      	ldr	r7, [pc, #824]	; (8002008 <CAN_2_Receive+0x358>)
 8001cd0:	4ece      	ldr	r6, [pc, #824]	; (800200c <CAN_2_Receive+0x35c>)
 8001cd2:	ed9f 8acf 	vldr	s16, [pc, #828]	; 8002010 <CAN_2_Receive+0x360>
 8001cd6:	b085      	sub	sp, #20
 8001cd8:	f7ff fcdc 	bl	8001694 <CAN_NODE_MO_ReceiveData>
 8001cdc:	4628      	mov	r0, r5
 8001cde:	f7ff fcd9 	bl	8001694 <CAN_NODE_MO_ReceiveData>
 8001ce2:	682b      	ldr	r3, [r5, #0]
 8001ce4:	4dcb      	ldr	r5, [pc, #812]	; (8002014 <CAN_2_Receive+0x364>)
 8001ce6:	3315      	adds	r3, #21
 8001ce8:	4628      	mov	r0, r5
 8001cea:	6023      	str	r3, [r4, #0]
 8001cec:	f7ff fcd2 	bl	8001694 <CAN_NODE_MO_ReceiveData>
 8001cf0:	682b      	ldr	r3, [r5, #0]
 8001cf2:	49c9      	ldr	r1, [pc, #804]	; (8002018 <CAN_2_Receive+0x368>)
 8001cf4:	4dc9      	ldr	r5, [pc, #804]	; (800201c <CAN_2_Receive+0x36c>)
 8001cf6:	48ca      	ldr	r0, [pc, #808]	; (8002020 <CAN_2_Receive+0x370>)
 8001cf8:	9103      	str	r1, [sp, #12]
 8001cfa:	3315      	adds	r3, #21
 8001cfc:	600b      	str	r3, [r1, #0]
 8001cfe:	f7ff fcc9 	bl	8001694 <CAN_NODE_MO_ReceiveData>
 8001d02:	48c8      	ldr	r0, [pc, #800]	; (8002024 <CAN_2_Receive+0x374>)
 8001d04:	f7ff fcc6 	bl	8001694 <CAN_NODE_MO_ReceiveData>
 8001d08:	4628      	mov	r0, r5
 8001d0a:	f7ff fcc3 	bl	8001694 <CAN_NODE_MO_ReceiveData>
 8001d0e:	6828      	ldr	r0, [r5, #0]
 8001d10:	4ac5      	ldr	r2, [pc, #788]	; (8002028 <CAN_2_Receive+0x378>)
 8001d12:	9202      	str	r2, [sp, #8]
 8001d14:	f100 0311 	add.w	r3, r0, #17
 8001d18:	6013      	str	r3, [r2, #0]
 8001d1a:	4bc4      	ldr	r3, [pc, #784]	; (800202c <CAN_2_Receive+0x37c>)
 8001d1c:	9301      	str	r3, [sp, #4]
 8001d1e:	f100 0512 	add.w	r5, r0, #18
 8001d22:	601d      	str	r5, [r3, #0]
 8001d24:	f100 0513 	add.w	r5, r0, #19
 8001d28:	f8cb 5000 	str.w	r5, [fp]
 8001d2c:	f100 0514 	add.w	r5, r0, #20
 8001d30:	f8ca 5000 	str.w	r5, [sl]
 8001d34:	4dbe      	ldr	r5, [pc, #760]	; (8002030 <CAN_2_Receive+0x380>)
 8001d36:	3016      	adds	r0, #22
 8001d38:	f8c9 0000 	str.w	r0, [r9]
 8001d3c:	4628      	mov	r0, r5
 8001d3e:	f7ff fca9 	bl	8001694 <CAN_NODE_MO_ReceiveData>
 8001d42:	6828      	ldr	r0, [r5, #0]
 8001d44:	f100 0510 	add.w	r5, r0, #16
 8001d48:	f8c8 5000 	str.w	r5, [r8]
 8001d4c:	f100 0512 	add.w	r5, r0, #18
 8001d50:	603d      	str	r5, [r7, #0]
 8001d52:	f100 0514 	add.w	r5, r0, #20
 8001d56:	6035      	str	r5, [r6, #0]
 8001d58:	4db6      	ldr	r5, [pc, #728]	; (8002034 <CAN_2_Receive+0x384>)
 8001d5a:	3016      	adds	r0, #22
 8001d5c:	6028      	str	r0, [r5, #0]
 8001d5e:	48b6      	ldr	r0, [pc, #728]	; (8002038 <CAN_2_Receive+0x388>)
 8001d60:	f7ff fc98 	bl	8001694 <CAN_NODE_MO_ReceiveData>
 8001d64:	f8df c3ac 	ldr.w	ip, [pc, #940]	; 8002114 <CAN_2_Receive+0x464>
 8001d68:	f8cd c000 	str.w	ip, [sp]
 8001d6c:	4660      	mov	r0, ip
 8001d6e:	f7ff fc91 	bl	8001694 <CAN_NODE_MO_ReceiveData>
 8001d72:	f8dd c000 	ldr.w	ip, [sp]
 8001d76:	4bb1      	ldr	r3, [pc, #708]	; (800203c <CAN_2_Receive+0x38c>)
 8001d78:	f8dc 0000 	ldr.w	r0, [ip]
 8001d7c:	f8df c398 	ldr.w	ip, [pc, #920]	; 8002118 <CAN_2_Receive+0x468>
 8001d80:	f8cd c000 	str.w	ip, [sp]
 8001d84:	3014      	adds	r0, #20
 8001d86:	6018      	str	r0, [r3, #0]
 8001d88:	4660      	mov	r0, ip
 8001d8a:	f7ff fc83 	bl	8001694 <CAN_NODE_MO_ReceiveData>
 8001d8e:	f8dd c000 	ldr.w	ip, [sp]
 8001d92:	4bab      	ldr	r3, [pc, #684]	; (8002040 <CAN_2_Receive+0x390>)
 8001d94:	f8dc 0000 	ldr.w	r0, [ip]
 8001d98:	f8df c380 	ldr.w	ip, [pc, #896]	; 800211c <CAN_2_Receive+0x46c>
 8001d9c:	f8cd c000 	str.w	ip, [sp]
 8001da0:	3014      	adds	r0, #20
 8001da2:	6018      	str	r0, [r3, #0]
 8001da4:	4660      	mov	r0, ip
 8001da6:	f7ff fc75 	bl	8001694 <CAN_NODE_MO_ReceiveData>
 8001daa:	f8dd c000 	ldr.w	ip, [sp]
 8001dae:	4ba5      	ldr	r3, [pc, #660]	; (8002044 <CAN_2_Receive+0x394>)
 8001db0:	f8dc 0000 	ldr.w	r0, [ip]
 8001db4:	f8df c368 	ldr.w	ip, [pc, #872]	; 8002120 <CAN_2_Receive+0x470>
 8001db8:	f8cd c000 	str.w	ip, [sp]
 8001dbc:	f100 0e10 	add.w	lr, r0, #16
 8001dc0:	f8c3 e000 	str.w	lr, [r3]
 8001dc4:	4ba0      	ldr	r3, [pc, #640]	; (8002048 <CAN_2_Receive+0x398>)
 8001dc6:	f100 0e11 	add.w	lr, r0, #17
 8001dca:	f8c3 e000 	str.w	lr, [r3]
 8001dce:	4b9f      	ldr	r3, [pc, #636]	; (800204c <CAN_2_Receive+0x39c>)
 8001dd0:	f100 0e12 	add.w	lr, r0, #18
 8001dd4:	f8c3 e000 	str.w	lr, [r3]
 8001dd8:	4b9d      	ldr	r3, [pc, #628]	; (8002050 <CAN_2_Receive+0x3a0>)
 8001dda:	f100 0e13 	add.w	lr, r0, #19
 8001dde:	f8c3 e000 	str.w	lr, [r3]
 8001de2:	4b9c      	ldr	r3, [pc, #624]	; (8002054 <CAN_2_Receive+0x3a4>)
 8001de4:	f100 0e14 	add.w	lr, r0, #20
 8001de8:	f8c3 e000 	str.w	lr, [r3]
 8001dec:	4b9a      	ldr	r3, [pc, #616]	; (8002058 <CAN_2_Receive+0x3a8>)
 8001dee:	f100 0e15 	add.w	lr, r0, #21
 8001df2:	f8c3 e000 	str.w	lr, [r3]
 8001df6:	4b99      	ldr	r3, [pc, #612]	; (800205c <CAN_2_Receive+0x3ac>)
 8001df8:	f100 0e16 	add.w	lr, r0, #22
 8001dfc:	f8c3 e000 	str.w	lr, [r3]
 8001e00:	4b97      	ldr	r3, [pc, #604]	; (8002060 <CAN_2_Receive+0x3b0>)
 8001e02:	3017      	adds	r0, #23
 8001e04:	6018      	str	r0, [r3, #0]
 8001e06:	4660      	mov	r0, ip
 8001e08:	f7ff fc44 	bl	8001694 <CAN_NODE_MO_ReceiveData>
 8001e0c:	f8dd c000 	ldr.w	ip, [sp]
 8001e10:	4b94      	ldr	r3, [pc, #592]	; (8002064 <CAN_2_Receive+0x3b4>)
 8001e12:	f8dc 0000 	ldr.w	r0, [ip]
 8001e16:	f8df c30c 	ldr.w	ip, [pc, #780]	; 8002124 <CAN_2_Receive+0x474>
 8001e1a:	f8cd c000 	str.w	ip, [sp]
 8001e1e:	f100 0e10 	add.w	lr, r0, #16
 8001e22:	f8c3 e000 	str.w	lr, [r3]
 8001e26:	4b90      	ldr	r3, [pc, #576]	; (8002068 <CAN_2_Receive+0x3b8>)
 8001e28:	f100 0e11 	add.w	lr, r0, #17
 8001e2c:	f8c3 e000 	str.w	lr, [r3]
 8001e30:	4b8e      	ldr	r3, [pc, #568]	; (800206c <CAN_2_Receive+0x3bc>)
 8001e32:	f100 0e12 	add.w	lr, r0, #18
 8001e36:	f8c3 e000 	str.w	lr, [r3]
 8001e3a:	4b8d      	ldr	r3, [pc, #564]	; (8002070 <CAN_2_Receive+0x3c0>)
 8001e3c:	f100 0e13 	add.w	lr, r0, #19
 8001e40:	f8c3 e000 	str.w	lr, [r3]
 8001e44:	4b8b      	ldr	r3, [pc, #556]	; (8002074 <CAN_2_Receive+0x3c4>)
 8001e46:	f100 0e14 	add.w	lr, r0, #20
 8001e4a:	f8c3 e000 	str.w	lr, [r3]
 8001e4e:	4b8a      	ldr	r3, [pc, #552]	; (8002078 <CAN_2_Receive+0x3c8>)
 8001e50:	f100 0e15 	add.w	lr, r0, #21
 8001e54:	f8c3 e000 	str.w	lr, [r3]
 8001e58:	4b88      	ldr	r3, [pc, #544]	; (800207c <CAN_2_Receive+0x3cc>)
 8001e5a:	f100 0e16 	add.w	lr, r0, #22
 8001e5e:	f8c3 e000 	str.w	lr, [r3]
 8001e62:	4b87      	ldr	r3, [pc, #540]	; (8002080 <CAN_2_Receive+0x3d0>)
 8001e64:	3017      	adds	r0, #23
 8001e66:	6018      	str	r0, [r3, #0]
 8001e68:	4660      	mov	r0, ip
 8001e6a:	f7ff fc13 	bl	8001694 <CAN_NODE_MO_ReceiveData>
 8001e6e:	f8dd c000 	ldr.w	ip, [sp]
 8001e72:	4b84      	ldr	r3, [pc, #528]	; (8002084 <CAN_2_Receive+0x3d4>)
 8001e74:	f8dc 0000 	ldr.w	r0, [ip]
 8001e78:	f8df c2ac 	ldr.w	ip, [pc, #684]	; 8002128 <CAN_2_Receive+0x478>
 8001e7c:	f8cd c000 	str.w	ip, [sp]
 8001e80:	f100 0e10 	add.w	lr, r0, #16
 8001e84:	f8c3 e000 	str.w	lr, [r3]
 8001e88:	4b7f      	ldr	r3, [pc, #508]	; (8002088 <CAN_2_Receive+0x3d8>)
 8001e8a:	f100 0e11 	add.w	lr, r0, #17
 8001e8e:	f8c3 e000 	str.w	lr, [r3]
 8001e92:	4b7e      	ldr	r3, [pc, #504]	; (800208c <CAN_2_Receive+0x3dc>)
 8001e94:	f100 0e12 	add.w	lr, r0, #18
 8001e98:	f8c3 e000 	str.w	lr, [r3]
 8001e9c:	4b7c      	ldr	r3, [pc, #496]	; (8002090 <CAN_2_Receive+0x3e0>)
 8001e9e:	f100 0e13 	add.w	lr, r0, #19
 8001ea2:	f8c3 e000 	str.w	lr, [r3]
 8001ea6:	4b7b      	ldr	r3, [pc, #492]	; (8002094 <CAN_2_Receive+0x3e4>)
 8001ea8:	f100 0e14 	add.w	lr, r0, #20
 8001eac:	f8c3 e000 	str.w	lr, [r3]
 8001eb0:	4b79      	ldr	r3, [pc, #484]	; (8002098 <CAN_2_Receive+0x3e8>)
 8001eb2:	f100 0e15 	add.w	lr, r0, #21
 8001eb6:	f8c3 e000 	str.w	lr, [r3]
 8001eba:	4b78      	ldr	r3, [pc, #480]	; (800209c <CAN_2_Receive+0x3ec>)
 8001ebc:	f100 0e16 	add.w	lr, r0, #22
 8001ec0:	f8c3 e000 	str.w	lr, [r3]
 8001ec4:	4b76      	ldr	r3, [pc, #472]	; (80020a0 <CAN_2_Receive+0x3f0>)
 8001ec6:	3017      	adds	r0, #23
 8001ec8:	6018      	str	r0, [r3, #0]
 8001eca:	4660      	mov	r0, ip
 8001ecc:	f7ff fbe2 	bl	8001694 <CAN_NODE_MO_ReceiveData>
 8001ed0:	f8dd c000 	ldr.w	ip, [sp]
 8001ed4:	4b73      	ldr	r3, [pc, #460]	; (80020a4 <CAN_2_Receive+0x3f4>)
 8001ed6:	f8dc 0000 	ldr.w	r0, [ip]
 8001eda:	f8df c250 	ldr.w	ip, [pc, #592]	; 800212c <CAN_2_Receive+0x47c>
 8001ede:	f8cd c000 	str.w	ip, [sp]
 8001ee2:	f100 0e10 	add.w	lr, r0, #16
 8001ee6:	f8c3 e000 	str.w	lr, [r3]
 8001eea:	4b6f      	ldr	r3, [pc, #444]	; (80020a8 <CAN_2_Receive+0x3f8>)
 8001eec:	f100 0e11 	add.w	lr, r0, #17
 8001ef0:	f8c3 e000 	str.w	lr, [r3]
 8001ef4:	4b6d      	ldr	r3, [pc, #436]	; (80020ac <CAN_2_Receive+0x3fc>)
 8001ef6:	f100 0e12 	add.w	lr, r0, #18
 8001efa:	f8c3 e000 	str.w	lr, [r3]
 8001efe:	4b6c      	ldr	r3, [pc, #432]	; (80020b0 <CAN_2_Receive+0x400>)
 8001f00:	f100 0e13 	add.w	lr, r0, #19
 8001f04:	f8c3 e000 	str.w	lr, [r3]
 8001f08:	4b6a      	ldr	r3, [pc, #424]	; (80020b4 <CAN_2_Receive+0x404>)
 8001f0a:	f100 0e14 	add.w	lr, r0, #20
 8001f0e:	f8c3 e000 	str.w	lr, [r3]
 8001f12:	4b69      	ldr	r3, [pc, #420]	; (80020b8 <CAN_2_Receive+0x408>)
 8001f14:	f100 0e15 	add.w	lr, r0, #21
 8001f18:	f8c3 e000 	str.w	lr, [r3]
 8001f1c:	4b67      	ldr	r3, [pc, #412]	; (80020bc <CAN_2_Receive+0x40c>)
 8001f1e:	f100 0e16 	add.w	lr, r0, #22
 8001f22:	f8c3 e000 	str.w	lr, [r3]
 8001f26:	4b66      	ldr	r3, [pc, #408]	; (80020c0 <CAN_2_Receive+0x410>)
 8001f28:	3017      	adds	r0, #23
 8001f2a:	6018      	str	r0, [r3, #0]
 8001f2c:	4660      	mov	r0, ip
 8001f2e:	f7ff fbb1 	bl	8001694 <CAN_NODE_MO_ReceiveData>
 8001f32:	f8dd c000 	ldr.w	ip, [sp]
 8001f36:	4b63      	ldr	r3, [pc, #396]	; (80020c4 <CAN_2_Receive+0x414>)
 8001f38:	f8dc 0000 	ldr.w	r0, [ip]
 8001f3c:	f8df c1f0 	ldr.w	ip, [pc, #496]	; 8002130 <CAN_2_Receive+0x480>
 8001f40:	f8cd c000 	str.w	ip, [sp]
 8001f44:	f100 0e10 	add.w	lr, r0, #16
 8001f48:	f8c3 e000 	str.w	lr, [r3]
 8001f4c:	4b5e      	ldr	r3, [pc, #376]	; (80020c8 <CAN_2_Receive+0x418>)
 8001f4e:	f100 0e11 	add.w	lr, r0, #17
 8001f52:	f8c3 e000 	str.w	lr, [r3]
 8001f56:	4b5d      	ldr	r3, [pc, #372]	; (80020cc <CAN_2_Receive+0x41c>)
 8001f58:	f100 0e12 	add.w	lr, r0, #18
 8001f5c:	f8c3 e000 	str.w	lr, [r3]
 8001f60:	4b5b      	ldr	r3, [pc, #364]	; (80020d0 <CAN_2_Receive+0x420>)
 8001f62:	f100 0e13 	add.w	lr, r0, #19
 8001f66:	f8c3 e000 	str.w	lr, [r3]
 8001f6a:	4b5a      	ldr	r3, [pc, #360]	; (80020d4 <CAN_2_Receive+0x424>)
 8001f6c:	f100 0e14 	add.w	lr, r0, #20
 8001f70:	f8c3 e000 	str.w	lr, [r3]
 8001f74:	4b58      	ldr	r3, [pc, #352]	; (80020d8 <CAN_2_Receive+0x428>)
 8001f76:	f100 0e15 	add.w	lr, r0, #21
 8001f7a:	f8c3 e000 	str.w	lr, [r3]
 8001f7e:	4b57      	ldr	r3, [pc, #348]	; (80020dc <CAN_2_Receive+0x42c>)
 8001f80:	f100 0e16 	add.w	lr, r0, #22
 8001f84:	f8c3 e000 	str.w	lr, [r3]
 8001f88:	4b55      	ldr	r3, [pc, #340]	; (80020e0 <CAN_2_Receive+0x430>)
 8001f8a:	3017      	adds	r0, #23
 8001f8c:	6018      	str	r0, [r3, #0]
 8001f8e:	4660      	mov	r0, ip
 8001f90:	f7ff fb80 	bl	8001694 <CAN_NODE_MO_ReceiveData>
 8001f94:	f8dd c000 	ldr.w	ip, [sp]
 8001f98:	4b52      	ldr	r3, [pc, #328]	; (80020e4 <CAN_2_Receive+0x434>)
 8001f9a:	f8dc 0000 	ldr.w	r0, [ip]
 8001f9e:	f8df c194 	ldr.w	ip, [pc, #404]	; 8002134 <CAN_2_Receive+0x484>
 8001fa2:	f8cd c000 	str.w	ip, [sp]
 8001fa6:	f100 0e10 	add.w	lr, r0, #16
 8001faa:	f8c3 e000 	str.w	lr, [r3]
 8001fae:	4b4e      	ldr	r3, [pc, #312]	; (80020e8 <CAN_2_Receive+0x438>)
 8001fb0:	f100 0e11 	add.w	lr, r0, #17
 8001fb4:	f8c3 e000 	str.w	lr, [r3]
 8001fb8:	4b4c      	ldr	r3, [pc, #304]	; (80020ec <CAN_2_Receive+0x43c>)
 8001fba:	f100 0e12 	add.w	lr, r0, #18
 8001fbe:	f8c3 e000 	str.w	lr, [r3]
 8001fc2:	4b4b      	ldr	r3, [pc, #300]	; (80020f0 <CAN_2_Receive+0x440>)
 8001fc4:	f100 0e13 	add.w	lr, r0, #19
 8001fc8:	f8c3 e000 	str.w	lr, [r3]
 8001fcc:	4b49      	ldr	r3, [pc, #292]	; (80020f4 <CAN_2_Receive+0x444>)
 8001fce:	f100 0e14 	add.w	lr, r0, #20
 8001fd2:	f8c3 e000 	str.w	lr, [r3]
 8001fd6:	4b48      	ldr	r3, [pc, #288]	; (80020f8 <CAN_2_Receive+0x448>)
 8001fd8:	f100 0e15 	add.w	lr, r0, #21
 8001fdc:	f8c3 e000 	str.w	lr, [r3]
 8001fe0:	4b46      	ldr	r3, [pc, #280]	; (80020fc <CAN_2_Receive+0x44c>)
 8001fe2:	f100 0e16 	add.w	lr, r0, #22
 8001fe6:	f8c3 e000 	str.w	lr, [r3]
 8001fea:	4b45      	ldr	r3, [pc, #276]	; (8002100 <CAN_2_Receive+0x450>)
 8001fec:	3017      	adds	r0, #23
 8001fee:	6018      	str	r0, [r3, #0]
 8001ff0:	4660      	mov	r0, ip
 8001ff2:	f7ff fb4f 	bl	8001694 <CAN_NODE_MO_ReceiveData>
 8001ff6:	f8dd c000 	ldr.w	ip, [sp]
 8001ffa:	e09d      	b.n	8002138 <CAN_2_Receive+0x488>
 8001ffc:	0800318c 	.word	0x0800318c
 8002000:	08002ef4 	.word	0x08002ef4
 8002004:	2000060c 	.word	0x2000060c
 8002008:	2000049c 	.word	0x2000049c
 800200c:	200004f0 	.word	0x200004f0
 8002010:	3dcccccd 	.word	0x3dcccccd
 8002014:	08003150 	.word	0x08003150
 8002018:	20000568 	.word	0x20000568
 800201c:	08002f50 	.word	0x08002f50
 8002020:	08002fbc 	.word	0x08002fbc
 8002024:	08002f00 	.word	0x08002f00
 8002028:	200005f8 	.word	0x200005f8
 800202c:	200005bc 	.word	0x200005bc
 8002030:	080031b0 	.word	0x080031b0
 8002034:	200004e8 	.word	0x200004e8
 8002038:	0800315c 	.word	0x0800315c
 800203c:	200005e0 	.word	0x200005e0
 8002040:	200005dc 	.word	0x200005dc
 8002044:	200005e8 	.word	0x200005e8
 8002048:	20000614 	.word	0x20000614
 800204c:	200004cc 	.word	0x200004cc
 8002050:	20000510 	.word	0x20000510
 8002054:	2000056c 	.word	0x2000056c
 8002058:	200005a4 	.word	0x200005a4
 800205c:	200005f4 	.word	0x200005f4
 8002060:	20000490 	.word	0x20000490
 8002064:	200004a8 	.word	0x200004a8
 8002068:	2000052c 	.word	0x2000052c
 800206c:	20000584 	.word	0x20000584
 8002070:	200005b8 	.word	0x200005b8
 8002074:	20000610 	.word	0x20000610
 8002078:	200004a4 	.word	0x200004a4
 800207c:	2000050c 	.word	0x2000050c
 8002080:	20000534 	.word	0x20000534
 8002084:	20000548 	.word	0x20000548
 8002088:	200004d4 	.word	0x200004d4
 800208c:	2000053c 	.word	0x2000053c
 8002090:	20000574 	.word	0x20000574
 8002094:	200005d8 	.word	0x200005d8
 8002098:	200005fc 	.word	0x200005fc
 800209c:	200004c0 	.word	0x200004c0
 80020a0:	200004f8 	.word	0x200004f8
 80020a4:	20000558 	.word	0x20000558
 80020a8:	20000588 	.word	0x20000588
 80020ac:	200005ec 	.word	0x200005ec
 80020b0:	20000618 	.word	0x20000618
 80020b4:	200004d0 	.word	0x200004d0
 80020b8:	20000514 	.word	0x20000514
 80020bc:	20000570 	.word	0x20000570
 80020c0:	200005a8 	.word	0x200005a8
 80020c4:	20000550 	.word	0x20000550
 80020c8:	20000580 	.word	0x20000580
 80020cc:	200005e4 	.word	0x200005e4
 80020d0:	20000608 	.word	0x20000608
 80020d4:	200004c4 	.word	0x200004c4
 80020d8:	20000504 	.word	0x20000504
 80020dc:	20000560 	.word	0x20000560
 80020e0:	20000594 	.word	0x20000594
 80020e4:	200005f0 	.word	0x200005f0
 80020e8:	20000620 	.word	0x20000620
 80020ec:	200004d8 	.word	0x200004d8
 80020f0:	200004dc 	.word	0x200004dc
 80020f4:	20000578 	.word	0x20000578
 80020f8:	200005b0 	.word	0x200005b0
 80020fc:	20000600 	.word	0x20000600
 8002100:	20000498 	.word	0x20000498
 8002104:	200004ec 	.word	0x200004ec
 8002108:	200004b8 	.word	0x200004b8
 800210c:	2000048c 	.word	0x2000048c
 8002110:	20000494 	.word	0x20000494
 8002114:	08002fc8 	.word	0x08002fc8
 8002118:	08002fe0 	.word	0x08002fe0
 800211c:	08002fa4 	.word	0x08002fa4
 8002120:	08002f6c 	.word	0x08002f6c
 8002124:	08002f18 	.word	0x08002f18
 8002128:	08003198 	.word	0x08003198
 800212c:	08003168 	.word	0x08003168
 8002130:	08002fd4 	.word	0x08002fd4
 8002134:	08002f98 	.word	0x08002f98
 8002138:	4bc3      	ldr	r3, [pc, #780]	; (8002448 <CAN_2_Receive+0x798>)
 800213a:	f8dc 0000 	ldr.w	r0, [ip]
 800213e:	f8df c3d8 	ldr.w	ip, [pc, #984]	; 8002518 <CAN_2_Receive+0x868>
 8002142:	f8cd c000 	str.w	ip, [sp]
 8002146:	f100 0e10 	add.w	lr, r0, #16
 800214a:	f8c3 e000 	str.w	lr, [r3]
 800214e:	4bbf      	ldr	r3, [pc, #764]	; (800244c <CAN_2_Receive+0x79c>)
 8002150:	f100 0e11 	add.w	lr, r0, #17
 8002154:	f8c3 e000 	str.w	lr, [r3]
 8002158:	4bbd      	ldr	r3, [pc, #756]	; (8002450 <CAN_2_Receive+0x7a0>)
 800215a:	f100 0e12 	add.w	lr, r0, #18
 800215e:	f8c3 e000 	str.w	lr, [r3]
 8002162:	4bbc      	ldr	r3, [pc, #752]	; (8002454 <CAN_2_Receive+0x7a4>)
 8002164:	f100 0e13 	add.w	lr, r0, #19
 8002168:	f8c3 e000 	str.w	lr, [r3]
 800216c:	4bba      	ldr	r3, [pc, #744]	; (8002458 <CAN_2_Receive+0x7a8>)
 800216e:	f100 0e14 	add.w	lr, r0, #20
 8002172:	f8c3 e000 	str.w	lr, [r3]
 8002176:	4bb9      	ldr	r3, [pc, #740]	; (800245c <CAN_2_Receive+0x7ac>)
 8002178:	f100 0e15 	add.w	lr, r0, #21
 800217c:	f8c3 e000 	str.w	lr, [r3]
 8002180:	4bb7      	ldr	r3, [pc, #732]	; (8002460 <CAN_2_Receive+0x7b0>)
 8002182:	f100 0e16 	add.w	lr, r0, #22
 8002186:	f8c3 e000 	str.w	lr, [r3]
 800218a:	4bb6      	ldr	r3, [pc, #728]	; (8002464 <CAN_2_Receive+0x7b4>)
 800218c:	3017      	adds	r0, #23
 800218e:	6018      	str	r0, [r3, #0]
 8002190:	4660      	mov	r0, ip
 8002192:	f7ff fa7f 	bl	8001694 <CAN_NODE_MO_ReceiveData>
 8002196:	f8dd c000 	ldr.w	ip, [sp]
 800219a:	4bb3      	ldr	r3, [pc, #716]	; (8002468 <CAN_2_Receive+0x7b8>)
 800219c:	f8dc 0000 	ldr.w	r0, [ip]
 80021a0:	9903      	ldr	r1, [sp, #12]
 80021a2:	eddf 6ab2 	vldr	s13, [pc, #712]	; 800246c <CAN_2_Receive+0x7bc>
 80021a6:	6809      	ldr	r1, [r1, #0]
 80021a8:	f100 0e10 	add.w	lr, r0, #16
 80021ac:	f8c3 e000 	str.w	lr, [r3]
 80021b0:	4baf      	ldr	r3, [pc, #700]	; (8002470 <CAN_2_Receive+0x7c0>)
 80021b2:	f100 0e11 	add.w	lr, r0, #17
 80021b6:	f8c3 e000 	str.w	lr, [r3]
 80021ba:	4bae      	ldr	r3, [pc, #696]	; (8002474 <CAN_2_Receive+0x7c4>)
 80021bc:	f100 0e12 	add.w	lr, r0, #18
 80021c0:	f8c3 e000 	str.w	lr, [r3]
 80021c4:	4bac      	ldr	r3, [pc, #688]	; (8002478 <CAN_2_Receive+0x7c8>)
 80021c6:	f100 0e13 	add.w	lr, r0, #19
 80021ca:	f8c3 e000 	str.w	lr, [r3]
 80021ce:	4bab      	ldr	r3, [pc, #684]	; (800247c <CAN_2_Receive+0x7cc>)
 80021d0:	f100 0e14 	add.w	lr, r0, #20
 80021d4:	f8c3 e000 	str.w	lr, [r3]
 80021d8:	4ba9      	ldr	r3, [pc, #676]	; (8002480 <CAN_2_Receive+0x7d0>)
 80021da:	f100 0e15 	add.w	lr, r0, #21
 80021de:	f8c3 e000 	str.w	lr, [r3]
 80021e2:	4ba8      	ldr	r3, [pc, #672]	; (8002484 <CAN_2_Receive+0x7d4>)
 80021e4:	f100 0e16 	add.w	lr, r0, #22
 80021e8:	f8c3 e000 	str.w	lr, [r3]
 80021ec:	4ba6      	ldr	r3, [pc, #664]	; (8002488 <CAN_2_Receive+0x7d8>)
 80021ee:	3017      	adds	r0, #23
 80021f0:	6018      	str	r0, [r3, #0]
 80021f2:	6820      	ldr	r0, [r4, #0]
 80021f4:	4ca5      	ldr	r4, [pc, #660]	; (800248c <CAN_2_Receive+0x7dc>)
 80021f6:	7800      	ldrb	r0, [r0, #0]
 80021f8:	f884 0039 	strb.w	r0, [r4, #57]	; 0x39
 80021fc:	7809      	ldrb	r1, [r1, #0]
 80021fe:	f884 103a 	strb.w	r1, [r4, #58]	; 0x3a
 8002202:	49a3      	ldr	r1, [pc, #652]	; (8002490 <CAN_2_Receive+0x7e0>)
 8002204:	6809      	ldr	r1, [r1, #0]
 8002206:	880b      	ldrh	r3, [r1, #0]
 8002208:	49a2      	ldr	r1, [pc, #648]	; (8002494 <CAN_2_Receive+0x7e4>)
 800220a:	ee07 3a90 	vmov	s15, r3
 800220e:	eef8 7a67 	vcvt.f32.u32	s15, s15
 8002212:	6809      	ldr	r1, [r1, #0]
 8002214:	ee67 7a88 	vmul.f32	s15, s15, s16
 8002218:	ee17 3a90 	vmov	r3, s15
 800221c:	f8c4 303b 	str.w	r3, [r4, #59]	; 0x3b
 8002220:	880b      	ldrh	r3, [r1, #0]
 8002222:	499d      	ldr	r1, [pc, #628]	; (8002498 <CAN_2_Receive+0x7e8>)
 8002224:	ee07 3a90 	vmov	s15, r3
 8002228:	eef8 7a67 	vcvt.f32.u32	s15, s15
 800222c:	6809      	ldr	r1, [r1, #0]
 800222e:	ee67 7a88 	vmul.f32	s15, s15, s16
 8002232:	ee17 3a90 	vmov	r3, s15
 8002236:	f8c4 303f 	str.w	r3, [r4, #63]	; 0x3f
 800223a:	880b      	ldrh	r3, [r1, #0]
 800223c:	4997      	ldr	r1, [pc, #604]	; (800249c <CAN_2_Receive+0x7ec>)
 800223e:	ee07 3a10 	vmov	s14, r3
 8002242:	eeb8 7a47 	vcvt.f32.u32	s14, s14
 8002246:	6809      	ldr	r1, [r1, #0]
 8002248:	ee27 7a26 	vmul.f32	s14, s14, s13
 800224c:	ee17 3a10 	vmov	r3, s14
 8002250:	f8c4 3043 	str.w	r3, [r4, #67]	; 0x43
 8002254:	880b      	ldrh	r3, [r1, #0]
 8002256:	4992      	ldr	r1, [pc, #584]	; (80024a0 <CAN_2_Receive+0x7f0>)
 8002258:	ed9f 7a92 	vldr	s14, [pc, #584]	; 80024a4 <CAN_2_Receive+0x7f4>
 800225c:	6809      	ldr	r1, [r1, #0]
 800225e:	ee07 3a90 	vmov	s15, r3
 8002262:	eef8 7a67 	vcvt.f32.u32	s15, s15
 8002266:	ee67 7aa6 	vmul.f32	s15, s15, s13
 800226a:	eddf 6a8f 	vldr	s13, [pc, #572]	; 80024a8 <CAN_2_Receive+0x7f8>
 800226e:	ee17 3a90 	vmov	r3, s15
 8002272:	f8c4 3047 	str.w	r3, [r4, #71]	; 0x47
 8002276:	880b      	ldrh	r3, [r1, #0]
 8002278:	498c      	ldr	r1, [pc, #560]	; (80024ac <CAN_2_Receive+0x7fc>)
 800227a:	ee07 3a90 	vmov	s15, r3
 800227e:	eef8 7a67 	vcvt.f32.u32	s15, s15
 8002282:	6809      	ldr	r1, [r1, #0]
 8002284:	ee67 7a88 	vmul.f32	s15, s15, s16
 8002288:	ee17 3a90 	vmov	r3, s15
 800228c:	f8c4 304b 	str.w	r3, [r4, #75]	; 0x4b
 8002290:	880b      	ldrh	r3, [r1, #0]
 8002292:	9a02      	ldr	r2, [sp, #8]
 8002294:	ee07 3a90 	vmov	s15, r3
 8002298:	eef8 7a67 	vcvt.f32.u32	s15, s15
 800229c:	6812      	ldr	r2, [r2, #0]
 800229e:	ee67 7a88 	vmul.f32	s15, s15, s16
 80022a2:	ee17 3a90 	vmov	r3, s15
 80022a6:	f8c4 304f 	str.w	r3, [r4, #79]	; 0x4f
 80022aa:	9b01      	ldr	r3, [sp, #4]
 80022ac:	7812      	ldrb	r2, [r2, #0]
 80022ae:	681b      	ldr	r3, [r3, #0]
 80022b0:	f884 2053 	strb.w	r2, [r4, #83]	; 0x53
 80022b4:	781b      	ldrb	r3, [r3, #0]
 80022b6:	ee07 3a90 	vmov	s15, r3
 80022ba:	eef8 7a67 	vcvt.f32.u32	s15, s15
 80022be:	ee67 7a87 	vmul.f32	s15, s15, s14
 80022c2:	ee17 3a90 	vmov	r3, s15
 80022c6:	6563      	str	r3, [r4, #84]	; 0x54
 80022c8:	f8db 3000 	ldr.w	r3, [fp]
 80022cc:	f8df b24c 	ldr.w	fp, [pc, #588]	; 800251c <CAN_2_Receive+0x86c>
 80022d0:	781b      	ldrb	r3, [r3, #0]
 80022d2:	f884 3058 	strb.w	r3, [r4, #88]	; 0x58
 80022d6:	f8da 3000 	ldr.w	r3, [sl]
 80022da:	f8df a244 	ldr.w	sl, [pc, #580]	; 8002520 <CAN_2_Receive+0x870>
 80022de:	781b      	ldrb	r3, [r3, #0]
 80022e0:	f884 3059 	strb.w	r3, [r4, #89]	; 0x59
 80022e4:	f8d9 3000 	ldr.w	r3, [r9]
 80022e8:	f8df 9238 	ldr.w	r9, [pc, #568]	; 8002524 <CAN_2_Receive+0x874>
 80022ec:	781b      	ldrb	r3, [r3, #0]
 80022ee:	ee07 3a90 	vmov	s15, r3
 80022f2:	eef8 7a67 	vcvt.f32.u32	s15, s15
 80022f6:	ee67 7a88 	vmul.f32	s15, s15, s16
 80022fa:	ee17 3a90 	vmov	r3, s15
 80022fe:	f8c4 305a 	str.w	r3, [r4, #90]	; 0x5a
 8002302:	f8d8 3000 	ldr.w	r3, [r8]
 8002306:	f8df 8220 	ldr.w	r8, [pc, #544]	; 8002528 <CAN_2_Receive+0x878>
 800230a:	881b      	ldrh	r3, [r3, #0]
 800230c:	ee07 3a10 	vmov	s14, r3
 8002310:	eeb8 7a47 	vcvt.f32.u32	s14, s14
 8002314:	ee27 7a26 	vmul.f32	s14, s14, s13
 8002318:	ee17 3a10 	vmov	r3, s14
 800231c:	f8c4 305e 	str.w	r3, [r4, #94]	; 0x5e
 8002320:	683b      	ldr	r3, [r7, #0]
 8002322:	4f63      	ldr	r7, [pc, #396]	; (80024b0 <CAN_2_Receive+0x800>)
 8002324:	881b      	ldrh	r3, [r3, #0]
 8002326:	ee07 3a10 	vmov	s14, r3
 800232a:	eeb8 7a47 	vcvt.f32.u32	s14, s14
 800232e:	ee27 7a26 	vmul.f32	s14, s14, s13
 8002332:	ee17 3a10 	vmov	r3, s14
 8002336:	f8c4 3062 	str.w	r3, [r4, #98]	; 0x62
 800233a:	6833      	ldr	r3, [r6, #0]
 800233c:	4e5d      	ldr	r6, [pc, #372]	; (80024b4 <CAN_2_Receive+0x804>)
 800233e:	881b      	ldrh	r3, [r3, #0]
 8002340:	ee07 3a10 	vmov	s14, r3
 8002344:	eeb8 7a47 	vcvt.f32.u32	s14, s14
 8002348:	ee27 7a26 	vmul.f32	s14, s14, s13
 800234c:	ee17 3a10 	vmov	r3, s14
 8002350:	f8c4 3066 	str.w	r3, [r4, #102]	; 0x66
 8002354:	682b      	ldr	r3, [r5, #0]
 8002356:	4d58      	ldr	r5, [pc, #352]	; (80024b8 <CAN_2_Receive+0x808>)
 8002358:	881b      	ldrh	r3, [r3, #0]
 800235a:	ee07 3a90 	vmov	s15, r3
 800235e:	eef8 7a67 	vcvt.f32.u32	s15, s15
 8002362:	ee67 7aa6 	vmul.f32	s15, s15, s13
 8002366:	eddf 6a55 	vldr	s13, [pc, #340]	; 80024bc <CAN_2_Receive+0x80c>
 800236a:	ee17 3a90 	vmov	r3, s15
 800236e:	f8c4 306a 	str.w	r3, [r4, #106]	; 0x6a
 8002372:	4b53      	ldr	r3, [pc, #332]	; (80024c0 <CAN_2_Receive+0x810>)
 8002374:	681b      	ldr	r3, [r3, #0]
 8002376:	881b      	ldrh	r3, [r3, #0]
 8002378:	ee07 3a10 	vmov	s14, r3
 800237c:	eeb8 7a47 	vcvt.f32.u32	s14, s14
 8002380:	eefb 7a04 	vmov.f32	s15, #180	; 0xb4
 8002384:	eee7 7a26 	vfma.f32	s15, s14, s13
 8002388:	eddf 6a4e 	vldr	s13, [pc, #312]	; 80024c4 <CAN_2_Receive+0x814>
 800238c:	ee17 3a90 	vmov	r3, s15
 8002390:	f8c4 306e 	str.w	r3, [r4, #110]	; 0x6e
 8002394:	4b4c      	ldr	r3, [pc, #304]	; (80024c8 <CAN_2_Receive+0x818>)
 8002396:	eddf 7a4d 	vldr	s15, [pc, #308]	; 80024cc <CAN_2_Receive+0x81c>
 800239a:	681b      	ldr	r3, [r3, #0]
 800239c:	881b      	ldrh	r3, [r3, #0]
 800239e:	ee07 3a10 	vmov	s14, r3
 80023a2:	eeb8 7a47 	vcvt.f32.u32	s14, s14
 80023a6:	eeb0 6a67 	vmov.f32	s12, s15
 80023aa:	eea7 6a26 	vfma.f32	s12, s14, s13
 80023ae:	ee16 3a10 	vmov	r3, s12
 80023b2:	f8c4 3072 	str.w	r3, [r4, #114]	; 0x72
 80023b6:	4b46      	ldr	r3, [pc, #280]	; (80024d0 <CAN_2_Receive+0x820>)
 80023b8:	681b      	ldr	r3, [r3, #0]
 80023ba:	881b      	ldrh	r3, [r3, #0]
 80023bc:	ee07 3a10 	vmov	s14, r3
 80023c0:	eeb8 7a47 	vcvt.f32.u32	s14, s14
 80023c4:	eee7 7a26 	vfma.f32	s15, s14, s13
 80023c8:	ee17 3a90 	vmov	r3, s15
 80023cc:	f8c4 3076 	str.w	r3, [r4, #118]	; 0x76
 80023d0:	4b40      	ldr	r3, [pc, #256]	; (80024d4 <CAN_2_Receive+0x824>)
 80023d2:	681a      	ldr	r2, [r3, #0]
 80023d4:	4b40      	ldr	r3, [pc, #256]	; (80024d8 <CAN_2_Receive+0x828>)
 80023d6:	7810      	ldrb	r0, [r2, #0]
 80023d8:	681b      	ldr	r3, [r3, #0]
 80023da:	7819      	ldrb	r1, [r3, #0]
 80023dc:	f000 fc7b 	bl	8002cd6 <shift>
 80023e0:	4b3e      	ldr	r3, [pc, #248]	; (80024dc <CAN_2_Receive+0x82c>)
 80023e2:	8018      	strh	r0, [r3, #0]
 80023e4:	4b3e      	ldr	r3, [pc, #248]	; (80024e0 <CAN_2_Receive+0x830>)
 80023e6:	681a      	ldr	r2, [r3, #0]
 80023e8:	4b3e      	ldr	r3, [pc, #248]	; (80024e4 <CAN_2_Receive+0x834>)
 80023ea:	7810      	ldrb	r0, [r2, #0]
 80023ec:	681b      	ldr	r3, [r3, #0]
 80023ee:	7819      	ldrb	r1, [r3, #0]
 80023f0:	f000 fc71 	bl	8002cd6 <shift>
 80023f4:	4b3c      	ldr	r3, [pc, #240]	; (80024e8 <CAN_2_Receive+0x838>)
 80023f6:	8018      	strh	r0, [r3, #0]
 80023f8:	4b3c      	ldr	r3, [pc, #240]	; (80024ec <CAN_2_Receive+0x83c>)
 80023fa:	681a      	ldr	r2, [r3, #0]
 80023fc:	4b3c      	ldr	r3, [pc, #240]	; (80024f0 <CAN_2_Receive+0x840>)
 80023fe:	7810      	ldrb	r0, [r2, #0]
 8002400:	681b      	ldr	r3, [r3, #0]
 8002402:	7819      	ldrb	r1, [r3, #0]
 8002404:	f000 fc67 	bl	8002cd6 <shift>
 8002408:	4b3a      	ldr	r3, [pc, #232]	; (80024f4 <CAN_2_Receive+0x844>)
 800240a:	8018      	strh	r0, [r3, #0]
 800240c:	4b3a      	ldr	r3, [pc, #232]	; (80024f8 <CAN_2_Receive+0x848>)
 800240e:	681a      	ldr	r2, [r3, #0]
 8002410:	4b3a      	ldr	r3, [pc, #232]	; (80024fc <CAN_2_Receive+0x84c>)
 8002412:	7810      	ldrb	r0, [r2, #0]
 8002414:	681b      	ldr	r3, [r3, #0]
 8002416:	7819      	ldrb	r1, [r3, #0]
 8002418:	f000 fc5d 	bl	8002cd6 <shift>
 800241c:	4b38      	ldr	r3, [pc, #224]	; (8002500 <CAN_2_Receive+0x850>)
 800241e:	8018      	strh	r0, [r3, #0]
 8002420:	4b38      	ldr	r3, [pc, #224]	; (8002504 <CAN_2_Receive+0x854>)
 8002422:	681a      	ldr	r2, [r3, #0]
 8002424:	4b38      	ldr	r3, [pc, #224]	; (8002508 <CAN_2_Receive+0x858>)
 8002426:	7810      	ldrb	r0, [r2, #0]
 8002428:	681b      	ldr	r3, [r3, #0]
 800242a:	7819      	ldrb	r1, [r3, #0]
 800242c:	f000 fc53 	bl	8002cd6 <shift>
 8002430:	4b36      	ldr	r3, [pc, #216]	; (800250c <CAN_2_Receive+0x85c>)
 8002432:	8018      	strh	r0, [r3, #0]
 8002434:	4b36      	ldr	r3, [pc, #216]	; (8002510 <CAN_2_Receive+0x860>)
 8002436:	681a      	ldr	r2, [r3, #0]
 8002438:	4b36      	ldr	r3, [pc, #216]	; (8002514 <CAN_2_Receive+0x864>)
 800243a:	7810      	ldrb	r0, [r2, #0]
 800243c:	681b      	ldr	r3, [r3, #0]
 800243e:	7819      	ldrb	r1, [r3, #0]
 8002440:	f000 fc49 	bl	8002cd6 <shift>
 8002444:	e072      	b.n	800252c <CAN_2_Receive+0x87c>
 8002446:	bf00      	nop
 8002448:	200004e0 	.word	0x200004e0
 800244c:	20000520 	.word	0x20000520
 8002450:	2000057c 	.word	0x2000057c
 8002454:	200005b4 	.word	0x200005b4
 8002458:	20000604 	.word	0x20000604
 800245c:	200004a0 	.word	0x200004a0
 8002460:	20000500 	.word	0x20000500
 8002464:	20000530 	.word	0x20000530
 8002468:	20000590 	.word	0x20000590
 800246c:	3b15ffb1 	.word	0x3b15ffb1
 8002470:	200005c4 	.word	0x200005c4
 8002474:	2000061c 	.word	0x2000061c
 8002478:	200004ac 	.word	0x200004ac
 800247c:	200004b0 	.word	0x200004b0
 8002480:	200004c8 	.word	0x200004c8
 8002484:	200005ac 	.word	0x200005ac
 8002488:	200005c0 	.word	0x200005c0
 800248c:	20000628 	.word	0x20000628
 8002490:	20000554 	.word	0x20000554
 8002494:	2000055c 	.word	0x2000055c
 8002498:	200004fc 	.word	0x200004fc
 800249c:	200004bc 	.word	0x200004bc
 80024a0:	20000508 	.word	0x20000508
 80024a4:	3f2b851f 	.word	0x3f2b851f
 80024a8:	3d666666 	.word	0x3d666666
 80024ac:	20000488 	.word	0x20000488
 80024b0:	200005ce 	.word	0x200005ce
 80024b4:	200005d0 	.word	0x200005d0
 80024b8:	200005d2 	.word	0x200005d2
 80024bc:	3c7aacda 	.word	0x3c7aacda
 80024c0:	20000544 	.word	0x20000544
 80024c4:	390560fd 	.word	0x390560fd
 80024c8:	200005e0 	.word	0x200005e0
 80024cc:	c085a858 	.word	0xc085a858
 80024d0:	200005dc 	.word	0x200005dc
 80024d4:	200005e8 	.word	0x200005e8
 80024d8:	20000614 	.word	0x20000614
 80024dc:	2000051a 	.word	0x2000051a
 80024e0:	200004cc 	.word	0x200004cc
 80024e4:	20000510 	.word	0x20000510
 80024e8:	2000051c 	.word	0x2000051c
 80024ec:	2000056c 	.word	0x2000056c
 80024f0:	200005a4 	.word	0x200005a4
 80024f4:	2000051e 	.word	0x2000051e
 80024f8:	200005f4 	.word	0x200005f4
 80024fc:	20000490 	.word	0x20000490
 8002500:	2000058c 	.word	0x2000058c
 8002504:	200004a8 	.word	0x200004a8
 8002508:	2000052c 	.word	0x2000052c
 800250c:	20000524 	.word	0x20000524
 8002510:	20000584 	.word	0x20000584
 8002514:	200005b8 	.word	0x200005b8
 8002518:	08002f24 	.word	0x08002f24
 800251c:	200005d6 	.word	0x200005d6
 8002520:	200005c8 	.word	0x200005c8
 8002524:	200005ca 	.word	0x200005ca
 8002528:	200005cc 	.word	0x200005cc
 800252c:	4b97      	ldr	r3, [pc, #604]	; (800278c <CAN_2_Receive+0xadc>)
 800252e:	8018      	strh	r0, [r3, #0]
 8002530:	4b97      	ldr	r3, [pc, #604]	; (8002790 <CAN_2_Receive+0xae0>)
 8002532:	681a      	ldr	r2, [r3, #0]
 8002534:	4b97      	ldr	r3, [pc, #604]	; (8002794 <CAN_2_Receive+0xae4>)
 8002536:	7810      	ldrb	r0, [r2, #0]
 8002538:	681b      	ldr	r3, [r3, #0]
 800253a:	7819      	ldrb	r1, [r3, #0]
 800253c:	f000 fbcb 	bl	8002cd6 <shift>
 8002540:	4b95      	ldr	r3, [pc, #596]	; (8002798 <CAN_2_Receive+0xae8>)
 8002542:	8018      	strh	r0, [r3, #0]
 8002544:	4b95      	ldr	r3, [pc, #596]	; (800279c <CAN_2_Receive+0xaec>)
 8002546:	681a      	ldr	r2, [r3, #0]
 8002548:	4b95      	ldr	r3, [pc, #596]	; (80027a0 <CAN_2_Receive+0xaf0>)
 800254a:	7810      	ldrb	r0, [r2, #0]
 800254c:	681b      	ldr	r3, [r3, #0]
 800254e:	7819      	ldrb	r1, [r3, #0]
 8002550:	f000 fbc1 	bl	8002cd6 <shift>
 8002554:	4b93      	ldr	r3, [pc, #588]	; (80027a4 <CAN_2_Receive+0xaf4>)
 8002556:	8018      	strh	r0, [r3, #0]
 8002558:	4b93      	ldr	r3, [pc, #588]	; (80027a8 <CAN_2_Receive+0xaf8>)
 800255a:	681a      	ldr	r2, [r3, #0]
 800255c:	4b93      	ldr	r3, [pc, #588]	; (80027ac <CAN_2_Receive+0xafc>)
 800255e:	7810      	ldrb	r0, [r2, #0]
 8002560:	681b      	ldr	r3, [r3, #0]
 8002562:	7819      	ldrb	r1, [r3, #0]
 8002564:	f000 fbb7 	bl	8002cd6 <shift>
 8002568:	4b91      	ldr	r3, [pc, #580]	; (80027b0 <CAN_2_Receive+0xb00>)
 800256a:	8018      	strh	r0, [r3, #0]
 800256c:	4b91      	ldr	r3, [pc, #580]	; (80027b4 <CAN_2_Receive+0xb04>)
 800256e:	681a      	ldr	r2, [r3, #0]
 8002570:	4b91      	ldr	r3, [pc, #580]	; (80027b8 <CAN_2_Receive+0xb08>)
 8002572:	7810      	ldrb	r0, [r2, #0]
 8002574:	681b      	ldr	r3, [r3, #0]
 8002576:	7819      	ldrb	r1, [r3, #0]
 8002578:	f000 fbad 	bl	8002cd6 <shift>
 800257c:	4b8f      	ldr	r3, [pc, #572]	; (80027bc <CAN_2_Receive+0xb0c>)
 800257e:	8018      	strh	r0, [r3, #0]
 8002580:	4b8f      	ldr	r3, [pc, #572]	; (80027c0 <CAN_2_Receive+0xb10>)
 8002582:	681a      	ldr	r2, [r3, #0]
 8002584:	4b8f      	ldr	r3, [pc, #572]	; (80027c4 <CAN_2_Receive+0xb14>)
 8002586:	7810      	ldrb	r0, [r2, #0]
 8002588:	681b      	ldr	r3, [r3, #0]
 800258a:	7819      	ldrb	r1, [r3, #0]
 800258c:	f000 fba3 	bl	8002cd6 <shift>
 8002590:	4b8d      	ldr	r3, [pc, #564]	; (80027c8 <CAN_2_Receive+0xb18>)
 8002592:	8018      	strh	r0, [r3, #0]
 8002594:	4b8d      	ldr	r3, [pc, #564]	; (80027cc <CAN_2_Receive+0xb1c>)
 8002596:	681a      	ldr	r2, [r3, #0]
 8002598:	4b8d      	ldr	r3, [pc, #564]	; (80027d0 <CAN_2_Receive+0xb20>)
 800259a:	7810      	ldrb	r0, [r2, #0]
 800259c:	681b      	ldr	r3, [r3, #0]
 800259e:	7819      	ldrb	r1, [r3, #0]
 80025a0:	f000 fb99 	bl	8002cd6 <shift>
 80025a4:	4b8b      	ldr	r3, [pc, #556]	; (80027d4 <CAN_2_Receive+0xb24>)
 80025a6:	8018      	strh	r0, [r3, #0]
 80025a8:	4b8b      	ldr	r3, [pc, #556]	; (80027d8 <CAN_2_Receive+0xb28>)
 80025aa:	681a      	ldr	r2, [r3, #0]
 80025ac:	4b8b      	ldr	r3, [pc, #556]	; (80027dc <CAN_2_Receive+0xb2c>)
 80025ae:	7810      	ldrb	r0, [r2, #0]
 80025b0:	681b      	ldr	r3, [r3, #0]
 80025b2:	7819      	ldrb	r1, [r3, #0]
 80025b4:	f000 fb8f 	bl	8002cd6 <shift>
 80025b8:	4b89      	ldr	r3, [pc, #548]	; (80027e0 <CAN_2_Receive+0xb30>)
 80025ba:	8018      	strh	r0, [r3, #0]
 80025bc:	4b89      	ldr	r3, [pc, #548]	; (80027e4 <CAN_2_Receive+0xb34>)
 80025be:	681a      	ldr	r2, [r3, #0]
 80025c0:	4b89      	ldr	r3, [pc, #548]	; (80027e8 <CAN_2_Receive+0xb38>)
 80025c2:	7810      	ldrb	r0, [r2, #0]
 80025c4:	681b      	ldr	r3, [r3, #0]
 80025c6:	7819      	ldrb	r1, [r3, #0]
 80025c8:	f000 fb85 	bl	8002cd6 <shift>
 80025cc:	4b87      	ldr	r3, [pc, #540]	; (80027ec <CAN_2_Receive+0xb3c>)
 80025ce:	8018      	strh	r0, [r3, #0]
 80025d0:	4b87      	ldr	r3, [pc, #540]	; (80027f0 <CAN_2_Receive+0xb40>)
 80025d2:	681a      	ldr	r2, [r3, #0]
 80025d4:	4b87      	ldr	r3, [pc, #540]	; (80027f4 <CAN_2_Receive+0xb44>)
 80025d6:	7810      	ldrb	r0, [r2, #0]
 80025d8:	681b      	ldr	r3, [r3, #0]
 80025da:	7819      	ldrb	r1, [r3, #0]
 80025dc:	f000 fb7b 	bl	8002cd6 <shift>
 80025e0:	4b85      	ldr	r3, [pc, #532]	; (80027f8 <CAN_2_Receive+0xb48>)
 80025e2:	8018      	strh	r0, [r3, #0]
 80025e4:	4b85      	ldr	r3, [pc, #532]	; (80027fc <CAN_2_Receive+0xb4c>)
 80025e6:	681a      	ldr	r2, [r3, #0]
 80025e8:	4b85      	ldr	r3, [pc, #532]	; (8002800 <CAN_2_Receive+0xb50>)
 80025ea:	7810      	ldrb	r0, [r2, #0]
 80025ec:	681b      	ldr	r3, [r3, #0]
 80025ee:	7819      	ldrb	r1, [r3, #0]
 80025f0:	f000 fb71 	bl	8002cd6 <shift>
 80025f4:	4b83      	ldr	r3, [pc, #524]	; (8002804 <CAN_2_Receive+0xb54>)
 80025f6:	8018      	strh	r0, [r3, #0]
 80025f8:	4b83      	ldr	r3, [pc, #524]	; (8002808 <CAN_2_Receive+0xb58>)
 80025fa:	681a      	ldr	r2, [r3, #0]
 80025fc:	4b83      	ldr	r3, [pc, #524]	; (800280c <CAN_2_Receive+0xb5c>)
 80025fe:	7810      	ldrb	r0, [r2, #0]
 8002600:	681b      	ldr	r3, [r3, #0]
 8002602:	7819      	ldrb	r1, [r3, #0]
 8002604:	f000 fb67 	bl	8002cd6 <shift>
 8002608:	4b81      	ldr	r3, [pc, #516]	; (8002810 <CAN_2_Receive+0xb60>)
 800260a:	8018      	strh	r0, [r3, #0]
 800260c:	4b81      	ldr	r3, [pc, #516]	; (8002814 <CAN_2_Receive+0xb64>)
 800260e:	681a      	ldr	r2, [r3, #0]
 8002610:	4b81      	ldr	r3, [pc, #516]	; (8002818 <CAN_2_Receive+0xb68>)
 8002612:	7810      	ldrb	r0, [r2, #0]
 8002614:	681b      	ldr	r3, [r3, #0]
 8002616:	7819      	ldrb	r1, [r3, #0]
 8002618:	f000 fb5d 	bl	8002cd6 <shift>
 800261c:	4b7f      	ldr	r3, [pc, #508]	; (800281c <CAN_2_Receive+0xb6c>)
 800261e:	8018      	strh	r0, [r3, #0]
 8002620:	4b7f      	ldr	r3, [pc, #508]	; (8002820 <CAN_2_Receive+0xb70>)
 8002622:	681a      	ldr	r2, [r3, #0]
 8002624:	4b7f      	ldr	r3, [pc, #508]	; (8002824 <CAN_2_Receive+0xb74>)
 8002626:	7810      	ldrb	r0, [r2, #0]
 8002628:	681b      	ldr	r3, [r3, #0]
 800262a:	7819      	ldrb	r1, [r3, #0]
 800262c:	f000 fb53 	bl	8002cd6 <shift>
 8002630:	4b7d      	ldr	r3, [pc, #500]	; (8002828 <CAN_2_Receive+0xb78>)
 8002632:	8018      	strh	r0, [r3, #0]
 8002634:	4b7d      	ldr	r3, [pc, #500]	; (800282c <CAN_2_Receive+0xb7c>)
 8002636:	681a      	ldr	r2, [r3, #0]
 8002638:	4b7d      	ldr	r3, [pc, #500]	; (8002830 <CAN_2_Receive+0xb80>)
 800263a:	7810      	ldrb	r0, [r2, #0]
 800263c:	681b      	ldr	r3, [r3, #0]
 800263e:	7819      	ldrb	r1, [r3, #0]
 8002640:	f000 fb49 	bl	8002cd6 <shift>
 8002644:	4b7b      	ldr	r3, [pc, #492]	; (8002834 <CAN_2_Receive+0xb84>)
 8002646:	8018      	strh	r0, [r3, #0]
 8002648:	4b7b      	ldr	r3, [pc, #492]	; (8002838 <CAN_2_Receive+0xb88>)
 800264a:	681a      	ldr	r2, [r3, #0]
 800264c:	4b7b      	ldr	r3, [pc, #492]	; (800283c <CAN_2_Receive+0xb8c>)
 800264e:	7810      	ldrb	r0, [r2, #0]
 8002650:	681b      	ldr	r3, [r3, #0]
 8002652:	7819      	ldrb	r1, [r3, #0]
 8002654:	f000 fb3f 	bl	8002cd6 <shift>
 8002658:	4b79      	ldr	r3, [pc, #484]	; (8002840 <CAN_2_Receive+0xb90>)
 800265a:	8018      	strh	r0, [r3, #0]
 800265c:	4b79      	ldr	r3, [pc, #484]	; (8002844 <CAN_2_Receive+0xb94>)
 800265e:	681a      	ldr	r2, [r3, #0]
 8002660:	4b79      	ldr	r3, [pc, #484]	; (8002848 <CAN_2_Receive+0xb98>)
 8002662:	7810      	ldrb	r0, [r2, #0]
 8002664:	681b      	ldr	r3, [r3, #0]
 8002666:	7819      	ldrb	r1, [r3, #0]
 8002668:	f000 fb35 	bl	8002cd6 <shift>
 800266c:	4b77      	ldr	r3, [pc, #476]	; (800284c <CAN_2_Receive+0xb9c>)
 800266e:	f8df c248 	ldr.w	ip, [pc, #584]	; 80028b8 <CAN_2_Receive+0xc08>
 8002672:	681a      	ldr	r2, [r3, #0]
 8002674:	4b76      	ldr	r3, [pc, #472]	; (8002850 <CAN_2_Receive+0xba0>)
 8002676:	f8ac 0000 	strh.w	r0, [ip]
 800267a:	681b      	ldr	r3, [r3, #0]
 800267c:	7810      	ldrb	r0, [r2, #0]
 800267e:	7819      	ldrb	r1, [r3, #0]
 8002680:	f8cd c008 	str.w	ip, [sp, #8]
 8002684:	f000 fb27 	bl	8002cd6 <shift>
 8002688:	4b72      	ldr	r3, [pc, #456]	; (8002854 <CAN_2_Receive+0xba4>)
 800268a:	4a73      	ldr	r2, [pc, #460]	; (8002858 <CAN_2_Receive+0xba8>)
 800268c:	6819      	ldr	r1, [r3, #0]
 800268e:	4b73      	ldr	r3, [pc, #460]	; (800285c <CAN_2_Receive+0xbac>)
 8002690:	8010      	strh	r0, [r2, #0]
 8002692:	681b      	ldr	r3, [r3, #0]
 8002694:	7808      	ldrb	r0, [r1, #0]
 8002696:	7819      	ldrb	r1, [r3, #0]
 8002698:	9201      	str	r2, [sp, #4]
 800269a:	f000 fb1c 	bl	8002cd6 <shift>
 800269e:	4b70      	ldr	r3, [pc, #448]	; (8002860 <CAN_2_Receive+0xbb0>)
 80026a0:	9300      	str	r3, [sp, #0]
 80026a2:	8018      	strh	r0, [r3, #0]
 80026a4:	4b6f      	ldr	r3, [pc, #444]	; (8002864 <CAN_2_Receive+0xbb4>)
 80026a6:	6818      	ldr	r0, [r3, #0]
 80026a8:	4b6f      	ldr	r3, [pc, #444]	; (8002868 <CAN_2_Receive+0xbb8>)
 80026aa:	7800      	ldrb	r0, [r0, #0]
 80026ac:	6819      	ldr	r1, [r3, #0]
 80026ae:	7809      	ldrb	r1, [r1, #0]
 80026b0:	f000 fb11 	bl	8002cd6 <shift>
 80026b4:	4b6d      	ldr	r3, [pc, #436]	; (800286c <CAN_2_Receive+0xbbc>)
 80026b6:	f8ab 0000 	strh.w	r0, [fp]
 80026ba:	6818      	ldr	r0, [r3, #0]
 80026bc:	4b6c      	ldr	r3, [pc, #432]	; (8002870 <CAN_2_Receive+0xbc0>)
 80026be:	7800      	ldrb	r0, [r0, #0]
 80026c0:	6819      	ldr	r1, [r3, #0]
 80026c2:	7809      	ldrb	r1, [r1, #0]
 80026c4:	f000 fb07 	bl	8002cd6 <shift>
 80026c8:	4b6a      	ldr	r3, [pc, #424]	; (8002874 <CAN_2_Receive+0xbc4>)
 80026ca:	f8aa 0000 	strh.w	r0, [sl]
 80026ce:	6818      	ldr	r0, [r3, #0]
 80026d0:	4b69      	ldr	r3, [pc, #420]	; (8002878 <CAN_2_Receive+0xbc8>)
 80026d2:	7800      	ldrb	r0, [r0, #0]
 80026d4:	6819      	ldr	r1, [r3, #0]
 80026d6:	7809      	ldrb	r1, [r1, #0]
 80026d8:	f000 fafd 	bl	8002cd6 <shift>
 80026dc:	4b67      	ldr	r3, [pc, #412]	; (800287c <CAN_2_Receive+0xbcc>)
 80026de:	f8a9 0000 	strh.w	r0, [r9]
 80026e2:	6818      	ldr	r0, [r3, #0]
 80026e4:	4b66      	ldr	r3, [pc, #408]	; (8002880 <CAN_2_Receive+0xbd0>)
 80026e6:	7800      	ldrb	r0, [r0, #0]
 80026e8:	6819      	ldr	r1, [r3, #0]
 80026ea:	7809      	ldrb	r1, [r1, #0]
 80026ec:	f000 faf3 	bl	8002cd6 <shift>
 80026f0:	4b64      	ldr	r3, [pc, #400]	; (8002884 <CAN_2_Receive+0xbd4>)
 80026f2:	f8a8 0000 	strh.w	r0, [r8]
 80026f6:	6818      	ldr	r0, [r3, #0]
 80026f8:	4b63      	ldr	r3, [pc, #396]	; (8002888 <CAN_2_Receive+0xbd8>)
 80026fa:	7800      	ldrb	r0, [r0, #0]
 80026fc:	6819      	ldr	r1, [r3, #0]
 80026fe:	7809      	ldrb	r1, [r1, #0]
 8002700:	f000 fae9 	bl	8002cd6 <shift>
 8002704:	4b61      	ldr	r3, [pc, #388]	; (800288c <CAN_2_Receive+0xbdc>)
 8002706:	8038      	strh	r0, [r7, #0]
 8002708:	6818      	ldr	r0, [r3, #0]
 800270a:	4b61      	ldr	r3, [pc, #388]	; (8002890 <CAN_2_Receive+0xbe0>)
 800270c:	7800      	ldrb	r0, [r0, #0]
 800270e:	6819      	ldr	r1, [r3, #0]
 8002710:	7809      	ldrb	r1, [r1, #0]
 8002712:	f000 fae0 	bl	8002cd6 <shift>
 8002716:	4b5f      	ldr	r3, [pc, #380]	; (8002894 <CAN_2_Receive+0xbe4>)
 8002718:	8030      	strh	r0, [r6, #0]
 800271a:	6818      	ldr	r0, [r3, #0]
 800271c:	4b5e      	ldr	r3, [pc, #376]	; (8002898 <CAN_2_Receive+0xbe8>)
 800271e:	7800      	ldrb	r0, [r0, #0]
 8002720:	6819      	ldr	r1, [r3, #0]
 8002722:	7809      	ldrb	r1, [r1, #0]
 8002724:	f000 fad7 	bl	8002cd6 <shift>
 8002728:	4b5c      	ldr	r3, [pc, #368]	; (800289c <CAN_2_Receive+0xbec>)
 800272a:	8028      	strh	r0, [r5, #0]
 800272c:	6818      	ldr	r0, [r3, #0]
 800272e:	4b5c      	ldr	r3, [pc, #368]	; (80028a0 <CAN_2_Receive+0xbf0>)
 8002730:	7800      	ldrb	r0, [r0, #0]
 8002732:	6819      	ldr	r1, [r3, #0]
 8002734:	7809      	ldrb	r1, [r1, #0]
 8002736:	f000 face 	bl	8002cd6 <shift>
 800273a:	4b5a      	ldr	r3, [pc, #360]	; (80028a4 <CAN_2_Receive+0xbf4>)
 800273c:	eddf 7a5a 	vldr	s15, [pc, #360]	; 80028a8 <CAN_2_Receive+0xbf8>
 8002740:	881b      	ldrh	r3, [r3, #0]
 8002742:	495a      	ldr	r1, [pc, #360]	; (80028ac <CAN_2_Receive+0xbfc>)
 8002744:	ee07 3a10 	vmov	s14, r3
 8002748:	eeb8 7a47 	vcvt.f32.u32	s14, s14
 800274c:	eef0 6a67 	vmov.f32	s13, s15
 8002750:	eee7 6a08 	vfma.f32	s13, s14, s16
 8002754:	4b56      	ldr	r3, [pc, #344]	; (80028b0 <CAN_2_Receive+0xc00>)
 8002756:	881b      	ldrh	r3, [r3, #0]
 8002758:	eebc 7ae6 	vcvt.u32.f32	s14, s13
 800275c:	b280      	uxth	r0, r0
 800275e:	8008      	strh	r0, [r1, #0]
 8002760:	ee17 1a10 	vmov	r1, s14
 8002764:	ee07 3a10 	vmov	s14, r3
 8002768:	eeb8 7a47 	vcvt.f32.u32	s14, s14
 800276c:	eef0 6a67 	vmov.f32	s13, s15
 8002770:	eee7 6a08 	vfma.f32	s13, s14, s16
 8002774:	4b4f      	ldr	r3, [pc, #316]	; (80028b4 <CAN_2_Receive+0xc04>)
 8002776:	f8a4 107a 	strh.w	r1, [r4, #122]	; 0x7a
 800277a:	881b      	ldrh	r3, [r3, #0]
 800277c:	eebc 7ae6 	vcvt.u32.f32	s14, s13
 8002780:	eef0 6a67 	vmov.f32	s13, s15
 8002784:	ee17 1a10 	vmov	r1, s14
 8002788:	e098      	b.n	80028bc <CAN_2_Receive+0xc0c>
 800278a:	bf00      	nop
 800278c:	20000526 	.word	0x20000526
 8002790:	20000610 	.word	0x20000610
 8002794:	200004a4 	.word	0x200004a4
 8002798:	20000528 	.word	0x20000528
 800279c:	2000050c 	.word	0x2000050c
 80027a0:	20000534 	.word	0x20000534
 80027a4:	2000052a 	.word	0x2000052a
 80027a8:	20000548 	.word	0x20000548
 80027ac:	200004d4 	.word	0x200004d4
 80027b0:	20000598 	.word	0x20000598
 80027b4:	2000053c 	.word	0x2000053c
 80027b8:	20000574 	.word	0x20000574
 80027bc:	2000059a 	.word	0x2000059a
 80027c0:	200005d8 	.word	0x200005d8
 80027c4:	200005fc 	.word	0x200005fc
 80027c8:	2000059c 	.word	0x2000059c
 80027cc:	200004c0 	.word	0x200004c0
 80027d0:	200004f8 	.word	0x200004f8
 80027d4:	2000059e 	.word	0x2000059e
 80027d8:	20000558 	.word	0x20000558
 80027dc:	20000588 	.word	0x20000588
 80027e0:	200005a0 	.word	0x200005a0
 80027e4:	200005ec 	.word	0x200005ec
 80027e8:	20000618 	.word	0x20000618
 80027ec:	200005a2 	.word	0x200005a2
 80027f0:	200004d0 	.word	0x200004d0
 80027f4:	20000514 	.word	0x20000514
 80027f8:	200004b6 	.word	0x200004b6
 80027fc:	20000570 	.word	0x20000570
 8002800:	200005a8 	.word	0x200005a8
 8002804:	20000564 	.word	0x20000564
 8002808:	20000550 	.word	0x20000550
 800280c:	20000580 	.word	0x20000580
 8002810:	20000538 	.word	0x20000538
 8002814:	200005e4 	.word	0x200005e4
 8002818:	20000608 	.word	0x20000608
 800281c:	2000053a 	.word	0x2000053a
 8002820:	200004c4 	.word	0x200004c4
 8002824:	20000504 	.word	0x20000504
 8002828:	20000518 	.word	0x20000518
 800282c:	20000560 	.word	0x20000560
 8002830:	20000594 	.word	0x20000594
 8002834:	20000540 	.word	0x20000540
 8002838:	200005f0 	.word	0x200005f0
 800283c:	20000620 	.word	0x20000620
 8002840:	200004b4 	.word	0x200004b4
 8002844:	200004d8 	.word	0x200004d8
 8002848:	200004dc 	.word	0x200004dc
 800284c:	20000578 	.word	0x20000578
 8002850:	200005b0 	.word	0x200005b0
 8002854:	20000600 	.word	0x20000600
 8002858:	2000054c 	.word	0x2000054c
 800285c:	20000498 	.word	0x20000498
 8002860:	200004f4 	.word	0x200004f4
 8002864:	200004e0 	.word	0x200004e0
 8002868:	20000520 	.word	0x20000520
 800286c:	2000057c 	.word	0x2000057c
 8002870:	200005b4 	.word	0x200005b4
 8002874:	20000604 	.word	0x20000604
 8002878:	200004a0 	.word	0x200004a0
 800287c:	20000500 	.word	0x20000500
 8002880:	20000530 	.word	0x20000530
 8002884:	20000590 	.word	0x20000590
 8002888:	200005c4 	.word	0x200005c4
 800288c:	2000061c 	.word	0x2000061c
 8002890:	200004ac 	.word	0x200004ac
 8002894:	200004b0 	.word	0x200004b0
 8002898:	200004c8 	.word	0x200004c8
 800289c:	200005ac 	.word	0x200005ac
 80028a0:	200005c0 	.word	0x200005c0
 80028a4:	2000051a 	.word	0x2000051a
 80028a8:	c2c80000 	.word	0xc2c80000
 80028ac:	200005d4 	.word	0x200005d4
 80028b0:	2000051c 	.word	0x2000051c
 80028b4:	2000051e 	.word	0x2000051e
 80028b8:	200004e4 	.word	0x200004e4
 80028bc:	ee07 3a10 	vmov	s14, r3
 80028c0:	eeb8 7a47 	vcvt.f32.u32	s14, s14
 80028c4:	4be8      	ldr	r3, [pc, #928]	; (8002c68 <CAN_2_Receive+0xfb8>)
 80028c6:	f8a4 107c 	strh.w	r1, [r4, #124]	; 0x7c
 80028ca:	eee7 6a08 	vfma.f32	s13, s14, s16
 80028ce:	881b      	ldrh	r3, [r3, #0]
 80028d0:	eebc 7ae6 	vcvt.u32.f32	s14, s13
 80028d4:	eef0 6a67 	vmov.f32	s13, s15
 80028d8:	ee17 1a10 	vmov	r1, s14
 80028dc:	ee07 3a10 	vmov	s14, r3
 80028e0:	eeb8 7a47 	vcvt.f32.u32	s14, s14
 80028e4:	4be1      	ldr	r3, [pc, #900]	; (8002c6c <CAN_2_Receive+0xfbc>)
 80028e6:	f8a4 107e 	strh.w	r1, [r4, #126]	; 0x7e
 80028ea:	eee7 6a08 	vfma.f32	s13, s14, s16
 80028ee:	881b      	ldrh	r3, [r3, #0]
 80028f0:	eebc 7ae6 	vcvt.u32.f32	s14, s13
 80028f4:	eef0 6a67 	vmov.f32	s13, s15
 80028f8:	ee17 1a10 	vmov	r1, s14
 80028fc:	ee07 3a10 	vmov	s14, r3
 8002900:	eeb8 7a47 	vcvt.f32.u32	s14, s14
 8002904:	4bda      	ldr	r3, [pc, #872]	; (8002c70 <CAN_2_Receive+0xfc0>)
 8002906:	f8a4 1080 	strh.w	r1, [r4, #128]	; 0x80
 800290a:	eee7 6a08 	vfma.f32	s13, s14, s16
 800290e:	881b      	ldrh	r3, [r3, #0]
 8002910:	eebc 7ae6 	vcvt.u32.f32	s14, s13
 8002914:	eef0 6a67 	vmov.f32	s13, s15
 8002918:	ee17 1a10 	vmov	r1, s14
 800291c:	ee07 3a10 	vmov	s14, r3
 8002920:	eeb8 7a47 	vcvt.f32.u32	s14, s14
 8002924:	4bd3      	ldr	r3, [pc, #844]	; (8002c74 <CAN_2_Receive+0xfc4>)
 8002926:	f8a4 1082 	strh.w	r1, [r4, #130]	; 0x82
 800292a:	eee7 6a08 	vfma.f32	s13, s14, s16
 800292e:	881b      	ldrh	r3, [r3, #0]
 8002930:	eebc 7ae6 	vcvt.u32.f32	s14, s13
 8002934:	eef0 6a67 	vmov.f32	s13, s15
 8002938:	ee17 1a10 	vmov	r1, s14
 800293c:	ee07 3a10 	vmov	s14, r3
 8002940:	eeb8 7a47 	vcvt.f32.u32	s14, s14
 8002944:	4bcc      	ldr	r3, [pc, #816]	; (8002c78 <CAN_2_Receive+0xfc8>)
 8002946:	f8a4 1084 	strh.w	r1, [r4, #132]	; 0x84
 800294a:	eee7 6a08 	vfma.f32	s13, s14, s16
 800294e:	881b      	ldrh	r3, [r3, #0]
 8002950:	eebc 7ae6 	vcvt.u32.f32	s14, s13
 8002954:	eef0 6a67 	vmov.f32	s13, s15
 8002958:	ee17 1a10 	vmov	r1, s14
 800295c:	ee07 3a10 	vmov	s14, r3
 8002960:	eeb8 7a47 	vcvt.f32.u32	s14, s14
 8002964:	4bc5      	ldr	r3, [pc, #788]	; (8002c7c <CAN_2_Receive+0xfcc>)
 8002966:	f8a4 1086 	strh.w	r1, [r4, #134]	; 0x86
 800296a:	eee7 6a08 	vfma.f32	s13, s14, s16
 800296e:	881b      	ldrh	r3, [r3, #0]
 8002970:	eebc 7ae6 	vcvt.u32.f32	s14, s13
 8002974:	eef0 6a67 	vmov.f32	s13, s15
 8002978:	ee17 1a10 	vmov	r1, s14
 800297c:	ee07 3a10 	vmov	s14, r3
 8002980:	eeb8 7a47 	vcvt.f32.u32	s14, s14
 8002984:	4bbe      	ldr	r3, [pc, #760]	; (8002c80 <CAN_2_Receive+0xfd0>)
 8002986:	f8a4 1088 	strh.w	r1, [r4, #136]	; 0x88
 800298a:	eee7 6a08 	vfma.f32	s13, s14, s16
 800298e:	881b      	ldrh	r3, [r3, #0]
 8002990:	eebc 7ae6 	vcvt.u32.f32	s14, s13
 8002994:	eef0 6a67 	vmov.f32	s13, s15
 8002998:	ee17 1a10 	vmov	r1, s14
 800299c:	ee07 3a10 	vmov	s14, r3
 80029a0:	eeb8 7a47 	vcvt.f32.u32	s14, s14
 80029a4:	4bb7      	ldr	r3, [pc, #732]	; (8002c84 <CAN_2_Receive+0xfd4>)
 80029a6:	f8a4 108a 	strh.w	r1, [r4, #138]	; 0x8a
 80029aa:	eee7 6a08 	vfma.f32	s13, s14, s16
 80029ae:	881b      	ldrh	r3, [r3, #0]
 80029b0:	eebc 7ae6 	vcvt.u32.f32	s14, s13
 80029b4:	eef0 6a67 	vmov.f32	s13, s15
 80029b8:	ee17 1a10 	vmov	r1, s14
 80029bc:	ee07 3a10 	vmov	s14, r3
 80029c0:	eeb8 7a47 	vcvt.f32.u32	s14, s14
 80029c4:	4bb0      	ldr	r3, [pc, #704]	; (8002c88 <CAN_2_Receive+0xfd8>)
 80029c6:	f8a4 108c 	strh.w	r1, [r4, #140]	; 0x8c
 80029ca:	eee7 6a08 	vfma.f32	s13, s14, s16
 80029ce:	881b      	ldrh	r3, [r3, #0]
 80029d0:	eebc 7ae6 	vcvt.u32.f32	s14, s13
 80029d4:	eef0 6a67 	vmov.f32	s13, s15
 80029d8:	ee17 1a10 	vmov	r1, s14
 80029dc:	ee07 3a10 	vmov	s14, r3
 80029e0:	eeb8 7a47 	vcvt.f32.u32	s14, s14
 80029e4:	4ba9      	ldr	r3, [pc, #676]	; (8002c8c <CAN_2_Receive+0xfdc>)
 80029e6:	f8a4 108e 	strh.w	r1, [r4, #142]	; 0x8e
 80029ea:	eee7 6a08 	vfma.f32	s13, s14, s16
 80029ee:	881b      	ldrh	r3, [r3, #0]
 80029f0:	eebc 7ae6 	vcvt.u32.f32	s14, s13
 80029f4:	eef0 6a67 	vmov.f32	s13, s15
 80029f8:	ee17 1a10 	vmov	r1, s14
 80029fc:	ee07 3a10 	vmov	s14, r3
 8002a00:	eeb8 7a47 	vcvt.f32.u32	s14, s14
 8002a04:	4ba2      	ldr	r3, [pc, #648]	; (8002c90 <CAN_2_Receive+0xfe0>)
 8002a06:	f8a4 1090 	strh.w	r1, [r4, #144]	; 0x90
 8002a0a:	eee7 6a08 	vfma.f32	s13, s14, s16
 8002a0e:	881b      	ldrh	r3, [r3, #0]
 8002a10:	eebc 7ae6 	vcvt.u32.f32	s14, s13
 8002a14:	eef0 6a67 	vmov.f32	s13, s15
 8002a18:	ee17 1a10 	vmov	r1, s14
 8002a1c:	ee07 3a10 	vmov	s14, r3
 8002a20:	eeb8 7a47 	vcvt.f32.u32	s14, s14
 8002a24:	4b9b      	ldr	r3, [pc, #620]	; (8002c94 <CAN_2_Receive+0xfe4>)
 8002a26:	f8a4 1092 	strh.w	r1, [r4, #146]	; 0x92
 8002a2a:	eee7 6a08 	vfma.f32	s13, s14, s16
 8002a2e:	881b      	ldrh	r3, [r3, #0]
 8002a30:	eebc 7ae6 	vcvt.u32.f32	s14, s13
 8002a34:	eef0 6a67 	vmov.f32	s13, s15
 8002a38:	ee17 1a10 	vmov	r1, s14
 8002a3c:	ee07 3a10 	vmov	s14, r3
 8002a40:	eeb8 7a47 	vcvt.f32.u32	s14, s14
 8002a44:	4b94      	ldr	r3, [pc, #592]	; (8002c98 <CAN_2_Receive+0xfe8>)
 8002a46:	f8a4 1094 	strh.w	r1, [r4, #148]	; 0x94
 8002a4a:	eee7 6a08 	vfma.f32	s13, s14, s16
 8002a4e:	881b      	ldrh	r3, [r3, #0]
 8002a50:	eebc 7ae6 	vcvt.u32.f32	s14, s13
 8002a54:	eef0 6a67 	vmov.f32	s13, s15
 8002a58:	ee17 1a10 	vmov	r1, s14
 8002a5c:	ee07 3a10 	vmov	s14, r3
 8002a60:	eeb8 7a47 	vcvt.f32.u32	s14, s14
 8002a64:	f8a4 1096 	strh.w	r1, [r4, #150]	; 0x96
 8002a68:	eee7 6a08 	vfma.f32	s13, s14, s16
 8002a6c:	4b8b      	ldr	r3, [pc, #556]	; (8002c9c <CAN_2_Receive+0xfec>)
 8002a6e:	eebc 7ae6 	vcvt.u32.f32	s14, s13
 8002a72:	eef0 6a67 	vmov.f32	s13, s15
 8002a76:	ee17 1a10 	vmov	r1, s14
 8002a7a:	f8a4 1098 	strh.w	r1, [r4, #152]	; 0x98
 8002a7e:	881b      	ldrh	r3, [r3, #0]
 8002a80:	f8dd c008 	ldr.w	ip, [sp, #8]
 8002a84:	9a01      	ldr	r2, [sp, #4]
 8002a86:	ee07 3a10 	vmov	s14, r3
 8002a8a:	eeb8 7a47 	vcvt.f32.u32	s14, s14
 8002a8e:	4b84      	ldr	r3, [pc, #528]	; (8002ca0 <CAN_2_Receive+0xff0>)
 8002a90:	eee7 6a08 	vfma.f32	s13, s14, s16
 8002a94:	881b      	ldrh	r3, [r3, #0]
 8002a96:	eebc 7ae6 	vcvt.u32.f32	s14, s13
 8002a9a:	eef0 6a67 	vmov.f32	s13, s15
 8002a9e:	ee17 1a10 	vmov	r1, s14
 8002aa2:	ee07 3a10 	vmov	s14, r3
 8002aa6:	eeb8 7a47 	vcvt.f32.u32	s14, s14
 8002aaa:	4b7e      	ldr	r3, [pc, #504]	; (8002ca4 <CAN_2_Receive+0xff4>)
 8002aac:	f8a4 109a 	strh.w	r1, [r4, #154]	; 0x9a
 8002ab0:	eee7 6a08 	vfma.f32	s13, s14, s16
 8002ab4:	881b      	ldrh	r3, [r3, #0]
 8002ab6:	eebc 7ae6 	vcvt.u32.f32	s14, s13
 8002aba:	eef0 6a67 	vmov.f32	s13, s15
 8002abe:	ee17 1a10 	vmov	r1, s14
 8002ac2:	ee07 3a10 	vmov	s14, r3
 8002ac6:	eeb8 7a47 	vcvt.f32.u32	s14, s14
 8002aca:	4b77      	ldr	r3, [pc, #476]	; (8002ca8 <CAN_2_Receive+0xff8>)
 8002acc:	f8a4 109c 	strh.w	r1, [r4, #156]	; 0x9c
 8002ad0:	eee7 6a08 	vfma.f32	s13, s14, s16
 8002ad4:	881b      	ldrh	r3, [r3, #0]
 8002ad6:	eebc 7ae6 	vcvt.u32.f32	s14, s13
 8002ada:	eef0 6a67 	vmov.f32	s13, s15
 8002ade:	ee17 1a10 	vmov	r1, s14
 8002ae2:	ee07 3a10 	vmov	s14, r3
 8002ae6:	eeb8 7a47 	vcvt.f32.u32	s14, s14
 8002aea:	4b70      	ldr	r3, [pc, #448]	; (8002cac <CAN_2_Receive+0xffc>)
 8002aec:	f8a4 109e 	strh.w	r1, [r4, #158]	; 0x9e
 8002af0:	eee7 6a08 	vfma.f32	s13, s14, s16
 8002af4:	881b      	ldrh	r3, [r3, #0]
 8002af6:	eebc 7ae6 	vcvt.u32.f32	s14, s13
 8002afa:	eef0 6a67 	vmov.f32	s13, s15
 8002afe:	ee17 1a10 	vmov	r1, s14
 8002b02:	ee07 3a10 	vmov	s14, r3
 8002b06:	eeb8 7a47 	vcvt.f32.u32	s14, s14
 8002b0a:	f8bc 3000 	ldrh.w	r3, [ip]
 8002b0e:	f8a4 10a0 	strh.w	r1, [r4, #160]	; 0xa0
 8002b12:	eee7 6a08 	vfma.f32	s13, s14, s16
 8002b16:	eebc 7ae6 	vcvt.u32.f32	s14, s13
 8002b1a:	eef0 6a67 	vmov.f32	s13, s15
 8002b1e:	ee17 1a10 	vmov	r1, s14
 8002b22:	ee07 3a10 	vmov	s14, r3
 8002b26:	eeb8 7a47 	vcvt.f32.u32	s14, s14
 8002b2a:	8813      	ldrh	r3, [r2, #0]
 8002b2c:	f8a4 10a2 	strh.w	r1, [r4, #162]	; 0xa2
 8002b30:	eee7 6a08 	vfma.f32	s13, s14, s16
 8002b34:	eebc 7ae6 	vcvt.u32.f32	s14, s13
 8002b38:	eef0 6a67 	vmov.f32	s13, s15
 8002b3c:	ee17 1a10 	vmov	r1, s14
 8002b40:	ee07 3a10 	vmov	s14, r3
 8002b44:	eeb8 7a47 	vcvt.f32.u32	s14, s14
 8002b48:	9b00      	ldr	r3, [sp, #0]
 8002b4a:	f8a4 10a4 	strh.w	r1, [r4, #164]	; 0xa4
 8002b4e:	eee7 6a08 	vfma.f32	s13, s14, s16
 8002b52:	881b      	ldrh	r3, [r3, #0]
 8002b54:	eebc 7ae6 	vcvt.u32.f32	s14, s13
 8002b58:	eef0 6a67 	vmov.f32	s13, s15
 8002b5c:	ee17 2a10 	vmov	r2, s14
 8002b60:	ee07 3a10 	vmov	s14, r3
 8002b64:	eeb8 7a47 	vcvt.f32.u32	s14, s14
 8002b68:	f8a4 20a6 	strh.w	r2, [r4, #166]	; 0xa6
 8002b6c:	eee7 6a08 	vfma.f32	s13, s14, s16
 8002b70:	eebc 7ae6 	vcvt.u32.f32	s14, s13
 8002b74:	eef0 6a67 	vmov.f32	s13, s15
 8002b78:	ee17 3a10 	vmov	r3, s14
 8002b7c:	f8a4 30a8 	strh.w	r3, [r4, #168]	; 0xa8
 8002b80:	f8bb 3000 	ldrh.w	r3, [fp]
 8002b84:	ee07 3a10 	vmov	s14, r3
 8002b88:	eeb8 7a47 	vcvt.f32.u32	s14, s14
 8002b8c:	eee7 6a08 	vfma.f32	s13, s14, s16
 8002b90:	eebc 7ae6 	vcvt.u32.f32	s14, s13
 8002b94:	eef0 6a67 	vmov.f32	s13, s15
 8002b98:	ee17 3a10 	vmov	r3, s14
 8002b9c:	f8a4 30aa 	strh.w	r3, [r4, #170]	; 0xaa
 8002ba0:	f8ba 3000 	ldrh.w	r3, [sl]
 8002ba4:	ee07 3a10 	vmov	s14, r3
 8002ba8:	eeb8 7a47 	vcvt.f32.u32	s14, s14
 8002bac:	eee7 6a08 	vfma.f32	s13, s14, s16
 8002bb0:	eebc 7ae6 	vcvt.u32.f32	s14, s13
 8002bb4:	eef0 6a67 	vmov.f32	s13, s15
 8002bb8:	ee17 3a10 	vmov	r3, s14
 8002bbc:	f8a4 30ac 	strh.w	r3, [r4, #172]	; 0xac
 8002bc0:	f8b9 3000 	ldrh.w	r3, [r9]
 8002bc4:	ee07 3a10 	vmov	s14, r3
 8002bc8:	eeb8 7a47 	vcvt.f32.u32	s14, s14
 8002bcc:	eee7 6a08 	vfma.f32	s13, s14, s16
 8002bd0:	eebc 7ae6 	vcvt.u32.f32	s14, s13
 8002bd4:	eef0 6a67 	vmov.f32	s13, s15
 8002bd8:	ee17 3a10 	vmov	r3, s14
 8002bdc:	f8a4 30ae 	strh.w	r3, [r4, #174]	; 0xae
 8002be0:	f8b8 3000 	ldrh.w	r3, [r8]
 8002be4:	ee07 3a10 	vmov	s14, r3
 8002be8:	eeb8 7a47 	vcvt.f32.u32	s14, s14
 8002bec:	eee7 6a08 	vfma.f32	s13, s14, s16
 8002bf0:	eebc 7ae6 	vcvt.u32.f32	s14, s13
 8002bf4:	eef0 6a67 	vmov.f32	s13, s15
 8002bf8:	ee17 3a10 	vmov	r3, s14
 8002bfc:	f8a4 30b0 	strh.w	r3, [r4, #176]	; 0xb0
 8002c00:	883b      	ldrh	r3, [r7, #0]
 8002c02:	ee07 3a10 	vmov	s14, r3
 8002c06:	eeb8 7a47 	vcvt.f32.u32	s14, s14
 8002c0a:	eee7 6a08 	vfma.f32	s13, s14, s16
 8002c0e:	eebc 7ae6 	vcvt.u32.f32	s14, s13
 8002c12:	eef0 6a67 	vmov.f32	s13, s15
 8002c16:	ee17 3a10 	vmov	r3, s14
 8002c1a:	f8a4 30b2 	strh.w	r3, [r4, #178]	; 0xb2
 8002c1e:	8833      	ldrh	r3, [r6, #0]
 8002c20:	ee07 3a10 	vmov	s14, r3
 8002c24:	eeb8 7a47 	vcvt.f32.u32	s14, s14
 8002c28:	eee7 6a08 	vfma.f32	s13, s14, s16
 8002c2c:	eebc 7ae6 	vcvt.u32.f32	s14, s13
 8002c30:	eef0 6a67 	vmov.f32	s13, s15
 8002c34:	ee17 3a10 	vmov	r3, s14
 8002c38:	f8a4 30b4 	strh.w	r3, [r4, #180]	; 0xb4
 8002c3c:	882b      	ldrh	r3, [r5, #0]
 8002c3e:	ee07 3a10 	vmov	s14, r3
 8002c42:	eeb8 7a47 	vcvt.f32.u32	s14, s14
 8002c46:	eee7 6a08 	vfma.f32	s13, s14, s16
 8002c4a:	eebc 7ae6 	vcvt.u32.f32	s14, s13
 8002c4e:	ee17 3a10 	vmov	r3, s14
 8002c52:	ee07 0a10 	vmov	s14, r0
 8002c56:	eeb8 7a47 	vcvt.f32.u32	s14, s14
 8002c5a:	f8a4 30b6 	strh.w	r3, [r4, #182]	; 0xb6
 8002c5e:	eee7 7a08 	vfma.f32	s15, s14, s16
 8002c62:	eefc 7ae7 	vcvt.u32.f32	s15, s15
 8002c66:	e023      	b.n	8002cb0 <CAN_2_Receive+0x1000>
 8002c68:	2000058c 	.word	0x2000058c
 8002c6c:	20000524 	.word	0x20000524
 8002c70:	20000526 	.word	0x20000526
 8002c74:	20000528 	.word	0x20000528
 8002c78:	2000052a 	.word	0x2000052a
 8002c7c:	20000598 	.word	0x20000598
 8002c80:	2000059a 	.word	0x2000059a
 8002c84:	2000059c 	.word	0x2000059c
 8002c88:	2000059e 	.word	0x2000059e
 8002c8c:	200005a0 	.word	0x200005a0
 8002c90:	200005a2 	.word	0x200005a2
 8002c94:	200004b6 	.word	0x200004b6
 8002c98:	20000564 	.word	0x20000564
 8002c9c:	20000538 	.word	0x20000538
 8002ca0:	2000053a 	.word	0x2000053a
 8002ca4:	20000518 	.word	0x20000518
 8002ca8:	20000540 	.word	0x20000540
 8002cac:	200004b4 	.word	0x200004b4
 8002cb0:	ee17 3a90 	vmov	r3, s15
 8002cb4:	f8a4 30b8 	strh.w	r3, [r4, #184]	; 0xb8
 8002cb8:	b005      	add	sp, #20
 8002cba:	ecbd 8b02 	vpop	{d8}
 8002cbe:	e8bd 8ff0 	ldmia.w	sp!, {r4, r5, r6, r7, r8, r9, sl, fp, pc}
 8002cc2:	bf00      	nop

08002cc4 <getbits>:
 8002cc4:	3101      	adds	r1, #1
 8002cc6:	1a89      	subs	r1, r1, r2
 8002cc8:	f04f 33ff 	mov.w	r3, #4294967295
 8002ccc:	40c8      	lsrs	r0, r1
 8002cce:	4093      	lsls	r3, r2
 8002cd0:	ea20 0003 	bic.w	r0, r0, r3
 8002cd4:	4770      	bx	lr

08002cd6 <shift>:
 8002cd6:	ea41 2000 	orr.w	r0, r1, r0, lsl #8
 8002cda:	4770      	bx	lr

08002cdc <main>:
 8002cdc:	b508      	push	{r3, lr}
 8002cde:	4b0a      	ldr	r3, [pc, #40]	; (8002d08 <main+0x2c>)
 8002ce0:	2201      	movs	r2, #1
 8002ce2:	705a      	strb	r2, [r3, #1]
 8002ce4:	2234      	movs	r2, #52	; 0x34
 8002ce6:	f883 20ba 	strb.w	r2, [r3, #186]	; 0xba
 8002cea:	f7fe fe1b 	bl	8001924 <DAVE_Init>
 8002cee:	b100      	cbz	r0, 8002cf2 <main+0x16>
 8002cf0:	e7fe      	b.n	8002cf0 <main+0x14>
 8002cf2:	f7fe fe4b 	bl	800198c <CAN_1_Receive>
 8002cf6:	4905      	ldr	r1, [pc, #20]	; (8002d0c <main+0x30>)
 8002cf8:	4805      	ldr	r0, [pc, #20]	; (8002d10 <main+0x34>)
 8002cfa:	2206      	movs	r2, #6
 8002cfc:	f7fe fa94 	bl	8001228 <UART_Receive>
 8002d00:	f7fe ffd6 	bl	8001cb0 <CAN_2_Receive>
 8002d04:	e7f5      	b.n	8002cf2 <main+0x16>
 8002d06:	bf00      	nop
 8002d08:	20000628 	.word	0x20000628
 8002d0c:	200006e3 	.word	0x200006e3
 8002d10:	20000000 	.word	0x20000000

08002d14 <uartreceive>:
 8002d14:	b538      	push	{r3, r4, r5, lr}
 8002d16:	4c0a      	ldr	r4, [pc, #40]	; (8002d40 <uartreceive+0x2c>)
 8002d18:	4d0a      	ldr	r5, [pc, #40]	; (8002d44 <uartreceive+0x30>)
 8002d1a:	480b      	ldr	r0, [pc, #44]	; (8002d48 <uartreceive+0x34>)
 8002d1c:	2300      	movs	r3, #0
 8002d1e:	2206      	movs	r2, #6
 8002d20:	4621      	mov	r1, r4
 8002d22:	702b      	strb	r3, [r5, #0]
 8002d24:	f7fe fa80 	bl	8001228 <UART_Receive>
 8002d28:	4b08      	ldr	r3, [pc, #32]	; (8002d4c <uartreceive+0x38>)
 8002d2a:	7822      	ldrb	r2, [r4, #0]
 8002d2c:	781b      	ldrb	r3, [r3, #0]
 8002d2e:	429a      	cmp	r2, r3
 8002d30:	d104      	bne.n	8002d3c <uartreceive+0x28>
 8002d32:	7863      	ldrb	r3, [r4, #1]
 8002d34:	2b13      	cmp	r3, #19
 8002d36:	bf04      	itt	eq
 8002d38:	2301      	moveq	r3, #1
 8002d3a:	702b      	strbeq	r3, [r5, #0]
 8002d3c:	bd38      	pop	{r3, r4, r5, pc}
 8002d3e:	bf00      	nop
 8002d40:	200006e3 	.word	0x200006e3
 8002d44:	20000401 	.word	0x20000401
 8002d48:	20000000 	.word	0x20000000
 8002d4c:	20000400 	.word	0x20000400

08002d50 <writeTlm>:
 8002d50:	b570      	push	{r4, r5, r6, lr}
 8002d52:	4605      	mov	r5, r0
 8002d54:	460e      	mov	r6, r1
 8002d56:	4604      	mov	r4, r0
 8002d58:	1b63      	subs	r3, r4, r5
 8002d5a:	42b3      	cmp	r3, r6
 8002d5c:	da06      	bge.n	8002d6c <writeTlm+0x1c>
 8002d5e:	4b04      	ldr	r3, [pc, #16]	; (8002d70 <writeTlm+0x20>)
 8002d60:	f814 1b01 	ldrb.w	r1, [r4], #1
 8002d64:	6818      	ldr	r0, [r3, #0]
 8002d66:	f7fd fff5 	bl	8000d54 <XMC_UART_CH_Transmit>
 8002d6a:	e7f5      	b.n	8002d58 <writeTlm+0x8>
 8002d6c:	bd70      	pop	{r4, r5, r6, pc}
 8002d6e:	bf00      	nop
 8002d70:	20000000 	.word	0x20000000

08002d74 <sendTlm>:
 8002d74:	4802      	ldr	r0, [pc, #8]	; (8002d80 <sendTlm+0xc>)
 8002d76:	21bb      	movs	r1, #187	; 0xbb
 8002d78:	7001      	strb	r1, [r0, #0]
 8002d7a:	f7ff bfe9 	b.w	8002d50 <writeTlm>
 8002d7e:	bf00      	nop
 8002d80:	20000628 	.word	0x20000628

08002d84 <CCU43_1_IRQHandler>:
 8002d84:	f7ff bff6 	b.w	8002d74 <sendTlm>

08002d88 <__libc_init_array>:
 8002d88:	b570      	push	{r4, r5, r6, lr}
 8002d8a:	4b0e      	ldr	r3, [pc, #56]	; (8002dc4 <__libc_init_array+0x3c>)
 8002d8c:	4c0e      	ldr	r4, [pc, #56]	; (8002dc8 <__libc_init_array+0x40>)
 8002d8e:	1ae4      	subs	r4, r4, r3
 8002d90:	10a4      	asrs	r4, r4, #2
 8002d92:	2500      	movs	r5, #0
 8002d94:	461e      	mov	r6, r3
 8002d96:	42a5      	cmp	r5, r4
 8002d98:	d004      	beq.n	8002da4 <__libc_init_array+0x1c>
 8002d9a:	f856 3025 	ldr.w	r3, [r6, r5, lsl #2]
 8002d9e:	4798      	blx	r3
 8002da0:	3501      	adds	r5, #1
 8002da2:	e7f8      	b.n	8002d96 <__libc_init_array+0xe>
 8002da4:	f7fe f9fb 	bl	800119e <_init>
 8002da8:	4c08      	ldr	r4, [pc, #32]	; (8002dcc <__libc_init_array+0x44>)
 8002daa:	4b09      	ldr	r3, [pc, #36]	; (8002dd0 <__libc_init_array+0x48>)
 8002dac:	1ae4      	subs	r4, r4, r3
 8002dae:	10a4      	asrs	r4, r4, #2
 8002db0:	2500      	movs	r5, #0
 8002db2:	461e      	mov	r6, r3
 8002db4:	42a5      	cmp	r5, r4
 8002db6:	d004      	beq.n	8002dc2 <__libc_init_array+0x3a>
 8002db8:	f856 3025 	ldr.w	r3, [r6, r5, lsl #2]
 8002dbc:	4798      	blx	r3
 8002dbe:	3501      	adds	r5, #1
 8002dc0:	e7f8      	b.n	8002db4 <__libc_init_array+0x2c>
 8002dc2:	bd70      	pop	{r4, r5, r6, pc}
 8002dc4:	20000404 	.word	0x20000404
 8002dc8:	20000404 	.word	0x20000404
 8002dcc:	20000404 	.word	0x20000404
 8002dd0:	20000404 	.word	0x20000404

08002dd4 <CSWTCH.36>:
 8002dd4:	02020000 0c0c0c0c 00030a08                       ..........

08002dde <CSWTCH.37>:
 8002dde:	00030003 000c000c 30003000 30003000     .........0.0.0.0
 8002dee:	0c000300 44000000                                ......

08002df4 <g_xmc_vadc_group_array>:
 8002df4:	40004400 40004800 40004c00 40005000     .D.@.H.@.L.@.P.@

08002e04 <UART_0_config>:
 8002e04:	08002e54 080012dd 08002d15 00000000     T........-......
	...
 8002e24:	08002e3c 00000200 00000004              <...........

08002e30 <UART_0_rx_pin_config>:
 8002e30:	00000000 00000001 00000002              ............

08002e3c <UART_0_tx_pin>:
 8002e3c:	48028000 00000001 08002e48              ...H....H...

08002e48 <UART_0_tx_pin_config>:
 8002e48:	00000090 00000001 00000002              ............

08002e54 <UART_0_channel_config>:
 8002e54:	0000e100 08010808 00000000              ............

08002e60 <INTERRUPT_0>:
 8002e60:	01003c39                                9<..

08002e64 <group_init_handle0>:
	...

08002e78 <group_init_handle1>:
	...

08002e8c <group_init_handle3>:
	...

08002ea0 <global_config>:
 8002ea0:	00000000 00000003 00000000 00000000     ................
	...

08002eb8 <group_init_handle2>:
	...

08002ecc <LED_1>:
 8002ecc:	48028100 00000000 00000000 00000000     ...H............
 8002edc:	00000001 01040250 00010000 00000000     ....P...........
 8002eec:	00010000 01010101                       ........

08002ef4 <CAN_2_LMO_01_Config>:
 8002ef4:	200000e0 00000025 00000000              ... %.......

08002f00 <CAN_2_LMO_05_Config>:
 8002f00:	20000140 0000001f 00000000              @.. ........

08002f0c <CAN_2_gpio_in_config>:
	...

08002f18 <CAN_2_LMO_13_Config>:
 8002f18:	200002e0 00000005 00000000              ... ........

08002f24 <CAN_2_LMO_18_Config>:
 8002f24:	20000380 00000024 00000000              ... $.......

08002f30 <CAN_1_LMO_01_Config>:
 8002f30:	200001c0 00000018 00000000              ... ........

08002f3c <CAN_1_LMO_06_Config>:
 8002f3c:	20000240 0000001a 00000000              @.. ........

08002f48 <CAN_2_gpio_in>:
 8002f48:	48028100 00000004                       ...H....

08002f50 <CAN_2_LMO_06_Config>:
 8002f50:	20000160 00000020 00000000              `..  .......

08002f5c <CAN_1_sr>:
 8002f5c:	00000000                                ....

08002f60 <CAN_1_gpio_out_config>:
 8002f60:	00000090 00000001 00000002              ............

08002f6c <CAN_2_LMO_12_Config>:
 8002f6c:	20000340 00000006 00000000              @.. ........

08002f78 <CAN_2_gpio_out_config>:
 8002f78:	00000088 00000001 00000002              ............

08002f84 <CAN_1_LMO_05_Config>:
 8002f84:	20000220 0000003d 00000000               .. =.......

08002f90 <CAN_2_gpio_out>:
 8002f90:	48028100 00000005                       ...H....

08002f98 <CAN_2_LMO_17_Config>:
 8002f98:	20000360 00000009 00000000              `.. ........

08002fa4 <CAN_2_LMO_11_Config>:
 8002fa4:	200002c0 00000016 00000000              ... ........

08002fb0 <CAN_1_LMO_04_Config>:
 8002fb0:	20000260 0000001d 00000000              `.. ........

08002fbc <CAN_2_LMO_04_Config>:
 8002fbc:	20000280 0000001e 00000000              ... ........

08002fc8 <CAN_2_LMO_09_Config>:
 8002fc8:	200003a0 00000023 00000000              ... #.......

08002fd4 <CAN_2_LMO_16_Config>:
 8002fd4:	200000a8 0000003c 00000000              ... <.......

08002fe0 <CAN_2_LMO_10_Config>:
 8002fe0:	200002a0 00000015 00000000              ... ........

08002fec <CAN_1_gpio_out>:
 8002fec:	48028100 00000009                       ...H....

08002ff4 <CAN_1_LMO_03_Config>:
 8002ff4:	20000200 00000014 00000000              ... ........

08003000 <CAN_1>:
 8003000:	2000004c 48014400 200000c8 08002f30     L.. .D.H... 0/..
 8003010:	080031a4 08002ff4 08002fb0 08002f84     .1.../.../.../..
 8003020:	08002f3c 00000000 00000000 00000000     </..............
	...
 800308c:	08002f5c 08002fec 08002f60 08003180     \/.../..`/...1..
 800309c:	08003174 00060200 00000000              t1..........

080030a8 <CAN_2>:
 80030a8:	2000004c 48014300 200000d4 08002ef4     L.. .C.H... ....
 80030b8:	0800318c 08003150 08002fbc 08002f00     .1..P1.../.../..
 80030c8:	08002f50 080031b0 0800315c 08002fc8     P/...1..\1.../..
 80030d8:	08002fe0 08002fa4 08002f6c 08002f18     ./.../..l/.../..
 80030e8:	08003198 08003168 08002fd4 08002f98     .1..h1.../.../..
 80030f8:	08002f24 00000000 00000000 00000000     $/..............
	...
 8003134:	08003188 08002f90 08002f78 08002f48     .1.../..x/..H/..
 8003144:	08002f0c 00120103 00000000              ./..........

08003150 <CAN_2_LMO_03_Config>:
 8003150:	20000120 00000027 00000000               .. '.......

0800315c <CAN_2_LMO_08_Config>:
 800315c:	200001a0 00000022 00000000              ... ".......

08003168 <CAN_2_LMO_15_Config>:
 8003168:	20000320 00000007 00000000               .. ........

08003174 <CAN_1_gpio_in_config>:
	...

08003180 <CAN_1_gpio_in>:
 8003180:	48028100 00000008                       ...H....

08003188 <CAN_2_sr>:
 8003188:	00000000                                ....

0800318c <CAN_2_LMO_02_Config>:
 800318c:	20000100 00000026 00000000              ... &.......

08003198 <CAN_2_LMO_14_Config>:
 8003198:	20000300 00000008 00000000              ... ........

080031a4 <CAN_1_LMO_02_Config>:
 80031a4:	200001e0 00000017 00000000              ... ........

080031b0 <CAN_2_LMO_07_Config>:
 80031b0:	20000180 00000021 00000000              ... !.......

080031bc <ANALOG_IO_0>:
 80031bc:	00000000 20000421 48028e00 00000004     ....!.. ...H....

080031cc <backgnd_config>:
 80031cc:	00000005 00000000 00000010              ............

080031d8 <global_iclass_config>:
 80031d8:	00000100                                ....
