   1              	 .syntax unified
   2              	 .cpu cortex-m4
   3              	 .eabi_attribute 27,3
   4              	 .fpu fpv4-sp-d16
   5              	 .eabi_attribute 20,1
   6              	 .eabi_attribute 21,1
   7              	 .eabi_attribute 23,3
   8              	 .eabi_attribute 24,1
   9              	 .eabi_attribute 25,1
  10              	 .eabi_attribute 26,1
  11              	 .eabi_attribute 30,6
  12              	 .eabi_attribute 34,1
  13              	 .eabi_attribute 18,4
  14              	 .thumb
  15              	 .file "Average_Filter.c"
  16              	 .text
  17              	.Ltext0:
  18              	 .cfi_sections .debug_frame
  19              	 .comm Buffer_Average_Filter,10,4
  20              	 .comm i_Buffer_average,1,1
  21              	 .comm time,4,4
  22              	 .comm T_Oil,44,4
  23              	 .comm T_Water,44,4
  24              	 .comm p_Oil,44,4
  25              	 .comm p_Pneu,44,4
  26              	 .comm x_DP_RL,44,4
  27              	 .comm x_DP_RR,44,4
  28              	 .comm x_RH_RL,44,4
  29              	 .comm x_RH_RR,44,4
  30              	 .comm f_LC_RL,44,4
  31              	 .comm f_LC_RR,44,4
  32              	 .comm T_Board,44,4
  33              	 .comm u_12V_Meas,44,4
  34              	 .comm u_5V_ANA_Meas,44,4
  35              	 .comm u_OUT1_Meas,44,4
  36              	 .comm u_OUT2_Meas,44,4
  37              	 .comm NTC1,44,4
  38              	 .section .text.Average_Filter,"ax",%progbits
  39              	 .align 2
  40              	 .global Average_Filter
  41              	 .thumb
  42              	 .thumb_func
  44              	Average_Filter:
  45              	.LFB387:
  46              	 .file 1 "../Average_Filter.c"
   1:../Average_Filter.c **** /*
   2:../Average_Filter.c ****  * Filter.c
   3:../Average_Filter.c ****  *
   4:../Average_Filter.c ****  *  Created on: 30 Nov 2019
   5:../Average_Filter.c ****  *      Author: Valentin Keck
   6:../Average_Filter.c ****  */
   7:../Average_Filter.c **** #include <Average_Filter.h>
   8:../Average_Filter.c **** #include "Header.h"
   9:../Average_Filter.c **** 
  10:../Average_Filter.c **** void Average_Filter(Analog_Sensor_t *const Sensor)
  11:../Average_Filter.c **** {
  47              	 .loc 1 11 0
  48              	 .cfi_startproc
  49              	 
  50              	 
  51              	 
  52 0000 80B4     	 push {r7}
  53              	 .cfi_def_cfa_offset 4
  54              	 .cfi_offset 7,-4
  55 0002 85B0     	 sub sp,sp,#20
  56              	 .cfi_def_cfa_offset 24
  57 0004 00AF     	 add r7,sp,#0
  58              	 .cfi_def_cfa_register 7
  59 0006 7860     	 str r0,[r7,#4]
  12:../Average_Filter.c **** 
  13:../Average_Filter.c **** 	Sensor->Buffer_Average_Filter[i_Buffer_average] = Sensor->Value;
  60              	 .loc 1 13 0
  61 0008 1C4B     	 ldr r3,.L4
  62 000a 1B78     	 ldrb r3,[r3]
  63 000c 1846     	 mov r0,r3
  64 000e 7B68     	 ldr r3,[r7,#4]
  65 0010 1988     	 ldrh r1,[r3]
  66 0012 7A68     	 ldr r2,[r7,#4]
  67 0014 031D     	 adds r3,r0,#4
  68 0016 5B00     	 lsls r3,r3,#1
  69 0018 1344     	 add r3,r3,r2
  70 001a 0A46     	 mov r2,r1
  71 001c 9A80     	 strh r2,[r3,#4]
  72              	.LBB2:
  14:../Average_Filter.c **** 
  15:../Average_Filter.c **** 	for(int8_t j=0; j<5; j++) {
  73              	 .loc 1 15 0
  74 001e 0023     	 movs r3,#0
  75 0020 FB73     	 strb r3,[r7,#15]
  76 0022 17E0     	 b .L2
  77              	.L3:
  16:../Average_Filter.c **** 		Sensor->FilteredValue += Sensor->Buffer_Average_Filter[j];
  78              	 .loc 1 16 0 discriminator 3
  79 0024 7B68     	 ldr r3,[r7,#4]
  80 0026 93ED017A 	 flds s14,[r3,#4]
  81 002a 97F90F30 	 ldrsb r3,[r7,#15]
  82 002e 7A68     	 ldr r2,[r7,#4]
  83 0030 0433     	 adds r3,r3,#4
  84 0032 5B00     	 lsls r3,r3,#1
  85 0034 1344     	 add r3,r3,r2
  86 0036 9B88     	 ldrh r3,[r3,#4]
  87 0038 07EE903A 	 fmsr s15,r3
  88 003c F8EEE77A 	 fsitos s15,s15
  89 0040 77EE277A 	 fadds s15,s14,s15
  90 0044 7B68     	 ldr r3,[r7,#4]
  91 0046 C3ED017A 	 fsts s15,[r3,#4]
  15:../Average_Filter.c **** 		Sensor->FilteredValue += Sensor->Buffer_Average_Filter[j];
  92              	 .loc 1 15 0 discriminator 3
  93 004a FB7B     	 ldrb r3,[r7,#15]
  94 004c DBB2     	 uxtb r3,r3
  95 004e 0133     	 adds r3,r3,#1
  96 0050 DBB2     	 uxtb r3,r3
  97 0052 FB73     	 strb r3,[r7,#15]
  98              	.L2:
  15:../Average_Filter.c **** 		Sensor->FilteredValue += Sensor->Buffer_Average_Filter[j];
  99              	 .loc 1 15 0 is_stmt 0 discriminator 1
 100 0054 97F90F30 	 ldrsb r3,[r7,#15]
 101 0058 042B     	 cmp r3,#4
 102 005a E3DD     	 ble .L3
 103              	.LBE2:
  17:../Average_Filter.c **** 	}
  18:../Average_Filter.c **** 
  19:../Average_Filter.c **** 	Sensor->FilteredValue = Sensor->FilteredValue / 5;
 104              	 .loc 1 19 0 is_stmt 1
 105 005c 7B68     	 ldr r3,[r7,#4]
 106 005e D3ED017A 	 flds s15,[r3,#4]
 107 0062 B1EE047A 	 fconsts s14,#20
 108 0066 C7EE877A 	 fdivs s15,s15,s14
 109 006a 7B68     	 ldr r3,[r7,#4]
 110 006c C3ED017A 	 fsts s15,[r3,#4]
  20:../Average_Filter.c **** }
 111              	 .loc 1 20 0
 112 0070 1437     	 adds r7,r7,#20
 113              	 .cfi_def_cfa_offset 4
 114 0072 BD46     	 mov sp,r7
 115              	 .cfi_def_cfa_register 13
 116              	 
 117 0074 5DF8047B 	 ldr r7,[sp],#4
 118              	 .cfi_restore 7
 119              	 .cfi_def_cfa_offset 0
 120 0078 7047     	 bx lr
 121              	.L5:
 122 007a 00BF     	 .align 2
 123              	.L4:
 124 007c 00000000 	 .word i_Buffer_average
 125              	 .cfi_endproc
 126              	.LFE387:
 128              	 .text
 129              	.Letext0:
 130              	 .file 2 "c:\\infineon\\tools\\dave ide\\4.5.0.202105191637\\eclipse\\arm-gcc-49\\arm-none-eabi\\include\\machine\\_default_types.h"
 131              	 .file 3 "c:\\infineon\\tools\\dave ide\\4.5.0.202105191637\\eclipse\\arm-gcc-49\\arm-none-eabi\\include\\stdint.h"
 132              	 .file 4 "C:/Users/Yoshi/Documents/GitHub/Software/01_jrg/04_CANModule/CAN_Modul_keckvale_AH/Libraries/CMSIS/Infineon/XMC4500_series/Include/XMC4500.h"
 133              	 .file 5 "C:/Users/Yoshi/Documents/GitHub/Software/01_jrg/04_CANModule/CAN_Modul_keckvale_AH/Libraries/XMCLib/inc/xmc4_gpio.h"
 134              	 .file 6 "C:/Users/Yoshi/Documents/GitHub/Software/01_jrg/04_CANModule/CAN_Modul_keckvale_AH/Libraries/XMCLib/inc/xmc_vadc.h"
 135              	 .file 7 "C:/Users/Yoshi/Documents/GitHub/Software/01_jrg/04_CANModule/CAN_Modul_keckvale_AH/Dave/Generated/ANALOG_IO/analog_io.h"
 136              	 .file 8 "C:/Users/Yoshi/Documents/GitHub/Software/01_jrg/04_CANModule/CAN_Modul_keckvale_AH/Dave/Generated/ADC_MEASUREMENT/adc_measurement.h"
 137              	 .file 9 "../Header.h"
 138              	 .file 10 "C:/Users/Yoshi/Documents/GitHub/Software/01_jrg/04_CANModule/CAN_Modul_keckvale_AH/Libraries/CMSIS/Include/cmsis_gcc.h"
 139              	 .file 11 "C:/Users/Yoshi/Documents/GitHub/Software/01_jrg/04_CANModule/CAN_Modul_keckvale_AH/Libraries/CMSIS/Include/core_cm4.h"
 140              	 .file 12 "C:/Users/Yoshi/Documents/GitHub/Software/01_jrg/04_CANModule/CAN_Modul_keckvale_AH/Libraries/CMSIS/Infineon/XMC4500_series/Include/system_XMC4500.h"
 141              	 .file 13 "C:/Users/Yoshi/Documents/GitHub/Software/01_jrg/04_CANModule/CAN_Modul_keckvale_AH/Average_Filter.h"