   1              	 .syntax unified
   2              	 .cpu cortex-m4
   3              	 .eabi_attribute 27,3
   4              	 .fpu fpv4-sp-d16
   5              	 .eabi_attribute 20,1
   6              	 .eabi_attribute 21,1
   7              	 .eabi_attribute 23,3
   8              	 .eabi_attribute 24,1
   9              	 .eabi_attribute 25,1
  10              	 .eabi_attribute 26,1
  11              	 .eabi_attribute 30,6
  12              	 .eabi_attribute 34,1
  13              	 .eabi_attribute 18,4
  14              	 .thumb
  15              	 .file "CAN_1.c"
  16              	 .text
  17              	.Ltext0:
  18              	 .cfi_sections .debug_frame
  19              	 .section .text.XMC_GPIO_SetOutputHigh,"ax",%progbits
  20              	 .align 2
  21              	 .thumb
  22              	 .thumb_func
  24              	XMC_GPIO_SetOutputHigh:
  25              	.LFB177:
  26              	 .file 1 "C:/Users/Yoshi/Documents/GitHub/Software/01_jrg/04_CANModule/CAN_Modul_keckvale_AH/Libraries/XMCLib/inc/xmc_gpio.h"
   1:C:/Users/Yoshi/Documents/GitHub/Software/01_jrg/04_CANModule/CAN_Modul_keckvale_AH/Libraries/XMCLib/inc\xmc_gpio.h **** /**
   2:C:/Users/Yoshi/Documents/GitHub/Software/01_jrg/04_CANModule/CAN_Modul_keckvale_AH/Libraries/XMCLib/inc\xmc_gpio.h ****  * @file xmc_gpio.h
   3:C:/Users/Yoshi/Documents/GitHub/Software/01_jrg/04_CANModule/CAN_Modul_keckvale_AH/Libraries/XMCLib/inc\xmc_gpio.h ****  * @date 2015-06-20
   4:C:/Users/Yoshi/Documents/GitHub/Software/01_jrg/04_CANModule/CAN_Modul_keckvale_AH/Libraries/XMCLib/inc\xmc_gpio.h ****  *
   5:C:/Users/Yoshi/Documents/GitHub/Software/01_jrg/04_CANModule/CAN_Modul_keckvale_AH/Libraries/XMCLib/inc\xmc_gpio.h ****  * @cond
   6:C:/Users/Yoshi/Documents/GitHub/Software/01_jrg/04_CANModule/CAN_Modul_keckvale_AH/Libraries/XMCLib/inc\xmc_gpio.h ****  **************************************************************************************************
   7:C:/Users/Yoshi/Documents/GitHub/Software/01_jrg/04_CANModule/CAN_Modul_keckvale_AH/Libraries/XMCLib/inc\xmc_gpio.h ****  * XMClib v2.1.24 - XMC Peripheral Driver Library 
   8:C:/Users/Yoshi/Documents/GitHub/Software/01_jrg/04_CANModule/CAN_Modul_keckvale_AH/Libraries/XMCLib/inc\xmc_gpio.h ****  *
   9:C:/Users/Yoshi/Documents/GitHub/Software/01_jrg/04_CANModule/CAN_Modul_keckvale_AH/Libraries/XMCLib/inc\xmc_gpio.h ****  * Copyright (c) 2015-2019, Infineon Technologies AG
  10:C:/Users/Yoshi/Documents/GitHub/Software/01_jrg/04_CANModule/CAN_Modul_keckvale_AH/Libraries/XMCLib/inc\xmc_gpio.h ****  * All rights reserved.                        
  11:C:/Users/Yoshi/Documents/GitHub/Software/01_jrg/04_CANModule/CAN_Modul_keckvale_AH/Libraries/XMCLib/inc\xmc_gpio.h ****  *                                             
  12:C:/Users/Yoshi/Documents/GitHub/Software/01_jrg/04_CANModule/CAN_Modul_keckvale_AH/Libraries/XMCLib/inc\xmc_gpio.h ****  * Redistribution and use in source and binary forms, with or without modification,are permitted pr
  13:C:/Users/Yoshi/Documents/GitHub/Software/01_jrg/04_CANModule/CAN_Modul_keckvale_AH/Libraries/XMCLib/inc\xmc_gpio.h ****  * following conditions are met:   
  14:C:/Users/Yoshi/Documents/GitHub/Software/01_jrg/04_CANModule/CAN_Modul_keckvale_AH/Libraries/XMCLib/inc\xmc_gpio.h ****  *                                                                              
  15:C:/Users/Yoshi/Documents/GitHub/Software/01_jrg/04_CANModule/CAN_Modul_keckvale_AH/Libraries/XMCLib/inc\xmc_gpio.h ****  * Redistributions of source code must retain the above copyright notice, this list of conditions a
  16:C:/Users/Yoshi/Documents/GitHub/Software/01_jrg/04_CANModule/CAN_Modul_keckvale_AH/Libraries/XMCLib/inc\xmc_gpio.h ****  * disclaimer.                        
  17:C:/Users/Yoshi/Documents/GitHub/Software/01_jrg/04_CANModule/CAN_Modul_keckvale_AH/Libraries/XMCLib/inc\xmc_gpio.h ****  * 
  18:C:/Users/Yoshi/Documents/GitHub/Software/01_jrg/04_CANModule/CAN_Modul_keckvale_AH/Libraries/XMCLib/inc\xmc_gpio.h ****  * Redistributions in binary form must reproduce the above copyright notice, this list of condition
  19:C:/Users/Yoshi/Documents/GitHub/Software/01_jrg/04_CANModule/CAN_Modul_keckvale_AH/Libraries/XMCLib/inc\xmc_gpio.h ****  * disclaimer in the documentation and/or other materials provided with the distribution.          
  20:C:/Users/Yoshi/Documents/GitHub/Software/01_jrg/04_CANModule/CAN_Modul_keckvale_AH/Libraries/XMCLib/inc\xmc_gpio.h ****  * 
  21:C:/Users/Yoshi/Documents/GitHub/Software/01_jrg/04_CANModule/CAN_Modul_keckvale_AH/Libraries/XMCLib/inc\xmc_gpio.h ****  * Neither the name of the copyright holders nor the names of its contributors may be used to endor
  22:C:/Users/Yoshi/Documents/GitHub/Software/01_jrg/04_CANModule/CAN_Modul_keckvale_AH/Libraries/XMCLib/inc\xmc_gpio.h ****  * products derived from this software without specific prior written permission.                  
  23:C:/Users/Yoshi/Documents/GitHub/Software/01_jrg/04_CANModule/CAN_Modul_keckvale_AH/Libraries/XMCLib/inc\xmc_gpio.h ****  *                                                                              
  24:C:/Users/Yoshi/Documents/GitHub/Software/01_jrg/04_CANModule/CAN_Modul_keckvale_AH/Libraries/XMCLib/inc\xmc_gpio.h ****  * THIS SOFTWARE IS PROVIDED BY THE COPYRIGHT HOLDERS AND CONTRIBUTORS "AS IS" AND ANY EXPRESS OR I
  25:C:/Users/Yoshi/Documents/GitHub/Software/01_jrg/04_CANModule/CAN_Modul_keckvale_AH/Libraries/XMCLib/inc\xmc_gpio.h ****  * INCLUDING, BUT NOT LIMITED TO, THE IMPLIED WARRANTIES OF MERCHANTABILITY AND FITNESS FOR A PARTI
  26:C:/Users/Yoshi/Documents/GitHub/Software/01_jrg/04_CANModule/CAN_Modul_keckvale_AH/Libraries/XMCLib/inc\xmc_gpio.h ****  * DISCLAIMED. IN NO EVENT SHALL THE COPYRIGHT HOLDER OR CONTRIBUTORS BE LIABLE  FOR ANY DIRECT, IN
  27:C:/Users/Yoshi/Documents/GitHub/Software/01_jrg/04_CANModule/CAN_Modul_keckvale_AH/Libraries/XMCLib/inc\xmc_gpio.h ****  * SPECIAL, EXEMPLARY, OR CONSEQUENTIAL DAMAGES (INCLUDING, BUT NOT LIMITED TO, PROCUREMENT OF SUBS
  28:C:/Users/Yoshi/Documents/GitHub/Software/01_jrg/04_CANModule/CAN_Modul_keckvale_AH/Libraries/XMCLib/inc\xmc_gpio.h ****  * SERVICES; LOSS OF USE, DATA, OR PROFITS; OR BUSINESS INTERRUPTION) HOWEVER CAUSED AND ON ANY THE
  29:C:/Users/Yoshi/Documents/GitHub/Software/01_jrg/04_CANModule/CAN_Modul_keckvale_AH/Libraries/XMCLib/inc\xmc_gpio.h ****  * WHETHER IN CONTRACT, STRICT LIABILITY,OR TORT (INCLUDING NEGLIGENCE OR OTHERWISE) ARISING IN ANY
  30:C:/Users/Yoshi/Documents/GitHub/Software/01_jrg/04_CANModule/CAN_Modul_keckvale_AH/Libraries/XMCLib/inc\xmc_gpio.h ****  * OF THIS SOFTWARE, EVEN IF ADVISED OF THE POSSIBILITY OF SUCH DAMAGE.                            
  31:C:/Users/Yoshi/Documents/GitHub/Software/01_jrg/04_CANModule/CAN_Modul_keckvale_AH/Libraries/XMCLib/inc\xmc_gpio.h ****  *                                                                              
  32:C:/Users/Yoshi/Documents/GitHub/Software/01_jrg/04_CANModule/CAN_Modul_keckvale_AH/Libraries/XMCLib/inc\xmc_gpio.h ****  * To improve the quality of the software, users are encouraged to share modifications, enhancement
  33:C:/Users/Yoshi/Documents/GitHub/Software/01_jrg/04_CANModule/CAN_Modul_keckvale_AH/Libraries/XMCLib/inc\xmc_gpio.h ****  * Infineon Technologies AG dave@infineon.com).                                                    
  34:C:/Users/Yoshi/Documents/GitHub/Software/01_jrg/04_CANModule/CAN_Modul_keckvale_AH/Libraries/XMCLib/inc\xmc_gpio.h ****  **************************************************************************************************
  35:C:/Users/Yoshi/Documents/GitHub/Software/01_jrg/04_CANModule/CAN_Modul_keckvale_AH/Libraries/XMCLib/inc\xmc_gpio.h ****  *
  36:C:/Users/Yoshi/Documents/GitHub/Software/01_jrg/04_CANModule/CAN_Modul_keckvale_AH/Libraries/XMCLib/inc\xmc_gpio.h ****  * Change History
  37:C:/Users/Yoshi/Documents/GitHub/Software/01_jrg/04_CANModule/CAN_Modul_keckvale_AH/Libraries/XMCLib/inc\xmc_gpio.h ****  * --------------
  38:C:/Users/Yoshi/Documents/GitHub/Software/01_jrg/04_CANModule/CAN_Modul_keckvale_AH/Libraries/XMCLib/inc\xmc_gpio.h ****  *
  39:C:/Users/Yoshi/Documents/GitHub/Software/01_jrg/04_CANModule/CAN_Modul_keckvale_AH/Libraries/XMCLib/inc\xmc_gpio.h ****  * 2015-02-20:
  40:C:/Users/Yoshi/Documents/GitHub/Software/01_jrg/04_CANModule/CAN_Modul_keckvale_AH/Libraries/XMCLib/inc\xmc_gpio.h ****  *     - Initial draft<br>
  41:C:/Users/Yoshi/Documents/GitHub/Software/01_jrg/04_CANModule/CAN_Modul_keckvale_AH/Libraries/XMCLib/inc\xmc_gpio.h ****  *     - Documentation improved <br>
  42:C:/Users/Yoshi/Documents/GitHub/Software/01_jrg/04_CANModule/CAN_Modul_keckvale_AH/Libraries/XMCLib/inc\xmc_gpio.h ****  *      
  43:C:/Users/Yoshi/Documents/GitHub/Software/01_jrg/04_CANModule/CAN_Modul_keckvale_AH/Libraries/XMCLib/inc\xmc_gpio.h ****  * 2015-06-20:
  44:C:/Users/Yoshi/Documents/GitHub/Software/01_jrg/04_CANModule/CAN_Modul_keckvale_AH/Libraries/XMCLib/inc\xmc_gpio.h ****  *     - Removed version macros and declaration of GetDriverVersion API
  45:C:/Users/Yoshi/Documents/GitHub/Software/01_jrg/04_CANModule/CAN_Modul_keckvale_AH/Libraries/XMCLib/inc\xmc_gpio.h ****  *
  46:C:/Users/Yoshi/Documents/GitHub/Software/01_jrg/04_CANModule/CAN_Modul_keckvale_AH/Libraries/XMCLib/inc\xmc_gpio.h ****  * @endcond
  47:C:/Users/Yoshi/Documents/GitHub/Software/01_jrg/04_CANModule/CAN_Modul_keckvale_AH/Libraries/XMCLib/inc\xmc_gpio.h ****  *
  48:C:/Users/Yoshi/Documents/GitHub/Software/01_jrg/04_CANModule/CAN_Modul_keckvale_AH/Libraries/XMCLib/inc\xmc_gpio.h ****  */
  49:C:/Users/Yoshi/Documents/GitHub/Software/01_jrg/04_CANModule/CAN_Modul_keckvale_AH/Libraries/XMCLib/inc\xmc_gpio.h **** 
  50:C:/Users/Yoshi/Documents/GitHub/Software/01_jrg/04_CANModule/CAN_Modul_keckvale_AH/Libraries/XMCLib/inc\xmc_gpio.h **** #ifndef XMC_GPIO_H
  51:C:/Users/Yoshi/Documents/GitHub/Software/01_jrg/04_CANModule/CAN_Modul_keckvale_AH/Libraries/XMCLib/inc\xmc_gpio.h **** #define XMC_GPIO_H
  52:C:/Users/Yoshi/Documents/GitHub/Software/01_jrg/04_CANModule/CAN_Modul_keckvale_AH/Libraries/XMCLib/inc\xmc_gpio.h **** 
  53:C:/Users/Yoshi/Documents/GitHub/Software/01_jrg/04_CANModule/CAN_Modul_keckvale_AH/Libraries/XMCLib/inc\xmc_gpio.h **** /**************************************************************************************************
  54:C:/Users/Yoshi/Documents/GitHub/Software/01_jrg/04_CANModule/CAN_Modul_keckvale_AH/Libraries/XMCLib/inc\xmc_gpio.h ****  * HEADER FILES
  55:C:/Users/Yoshi/Documents/GitHub/Software/01_jrg/04_CANModule/CAN_Modul_keckvale_AH/Libraries/XMCLib/inc\xmc_gpio.h ****  **************************************************************************************************
  56:C:/Users/Yoshi/Documents/GitHub/Software/01_jrg/04_CANModule/CAN_Modul_keckvale_AH/Libraries/XMCLib/inc\xmc_gpio.h **** 
  57:C:/Users/Yoshi/Documents/GitHub/Software/01_jrg/04_CANModule/CAN_Modul_keckvale_AH/Libraries/XMCLib/inc\xmc_gpio.h **** #include "xmc_common.h"
  58:C:/Users/Yoshi/Documents/GitHub/Software/01_jrg/04_CANModule/CAN_Modul_keckvale_AH/Libraries/XMCLib/inc\xmc_gpio.h **** 
  59:C:/Users/Yoshi/Documents/GitHub/Software/01_jrg/04_CANModule/CAN_Modul_keckvale_AH/Libraries/XMCLib/inc\xmc_gpio.h **** /**
  60:C:/Users/Yoshi/Documents/GitHub/Software/01_jrg/04_CANModule/CAN_Modul_keckvale_AH/Libraries/XMCLib/inc\xmc_gpio.h ****  * @addtogroup XMClib XMC Peripheral Library
  61:C:/Users/Yoshi/Documents/GitHub/Software/01_jrg/04_CANModule/CAN_Modul_keckvale_AH/Libraries/XMCLib/inc\xmc_gpio.h ****  * @{
  62:C:/Users/Yoshi/Documents/GitHub/Software/01_jrg/04_CANModule/CAN_Modul_keckvale_AH/Libraries/XMCLib/inc\xmc_gpio.h ****  */
  63:C:/Users/Yoshi/Documents/GitHub/Software/01_jrg/04_CANModule/CAN_Modul_keckvale_AH/Libraries/XMCLib/inc\xmc_gpio.h **** 
  64:C:/Users/Yoshi/Documents/GitHub/Software/01_jrg/04_CANModule/CAN_Modul_keckvale_AH/Libraries/XMCLib/inc\xmc_gpio.h **** /**
  65:C:/Users/Yoshi/Documents/GitHub/Software/01_jrg/04_CANModule/CAN_Modul_keckvale_AH/Libraries/XMCLib/inc\xmc_gpio.h ****  * @addtogroup GPIO
  66:C:/Users/Yoshi/Documents/GitHub/Software/01_jrg/04_CANModule/CAN_Modul_keckvale_AH/Libraries/XMCLib/inc\xmc_gpio.h ****  * @brief General Purpose Input Output (GPIO) driver for the XMC microcontroller family.
  67:C:/Users/Yoshi/Documents/GitHub/Software/01_jrg/04_CANModule/CAN_Modul_keckvale_AH/Libraries/XMCLib/inc\xmc_gpio.h ****  *
  68:C:/Users/Yoshi/Documents/GitHub/Software/01_jrg/04_CANModule/CAN_Modul_keckvale_AH/Libraries/XMCLib/inc\xmc_gpio.h ****  * GPIO driver provide a generic and very flexible software interface for all standard digital I/O 
  69:C:/Users/Yoshi/Documents/GitHub/Software/01_jrg/04_CANModule/CAN_Modul_keckvale_AH/Libraries/XMCLib/inc\xmc_gpio.h ****  * Each port slice has individual interfaces for the operation as General Purpose I/O and it furthe
  70:C:/Users/Yoshi/Documents/GitHub/Software/01_jrg/04_CANModule/CAN_Modul_keckvale_AH/Libraries/XMCLib/inc\xmc_gpio.h ****  * connectivity to the on-chip periphery and the control for the pad characteristics. 
  71:C:/Users/Yoshi/Documents/GitHub/Software/01_jrg/04_CANModule/CAN_Modul_keckvale_AH/Libraries/XMCLib/inc\xmc_gpio.h ****  *
  72:C:/Users/Yoshi/Documents/GitHub/Software/01_jrg/04_CANModule/CAN_Modul_keckvale_AH/Libraries/XMCLib/inc\xmc_gpio.h ****  * The driver is divided into Input and Output mode.
  73:C:/Users/Yoshi/Documents/GitHub/Software/01_jrg/04_CANModule/CAN_Modul_keckvale_AH/Libraries/XMCLib/inc\xmc_gpio.h ****  *
  74:C:/Users/Yoshi/Documents/GitHub/Software/01_jrg/04_CANModule/CAN_Modul_keckvale_AH/Libraries/XMCLib/inc\xmc_gpio.h ****  * Input mode features:
  75:C:/Users/Yoshi/Documents/GitHub/Software/01_jrg/04_CANModule/CAN_Modul_keckvale_AH/Libraries/XMCLib/inc\xmc_gpio.h ****  * -# Configuration structure XMC_GPIO_CONFIG_t and initialization function XMC_GPIO_Init()
  76:C:/Users/Yoshi/Documents/GitHub/Software/01_jrg/04_CANModule/CAN_Modul_keckvale_AH/Libraries/XMCLib/inc\xmc_gpio.h ****  * -# Allows the selection of weak pull-up or pull-down device. Configuration structure XMC_GPIO_MO
  77:C:/Users/Yoshi/Documents/GitHub/Software/01_jrg/04_CANModule/CAN_Modul_keckvale_AH/Libraries/XMCLib/inc\xmc_gpio.h ****  * \if XMC1
  78:C:/Users/Yoshi/Documents/GitHub/Software/01_jrg/04_CANModule/CAN_Modul_keckvale_AH/Libraries/XMCLib/inc\xmc_gpio.h ****  * -# Allows the selection of input hysteresis. XMC_GPIO_SetInputHysteresis()
  79:C:/Users/Yoshi/Documents/GitHub/Software/01_jrg/04_CANModule/CAN_Modul_keckvale_AH/Libraries/XMCLib/inc\xmc_gpio.h ****  * \endif
  80:C:/Users/Yoshi/Documents/GitHub/Software/01_jrg/04_CANModule/CAN_Modul_keckvale_AH/Libraries/XMCLib/inc\xmc_gpio.h ****  *
  81:C:/Users/Yoshi/Documents/GitHub/Software/01_jrg/04_CANModule/CAN_Modul_keckvale_AH/Libraries/XMCLib/inc\xmc_gpio.h ****  * 
  82:C:/Users/Yoshi/Documents/GitHub/Software/01_jrg/04_CANModule/CAN_Modul_keckvale_AH/Libraries/XMCLib/inc\xmc_gpio.h ****  * Output mode features:
  83:C:/Users/Yoshi/Documents/GitHub/Software/01_jrg/04_CANModule/CAN_Modul_keckvale_AH/Libraries/XMCLib/inc\xmc_gpio.h ****  * -# Allows the selection of push pull/open drain and Alternate output. Configuration structure XM
  84:C:/Users/Yoshi/Documents/GitHub/Software/01_jrg/04_CANModule/CAN_Modul_keckvale_AH/Libraries/XMCLib/inc\xmc_gpio.h ****  * \if XMC4
  85:C:/Users/Yoshi/Documents/GitHub/Software/01_jrg/04_CANModule/CAN_Modul_keckvale_AH/Libraries/XMCLib/inc\xmc_gpio.h ****  * -# Allows the selection of pad driver strength. Configuration structure XMC_GPIO_OUTPUT_STRENGTH
  86:C:/Users/Yoshi/Documents/GitHub/Software/01_jrg/04_CANModule/CAN_Modul_keckvale_AH/Libraries/XMCLib/inc\xmc_gpio.h ****  * \endif
  87:C:/Users/Yoshi/Documents/GitHub/Software/01_jrg/04_CANModule/CAN_Modul_keckvale_AH/Libraries/XMCLib/inc\xmc_gpio.h ****  *
  88:C:/Users/Yoshi/Documents/GitHub/Software/01_jrg/04_CANModule/CAN_Modul_keckvale_AH/Libraries/XMCLib/inc\xmc_gpio.h ****  * -# Allows the selection of initial output level. Configuration structure XMC_GPIO_OUTPUT_LEVEL_t
  89:C:/Users/Yoshi/Documents/GitHub/Software/01_jrg/04_CANModule/CAN_Modul_keckvale_AH/Libraries/XMCLib/inc\xmc_gpio.h ****  *
  90:C:/Users/Yoshi/Documents/GitHub/Software/01_jrg/04_CANModule/CAN_Modul_keckvale_AH/Libraries/XMCLib/inc\xmc_gpio.h ****  *@{
  91:C:/Users/Yoshi/Documents/GitHub/Software/01_jrg/04_CANModule/CAN_Modul_keckvale_AH/Libraries/XMCLib/inc\xmc_gpio.h ****  */
  92:C:/Users/Yoshi/Documents/GitHub/Software/01_jrg/04_CANModule/CAN_Modul_keckvale_AH/Libraries/XMCLib/inc\xmc_gpio.h ****  
  93:C:/Users/Yoshi/Documents/GitHub/Software/01_jrg/04_CANModule/CAN_Modul_keckvale_AH/Libraries/XMCLib/inc\xmc_gpio.h **** /**************************************************************************************************
  94:C:/Users/Yoshi/Documents/GitHub/Software/01_jrg/04_CANModule/CAN_Modul_keckvale_AH/Libraries/XMCLib/inc\xmc_gpio.h ****  * MACROS
  95:C:/Users/Yoshi/Documents/GitHub/Software/01_jrg/04_CANModule/CAN_Modul_keckvale_AH/Libraries/XMCLib/inc\xmc_gpio.h ****  **************************************************************************************************
  96:C:/Users/Yoshi/Documents/GitHub/Software/01_jrg/04_CANModule/CAN_Modul_keckvale_AH/Libraries/XMCLib/inc\xmc_gpio.h **** 
  97:C:/Users/Yoshi/Documents/GitHub/Software/01_jrg/04_CANModule/CAN_Modul_keckvale_AH/Libraries/XMCLib/inc\xmc_gpio.h **** #define PORT_IOCR_PC_Pos PORT0_IOCR0_PC0_Pos
  98:C:/Users/Yoshi/Documents/GitHub/Software/01_jrg/04_CANModule/CAN_Modul_keckvale_AH/Libraries/XMCLib/inc\xmc_gpio.h **** #define PORT_IOCR_PC_Msk PORT0_IOCR0_PC0_Msk
  99:C:/Users/Yoshi/Documents/GitHub/Software/01_jrg/04_CANModule/CAN_Modul_keckvale_AH/Libraries/XMCLib/inc\xmc_gpio.h **** 
 100:C:/Users/Yoshi/Documents/GitHub/Software/01_jrg/04_CANModule/CAN_Modul_keckvale_AH/Libraries/XMCLib/inc\xmc_gpio.h **** #define PORT_IOCR_PC_Size 				(8U)
 101:C:/Users/Yoshi/Documents/GitHub/Software/01_jrg/04_CANModule/CAN_Modul_keckvale_AH/Libraries/XMCLib/inc\xmc_gpio.h **** 											
 102:C:/Users/Yoshi/Documents/GitHub/Software/01_jrg/04_CANModule/CAN_Modul_keckvale_AH/Libraries/XMCLib/inc\xmc_gpio.h **** 
 103:C:/Users/Yoshi/Documents/GitHub/Software/01_jrg/04_CANModule/CAN_Modul_keckvale_AH/Libraries/XMCLib/inc\xmc_gpio.h **** #define XMC_GPIO_CHECK_OUTPUT_LEVEL(level) ((level == XMC_GPIO_OUTPUT_LEVEL_LOW) || \
 104:C:/Users/Yoshi/Documents/GitHub/Software/01_jrg/04_CANModule/CAN_Modul_keckvale_AH/Libraries/XMCLib/inc\xmc_gpio.h ****                                             (level == XMC_GPIO_OUTPUT_LEVEL_HIGH))
 105:C:/Users/Yoshi/Documents/GitHub/Software/01_jrg/04_CANModule/CAN_Modul_keckvale_AH/Libraries/XMCLib/inc\xmc_gpio.h ****                                             
 106:C:/Users/Yoshi/Documents/GitHub/Software/01_jrg/04_CANModule/CAN_Modul_keckvale_AH/Libraries/XMCLib/inc\xmc_gpio.h **** #define XMC_GPIO_CHECK_HWCTRL(hwctrl) ((hwctrl == XMC_GPIO_HWCTRL_DISABLED) || \
 107:C:/Users/Yoshi/Documents/GitHub/Software/01_jrg/04_CANModule/CAN_Modul_keckvale_AH/Libraries/XMCLib/inc\xmc_gpio.h ****                                        (hwctrl == XMC_GPIO_HWCTRL_PERIPHERAL1) || \
 108:C:/Users/Yoshi/Documents/GitHub/Software/01_jrg/04_CANModule/CAN_Modul_keckvale_AH/Libraries/XMCLib/inc\xmc_gpio.h ****                                        (hwctrl == XMC_GPIO_HWCTRL_PERIPHERAL2))                    
 109:C:/Users/Yoshi/Documents/GitHub/Software/01_jrg/04_CANModule/CAN_Modul_keckvale_AH/Libraries/XMCLib/inc\xmc_gpio.h ****                                             
 110:C:/Users/Yoshi/Documents/GitHub/Software/01_jrg/04_CANModule/CAN_Modul_keckvale_AH/Libraries/XMCLib/inc\xmc_gpio.h **** /**************************************************************************************************
 111:C:/Users/Yoshi/Documents/GitHub/Software/01_jrg/04_CANModule/CAN_Modul_keckvale_AH/Libraries/XMCLib/inc\xmc_gpio.h ****  * ENUMS
 112:C:/Users/Yoshi/Documents/GitHub/Software/01_jrg/04_CANModule/CAN_Modul_keckvale_AH/Libraries/XMCLib/inc\xmc_gpio.h ****  **************************************************************************************************
 113:C:/Users/Yoshi/Documents/GitHub/Software/01_jrg/04_CANModule/CAN_Modul_keckvale_AH/Libraries/XMCLib/inc\xmc_gpio.h **** 
 114:C:/Users/Yoshi/Documents/GitHub/Software/01_jrg/04_CANModule/CAN_Modul_keckvale_AH/Libraries/XMCLib/inc\xmc_gpio.h **** 
 115:C:/Users/Yoshi/Documents/GitHub/Software/01_jrg/04_CANModule/CAN_Modul_keckvale_AH/Libraries/XMCLib/inc\xmc_gpio.h **** /**
 116:C:/Users/Yoshi/Documents/GitHub/Software/01_jrg/04_CANModule/CAN_Modul_keckvale_AH/Libraries/XMCLib/inc\xmc_gpio.h ****  * Defines output level of a pin. Use type \a XMC_GPIO_OUTPUT_LEVEL_t for this enum.
 117:C:/Users/Yoshi/Documents/GitHub/Software/01_jrg/04_CANModule/CAN_Modul_keckvale_AH/Libraries/XMCLib/inc\xmc_gpio.h ****  */
 118:C:/Users/Yoshi/Documents/GitHub/Software/01_jrg/04_CANModule/CAN_Modul_keckvale_AH/Libraries/XMCLib/inc\xmc_gpio.h **** typedef enum XMC_GPIO_OUTPUT_LEVEL
 119:C:/Users/Yoshi/Documents/GitHub/Software/01_jrg/04_CANModule/CAN_Modul_keckvale_AH/Libraries/XMCLib/inc\xmc_gpio.h **** {
 120:C:/Users/Yoshi/Documents/GitHub/Software/01_jrg/04_CANModule/CAN_Modul_keckvale_AH/Libraries/XMCLib/inc\xmc_gpio.h ****   XMC_GPIO_OUTPUT_LEVEL_LOW  = 0x10000U, /**<  Reset bit */
 121:C:/Users/Yoshi/Documents/GitHub/Software/01_jrg/04_CANModule/CAN_Modul_keckvale_AH/Libraries/XMCLib/inc\xmc_gpio.h ****   XMC_GPIO_OUTPUT_LEVEL_HIGH = 0x1U, 	/**< Set bit  */
 122:C:/Users/Yoshi/Documents/GitHub/Software/01_jrg/04_CANModule/CAN_Modul_keckvale_AH/Libraries/XMCLib/inc\xmc_gpio.h **** } XMC_GPIO_OUTPUT_LEVEL_t;
 123:C:/Users/Yoshi/Documents/GitHub/Software/01_jrg/04_CANModule/CAN_Modul_keckvale_AH/Libraries/XMCLib/inc\xmc_gpio.h **** 
 124:C:/Users/Yoshi/Documents/GitHub/Software/01_jrg/04_CANModule/CAN_Modul_keckvale_AH/Libraries/XMCLib/inc\xmc_gpio.h **** /**
 125:C:/Users/Yoshi/Documents/GitHub/Software/01_jrg/04_CANModule/CAN_Modul_keckvale_AH/Libraries/XMCLib/inc\xmc_gpio.h ****  * Defines direct hardware control characteristics of the pin . Use type \a XMC_GPIO_HWCTRL_t for t
 126:C:/Users/Yoshi/Documents/GitHub/Software/01_jrg/04_CANModule/CAN_Modul_keckvale_AH/Libraries/XMCLib/inc\xmc_gpio.h ****  */
 127:C:/Users/Yoshi/Documents/GitHub/Software/01_jrg/04_CANModule/CAN_Modul_keckvale_AH/Libraries/XMCLib/inc\xmc_gpio.h **** typedef enum XMC_GPIO_HWCTRL
 128:C:/Users/Yoshi/Documents/GitHub/Software/01_jrg/04_CANModule/CAN_Modul_keckvale_AH/Libraries/XMCLib/inc\xmc_gpio.h **** {
 129:C:/Users/Yoshi/Documents/GitHub/Software/01_jrg/04_CANModule/CAN_Modul_keckvale_AH/Libraries/XMCLib/inc\xmc_gpio.h ****   XMC_GPIO_HWCTRL_DISABLED     = 0x0U, /**<  Software control only */
 130:C:/Users/Yoshi/Documents/GitHub/Software/01_jrg/04_CANModule/CAN_Modul_keckvale_AH/Libraries/XMCLib/inc\xmc_gpio.h ****   XMC_GPIO_HWCTRL_PERIPHERAL1  = 0x1U, /**<  HWI0/HWO0 control path can override the software confi
 131:C:/Users/Yoshi/Documents/GitHub/Software/01_jrg/04_CANModule/CAN_Modul_keckvale_AH/Libraries/XMCLib/inc\xmc_gpio.h ****   XMC_GPIO_HWCTRL_PERIPHERAL2  = 0x2U  /**<  HWI1/HWO1 control path can override the software confi
 132:C:/Users/Yoshi/Documents/GitHub/Software/01_jrg/04_CANModule/CAN_Modul_keckvale_AH/Libraries/XMCLib/inc\xmc_gpio.h **** } XMC_GPIO_HWCTRL_t;
 133:C:/Users/Yoshi/Documents/GitHub/Software/01_jrg/04_CANModule/CAN_Modul_keckvale_AH/Libraries/XMCLib/inc\xmc_gpio.h **** 
 134:C:/Users/Yoshi/Documents/GitHub/Software/01_jrg/04_CANModule/CAN_Modul_keckvale_AH/Libraries/XMCLib/inc\xmc_gpio.h **** /**************************************************************************************************
 135:C:/Users/Yoshi/Documents/GitHub/Software/01_jrg/04_CANModule/CAN_Modul_keckvale_AH/Libraries/XMCLib/inc\xmc_gpio.h ****  * DEVICE FAMILY EXTENSIONS
 136:C:/Users/Yoshi/Documents/GitHub/Software/01_jrg/04_CANModule/CAN_Modul_keckvale_AH/Libraries/XMCLib/inc\xmc_gpio.h ****  **************************************************************************************************
 137:C:/Users/Yoshi/Documents/GitHub/Software/01_jrg/04_CANModule/CAN_Modul_keckvale_AH/Libraries/XMCLib/inc\xmc_gpio.h **** 
 138:C:/Users/Yoshi/Documents/GitHub/Software/01_jrg/04_CANModule/CAN_Modul_keckvale_AH/Libraries/XMCLib/inc\xmc_gpio.h ****  #if UC_FAMILY == XMC1
 139:C:/Users/Yoshi/Documents/GitHub/Software/01_jrg/04_CANModule/CAN_Modul_keckvale_AH/Libraries/XMCLib/inc\xmc_gpio.h **** #include "xmc1_gpio.h"
 140:C:/Users/Yoshi/Documents/GitHub/Software/01_jrg/04_CANModule/CAN_Modul_keckvale_AH/Libraries/XMCLib/inc\xmc_gpio.h **** #elif UC_FAMILY == XMC4
 141:C:/Users/Yoshi/Documents/GitHub/Software/01_jrg/04_CANModule/CAN_Modul_keckvale_AH/Libraries/XMCLib/inc\xmc_gpio.h **** #include "xmc4_gpio.h"
 142:C:/Users/Yoshi/Documents/GitHub/Software/01_jrg/04_CANModule/CAN_Modul_keckvale_AH/Libraries/XMCLib/inc\xmc_gpio.h **** #else
 143:C:/Users/Yoshi/Documents/GitHub/Software/01_jrg/04_CANModule/CAN_Modul_keckvale_AH/Libraries/XMCLib/inc\xmc_gpio.h **** #error "xmc_gpio.h: family device not supported"
 144:C:/Users/Yoshi/Documents/GitHub/Software/01_jrg/04_CANModule/CAN_Modul_keckvale_AH/Libraries/XMCLib/inc\xmc_gpio.h **** #endif
 145:C:/Users/Yoshi/Documents/GitHub/Software/01_jrg/04_CANModule/CAN_Modul_keckvale_AH/Libraries/XMCLib/inc\xmc_gpio.h **** 
 146:C:/Users/Yoshi/Documents/GitHub/Software/01_jrg/04_CANModule/CAN_Modul_keckvale_AH/Libraries/XMCLib/inc\xmc_gpio.h **** /**************************************************************************************************
 147:C:/Users/Yoshi/Documents/GitHub/Software/01_jrg/04_CANModule/CAN_Modul_keckvale_AH/Libraries/XMCLib/inc\xmc_gpio.h ****  * API PROTOTYPES
 148:C:/Users/Yoshi/Documents/GitHub/Software/01_jrg/04_CANModule/CAN_Modul_keckvale_AH/Libraries/XMCLib/inc\xmc_gpio.h ****  **************************************************************************************************
 149:C:/Users/Yoshi/Documents/GitHub/Software/01_jrg/04_CANModule/CAN_Modul_keckvale_AH/Libraries/XMCLib/inc\xmc_gpio.h **** 
 150:C:/Users/Yoshi/Documents/GitHub/Software/01_jrg/04_CANModule/CAN_Modul_keckvale_AH/Libraries/XMCLib/inc\xmc_gpio.h **** #ifdef __cplusplus
 151:C:/Users/Yoshi/Documents/GitHub/Software/01_jrg/04_CANModule/CAN_Modul_keckvale_AH/Libraries/XMCLib/inc\xmc_gpio.h **** extern "C" {
 152:C:/Users/Yoshi/Documents/GitHub/Software/01_jrg/04_CANModule/CAN_Modul_keckvale_AH/Libraries/XMCLib/inc\xmc_gpio.h **** #endif
 153:C:/Users/Yoshi/Documents/GitHub/Software/01_jrg/04_CANModule/CAN_Modul_keckvale_AH/Libraries/XMCLib/inc\xmc_gpio.h **** 
 154:C:/Users/Yoshi/Documents/GitHub/Software/01_jrg/04_CANModule/CAN_Modul_keckvale_AH/Libraries/XMCLib/inc\xmc_gpio.h **** 
 155:C:/Users/Yoshi/Documents/GitHub/Software/01_jrg/04_CANModule/CAN_Modul_keckvale_AH/Libraries/XMCLib/inc\xmc_gpio.h **** /**
 156:C:/Users/Yoshi/Documents/GitHub/Software/01_jrg/04_CANModule/CAN_Modul_keckvale_AH/Libraries/XMCLib/inc\xmc_gpio.h ****  * @param  port	  Constant pointer pointing to GPIO port, to access port registers like Pn_OUT,Pn_O
 157:C:/Users/Yoshi/Documents/GitHub/Software/01_jrg/04_CANModule/CAN_Modul_keckvale_AH/Libraries/XMCLib/inc\xmc_gpio.h ****  * @param  pin	  Port pin number.
 158:C:/Users/Yoshi/Documents/GitHub/Software/01_jrg/04_CANModule/CAN_Modul_keckvale_AH/Libraries/XMCLib/inc\xmc_gpio.h ****  * @param  config GPIO configuration data structure. Refer data structure @ref XMC_GPIO_CONFIG_t fo
 159:C:/Users/Yoshi/Documents/GitHub/Software/01_jrg/04_CANModule/CAN_Modul_keckvale_AH/Libraries/XMCLib/inc\xmc_gpio.h ****  *
 160:C:/Users/Yoshi/Documents/GitHub/Software/01_jrg/04_CANModule/CAN_Modul_keckvale_AH/Libraries/XMCLib/inc\xmc_gpio.h ****  * @return None
 161:C:/Users/Yoshi/Documents/GitHub/Software/01_jrg/04_CANModule/CAN_Modul_keckvale_AH/Libraries/XMCLib/inc\xmc_gpio.h ****  *
 162:C:/Users/Yoshi/Documents/GitHub/Software/01_jrg/04_CANModule/CAN_Modul_keckvale_AH/Libraries/XMCLib/inc\xmc_gpio.h ****  * \par<b>Description:</b><br>
 163:C:/Users/Yoshi/Documents/GitHub/Software/01_jrg/04_CANModule/CAN_Modul_keckvale_AH/Libraries/XMCLib/inc\xmc_gpio.h ****  * \if XMC1
 164:C:/Users/Yoshi/Documents/GitHub/Software/01_jrg/04_CANModule/CAN_Modul_keckvale_AH/Libraries/XMCLib/inc\xmc_gpio.h ****  * Initializes input / output mode settings like, pull up / pull down devices,hysteresis, push pull
 165:C:/Users/Yoshi/Documents/GitHub/Software/01_jrg/04_CANModule/CAN_Modul_keckvale_AH/Libraries/XMCLib/inc\xmc_gpio.h ****  * Also configures alternate function outputs and clears hardware port control for a selected \a po
 166:C:/Users/Yoshi/Documents/GitHub/Software/01_jrg/04_CANModule/CAN_Modul_keckvale_AH/Libraries/XMCLib/inc\xmc_gpio.h ****  * \a config provides selected I/O settings. It configures hardware registers Pn_IOCR,Pn_OUT, Pn_OM
 167:C:/Users/Yoshi/Documents/GitHub/Software/01_jrg/04_CANModule/CAN_Modul_keckvale_AH/Libraries/XMCLib/inc\xmc_gpio.h ****  * \endif
 168:C:/Users/Yoshi/Documents/GitHub/Software/01_jrg/04_CANModule/CAN_Modul_keckvale_AH/Libraries/XMCLib/inc\xmc_gpio.h ****  * \if XMC4
 169:C:/Users/Yoshi/Documents/GitHub/Software/01_jrg/04_CANModule/CAN_Modul_keckvale_AH/Libraries/XMCLib/inc\xmc_gpio.h ****  * Initializes input / output mode settings like, pull up / pull down devices,push pull /open drain
 170:C:/Users/Yoshi/Documents/GitHub/Software/01_jrg/04_CANModule/CAN_Modul_keckvale_AH/Libraries/XMCLib/inc\xmc_gpio.h ****  * Also configures alternate function outputs and clears hardware port control for selected \a port
 171:C:/Users/Yoshi/Documents/GitHub/Software/01_jrg/04_CANModule/CAN_Modul_keckvale_AH/Libraries/XMCLib/inc\xmc_gpio.h ****  * It configures hardware registers Pn_IOCR,Pn_OUT,Pn_OMR,Pn_PDISC and Pn_PDR.\n
 172:C:/Users/Yoshi/Documents/GitHub/Software/01_jrg/04_CANModule/CAN_Modul_keckvale_AH/Libraries/XMCLib/inc\xmc_gpio.h ****  * \endif
 173:C:/Users/Yoshi/Documents/GitHub/Software/01_jrg/04_CANModule/CAN_Modul_keckvale_AH/Libraries/XMCLib/inc\xmc_gpio.h ****  *
 174:C:/Users/Yoshi/Documents/GitHub/Software/01_jrg/04_CANModule/CAN_Modul_keckvale_AH/Libraries/XMCLib/inc\xmc_gpio.h ****  * \par<b>Related APIs:</b><BR>
 175:C:/Users/Yoshi/Documents/GitHub/Software/01_jrg/04_CANModule/CAN_Modul_keckvale_AH/Libraries/XMCLib/inc\xmc_gpio.h ****  *  None
 176:C:/Users/Yoshi/Documents/GitHub/Software/01_jrg/04_CANModule/CAN_Modul_keckvale_AH/Libraries/XMCLib/inc\xmc_gpio.h ****  *
 177:C:/Users/Yoshi/Documents/GitHub/Software/01_jrg/04_CANModule/CAN_Modul_keckvale_AH/Libraries/XMCLib/inc\xmc_gpio.h ****  * \par<b>Note:</b><br>
 178:C:/Users/Yoshi/Documents/GitHub/Software/01_jrg/04_CANModule/CAN_Modul_keckvale_AH/Libraries/XMCLib/inc\xmc_gpio.h ****  * This API is called in definition of DAVE_init by code generation and therefore should not be exp
 179:C:/Users/Yoshi/Documents/GitHub/Software/01_jrg/04_CANModule/CAN_Modul_keckvale_AH/Libraries/XMCLib/inc\xmc_gpio.h ****  * for the normal operation. Use other APIs only after DAVE_init is called successfully (returns DA
 180:C:/Users/Yoshi/Documents/GitHub/Software/01_jrg/04_CANModule/CAN_Modul_keckvale_AH/Libraries/XMCLib/inc\xmc_gpio.h ****  *
 181:C:/Users/Yoshi/Documents/GitHub/Software/01_jrg/04_CANModule/CAN_Modul_keckvale_AH/Libraries/XMCLib/inc\xmc_gpio.h ****  *
 182:C:/Users/Yoshi/Documents/GitHub/Software/01_jrg/04_CANModule/CAN_Modul_keckvale_AH/Libraries/XMCLib/inc\xmc_gpio.h ****  */
 183:C:/Users/Yoshi/Documents/GitHub/Software/01_jrg/04_CANModule/CAN_Modul_keckvale_AH/Libraries/XMCLib/inc\xmc_gpio.h **** 
 184:C:/Users/Yoshi/Documents/GitHub/Software/01_jrg/04_CANModule/CAN_Modul_keckvale_AH/Libraries/XMCLib/inc\xmc_gpio.h ****  
 185:C:/Users/Yoshi/Documents/GitHub/Software/01_jrg/04_CANModule/CAN_Modul_keckvale_AH/Libraries/XMCLib/inc\xmc_gpio.h **** void XMC_GPIO_Init(XMC_GPIO_PORT_t *const port, const uint8_t pin, const XMC_GPIO_CONFIG_t *const c
 186:C:/Users/Yoshi/Documents/GitHub/Software/01_jrg/04_CANModule/CAN_Modul_keckvale_AH/Libraries/XMCLib/inc\xmc_gpio.h ****  
 187:C:/Users/Yoshi/Documents/GitHub/Software/01_jrg/04_CANModule/CAN_Modul_keckvale_AH/Libraries/XMCLib/inc\xmc_gpio.h **** /**
 188:C:/Users/Yoshi/Documents/GitHub/Software/01_jrg/04_CANModule/CAN_Modul_keckvale_AH/Libraries/XMCLib/inc\xmc_gpio.h ****  *
 189:C:/Users/Yoshi/Documents/GitHub/Software/01_jrg/04_CANModule/CAN_Modul_keckvale_AH/Libraries/XMCLib/inc\xmc_gpio.h ****  * @param  port	Constant pointer pointing to GPIO port, to access hardware register Pn_IOCR.
 190:C:/Users/Yoshi/Documents/GitHub/Software/01_jrg/04_CANModule/CAN_Modul_keckvale_AH/Libraries/XMCLib/inc\xmc_gpio.h ****  * @param  pin	Port pin number.
 191:C:/Users/Yoshi/Documents/GitHub/Software/01_jrg/04_CANModule/CAN_Modul_keckvale_AH/Libraries/XMCLib/inc\xmc_gpio.h ****  * @param  mode input / output functionality selection. Refer @ref XMC_GPIO_MODE_t for valid values
 192:C:/Users/Yoshi/Documents/GitHub/Software/01_jrg/04_CANModule/CAN_Modul_keckvale_AH/Libraries/XMCLib/inc\xmc_gpio.h ****  *
 193:C:/Users/Yoshi/Documents/GitHub/Software/01_jrg/04_CANModule/CAN_Modul_keckvale_AH/Libraries/XMCLib/inc\xmc_gpio.h ****  * @return None
 194:C:/Users/Yoshi/Documents/GitHub/Software/01_jrg/04_CANModule/CAN_Modul_keckvale_AH/Libraries/XMCLib/inc\xmc_gpio.h ****  *
 195:C:/Users/Yoshi/Documents/GitHub/Software/01_jrg/04_CANModule/CAN_Modul_keckvale_AH/Libraries/XMCLib/inc\xmc_gpio.h ****  * \par<b>Description:</b><br>
 196:C:/Users/Yoshi/Documents/GitHub/Software/01_jrg/04_CANModule/CAN_Modul_keckvale_AH/Libraries/XMCLib/inc\xmc_gpio.h ****  * Sets digital input and output driver functionality and characteristics of a GPIO port pin. It co
 197:C:/Users/Yoshi/Documents/GitHub/Software/01_jrg/04_CANModule/CAN_Modul_keckvale_AH/Libraries/XMCLib/inc\xmc_gpio.h ****  * registers Pn_IOCR. \a mode is initially configured during initialization in XMC_GPIO_Init(). Cal
 198:C:/Users/Yoshi/Documents/GitHub/Software/01_jrg/04_CANModule/CAN_Modul_keckvale_AH/Libraries/XMCLib/inc\xmc_gpio.h ****  * the port direction functionality as needed later in the program.
 199:C:/Users/Yoshi/Documents/GitHub/Software/01_jrg/04_CANModule/CAN_Modul_keckvale_AH/Libraries/XMCLib/inc\xmc_gpio.h ****  *
 200:C:/Users/Yoshi/Documents/GitHub/Software/01_jrg/04_CANModule/CAN_Modul_keckvale_AH/Libraries/XMCLib/inc\xmc_gpio.h ****  * \par<b>Related APIs:</b><BR>
 201:C:/Users/Yoshi/Documents/GitHub/Software/01_jrg/04_CANModule/CAN_Modul_keckvale_AH/Libraries/XMCLib/inc\xmc_gpio.h ****  *  None
 202:C:/Users/Yoshi/Documents/GitHub/Software/01_jrg/04_CANModule/CAN_Modul_keckvale_AH/Libraries/XMCLib/inc\xmc_gpio.h ****  *
 203:C:/Users/Yoshi/Documents/GitHub/Software/01_jrg/04_CANModule/CAN_Modul_keckvale_AH/Libraries/XMCLib/inc\xmc_gpio.h ****  */
 204:C:/Users/Yoshi/Documents/GitHub/Software/01_jrg/04_CANModule/CAN_Modul_keckvale_AH/Libraries/XMCLib/inc\xmc_gpio.h **** 
 205:C:/Users/Yoshi/Documents/GitHub/Software/01_jrg/04_CANModule/CAN_Modul_keckvale_AH/Libraries/XMCLib/inc\xmc_gpio.h **** void XMC_GPIO_SetMode(XMC_GPIO_PORT_t *const port, const uint8_t pin, const XMC_GPIO_MODE_t mode);
 206:C:/Users/Yoshi/Documents/GitHub/Software/01_jrg/04_CANModule/CAN_Modul_keckvale_AH/Libraries/XMCLib/inc\xmc_gpio.h **** 
 207:C:/Users/Yoshi/Documents/GitHub/Software/01_jrg/04_CANModule/CAN_Modul_keckvale_AH/Libraries/XMCLib/inc\xmc_gpio.h **** 
 208:C:/Users/Yoshi/Documents/GitHub/Software/01_jrg/04_CANModule/CAN_Modul_keckvale_AH/Libraries/XMCLib/inc\xmc_gpio.h **** /**
 209:C:/Users/Yoshi/Documents/GitHub/Software/01_jrg/04_CANModule/CAN_Modul_keckvale_AH/Libraries/XMCLib/inc\xmc_gpio.h ****  *
 210:C:/Users/Yoshi/Documents/GitHub/Software/01_jrg/04_CANModule/CAN_Modul_keckvale_AH/Libraries/XMCLib/inc\xmc_gpio.h ****  * @param  port	 Constant pointer pointing to GPIO port, to access hardware register Pn_OMR.
 211:C:/Users/Yoshi/Documents/GitHub/Software/01_jrg/04_CANModule/CAN_Modul_keckvale_AH/Libraries/XMCLib/inc\xmc_gpio.h ****  * @param  pin	 Port pin number.
 212:C:/Users/Yoshi/Documents/GitHub/Software/01_jrg/04_CANModule/CAN_Modul_keckvale_AH/Libraries/XMCLib/inc\xmc_gpio.h ****  * @param  level output level selection. Refer @ref XMC_GPIO_OUTPUT_LEVEL_t for valid values.
 213:C:/Users/Yoshi/Documents/GitHub/Software/01_jrg/04_CANModule/CAN_Modul_keckvale_AH/Libraries/XMCLib/inc\xmc_gpio.h ****  *
 214:C:/Users/Yoshi/Documents/GitHub/Software/01_jrg/04_CANModule/CAN_Modul_keckvale_AH/Libraries/XMCLib/inc\xmc_gpio.h ****  * @return None
 215:C:/Users/Yoshi/Documents/GitHub/Software/01_jrg/04_CANModule/CAN_Modul_keckvale_AH/Libraries/XMCLib/inc\xmc_gpio.h ****  *
 216:C:/Users/Yoshi/Documents/GitHub/Software/01_jrg/04_CANModule/CAN_Modul_keckvale_AH/Libraries/XMCLib/inc\xmc_gpio.h ****  * \par<b>Description:</b><br>
 217:C:/Users/Yoshi/Documents/GitHub/Software/01_jrg/04_CANModule/CAN_Modul_keckvale_AH/Libraries/XMCLib/inc\xmc_gpio.h ****  * Set port pin output level to high or low.It configures hardware registers Pn_OMR.\a level is ini
 218:C:/Users/Yoshi/Documents/GitHub/Software/01_jrg/04_CANModule/CAN_Modul_keckvale_AH/Libraries/XMCLib/inc\xmc_gpio.h ****  * configured during initialization in XMC_GPIO_Init(). Call this API to alter output level as need
 219:C:/Users/Yoshi/Documents/GitHub/Software/01_jrg/04_CANModule/CAN_Modul_keckvale_AH/Libraries/XMCLib/inc\xmc_gpio.h ****  *
 220:C:/Users/Yoshi/Documents/GitHub/Software/01_jrg/04_CANModule/CAN_Modul_keckvale_AH/Libraries/XMCLib/inc\xmc_gpio.h ****  * \par<b>Related APIs:</b><BR>
 221:C:/Users/Yoshi/Documents/GitHub/Software/01_jrg/04_CANModule/CAN_Modul_keckvale_AH/Libraries/XMCLib/inc\xmc_gpio.h ****  *  XMC_GPIO_SetOutputHigh(), XMC_GPIO_SetOutputLow().
 222:C:/Users/Yoshi/Documents/GitHub/Software/01_jrg/04_CANModule/CAN_Modul_keckvale_AH/Libraries/XMCLib/inc\xmc_gpio.h ****  *
 223:C:/Users/Yoshi/Documents/GitHub/Software/01_jrg/04_CANModule/CAN_Modul_keckvale_AH/Libraries/XMCLib/inc\xmc_gpio.h ****  * \par<b>Note:</b><br>
 224:C:/Users/Yoshi/Documents/GitHub/Software/01_jrg/04_CANModule/CAN_Modul_keckvale_AH/Libraries/XMCLib/inc\xmc_gpio.h ****  * Prior to this api, user has to configure port pin to output mode using XMC_GPIO_SetMode().
 225:C:/Users/Yoshi/Documents/GitHub/Software/01_jrg/04_CANModule/CAN_Modul_keckvale_AH/Libraries/XMCLib/inc\xmc_gpio.h ****  *
 226:C:/Users/Yoshi/Documents/GitHub/Software/01_jrg/04_CANModule/CAN_Modul_keckvale_AH/Libraries/XMCLib/inc\xmc_gpio.h ****  */
 227:C:/Users/Yoshi/Documents/GitHub/Software/01_jrg/04_CANModule/CAN_Modul_keckvale_AH/Libraries/XMCLib/inc\xmc_gpio.h **** 
 228:C:/Users/Yoshi/Documents/GitHub/Software/01_jrg/04_CANModule/CAN_Modul_keckvale_AH/Libraries/XMCLib/inc\xmc_gpio.h **** 
 229:C:/Users/Yoshi/Documents/GitHub/Software/01_jrg/04_CANModule/CAN_Modul_keckvale_AH/Libraries/XMCLib/inc\xmc_gpio.h **** __STATIC_INLINE void XMC_GPIO_SetOutputLevel(XMC_GPIO_PORT_t *const port, const uint8_t pin, const 
 230:C:/Users/Yoshi/Documents/GitHub/Software/01_jrg/04_CANModule/CAN_Modul_keckvale_AH/Libraries/XMCLib/inc\xmc_gpio.h **** {
 231:C:/Users/Yoshi/Documents/GitHub/Software/01_jrg/04_CANModule/CAN_Modul_keckvale_AH/Libraries/XMCLib/inc\xmc_gpio.h ****   XMC_ASSERT("XMC_GPIO_SetOutputLevel: Invalid port", XMC_GPIO_CHECK_OUTPUT_PORT(port));
 232:C:/Users/Yoshi/Documents/GitHub/Software/01_jrg/04_CANModule/CAN_Modul_keckvale_AH/Libraries/XMCLib/inc\xmc_gpio.h ****   XMC_ASSERT("XMC_GPIO_SetOutputLevel: Invalid output level", XMC_GPIO_CHECK_OUTPUT_LEVEL(level));
 233:C:/Users/Yoshi/Documents/GitHub/Software/01_jrg/04_CANModule/CAN_Modul_keckvale_AH/Libraries/XMCLib/inc\xmc_gpio.h ****   
 234:C:/Users/Yoshi/Documents/GitHub/Software/01_jrg/04_CANModule/CAN_Modul_keckvale_AH/Libraries/XMCLib/inc\xmc_gpio.h ****   port->OMR = (uint32_t)level << pin;
 235:C:/Users/Yoshi/Documents/GitHub/Software/01_jrg/04_CANModule/CAN_Modul_keckvale_AH/Libraries/XMCLib/inc\xmc_gpio.h **** }
 236:C:/Users/Yoshi/Documents/GitHub/Software/01_jrg/04_CANModule/CAN_Modul_keckvale_AH/Libraries/XMCLib/inc\xmc_gpio.h **** 
 237:C:/Users/Yoshi/Documents/GitHub/Software/01_jrg/04_CANModule/CAN_Modul_keckvale_AH/Libraries/XMCLib/inc\xmc_gpio.h **** 
 238:C:/Users/Yoshi/Documents/GitHub/Software/01_jrg/04_CANModule/CAN_Modul_keckvale_AH/Libraries/XMCLib/inc\xmc_gpio.h **** /**
 239:C:/Users/Yoshi/Documents/GitHub/Software/01_jrg/04_CANModule/CAN_Modul_keckvale_AH/Libraries/XMCLib/inc\xmc_gpio.h ****  * @param  port constant pointer pointing to GPIO port, to access hardware register Pn_OMR.
 240:C:/Users/Yoshi/Documents/GitHub/Software/01_jrg/04_CANModule/CAN_Modul_keckvale_AH/Libraries/XMCLib/inc\xmc_gpio.h ****  * @param  pin	Port pin number.
 241:C:/Users/Yoshi/Documents/GitHub/Software/01_jrg/04_CANModule/CAN_Modul_keckvale_AH/Libraries/XMCLib/inc\xmc_gpio.h ****  *
 242:C:/Users/Yoshi/Documents/GitHub/Software/01_jrg/04_CANModule/CAN_Modul_keckvale_AH/Libraries/XMCLib/inc\xmc_gpio.h ****  * @return None
 243:C:/Users/Yoshi/Documents/GitHub/Software/01_jrg/04_CANModule/CAN_Modul_keckvale_AH/Libraries/XMCLib/inc\xmc_gpio.h ****  *
 244:C:/Users/Yoshi/Documents/GitHub/Software/01_jrg/04_CANModule/CAN_Modul_keckvale_AH/Libraries/XMCLib/inc\xmc_gpio.h ****  * \par<b>Description:</b><br>
 245:C:/Users/Yoshi/Documents/GitHub/Software/01_jrg/04_CANModule/CAN_Modul_keckvale_AH/Libraries/XMCLib/inc\xmc_gpio.h ****  *  Sets port pin output to high. It configures hardware registers Pn_OMR.
 246:C:/Users/Yoshi/Documents/GitHub/Software/01_jrg/04_CANModule/CAN_Modul_keckvale_AH/Libraries/XMCLib/inc\xmc_gpio.h ****  *
 247:C:/Users/Yoshi/Documents/GitHub/Software/01_jrg/04_CANModule/CAN_Modul_keckvale_AH/Libraries/XMCLib/inc\xmc_gpio.h ****  *  \par<b>Related APIs:</b><BR>
 248:C:/Users/Yoshi/Documents/GitHub/Software/01_jrg/04_CANModule/CAN_Modul_keckvale_AH/Libraries/XMCLib/inc\xmc_gpio.h ****  *  XMC_GPIO_SetOutputLow()
 249:C:/Users/Yoshi/Documents/GitHub/Software/01_jrg/04_CANModule/CAN_Modul_keckvale_AH/Libraries/XMCLib/inc\xmc_gpio.h ****  *
 250:C:/Users/Yoshi/Documents/GitHub/Software/01_jrg/04_CANModule/CAN_Modul_keckvale_AH/Libraries/XMCLib/inc\xmc_gpio.h ****  * \par<b>Note:</b><br>
 251:C:/Users/Yoshi/Documents/GitHub/Software/01_jrg/04_CANModule/CAN_Modul_keckvale_AH/Libraries/XMCLib/inc\xmc_gpio.h ****  * Prior to this api, user has to configure port pin to output mode using XMC_GPIO_SetMode().\n
 252:C:/Users/Yoshi/Documents/GitHub/Software/01_jrg/04_CANModule/CAN_Modul_keckvale_AH/Libraries/XMCLib/inc\xmc_gpio.h ****  * Register Pn_OMR is virtual and does not contain any flip-flop. A read action delivers the value 
 253:C:/Users/Yoshi/Documents/GitHub/Software/01_jrg/04_CANModule/CAN_Modul_keckvale_AH/Libraries/XMCLib/inc\xmc_gpio.h ****  *
 254:C:/Users/Yoshi/Documents/GitHub/Software/01_jrg/04_CANModule/CAN_Modul_keckvale_AH/Libraries/XMCLib/inc\xmc_gpio.h ****  */
 255:C:/Users/Yoshi/Documents/GitHub/Software/01_jrg/04_CANModule/CAN_Modul_keckvale_AH/Libraries/XMCLib/inc\xmc_gpio.h **** 
 256:C:/Users/Yoshi/Documents/GitHub/Software/01_jrg/04_CANModule/CAN_Modul_keckvale_AH/Libraries/XMCLib/inc\xmc_gpio.h **** __STATIC_INLINE void XMC_GPIO_SetOutputHigh(XMC_GPIO_PORT_t *const port, const uint8_t pin)
 257:C:/Users/Yoshi/Documents/GitHub/Software/01_jrg/04_CANModule/CAN_Modul_keckvale_AH/Libraries/XMCLib/inc\xmc_gpio.h **** {
  27              	 .loc 1 257 0
  28              	 .cfi_startproc
  29              	 
  30              	 
  31              	 
  32 0000 80B4     	 push {r7}
  33              	 .cfi_def_cfa_offset 4
  34              	 .cfi_offset 7,-4
  35 0002 83B0     	 sub sp,sp,#12
  36              	 .cfi_def_cfa_offset 16
  37 0004 00AF     	 add r7,sp,#0
  38              	 .cfi_def_cfa_register 7
  39 0006 7860     	 str r0,[r7,#4]
  40 0008 0B46     	 mov r3,r1
  41 000a FB70     	 strb r3,[r7,#3]
 258:C:/Users/Yoshi/Documents/GitHub/Software/01_jrg/04_CANModule/CAN_Modul_keckvale_AH/Libraries/XMCLib/inc\xmc_gpio.h ****   XMC_ASSERT("XMC_GPIO_SetOutputHigh: Invalid port", XMC_GPIO_CHECK_OUTPUT_PORT(port));
 259:C:/Users/Yoshi/Documents/GitHub/Software/01_jrg/04_CANModule/CAN_Modul_keckvale_AH/Libraries/XMCLib/inc\xmc_gpio.h **** 
 260:C:/Users/Yoshi/Documents/GitHub/Software/01_jrg/04_CANModule/CAN_Modul_keckvale_AH/Libraries/XMCLib/inc\xmc_gpio.h ****   port->OMR = (uint32_t)0x1U << pin;
  42              	 .loc 1 260 0
  43 000c FB78     	 ldrb r3,[r7,#3]
  44 000e 0122     	 movs r2,#1
  45 0010 9A40     	 lsls r2,r2,r3
  46 0012 7B68     	 ldr r3,[r7,#4]
  47 0014 5A60     	 str r2,[r3,#4]
 261:C:/Users/Yoshi/Documents/GitHub/Software/01_jrg/04_CANModule/CAN_Modul_keckvale_AH/Libraries/XMCLib/inc\xmc_gpio.h **** }
  48              	 .loc 1 261 0
  49 0016 0C37     	 adds r7,r7,#12
  50              	 .cfi_def_cfa_offset 4
  51 0018 BD46     	 mov sp,r7
  52              	 .cfi_def_cfa_register 13
  53              	 
  54 001a 5DF8047B 	 ldr r7,[sp],#4
  55              	 .cfi_restore 7
  56              	 .cfi_def_cfa_offset 0
  57 001e 7047     	 bx lr
  58              	 .cfi_endproc
  59              	.LFE177:
  61              	 .section .text.DIGITAL_IO_SetOutputHigh,"ax",%progbits
  62              	 .align 2
  63              	 .thumb
  64              	 .thumb_func
  66              	DIGITAL_IO_SetOutputHigh:
  67              	.LFB383:
  68              	 .file 2 "C:/Users/Yoshi/Documents/GitHub/Software/01_jrg/04_CANModule/CAN_Modul_keckvale_AH/Dave/Generated/DIGITAL_IO/digital_io.h"
   1:C:/Users/Yoshi/Documents/GitHub/Software/01_jrg/04_CANModule/CAN_Modul_keckvale_AH/Dave/Generated/DIGITAL_IO\digital_io.h **** /*
   2:C:/Users/Yoshi/Documents/GitHub/Software/01_jrg/04_CANModule/CAN_Modul_keckvale_AH/Dave/Generated/DIGITAL_IO\digital_io.h ****  *
   3:C:/Users/Yoshi/Documents/GitHub/Software/01_jrg/04_CANModule/CAN_Modul_keckvale_AH/Dave/Generated/DIGITAL_IO\digital_io.h ****  * @file digital_io.h
   4:C:/Users/Yoshi/Documents/GitHub/Software/01_jrg/04_CANModule/CAN_Modul_keckvale_AH/Dave/Generated/DIGITAL_IO\digital_io.h ****  * @date 2016-07-08
   5:C:/Users/Yoshi/Documents/GitHub/Software/01_jrg/04_CANModule/CAN_Modul_keckvale_AH/Dave/Generated/DIGITAL_IO\digital_io.h ****  *
   6:C:/Users/Yoshi/Documents/GitHub/Software/01_jrg/04_CANModule/CAN_Modul_keckvale_AH/Dave/Generated/DIGITAL_IO\digital_io.h ****  * NOTE:
   7:C:/Users/Yoshi/Documents/GitHub/Software/01_jrg/04_CANModule/CAN_Modul_keckvale_AH/Dave/Generated/DIGITAL_IO\digital_io.h ****  * This file is generated by DAVE. Any manual modification done to this file will be lost when the 
   8:C:/Users/Yoshi/Documents/GitHub/Software/01_jrg/04_CANModule/CAN_Modul_keckvale_AH/Dave/Generated/DIGITAL_IO\digital_io.h ****  *
   9:C:/Users/Yoshi/Documents/GitHub/Software/01_jrg/04_CANModule/CAN_Modul_keckvale_AH/Dave/Generated/DIGITAL_IO\digital_io.h ****  * @cond
  10:C:/Users/Yoshi/Documents/GitHub/Software/01_jrg/04_CANModule/CAN_Modul_keckvale_AH/Dave/Generated/DIGITAL_IO\digital_io.h ****  **************************************************************************************************
  11:C:/Users/Yoshi/Documents/GitHub/Software/01_jrg/04_CANModule/CAN_Modul_keckvale_AH/Dave/Generated/DIGITAL_IO\digital_io.h ****  * DIGITAL_IO v4.0.16 - The DIGITAL_IO APP is used to configure a port pin as digital Input/Output.
  12:C:/Users/Yoshi/Documents/GitHub/Software/01_jrg/04_CANModule/CAN_Modul_keckvale_AH/Dave/Generated/DIGITAL_IO\digital_io.h ****  *
  13:C:/Users/Yoshi/Documents/GitHub/Software/01_jrg/04_CANModule/CAN_Modul_keckvale_AH/Dave/Generated/DIGITAL_IO\digital_io.h ****  * Copyright (c) 2015-2016, Infineon Technologies AG
  14:C:/Users/Yoshi/Documents/GitHub/Software/01_jrg/04_CANModule/CAN_Modul_keckvale_AH/Dave/Generated/DIGITAL_IO\digital_io.h ****  * All rights reserved.
  15:C:/Users/Yoshi/Documents/GitHub/Software/01_jrg/04_CANModule/CAN_Modul_keckvale_AH/Dave/Generated/DIGITAL_IO\digital_io.h ****  *
  16:C:/Users/Yoshi/Documents/GitHub/Software/01_jrg/04_CANModule/CAN_Modul_keckvale_AH/Dave/Generated/DIGITAL_IO\digital_io.h ****  * Redistribution and use in source and binary forms, with or without modification,are permitted pr
  17:C:/Users/Yoshi/Documents/GitHub/Software/01_jrg/04_CANModule/CAN_Modul_keckvale_AH/Dave/Generated/DIGITAL_IO\digital_io.h ****  * following conditions are met:
  18:C:/Users/Yoshi/Documents/GitHub/Software/01_jrg/04_CANModule/CAN_Modul_keckvale_AH/Dave/Generated/DIGITAL_IO\digital_io.h ****  *
  19:C:/Users/Yoshi/Documents/GitHub/Software/01_jrg/04_CANModule/CAN_Modul_keckvale_AH/Dave/Generated/DIGITAL_IO\digital_io.h ****  *   Redistributions of source code must retain the above copyright notice, this list of conditions
  20:C:/Users/Yoshi/Documents/GitHub/Software/01_jrg/04_CANModule/CAN_Modul_keckvale_AH/Dave/Generated/DIGITAL_IO\digital_io.h ****  *   disclaimer.
  21:C:/Users/Yoshi/Documents/GitHub/Software/01_jrg/04_CANModule/CAN_Modul_keckvale_AH/Dave/Generated/DIGITAL_IO\digital_io.h ****  *
  22:C:/Users/Yoshi/Documents/GitHub/Software/01_jrg/04_CANModule/CAN_Modul_keckvale_AH/Dave/Generated/DIGITAL_IO\digital_io.h ****  *   Redistributions in binary form must reproduce the above copyright notice, this list of conditi
  23:C:/Users/Yoshi/Documents/GitHub/Software/01_jrg/04_CANModule/CAN_Modul_keckvale_AH/Dave/Generated/DIGITAL_IO\digital_io.h ****  *   following disclaimer in the documentation and/or other materials provided with the distributio
  24:C:/Users/Yoshi/Documents/GitHub/Software/01_jrg/04_CANModule/CAN_Modul_keckvale_AH/Dave/Generated/DIGITAL_IO\digital_io.h ****  *
  25:C:/Users/Yoshi/Documents/GitHub/Software/01_jrg/04_CANModule/CAN_Modul_keckvale_AH/Dave/Generated/DIGITAL_IO\digital_io.h ****  *   Neither the name of the copyright holders nor the names of its contributors may be used to end
  26:C:/Users/Yoshi/Documents/GitHub/Software/01_jrg/04_CANModule/CAN_Modul_keckvale_AH/Dave/Generated/DIGITAL_IO\digital_io.h ****  *   products derived from this software without specific prior written permission.
  27:C:/Users/Yoshi/Documents/GitHub/Software/01_jrg/04_CANModule/CAN_Modul_keckvale_AH/Dave/Generated/DIGITAL_IO\digital_io.h ****  *
  28:C:/Users/Yoshi/Documents/GitHub/Software/01_jrg/04_CANModule/CAN_Modul_keckvale_AH/Dave/Generated/DIGITAL_IO\digital_io.h ****  * THIS SOFTWARE IS PROVIDED BY THE COPYRIGHT HOLDERS AND CONTRIBUTORS "AS IS" AND ANY EXPRESS OR I
  29:C:/Users/Yoshi/Documents/GitHub/Software/01_jrg/04_CANModule/CAN_Modul_keckvale_AH/Dave/Generated/DIGITAL_IO\digital_io.h ****  * INCLUDING, BUT NOT LIMITED TO, THE IMPLIED WARRANTIES OF MERCHANTABILITY AND FITNESS FOR A PARTI
  30:C:/Users/Yoshi/Documents/GitHub/Software/01_jrg/04_CANModule/CAN_Modul_keckvale_AH/Dave/Generated/DIGITAL_IO\digital_io.h ****  * DISCLAIMED. IN NO EVENT SHALL THE COPYRIGHT HOLDER OR CONTRIBUTORS BE LIABLE  FOR ANY DIRECT, IN
  31:C:/Users/Yoshi/Documents/GitHub/Software/01_jrg/04_CANModule/CAN_Modul_keckvale_AH/Dave/Generated/DIGITAL_IO\digital_io.h ****  * SPECIAL, EXEMPLARY, OR CONSEQUENTIAL DAMAGES (INCLUDING, BUT NOT LIMITED TO, PROCUREMENT OF SUBS
  32:C:/Users/Yoshi/Documents/GitHub/Software/01_jrg/04_CANModule/CAN_Modul_keckvale_AH/Dave/Generated/DIGITAL_IO\digital_io.h ****  * SERVICES; LOSS OF USE, DATA, OR PROFITS; OR BUSINESS INTERRUPTION) HOWEVER CAUSED AND ON ANY THE
  33:C:/Users/Yoshi/Documents/GitHub/Software/01_jrg/04_CANModule/CAN_Modul_keckvale_AH/Dave/Generated/DIGITAL_IO\digital_io.h ****  * WHETHER IN CONTRACT, STRICT LIABILITY,OR TORT (INCLUDING NEGLIGENCE OR OTHERWISE) ARISING IN ANY
  34:C:/Users/Yoshi/Documents/GitHub/Software/01_jrg/04_CANModule/CAN_Modul_keckvale_AH/Dave/Generated/DIGITAL_IO\digital_io.h ****  * USE OF THIS SOFTWARE, EVEN IF ADVISED OF THE POSSIBILITY OF SUCH DAMAGE.
  35:C:/Users/Yoshi/Documents/GitHub/Software/01_jrg/04_CANModule/CAN_Modul_keckvale_AH/Dave/Generated/DIGITAL_IO\digital_io.h ****  *
  36:C:/Users/Yoshi/Documents/GitHub/Software/01_jrg/04_CANModule/CAN_Modul_keckvale_AH/Dave/Generated/DIGITAL_IO\digital_io.h ****  * To improve the quality of the software, users are encouraged to share modifications, enhancement
  37:C:/Users/Yoshi/Documents/GitHub/Software/01_jrg/04_CANModule/CAN_Modul_keckvale_AH/Dave/Generated/DIGITAL_IO\digital_io.h ****  * with Infineon Technologies AG (dave@infineon.com).
  38:C:/Users/Yoshi/Documents/GitHub/Software/01_jrg/04_CANModule/CAN_Modul_keckvale_AH/Dave/Generated/DIGITAL_IO\digital_io.h ****  **************************************************************************************************
  39:C:/Users/Yoshi/Documents/GitHub/Software/01_jrg/04_CANModule/CAN_Modul_keckvale_AH/Dave/Generated/DIGITAL_IO\digital_io.h ****  *
  40:C:/Users/Yoshi/Documents/GitHub/Software/01_jrg/04_CANModule/CAN_Modul_keckvale_AH/Dave/Generated/DIGITAL_IO\digital_io.h ****  * Change History
  41:C:/Users/Yoshi/Documents/GitHub/Software/01_jrg/04_CANModule/CAN_Modul_keckvale_AH/Dave/Generated/DIGITAL_IO\digital_io.h ****  * --------------
  42:C:/Users/Yoshi/Documents/GitHub/Software/01_jrg/04_CANModule/CAN_Modul_keckvale_AH/Dave/Generated/DIGITAL_IO\digital_io.h ****  *
  43:C:/Users/Yoshi/Documents/GitHub/Software/01_jrg/04_CANModule/CAN_Modul_keckvale_AH/Dave/Generated/DIGITAL_IO\digital_io.h ****  * 2015-02-16
  44:C:/Users/Yoshi/Documents/GitHub/Software/01_jrg/04_CANModule/CAN_Modul_keckvale_AH/Dave/Generated/DIGITAL_IO\digital_io.h ****  *     - Initial version
  45:C:/Users/Yoshi/Documents/GitHub/Software/01_jrg/04_CANModule/CAN_Modul_keckvale_AH/Dave/Generated/DIGITAL_IO\digital_io.h ****  *
  46:C:/Users/Yoshi/Documents/GitHub/Software/01_jrg/04_CANModule/CAN_Modul_keckvale_AH/Dave/Generated/DIGITAL_IO\digital_io.h ****  * 2015-04-22
  47:C:/Users/Yoshi/Documents/GitHub/Software/01_jrg/04_CANModule/CAN_Modul_keckvale_AH/Dave/Generated/DIGITAL_IO\digital_io.h ****  *     - XMC_ASSERT is added in static inline functions.<br>
  48:C:/Users/Yoshi/Documents/GitHub/Software/01_jrg/04_CANModule/CAN_Modul_keckvale_AH/Dave/Generated/DIGITAL_IO\digital_io.h ****  *
  49:C:/Users/Yoshi/Documents/GitHub/Software/01_jrg/04_CANModule/CAN_Modul_keckvale_AH/Dave/Generated/DIGITAL_IO\digital_io.h ****  * 2015-06-20
  50:C:/Users/Yoshi/Documents/GitHub/Software/01_jrg/04_CANModule/CAN_Modul_keckvale_AH/Dave/Generated/DIGITAL_IO\digital_io.h ****  *     - Version check added for XMCLib dependency.<br>
  51:C:/Users/Yoshi/Documents/GitHub/Software/01_jrg/04_CANModule/CAN_Modul_keckvale_AH/Dave/Generated/DIGITAL_IO\digital_io.h ****  *
  52:C:/Users/Yoshi/Documents/GitHub/Software/01_jrg/04_CANModule/CAN_Modul_keckvale_AH/Dave/Generated/DIGITAL_IO\digital_io.h ****  * 2015-12-22
  53:C:/Users/Yoshi/Documents/GitHub/Software/01_jrg/04_CANModule/CAN_Modul_keckvale_AH/Dave/Generated/DIGITAL_IO\digital_io.h ****  *     - Added hardware controlled IO feature.
  54:C:/Users/Yoshi/Documents/GitHub/Software/01_jrg/04_CANModule/CAN_Modul_keckvale_AH/Dave/Generated/DIGITAL_IO\digital_io.h ****  * 2016-07-08:
  55:C:/Users/Yoshi/Documents/GitHub/Software/01_jrg/04_CANModule/CAN_Modul_keckvale_AH/Dave/Generated/DIGITAL_IO\digital_io.h ****  *     - Fixed incorrect case for an included header.<br>
  56:C:/Users/Yoshi/Documents/GitHub/Software/01_jrg/04_CANModule/CAN_Modul_keckvale_AH/Dave/Generated/DIGITAL_IO\digital_io.h ****  *
  57:C:/Users/Yoshi/Documents/GitHub/Software/01_jrg/04_CANModule/CAN_Modul_keckvale_AH/Dave/Generated/DIGITAL_IO\digital_io.h ****  * @endcond
  58:C:/Users/Yoshi/Documents/GitHub/Software/01_jrg/04_CANModule/CAN_Modul_keckvale_AH/Dave/Generated/DIGITAL_IO\digital_io.h ****  *
  59:C:/Users/Yoshi/Documents/GitHub/Software/01_jrg/04_CANModule/CAN_Modul_keckvale_AH/Dave/Generated/DIGITAL_IO\digital_io.h ****  */
  60:C:/Users/Yoshi/Documents/GitHub/Software/01_jrg/04_CANModule/CAN_Modul_keckvale_AH/Dave/Generated/DIGITAL_IO\digital_io.h **** 
  61:C:/Users/Yoshi/Documents/GitHub/Software/01_jrg/04_CANModule/CAN_Modul_keckvale_AH/Dave/Generated/DIGITAL_IO\digital_io.h **** /**************************************************************************************************
  62:C:/Users/Yoshi/Documents/GitHub/Software/01_jrg/04_CANModule/CAN_Modul_keckvale_AH/Dave/Generated/DIGITAL_IO\digital_io.h ****  * HEADER FILES
  63:C:/Users/Yoshi/Documents/GitHub/Software/01_jrg/04_CANModule/CAN_Modul_keckvale_AH/Dave/Generated/DIGITAL_IO\digital_io.h ****  **************************************************************************************************
  64:C:/Users/Yoshi/Documents/GitHub/Software/01_jrg/04_CANModule/CAN_Modul_keckvale_AH/Dave/Generated/DIGITAL_IO\digital_io.h **** 
  65:C:/Users/Yoshi/Documents/GitHub/Software/01_jrg/04_CANModule/CAN_Modul_keckvale_AH/Dave/Generated/DIGITAL_IO\digital_io.h **** #ifndef DIGITAL_IO_H
  66:C:/Users/Yoshi/Documents/GitHub/Software/01_jrg/04_CANModule/CAN_Modul_keckvale_AH/Dave/Generated/DIGITAL_IO\digital_io.h **** #define DIGITAL_IO_H
  67:C:/Users/Yoshi/Documents/GitHub/Software/01_jrg/04_CANModule/CAN_Modul_keckvale_AH/Dave/Generated/DIGITAL_IO\digital_io.h **** 
  68:C:/Users/Yoshi/Documents/GitHub/Software/01_jrg/04_CANModule/CAN_Modul_keckvale_AH/Dave/Generated/DIGITAL_IO\digital_io.h **** #include <xmc_gpio.h>
  69:C:/Users/Yoshi/Documents/GitHub/Software/01_jrg/04_CANModule/CAN_Modul_keckvale_AH/Dave/Generated/DIGITAL_IO\digital_io.h **** #include <DAVE_Common.h>
  70:C:/Users/Yoshi/Documents/GitHub/Software/01_jrg/04_CANModule/CAN_Modul_keckvale_AH/Dave/Generated/DIGITAL_IO\digital_io.h **** #include "digital_io_conf.h"
  71:C:/Users/Yoshi/Documents/GitHub/Software/01_jrg/04_CANModule/CAN_Modul_keckvale_AH/Dave/Generated/DIGITAL_IO\digital_io.h **** 
  72:C:/Users/Yoshi/Documents/GitHub/Software/01_jrg/04_CANModule/CAN_Modul_keckvale_AH/Dave/Generated/DIGITAL_IO\digital_io.h **** /**************************************************************************************************
  73:C:/Users/Yoshi/Documents/GitHub/Software/01_jrg/04_CANModule/CAN_Modul_keckvale_AH/Dave/Generated/DIGITAL_IO\digital_io.h ****  * MACROS
  74:C:/Users/Yoshi/Documents/GitHub/Software/01_jrg/04_CANModule/CAN_Modul_keckvale_AH/Dave/Generated/DIGITAL_IO\digital_io.h ****  **************************************************************************************************
  75:C:/Users/Yoshi/Documents/GitHub/Software/01_jrg/04_CANModule/CAN_Modul_keckvale_AH/Dave/Generated/DIGITAL_IO\digital_io.h **** #if (!((XMC_LIB_MAJOR_VERSION == 2U) && \
  76:C:/Users/Yoshi/Documents/GitHub/Software/01_jrg/04_CANModule/CAN_Modul_keckvale_AH/Dave/Generated/DIGITAL_IO\digital_io.h ****        (XMC_LIB_MINOR_VERSION >= 0U) && \
  77:C:/Users/Yoshi/Documents/GitHub/Software/01_jrg/04_CANModule/CAN_Modul_keckvale_AH/Dave/Generated/DIGITAL_IO\digital_io.h ****        (XMC_LIB_PATCH_VERSION >= 0U)))
  78:C:/Users/Yoshi/Documents/GitHub/Software/01_jrg/04_CANModule/CAN_Modul_keckvale_AH/Dave/Generated/DIGITAL_IO\digital_io.h **** #error "DIGITAL_IO requires XMC Peripheral Library v2.0.0 or higher"
  79:C:/Users/Yoshi/Documents/GitHub/Software/01_jrg/04_CANModule/CAN_Modul_keckvale_AH/Dave/Generated/DIGITAL_IO\digital_io.h **** #endif
  80:C:/Users/Yoshi/Documents/GitHub/Software/01_jrg/04_CANModule/CAN_Modul_keckvale_AH/Dave/Generated/DIGITAL_IO\digital_io.h **** 
  81:C:/Users/Yoshi/Documents/GitHub/Software/01_jrg/04_CANModule/CAN_Modul_keckvale_AH/Dave/Generated/DIGITAL_IO\digital_io.h ****  /*************************************************************************************************
  82:C:/Users/Yoshi/Documents/GitHub/Software/01_jrg/04_CANModule/CAN_Modul_keckvale_AH/Dave/Generated/DIGITAL_IO\digital_io.h ****  * ENUMS
  83:C:/Users/Yoshi/Documents/GitHub/Software/01_jrg/04_CANModule/CAN_Modul_keckvale_AH/Dave/Generated/DIGITAL_IO\digital_io.h ****  **************************************************************************************************
  84:C:/Users/Yoshi/Documents/GitHub/Software/01_jrg/04_CANModule/CAN_Modul_keckvale_AH/Dave/Generated/DIGITAL_IO\digital_io.h **** 
  85:C:/Users/Yoshi/Documents/GitHub/Software/01_jrg/04_CANModule/CAN_Modul_keckvale_AH/Dave/Generated/DIGITAL_IO\digital_io.h **** /**
  86:C:/Users/Yoshi/Documents/GitHub/Software/01_jrg/04_CANModule/CAN_Modul_keckvale_AH/Dave/Generated/DIGITAL_IO\digital_io.h **** * @ingroup DIGITAL_IO_enumerations
  87:C:/Users/Yoshi/Documents/GitHub/Software/01_jrg/04_CANModule/CAN_Modul_keckvale_AH/Dave/Generated/DIGITAL_IO\digital_io.h **** * @{
  88:C:/Users/Yoshi/Documents/GitHub/Software/01_jrg/04_CANModule/CAN_Modul_keckvale_AH/Dave/Generated/DIGITAL_IO\digital_io.h **** */
  89:C:/Users/Yoshi/Documents/GitHub/Software/01_jrg/04_CANModule/CAN_Modul_keckvale_AH/Dave/Generated/DIGITAL_IO\digital_io.h **** 
  90:C:/Users/Yoshi/Documents/GitHub/Software/01_jrg/04_CANModule/CAN_Modul_keckvale_AH/Dave/Generated/DIGITAL_IO\digital_io.h **** /**
  91:C:/Users/Yoshi/Documents/GitHub/Software/01_jrg/04_CANModule/CAN_Modul_keckvale_AH/Dave/Generated/DIGITAL_IO\digital_io.h **** * @brief Initialization status of DIGITAL_IO APP.
  92:C:/Users/Yoshi/Documents/GitHub/Software/01_jrg/04_CANModule/CAN_Modul_keckvale_AH/Dave/Generated/DIGITAL_IO\digital_io.h **** */
  93:C:/Users/Yoshi/Documents/GitHub/Software/01_jrg/04_CANModule/CAN_Modul_keckvale_AH/Dave/Generated/DIGITAL_IO\digital_io.h **** typedef enum DIGITAL_IO_STATUS
  94:C:/Users/Yoshi/Documents/GitHub/Software/01_jrg/04_CANModule/CAN_Modul_keckvale_AH/Dave/Generated/DIGITAL_IO\digital_io.h **** {
  95:C:/Users/Yoshi/Documents/GitHub/Software/01_jrg/04_CANModule/CAN_Modul_keckvale_AH/Dave/Generated/DIGITAL_IO\digital_io.h ****   DIGITAL_IO_STATUS_OK = 0U,/**< 0=Status OK */
  96:C:/Users/Yoshi/Documents/GitHub/Software/01_jrg/04_CANModule/CAN_Modul_keckvale_AH/Dave/Generated/DIGITAL_IO\digital_io.h ****   DIGITAL_IO_STATUS_FAILURE = 1U/**< 1=Status Failed */
  97:C:/Users/Yoshi/Documents/GitHub/Software/01_jrg/04_CANModule/CAN_Modul_keckvale_AH/Dave/Generated/DIGITAL_IO\digital_io.h **** } DIGITAL_IO_STATUS_t;
  98:C:/Users/Yoshi/Documents/GitHub/Software/01_jrg/04_CANModule/CAN_Modul_keckvale_AH/Dave/Generated/DIGITAL_IO\digital_io.h **** 
  99:C:/Users/Yoshi/Documents/GitHub/Software/01_jrg/04_CANModule/CAN_Modul_keckvale_AH/Dave/Generated/DIGITAL_IO\digital_io.h **** /**
 100:C:/Users/Yoshi/Documents/GitHub/Software/01_jrg/04_CANModule/CAN_Modul_keckvale_AH/Dave/Generated/DIGITAL_IO\digital_io.h **** * @}
 101:C:/Users/Yoshi/Documents/GitHub/Software/01_jrg/04_CANModule/CAN_Modul_keckvale_AH/Dave/Generated/DIGITAL_IO\digital_io.h **** */
 102:C:/Users/Yoshi/Documents/GitHub/Software/01_jrg/04_CANModule/CAN_Modul_keckvale_AH/Dave/Generated/DIGITAL_IO\digital_io.h **** 
 103:C:/Users/Yoshi/Documents/GitHub/Software/01_jrg/04_CANModule/CAN_Modul_keckvale_AH/Dave/Generated/DIGITAL_IO\digital_io.h **** /**************************************************************************************************
 104:C:/Users/Yoshi/Documents/GitHub/Software/01_jrg/04_CANModule/CAN_Modul_keckvale_AH/Dave/Generated/DIGITAL_IO\digital_io.h ****  * DATA STRUCTURES
 105:C:/Users/Yoshi/Documents/GitHub/Software/01_jrg/04_CANModule/CAN_Modul_keckvale_AH/Dave/Generated/DIGITAL_IO\digital_io.h ****  **************************************************************************************************
 106:C:/Users/Yoshi/Documents/GitHub/Software/01_jrg/04_CANModule/CAN_Modul_keckvale_AH/Dave/Generated/DIGITAL_IO\digital_io.h **** /**
 107:C:/Users/Yoshi/Documents/GitHub/Software/01_jrg/04_CANModule/CAN_Modul_keckvale_AH/Dave/Generated/DIGITAL_IO\digital_io.h **** * @ingroup DIGITAL_IO_datastructures
 108:C:/Users/Yoshi/Documents/GitHub/Software/01_jrg/04_CANModule/CAN_Modul_keckvale_AH/Dave/Generated/DIGITAL_IO\digital_io.h **** * @{
 109:C:/Users/Yoshi/Documents/GitHub/Software/01_jrg/04_CANModule/CAN_Modul_keckvale_AH/Dave/Generated/DIGITAL_IO\digital_io.h **** */
 110:C:/Users/Yoshi/Documents/GitHub/Software/01_jrg/04_CANModule/CAN_Modul_keckvale_AH/Dave/Generated/DIGITAL_IO\digital_io.h **** 
 111:C:/Users/Yoshi/Documents/GitHub/Software/01_jrg/04_CANModule/CAN_Modul_keckvale_AH/Dave/Generated/DIGITAL_IO\digital_io.h **** /**
 112:C:/Users/Yoshi/Documents/GitHub/Software/01_jrg/04_CANModule/CAN_Modul_keckvale_AH/Dave/Generated/DIGITAL_IO\digital_io.h **** * @brief Initialization data structure of DIGITAL_IO APP
 113:C:/Users/Yoshi/Documents/GitHub/Software/01_jrg/04_CANModule/CAN_Modul_keckvale_AH/Dave/Generated/DIGITAL_IO\digital_io.h **** */
 114:C:/Users/Yoshi/Documents/GitHub/Software/01_jrg/04_CANModule/CAN_Modul_keckvale_AH/Dave/Generated/DIGITAL_IO\digital_io.h **** typedef struct DIGITAL_IO
 115:C:/Users/Yoshi/Documents/GitHub/Software/01_jrg/04_CANModule/CAN_Modul_keckvale_AH/Dave/Generated/DIGITAL_IO\digital_io.h **** {
 116:C:/Users/Yoshi/Documents/GitHub/Software/01_jrg/04_CANModule/CAN_Modul_keckvale_AH/Dave/Generated/DIGITAL_IO\digital_io.h ****   XMC_GPIO_PORT_t *const gpio_port;             /**< port number */
 117:C:/Users/Yoshi/Documents/GitHub/Software/01_jrg/04_CANModule/CAN_Modul_keckvale_AH/Dave/Generated/DIGITAL_IO\digital_io.h ****   const XMC_GPIO_CONFIG_t gpio_config;          /**< mode, initial output level and pad driver stre
 118:C:/Users/Yoshi/Documents/GitHub/Software/01_jrg/04_CANModule/CAN_Modul_keckvale_AH/Dave/Generated/DIGITAL_IO\digital_io.h ****   const uint8_t gpio_pin;                       /**< pin number */
 119:C:/Users/Yoshi/Documents/GitHub/Software/01_jrg/04_CANModule/CAN_Modul_keckvale_AH/Dave/Generated/DIGITAL_IO\digital_io.h ****   const XMC_GPIO_HWCTRL_t hwctrl;               /**< Hardware port control */
 120:C:/Users/Yoshi/Documents/GitHub/Software/01_jrg/04_CANModule/CAN_Modul_keckvale_AH/Dave/Generated/DIGITAL_IO\digital_io.h **** } DIGITAL_IO_t;
 121:C:/Users/Yoshi/Documents/GitHub/Software/01_jrg/04_CANModule/CAN_Modul_keckvale_AH/Dave/Generated/DIGITAL_IO\digital_io.h **** 
 122:C:/Users/Yoshi/Documents/GitHub/Software/01_jrg/04_CANModule/CAN_Modul_keckvale_AH/Dave/Generated/DIGITAL_IO\digital_io.h **** 
 123:C:/Users/Yoshi/Documents/GitHub/Software/01_jrg/04_CANModule/CAN_Modul_keckvale_AH/Dave/Generated/DIGITAL_IO\digital_io.h **** /**
 124:C:/Users/Yoshi/Documents/GitHub/Software/01_jrg/04_CANModule/CAN_Modul_keckvale_AH/Dave/Generated/DIGITAL_IO\digital_io.h **** * @}
 125:C:/Users/Yoshi/Documents/GitHub/Software/01_jrg/04_CANModule/CAN_Modul_keckvale_AH/Dave/Generated/DIGITAL_IO\digital_io.h **** */
 126:C:/Users/Yoshi/Documents/GitHub/Software/01_jrg/04_CANModule/CAN_Modul_keckvale_AH/Dave/Generated/DIGITAL_IO\digital_io.h **** 
 127:C:/Users/Yoshi/Documents/GitHub/Software/01_jrg/04_CANModule/CAN_Modul_keckvale_AH/Dave/Generated/DIGITAL_IO\digital_io.h **** 
 128:C:/Users/Yoshi/Documents/GitHub/Software/01_jrg/04_CANModule/CAN_Modul_keckvale_AH/Dave/Generated/DIGITAL_IO\digital_io.h **** /**************************************************************************************************
 129:C:/Users/Yoshi/Documents/GitHub/Software/01_jrg/04_CANModule/CAN_Modul_keckvale_AH/Dave/Generated/DIGITAL_IO\digital_io.h ****  * API Prototypes
 130:C:/Users/Yoshi/Documents/GitHub/Software/01_jrg/04_CANModule/CAN_Modul_keckvale_AH/Dave/Generated/DIGITAL_IO\digital_io.h ****  **************************************************************************************************
 131:C:/Users/Yoshi/Documents/GitHub/Software/01_jrg/04_CANModule/CAN_Modul_keckvale_AH/Dave/Generated/DIGITAL_IO\digital_io.h **** 
 132:C:/Users/Yoshi/Documents/GitHub/Software/01_jrg/04_CANModule/CAN_Modul_keckvale_AH/Dave/Generated/DIGITAL_IO\digital_io.h **** 
 133:C:/Users/Yoshi/Documents/GitHub/Software/01_jrg/04_CANModule/CAN_Modul_keckvale_AH/Dave/Generated/DIGITAL_IO\digital_io.h **** #ifdef __cplusplus
 134:C:/Users/Yoshi/Documents/GitHub/Software/01_jrg/04_CANModule/CAN_Modul_keckvale_AH/Dave/Generated/DIGITAL_IO\digital_io.h **** extern "C" {
 135:C:/Users/Yoshi/Documents/GitHub/Software/01_jrg/04_CANModule/CAN_Modul_keckvale_AH/Dave/Generated/DIGITAL_IO\digital_io.h **** #endif
 136:C:/Users/Yoshi/Documents/GitHub/Software/01_jrg/04_CANModule/CAN_Modul_keckvale_AH/Dave/Generated/DIGITAL_IO\digital_io.h **** 
 137:C:/Users/Yoshi/Documents/GitHub/Software/01_jrg/04_CANModule/CAN_Modul_keckvale_AH/Dave/Generated/DIGITAL_IO\digital_io.h **** /**
 138:C:/Users/Yoshi/Documents/GitHub/Software/01_jrg/04_CANModule/CAN_Modul_keckvale_AH/Dave/Generated/DIGITAL_IO\digital_io.h **** * @ingroup DIGITAL_IO_apidoc
 139:C:/Users/Yoshi/Documents/GitHub/Software/01_jrg/04_CANModule/CAN_Modul_keckvale_AH/Dave/Generated/DIGITAL_IO\digital_io.h **** * @{
 140:C:/Users/Yoshi/Documents/GitHub/Software/01_jrg/04_CANModule/CAN_Modul_keckvale_AH/Dave/Generated/DIGITAL_IO\digital_io.h **** */
 141:C:/Users/Yoshi/Documents/GitHub/Software/01_jrg/04_CANModule/CAN_Modul_keckvale_AH/Dave/Generated/DIGITAL_IO\digital_io.h **** 
 142:C:/Users/Yoshi/Documents/GitHub/Software/01_jrg/04_CANModule/CAN_Modul_keckvale_AH/Dave/Generated/DIGITAL_IO\digital_io.h **** 
 143:C:/Users/Yoshi/Documents/GitHub/Software/01_jrg/04_CANModule/CAN_Modul_keckvale_AH/Dave/Generated/DIGITAL_IO\digital_io.h **** 
 144:C:/Users/Yoshi/Documents/GitHub/Software/01_jrg/04_CANModule/CAN_Modul_keckvale_AH/Dave/Generated/DIGITAL_IO\digital_io.h **** /**
 145:C:/Users/Yoshi/Documents/GitHub/Software/01_jrg/04_CANModule/CAN_Modul_keckvale_AH/Dave/Generated/DIGITAL_IO\digital_io.h **** * @brief Get DIGITAL_IO APP version
 146:C:/Users/Yoshi/Documents/GitHub/Software/01_jrg/04_CANModule/CAN_Modul_keckvale_AH/Dave/Generated/DIGITAL_IO\digital_io.h **** * @return DAVE_APP_VERSION_t APP version information (major, minor and patch number)
 147:C:/Users/Yoshi/Documents/GitHub/Software/01_jrg/04_CANModule/CAN_Modul_keckvale_AH/Dave/Generated/DIGITAL_IO\digital_io.h **** *
 148:C:/Users/Yoshi/Documents/GitHub/Software/01_jrg/04_CANModule/CAN_Modul_keckvale_AH/Dave/Generated/DIGITAL_IO\digital_io.h **** * \par<b>Description: </b><br>
 149:C:/Users/Yoshi/Documents/GitHub/Software/01_jrg/04_CANModule/CAN_Modul_keckvale_AH/Dave/Generated/DIGITAL_IO\digital_io.h **** * The function can be used to check application software compatibility with a
 150:C:/Users/Yoshi/Documents/GitHub/Software/01_jrg/04_CANModule/CAN_Modul_keckvale_AH/Dave/Generated/DIGITAL_IO\digital_io.h **** * specific version of the APP.
 151:C:/Users/Yoshi/Documents/GitHub/Software/01_jrg/04_CANModule/CAN_Modul_keckvale_AH/Dave/Generated/DIGITAL_IO\digital_io.h **** *
 152:C:/Users/Yoshi/Documents/GitHub/Software/01_jrg/04_CANModule/CAN_Modul_keckvale_AH/Dave/Generated/DIGITAL_IO\digital_io.h **** * Example Usage:
 153:C:/Users/Yoshi/Documents/GitHub/Software/01_jrg/04_CANModule/CAN_Modul_keckvale_AH/Dave/Generated/DIGITAL_IO\digital_io.h **** *
 154:C:/Users/Yoshi/Documents/GitHub/Software/01_jrg/04_CANModule/CAN_Modul_keckvale_AH/Dave/Generated/DIGITAL_IO\digital_io.h **** * @code
 155:C:/Users/Yoshi/Documents/GitHub/Software/01_jrg/04_CANModule/CAN_Modul_keckvale_AH/Dave/Generated/DIGITAL_IO\digital_io.h **** * #include <DAVE.h>
 156:C:/Users/Yoshi/Documents/GitHub/Software/01_jrg/04_CANModule/CAN_Modul_keckvale_AH/Dave/Generated/DIGITAL_IO\digital_io.h **** *
 157:C:/Users/Yoshi/Documents/GitHub/Software/01_jrg/04_CANModule/CAN_Modul_keckvale_AH/Dave/Generated/DIGITAL_IO\digital_io.h **** * int main(void)
 158:C:/Users/Yoshi/Documents/GitHub/Software/01_jrg/04_CANModule/CAN_Modul_keckvale_AH/Dave/Generated/DIGITAL_IO\digital_io.h **** * {
 159:C:/Users/Yoshi/Documents/GitHub/Software/01_jrg/04_CANModule/CAN_Modul_keckvale_AH/Dave/Generated/DIGITAL_IO\digital_io.h **** *   DAVE_STATUS_t init_status;
 160:C:/Users/Yoshi/Documents/GitHub/Software/01_jrg/04_CANModule/CAN_Modul_keckvale_AH/Dave/Generated/DIGITAL_IO\digital_io.h **** *   DAVE_APP_VERSION_t version;
 161:C:/Users/Yoshi/Documents/GitHub/Software/01_jrg/04_CANModule/CAN_Modul_keckvale_AH/Dave/Generated/DIGITAL_IO\digital_io.h **** *
 162:C:/Users/Yoshi/Documents/GitHub/Software/01_jrg/04_CANModule/CAN_Modul_keckvale_AH/Dave/Generated/DIGITAL_IO\digital_io.h **** *   // Initialize DIGITAL_IO APP:
 163:C:/Users/Yoshi/Documents/GitHub/Software/01_jrg/04_CANModule/CAN_Modul_keckvale_AH/Dave/Generated/DIGITAL_IO\digital_io.h **** *   // DIGITAL_IO_Init() is called from within DAVE_Init().
 164:C:/Users/Yoshi/Documents/GitHub/Software/01_jrg/04_CANModule/CAN_Modul_keckvale_AH/Dave/Generated/DIGITAL_IO\digital_io.h **** *   init_status = DAVE_Init();
 165:C:/Users/Yoshi/Documents/GitHub/Software/01_jrg/04_CANModule/CAN_Modul_keckvale_AH/Dave/Generated/DIGITAL_IO\digital_io.h **** *   if(init_status == DAVE_STATUS_SUCCESS)
 166:C:/Users/Yoshi/Documents/GitHub/Software/01_jrg/04_CANModule/CAN_Modul_keckvale_AH/Dave/Generated/DIGITAL_IO\digital_io.h **** *   {
 167:C:/Users/Yoshi/Documents/GitHub/Software/01_jrg/04_CANModule/CAN_Modul_keckvale_AH/Dave/Generated/DIGITAL_IO\digital_io.h **** *     version = DIGITAL_IO_GetAppVersion();
 168:C:/Users/Yoshi/Documents/GitHub/Software/01_jrg/04_CANModule/CAN_Modul_keckvale_AH/Dave/Generated/DIGITAL_IO\digital_io.h **** *     if (version.major != 4U) {
 169:C:/Users/Yoshi/Documents/GitHub/Software/01_jrg/04_CANModule/CAN_Modul_keckvale_AH/Dave/Generated/DIGITAL_IO\digital_io.h **** *     // Probably, not the right version.
 170:C:/Users/Yoshi/Documents/GitHub/Software/01_jrg/04_CANModule/CAN_Modul_keckvale_AH/Dave/Generated/DIGITAL_IO\digital_io.h **** *     }
 171:C:/Users/Yoshi/Documents/GitHub/Software/01_jrg/04_CANModule/CAN_Modul_keckvale_AH/Dave/Generated/DIGITAL_IO\digital_io.h **** *   }
 172:C:/Users/Yoshi/Documents/GitHub/Software/01_jrg/04_CANModule/CAN_Modul_keckvale_AH/Dave/Generated/DIGITAL_IO\digital_io.h **** *
 173:C:/Users/Yoshi/Documents/GitHub/Software/01_jrg/04_CANModule/CAN_Modul_keckvale_AH/Dave/Generated/DIGITAL_IO\digital_io.h **** *     // More code here
 174:C:/Users/Yoshi/Documents/GitHub/Software/01_jrg/04_CANModule/CAN_Modul_keckvale_AH/Dave/Generated/DIGITAL_IO\digital_io.h **** *     while(1) {
 175:C:/Users/Yoshi/Documents/GitHub/Software/01_jrg/04_CANModule/CAN_Modul_keckvale_AH/Dave/Generated/DIGITAL_IO\digital_io.h **** *
 176:C:/Users/Yoshi/Documents/GitHub/Software/01_jrg/04_CANModule/CAN_Modul_keckvale_AH/Dave/Generated/DIGITAL_IO\digital_io.h **** *     }
 177:C:/Users/Yoshi/Documents/GitHub/Software/01_jrg/04_CANModule/CAN_Modul_keckvale_AH/Dave/Generated/DIGITAL_IO\digital_io.h **** *     return (1);
 178:C:/Users/Yoshi/Documents/GitHub/Software/01_jrg/04_CANModule/CAN_Modul_keckvale_AH/Dave/Generated/DIGITAL_IO\digital_io.h **** *  }
 179:C:/Users/Yoshi/Documents/GitHub/Software/01_jrg/04_CANModule/CAN_Modul_keckvale_AH/Dave/Generated/DIGITAL_IO\digital_io.h **** * @endcode<BR>
 180:C:/Users/Yoshi/Documents/GitHub/Software/01_jrg/04_CANModule/CAN_Modul_keckvale_AH/Dave/Generated/DIGITAL_IO\digital_io.h **** */
 181:C:/Users/Yoshi/Documents/GitHub/Software/01_jrg/04_CANModule/CAN_Modul_keckvale_AH/Dave/Generated/DIGITAL_IO\digital_io.h **** 
 182:C:/Users/Yoshi/Documents/GitHub/Software/01_jrg/04_CANModule/CAN_Modul_keckvale_AH/Dave/Generated/DIGITAL_IO\digital_io.h **** DAVE_APP_VERSION_t DIGITAL_IO_GetAppVersion(void);
 183:C:/Users/Yoshi/Documents/GitHub/Software/01_jrg/04_CANModule/CAN_Modul_keckvale_AH/Dave/Generated/DIGITAL_IO\digital_io.h **** 
 184:C:/Users/Yoshi/Documents/GitHub/Software/01_jrg/04_CANModule/CAN_Modul_keckvale_AH/Dave/Generated/DIGITAL_IO\digital_io.h **** /**
 185:C:/Users/Yoshi/Documents/GitHub/Software/01_jrg/04_CANModule/CAN_Modul_keckvale_AH/Dave/Generated/DIGITAL_IO\digital_io.h **** *
 186:C:/Users/Yoshi/Documents/GitHub/Software/01_jrg/04_CANModule/CAN_Modul_keckvale_AH/Dave/Generated/DIGITAL_IO\digital_io.h **** * @brief Function to initialize the port pin as per UI settings.
 187:C:/Users/Yoshi/Documents/GitHub/Software/01_jrg/04_CANModule/CAN_Modul_keckvale_AH/Dave/Generated/DIGITAL_IO\digital_io.h **** * @param handler Pointer pointing to APP data structure. Refer @ref DIGITAL_IO_t for details.
 188:C:/Users/Yoshi/Documents/GitHub/Software/01_jrg/04_CANModule/CAN_Modul_keckvale_AH/Dave/Generated/DIGITAL_IO\digital_io.h **** * @return DIGITAL_IO_STATUS_t DIGITAL_IO APP status. Refer @ref DIGITAL_IO_STATUS_t structure for d
 189:C:/Users/Yoshi/Documents/GitHub/Software/01_jrg/04_CANModule/CAN_Modul_keckvale_AH/Dave/Generated/DIGITAL_IO\digital_io.h **** *
 190:C:/Users/Yoshi/Documents/GitHub/Software/01_jrg/04_CANModule/CAN_Modul_keckvale_AH/Dave/Generated/DIGITAL_IO\digital_io.h **** * \par<b>Description:</b><br>
 191:C:/Users/Yoshi/Documents/GitHub/Software/01_jrg/04_CANModule/CAN_Modul_keckvale_AH/Dave/Generated/DIGITAL_IO\digital_io.h **** * This function initializes GPIO port registers IOCR,PDISC,OMR,PDR/PHCR to configure pin direction,
 192:C:/Users/Yoshi/Documents/GitHub/Software/01_jrg/04_CANModule/CAN_Modul_keckvale_AH/Dave/Generated/DIGITAL_IO\digital_io.h **** * and pad driver strength/hysteresis.
 193:C:/Users/Yoshi/Documents/GitHub/Software/01_jrg/04_CANModule/CAN_Modul_keckvale_AH/Dave/Generated/DIGITAL_IO\digital_io.h **** *
 194:C:/Users/Yoshi/Documents/GitHub/Software/01_jrg/04_CANModule/CAN_Modul_keckvale_AH/Dave/Generated/DIGITAL_IO\digital_io.h **** * \par<b>Related APIs:</b><BR>
 195:C:/Users/Yoshi/Documents/GitHub/Software/01_jrg/04_CANModule/CAN_Modul_keckvale_AH/Dave/Generated/DIGITAL_IO\digital_io.h **** * None
 196:C:/Users/Yoshi/Documents/GitHub/Software/01_jrg/04_CANModule/CAN_Modul_keckvale_AH/Dave/Generated/DIGITAL_IO\digital_io.h **** *
 197:C:/Users/Yoshi/Documents/GitHub/Software/01_jrg/04_CANModule/CAN_Modul_keckvale_AH/Dave/Generated/DIGITAL_IO\digital_io.h **** * Example Usage:
 198:C:/Users/Yoshi/Documents/GitHub/Software/01_jrg/04_CANModule/CAN_Modul_keckvale_AH/Dave/Generated/DIGITAL_IO\digital_io.h **** * @code
 199:C:/Users/Yoshi/Documents/GitHub/Software/01_jrg/04_CANModule/CAN_Modul_keckvale_AH/Dave/Generated/DIGITAL_IO\digital_io.h **** * #include <DAVE.h>//Declarations from DAVE Code Generation (includes SFR declaration)
 200:C:/Users/Yoshi/Documents/GitHub/Software/01_jrg/04_CANModule/CAN_Modul_keckvale_AH/Dave/Generated/DIGITAL_IO\digital_io.h **** * int main(void)
 201:C:/Users/Yoshi/Documents/GitHub/Software/01_jrg/04_CANModule/CAN_Modul_keckvale_AH/Dave/Generated/DIGITAL_IO\digital_io.h **** * {
 202:C:/Users/Yoshi/Documents/GitHub/Software/01_jrg/04_CANModule/CAN_Modul_keckvale_AH/Dave/Generated/DIGITAL_IO\digital_io.h **** *   DAVE_STATUS_t status;
 203:C:/Users/Yoshi/Documents/GitHub/Software/01_jrg/04_CANModule/CAN_Modul_keckvale_AH/Dave/Generated/DIGITAL_IO\digital_io.h **** *   status = DAVE_Init();  //(DAVE_STATUS_t)DIGITAL_IO_Init(&DIGITAL_IO_0) is called within DAVE_In
 204:C:/Users/Yoshi/Documents/GitHub/Software/01_jrg/04_CANModule/CAN_Modul_keckvale_AH/Dave/Generated/DIGITAL_IO\digital_io.h **** *   if(status == DAVE_STATUS_SUCCESS)
 205:C:/Users/Yoshi/Documents/GitHub/Software/01_jrg/04_CANModule/CAN_Modul_keckvale_AH/Dave/Generated/DIGITAL_IO\digital_io.h **** *   {
 206:C:/Users/Yoshi/Documents/GitHub/Software/01_jrg/04_CANModule/CAN_Modul_keckvale_AH/Dave/Generated/DIGITAL_IO\digital_io.h **** *     XMC_DEBUG("DAVE Apps initialization success\n");
 207:C:/Users/Yoshi/Documents/GitHub/Software/01_jrg/04_CANModule/CAN_Modul_keckvale_AH/Dave/Generated/DIGITAL_IO\digital_io.h **** *   }
 208:C:/Users/Yoshi/Documents/GitHub/Software/01_jrg/04_CANModule/CAN_Modul_keckvale_AH/Dave/Generated/DIGITAL_IO\digital_io.h **** *   else
 209:C:/Users/Yoshi/Documents/GitHub/Software/01_jrg/04_CANModule/CAN_Modul_keckvale_AH/Dave/Generated/DIGITAL_IO\digital_io.h **** *   {
 210:C:/Users/Yoshi/Documents/GitHub/Software/01_jrg/04_CANModule/CAN_Modul_keckvale_AH/Dave/Generated/DIGITAL_IO\digital_io.h **** *     XMC_DEBUG(("DAVE Apps initialization failed with status %d\n", status));
 211:C:/Users/Yoshi/Documents/GitHub/Software/01_jrg/04_CANModule/CAN_Modul_keckvale_AH/Dave/Generated/DIGITAL_IO\digital_io.h **** *     while(1U)
 212:C:/Users/Yoshi/Documents/GitHub/Software/01_jrg/04_CANModule/CAN_Modul_keckvale_AH/Dave/Generated/DIGITAL_IO\digital_io.h **** *     {
 213:C:/Users/Yoshi/Documents/GitHub/Software/01_jrg/04_CANModule/CAN_Modul_keckvale_AH/Dave/Generated/DIGITAL_IO\digital_io.h **** *     }
 214:C:/Users/Yoshi/Documents/GitHub/Software/01_jrg/04_CANModule/CAN_Modul_keckvale_AH/Dave/Generated/DIGITAL_IO\digital_io.h **** *   }
 215:C:/Users/Yoshi/Documents/GitHub/Software/01_jrg/04_CANModule/CAN_Modul_keckvale_AH/Dave/Generated/DIGITAL_IO\digital_io.h **** *   //Placeholder for user application code. The while loop below can be replaced with user applica
 216:C:/Users/Yoshi/Documents/GitHub/Software/01_jrg/04_CANModule/CAN_Modul_keckvale_AH/Dave/Generated/DIGITAL_IO\digital_io.h **** *   while(1U)
 217:C:/Users/Yoshi/Documents/GitHub/Software/01_jrg/04_CANModule/CAN_Modul_keckvale_AH/Dave/Generated/DIGITAL_IO\digital_io.h **** *   {
 218:C:/Users/Yoshi/Documents/GitHub/Software/01_jrg/04_CANModule/CAN_Modul_keckvale_AH/Dave/Generated/DIGITAL_IO\digital_io.h **** *   }
 219:C:/Users/Yoshi/Documents/GitHub/Software/01_jrg/04_CANModule/CAN_Modul_keckvale_AH/Dave/Generated/DIGITAL_IO\digital_io.h **** *   return 1U;
 220:C:/Users/Yoshi/Documents/GitHub/Software/01_jrg/04_CANModule/CAN_Modul_keckvale_AH/Dave/Generated/DIGITAL_IO\digital_io.h **** *  }
 221:C:/Users/Yoshi/Documents/GitHub/Software/01_jrg/04_CANModule/CAN_Modul_keckvale_AH/Dave/Generated/DIGITAL_IO\digital_io.h **** *  @endcode
 222:C:/Users/Yoshi/Documents/GitHub/Software/01_jrg/04_CANModule/CAN_Modul_keckvale_AH/Dave/Generated/DIGITAL_IO\digital_io.h **** */
 223:C:/Users/Yoshi/Documents/GitHub/Software/01_jrg/04_CANModule/CAN_Modul_keckvale_AH/Dave/Generated/DIGITAL_IO\digital_io.h **** 
 224:C:/Users/Yoshi/Documents/GitHub/Software/01_jrg/04_CANModule/CAN_Modul_keckvale_AH/Dave/Generated/DIGITAL_IO\digital_io.h **** DIGITAL_IO_STATUS_t DIGITAL_IO_Init(const DIGITAL_IO_t *const handler);
 225:C:/Users/Yoshi/Documents/GitHub/Software/01_jrg/04_CANModule/CAN_Modul_keckvale_AH/Dave/Generated/DIGITAL_IO\digital_io.h **** 
 226:C:/Users/Yoshi/Documents/GitHub/Software/01_jrg/04_CANModule/CAN_Modul_keckvale_AH/Dave/Generated/DIGITAL_IO\digital_io.h **** /**
 227:C:/Users/Yoshi/Documents/GitHub/Software/01_jrg/04_CANModule/CAN_Modul_keckvale_AH/Dave/Generated/DIGITAL_IO\digital_io.h **** *
 228:C:/Users/Yoshi/Documents/GitHub/Software/01_jrg/04_CANModule/CAN_Modul_keckvale_AH/Dave/Generated/DIGITAL_IO\digital_io.h **** * @brief Function to set port pin high.
 229:C:/Users/Yoshi/Documents/GitHub/Software/01_jrg/04_CANModule/CAN_Modul_keckvale_AH/Dave/Generated/DIGITAL_IO\digital_io.h **** * @param handler Pointer pointing to APP data structure. Refer @ref DIGITAL_IO_t for details.
 230:C:/Users/Yoshi/Documents/GitHub/Software/01_jrg/04_CANModule/CAN_Modul_keckvale_AH/Dave/Generated/DIGITAL_IO\digital_io.h **** * @return None
 231:C:/Users/Yoshi/Documents/GitHub/Software/01_jrg/04_CANModule/CAN_Modul_keckvale_AH/Dave/Generated/DIGITAL_IO\digital_io.h **** *
 232:C:/Users/Yoshi/Documents/GitHub/Software/01_jrg/04_CANModule/CAN_Modul_keckvale_AH/Dave/Generated/DIGITAL_IO\digital_io.h **** * \par<b>Description:</b><br>
 233:C:/Users/Yoshi/Documents/GitHub/Software/01_jrg/04_CANModule/CAN_Modul_keckvale_AH/Dave/Generated/DIGITAL_IO\digital_io.h **** * This function configures port output modification register Pn_OMR, to make port pin to high level
 234:C:/Users/Yoshi/Documents/GitHub/Software/01_jrg/04_CANModule/CAN_Modul_keckvale_AH/Dave/Generated/DIGITAL_IO\digital_io.h **** *
 235:C:/Users/Yoshi/Documents/GitHub/Software/01_jrg/04_CANModule/CAN_Modul_keckvale_AH/Dave/Generated/DIGITAL_IO\digital_io.h **** * \par<b>Related APIs:</b><BR>
 236:C:/Users/Yoshi/Documents/GitHub/Software/01_jrg/04_CANModule/CAN_Modul_keckvale_AH/Dave/Generated/DIGITAL_IO\digital_io.h **** *  DIGITAL_IO_SetOutputLow()
 237:C:/Users/Yoshi/Documents/GitHub/Software/01_jrg/04_CANModule/CAN_Modul_keckvale_AH/Dave/Generated/DIGITAL_IO\digital_io.h **** *
 238:C:/Users/Yoshi/Documents/GitHub/Software/01_jrg/04_CANModule/CAN_Modul_keckvale_AH/Dave/Generated/DIGITAL_IO\digital_io.h **** * Example Usage:
 239:C:/Users/Yoshi/Documents/GitHub/Software/01_jrg/04_CANModule/CAN_Modul_keckvale_AH/Dave/Generated/DIGITAL_IO\digital_io.h **** * @code
 240:C:/Users/Yoshi/Documents/GitHub/Software/01_jrg/04_CANModule/CAN_Modul_keckvale_AH/Dave/Generated/DIGITAL_IO\digital_io.h **** * #include <DAVE.h>//Declarations from DAVE Code Generation (includes SFR declaration)
 241:C:/Users/Yoshi/Documents/GitHub/Software/01_jrg/04_CANModule/CAN_Modul_keckvale_AH/Dave/Generated/DIGITAL_IO\digital_io.h **** * int main(void)
 242:C:/Users/Yoshi/Documents/GitHub/Software/01_jrg/04_CANModule/CAN_Modul_keckvale_AH/Dave/Generated/DIGITAL_IO\digital_io.h **** * {
 243:C:/Users/Yoshi/Documents/GitHub/Software/01_jrg/04_CANModule/CAN_Modul_keckvale_AH/Dave/Generated/DIGITAL_IO\digital_io.h **** *   DAVE_STATUS_t status;
 244:C:/Users/Yoshi/Documents/GitHub/Software/01_jrg/04_CANModule/CAN_Modul_keckvale_AH/Dave/Generated/DIGITAL_IO\digital_io.h **** *   status = DAVE_Init();  //(DAVE_STATUS_t)DIGITAL_IO_Init(&DIGITAL_IO_0) is called within DAVE_In
 245:C:/Users/Yoshi/Documents/GitHub/Software/01_jrg/04_CANModule/CAN_Modul_keckvale_AH/Dave/Generated/DIGITAL_IO\digital_io.h **** *   if(status == DAVE_STATUS_SUCCESS)
 246:C:/Users/Yoshi/Documents/GitHub/Software/01_jrg/04_CANModule/CAN_Modul_keckvale_AH/Dave/Generated/DIGITAL_IO\digital_io.h **** *   {
 247:C:/Users/Yoshi/Documents/GitHub/Software/01_jrg/04_CANModule/CAN_Modul_keckvale_AH/Dave/Generated/DIGITAL_IO\digital_io.h **** *     XMC_DEBUG("DAVE Apps initialization success\n");
 248:C:/Users/Yoshi/Documents/GitHub/Software/01_jrg/04_CANModule/CAN_Modul_keckvale_AH/Dave/Generated/DIGITAL_IO\digital_io.h **** *   }
 249:C:/Users/Yoshi/Documents/GitHub/Software/01_jrg/04_CANModule/CAN_Modul_keckvale_AH/Dave/Generated/DIGITAL_IO\digital_io.h **** *   else
 250:C:/Users/Yoshi/Documents/GitHub/Software/01_jrg/04_CANModule/CAN_Modul_keckvale_AH/Dave/Generated/DIGITAL_IO\digital_io.h **** *   {
 251:C:/Users/Yoshi/Documents/GitHub/Software/01_jrg/04_CANModule/CAN_Modul_keckvale_AH/Dave/Generated/DIGITAL_IO\digital_io.h **** *     XMC_DEBUG(("DAVE Apps initialization failed with status %d\n", status));
 252:C:/Users/Yoshi/Documents/GitHub/Software/01_jrg/04_CANModule/CAN_Modul_keckvale_AH/Dave/Generated/DIGITAL_IO\digital_io.h **** *     while(1U)
 253:C:/Users/Yoshi/Documents/GitHub/Software/01_jrg/04_CANModule/CAN_Modul_keckvale_AH/Dave/Generated/DIGITAL_IO\digital_io.h **** *     {
 254:C:/Users/Yoshi/Documents/GitHub/Software/01_jrg/04_CANModule/CAN_Modul_keckvale_AH/Dave/Generated/DIGITAL_IO\digital_io.h **** *     }
 255:C:/Users/Yoshi/Documents/GitHub/Software/01_jrg/04_CANModule/CAN_Modul_keckvale_AH/Dave/Generated/DIGITAL_IO\digital_io.h **** *   }
 256:C:/Users/Yoshi/Documents/GitHub/Software/01_jrg/04_CANModule/CAN_Modul_keckvale_AH/Dave/Generated/DIGITAL_IO\digital_io.h **** *   //Placeholder for user application code. The while loop below can be replaced with user applica
 257:C:/Users/Yoshi/Documents/GitHub/Software/01_jrg/04_CANModule/CAN_Modul_keckvale_AH/Dave/Generated/DIGITAL_IO\digital_io.h **** *   DIGITAL_IO_SetOutputHigh(&DIGITAL_IO_0);
 258:C:/Users/Yoshi/Documents/GitHub/Software/01_jrg/04_CANModule/CAN_Modul_keckvale_AH/Dave/Generated/DIGITAL_IO\digital_io.h **** *   while(1U)
 259:C:/Users/Yoshi/Documents/GitHub/Software/01_jrg/04_CANModule/CAN_Modul_keckvale_AH/Dave/Generated/DIGITAL_IO\digital_io.h **** *   {
 260:C:/Users/Yoshi/Documents/GitHub/Software/01_jrg/04_CANModule/CAN_Modul_keckvale_AH/Dave/Generated/DIGITAL_IO\digital_io.h **** *     // Add application code here
 261:C:/Users/Yoshi/Documents/GitHub/Software/01_jrg/04_CANModule/CAN_Modul_keckvale_AH/Dave/Generated/DIGITAL_IO\digital_io.h **** *   }
 262:C:/Users/Yoshi/Documents/GitHub/Software/01_jrg/04_CANModule/CAN_Modul_keckvale_AH/Dave/Generated/DIGITAL_IO\digital_io.h **** *
 263:C:/Users/Yoshi/Documents/GitHub/Software/01_jrg/04_CANModule/CAN_Modul_keckvale_AH/Dave/Generated/DIGITAL_IO\digital_io.h **** *   return (1);
 264:C:/Users/Yoshi/Documents/GitHub/Software/01_jrg/04_CANModule/CAN_Modul_keckvale_AH/Dave/Generated/DIGITAL_IO\digital_io.h **** * }
 265:C:/Users/Yoshi/Documents/GitHub/Software/01_jrg/04_CANModule/CAN_Modul_keckvale_AH/Dave/Generated/DIGITAL_IO\digital_io.h **** *  @endcode
 266:C:/Users/Yoshi/Documents/GitHub/Software/01_jrg/04_CANModule/CAN_Modul_keckvale_AH/Dave/Generated/DIGITAL_IO\digital_io.h **** */
 267:C:/Users/Yoshi/Documents/GitHub/Software/01_jrg/04_CANModule/CAN_Modul_keckvale_AH/Dave/Generated/DIGITAL_IO\digital_io.h **** 
 268:C:/Users/Yoshi/Documents/GitHub/Software/01_jrg/04_CANModule/CAN_Modul_keckvale_AH/Dave/Generated/DIGITAL_IO\digital_io.h **** __STATIC_INLINE void DIGITAL_IO_SetOutputHigh(const DIGITAL_IO_t *const handler)
 269:C:/Users/Yoshi/Documents/GitHub/Software/01_jrg/04_CANModule/CAN_Modul_keckvale_AH/Dave/Generated/DIGITAL_IO\digital_io.h **** {
  69              	 .loc 2 269 0
  70              	 .cfi_startproc
  71              	 
  72              	 
  73 0000 80B5     	 push {r7,lr}
  74              	 .cfi_def_cfa_offset 8
  75              	 .cfi_offset 7,-8
  76              	 .cfi_offset 14,-4
  77 0002 82B0     	 sub sp,sp,#8
  78              	 .cfi_def_cfa_offset 16
  79 0004 00AF     	 add r7,sp,#0
  80              	 .cfi_def_cfa_register 7
  81 0006 7860     	 str r0,[r7,#4]
 270:C:/Users/Yoshi/Documents/GitHub/Software/01_jrg/04_CANModule/CAN_Modul_keckvale_AH/Dave/Generated/DIGITAL_IO\digital_io.h ****   XMC_ASSERT("DIGITAL_IO_SetOutputHigh: handler null pointer", handler != NULL);
 271:C:/Users/Yoshi/Documents/GitHub/Software/01_jrg/04_CANModule/CAN_Modul_keckvale_AH/Dave/Generated/DIGITAL_IO\digital_io.h ****   XMC_GPIO_SetOutputHigh(handler->gpio_port, handler->gpio_pin);
  82              	 .loc 2 271 0
  83 0008 7B68     	 ldr r3,[r7,#4]
  84 000a 1A68     	 ldr r2,[r3]
  85 000c 7B68     	 ldr r3,[r7,#4]
  86 000e 1B7C     	 ldrb r3,[r3,#16]
  87 0010 1046     	 mov r0,r2
  88 0012 1946     	 mov r1,r3
  89 0014 FFF7FEFF 	 bl XMC_GPIO_SetOutputHigh
 272:C:/Users/Yoshi/Documents/GitHub/Software/01_jrg/04_CANModule/CAN_Modul_keckvale_AH/Dave/Generated/DIGITAL_IO\digital_io.h **** }
  90              	 .loc 2 272 0
  91 0018 0837     	 adds r7,r7,#8
  92              	 .cfi_def_cfa_offset 8
  93 001a BD46     	 mov sp,r7
  94              	 .cfi_def_cfa_register 13
  95              	 
  96 001c 80BD     	 pop {r7,pc}
  97              	 .cfi_endproc
  98              	.LFE383:
 100              	 .comm time,4,4
 101              	 .comm T_Oil,44,4
 102              	 .comm T_Water,44,4
 103              	 .comm p_Oil,44,4
 104              	 .comm p_Pneu,44,4
 105              	 .comm x_DP_RL,44,4
 106              	 .comm x_DP_RR,44,4
 107              	 .comm x_RH_RL,44,4
 108              	 .comm x_RH_RR,44,4
 109              	 .comm f_LC_RL,44,4
 110              	 .comm f_LC_RR,44,4
 111              	 .comm T_Board,44,4
 112              	 .comm u_12V_Meas,44,4
 113              	 .comm u_5V_ANA_Meas,44,4
 114              	 .comm u_OUT1_Meas,44,4
 115              	 .comm u_OUT2_Meas,44,4
 116              	 .comm NTC1,44,4
 117              	 .global CAN1_data_Tx_LM01
 118 001e 00BF     	 .section .bss.CAN1_data_Tx_LM01,"aw",%nobits
 119              	 .align 2
 122              	CAN1_data_Tx_LM01:
 123 0000 00000000 	 .space 8
 123      00000000 
 124              	 .global delay_for_CAN1_Transmit
 125              	 .section .data.delay_for_CAN1_Transmit,"aw",%progbits
 128              	delay_for_CAN1_Transmit:
 129 0000 05       	 .byte 5
 130              	 .section .text.CAN1_INIT,"ax",%progbits
 131              	 .align 2
 132              	 .global CAN1_INIT
 133              	 .thumb
 134              	 .thumb_func
 136              	CAN1_INIT:
 137              	.LFB387:
 138              	 .file 3 "../CAN_1.c"
   1:../CAN_1.c    **** /*
   2:../CAN_1.c    ****  * CAN_1.c
   3:../CAN_1.c    ****  *
   4:../CAN_1.c    ****  *  Created on: 01 Aug 2020
   5:../CAN_1.c    ****  *      Author: Paul
   6:../CAN_1.c    ****  */
   7:../CAN_1.c    **** 
   8:../CAN_1.c    **** #include "Header.h"
   9:../CAN_1.c    **** 
  10:../CAN_1.c    **** #define CAN_1_RES ENABLED       // "ENABLED" for activation and "DISABLED" for deactivation
  11:../CAN_1.c    **** 
  12:../CAN_1.c    **** uint8_t CAN1_data_Tx_LM01[8] = {0};
  13:../CAN_1.c    **** 
  14:../CAN_1.c    **** uint8_t delay_for_CAN1_Transmit = 5; //ms
  15:../CAN_1.c    **** 
  16:../CAN_1.c    **** void CAN1_INIT()
  17:../CAN_1.c    **** {
 139              	 .loc 3 17 0
 140              	 .cfi_startproc
 141              	 
 142              	 
 143 0000 80B5     	 push {r7,lr}
 144              	 .cfi_def_cfa_offset 8
 145              	 .cfi_offset 7,-8
 146              	 .cfi_offset 14,-4
 147 0002 00AF     	 add r7,sp,#0
 148              	 .cfi_def_cfa_register 7
  18:../CAN_1.c    **** 
  19:../CAN_1.c    **** 	if (CAN_1_RES == ENABLED)
  20:../CAN_1.c    **** 		DIGITAL_IO_SetOutputHigh (&CAN_1_RES_CTRL);
 149              	 .loc 3 20 0
 150 0004 0148     	 ldr r0,.L4
 151 0006 FFF7FEFF 	 bl DIGITAL_IO_SetOutputHigh
  21:../CAN_1.c    **** 
  22:../CAN_1.c    **** 	else
  23:../CAN_1.c    **** 		DIGITAL_IO_SetOutputLow (&CAN_1_RES_CTRL);
  24:../CAN_1.c    **** 
  25:../CAN_1.c    **** }
 152              	 .loc 3 25 0
 153 000a 80BD     	 pop {r7,pc}
 154              	.L5:
 155              	 .align 2
 156              	.L4:
 157 000c 00000000 	 .word CAN_1_RES_CTRL
 158              	 .cfi_endproc
 159              	.LFE387:
 161              	 .section .text.Task_CAN_1_Transmit,"ax",%progbits
 162              	 .align 2
 163              	 .global Task_CAN_1_Transmit
 164              	 .thumb
 165              	 .thumb_func
 167              	Task_CAN_1_Transmit:
 168              	.LFB388:
  26:../CAN_1.c    **** 
  27:../CAN_1.c    **** void Task_CAN_1_Transmit()
  28:../CAN_1.c    **** {
 169              	 .loc 3 28 0
 170              	 .cfi_startproc
 171              	 
 172              	 
 173 0000 80B5     	 push {r7,lr}
 174              	 .cfi_def_cfa_offset 8
 175              	 .cfi_offset 7,-8
 176              	 .cfi_offset 14,-4
 177 0002 00AF     	 add r7,sp,#0
 178              	 .cfi_def_cfa_register 7
 179              	.L7:
  29:../CAN_1.c    **** 	while(1){
  30:../CAN_1.c    **** 
  31:../CAN_1.c    **** 	T_Oil.CAN_Data[0] = (uint8_t)T_Oil.UnitValue;
 180              	 .loc 3 31 0 discriminator 1
 181 0004 364B     	 ldr r3,.L8
 182 0006 DB8A     	 ldrh r3,[r3,#22]
 183 0008 DAB2     	 uxtb r2,r3
 184 000a 354B     	 ldr r3,.L8
 185 000c 1A76     	 strb r2,[r3,#24]
  32:../CAN_1.c    **** 	T_Water.CAN_Data[0] = (uint8_t)T_Water.UnitValue;
 186              	 .loc 3 32 0 discriminator 1
 187 000e 354B     	 ldr r3,.L8+4
 188 0010 DB8A     	 ldrh r3,[r3,#22]
 189 0012 DAB2     	 uxtb r2,r3
 190 0014 334B     	 ldr r3,.L8+4
 191 0016 1A76     	 strb r2,[r3,#24]
  33:../CAN_1.c    **** 	T_Board.CAN_Data[0] = (uint8_t)T_Board.UnitValue;
 192              	 .loc 3 33 0 discriminator 1
 193 0018 334B     	 ldr r3,.L8+8
 194 001a DB8A     	 ldrh r3,[r3,#22]
 195 001c DAB2     	 uxtb r2,r3
 196 001e 324B     	 ldr r3,.L8+8
 197 0020 1A76     	 strb r2,[r3,#24]
  34:../CAN_1.c    **** 	p_Oil.CAN_Data[0] = (uint8_t)p_Oil.UnitValue;
 198              	 .loc 3 34 0 discriminator 1
 199 0022 324B     	 ldr r3,.L8+12
 200 0024 DB8A     	 ldrh r3,[r3,#22]
 201 0026 DAB2     	 uxtb r2,r3
 202 0028 304B     	 ldr r3,.L8+12
 203 002a 1A76     	 strb r2,[r3,#24]
  35:../CAN_1.c    **** 	p_Pneu.CAN_Data[0] = (uint8_t)p_Pneu.UnitValue;
 204              	 .loc 3 35 0 discriminator 1
 205 002c 304B     	 ldr r3,.L8+16
 206 002e DB8A     	 ldrh r3,[r3,#22]
 207 0030 DAB2     	 uxtb r2,r3
 208 0032 2F4B     	 ldr r3,.L8+16
 209 0034 1A76     	 strb r2,[r3,#24]
  36:../CAN_1.c    **** 	x_RH_RL.CAN_Data[0] = (uint8_t)x_RH_RL.UnitValue;
 210              	 .loc 3 36 0 discriminator 1
 211 0036 2F4B     	 ldr r3,.L8+20
 212 0038 DB8A     	 ldrh r3,[r3,#22]
 213 003a DAB2     	 uxtb r2,r3
 214 003c 2D4B     	 ldr r3,.L8+20
 215 003e 1A76     	 strb r2,[r3,#24]
  37:../CAN_1.c    **** 	x_RH_RR.CAN_Data[0] = (uint8_t)x_RH_RR.UnitValue;
 216              	 .loc 3 37 0 discriminator 1
 217 0040 2D4B     	 ldr r3,.L8+24
 218 0042 DB8A     	 ldrh r3,[r3,#22]
 219 0044 DAB2     	 uxtb r2,r3
 220 0046 2C4B     	 ldr r3,.L8+24
 221 0048 1A76     	 strb r2,[r3,#24]
  38:../CAN_1.c    **** 	u_12V_Meas.CAN_Data[0] = (uint8_t)u_12V_Meas.UnitValue;
 222              	 .loc 3 38 0 discriminator 1
 223 004a 2C4B     	 ldr r3,.L8+28
 224 004c DB8A     	 ldrh r3,[r3,#22]
 225 004e DAB2     	 uxtb r2,r3
 226 0050 2A4B     	 ldr r3,.L8+28
 227 0052 1A76     	 strb r2,[r3,#24]
  39:../CAN_1.c    **** 	u_5V_ANA_Meas.CAN_Data[0] = (uint8_t)u_5V_ANA_Meas.UnitValue;
 228              	 .loc 3 39 0 discriminator 1
 229 0054 2A4B     	 ldr r3,.L8+32
 230 0056 DB8A     	 ldrh r3,[r3,#22]
 231 0058 DAB2     	 uxtb r2,r3
 232 005a 294B     	 ldr r3,.L8+32
 233 005c 1A76     	 strb r2,[r3,#24]
  40:../CAN_1.c    **** 	u_OUT1_Meas.CAN_Data[0] = (uint8_t)u_OUT1_Meas.UnitValue;
 234              	 .loc 3 40 0 discriminator 1
 235 005e 294B     	 ldr r3,.L8+36
 236 0060 DB8A     	 ldrh r3,[r3,#22]
 237 0062 DAB2     	 uxtb r2,r3
 238 0064 274B     	 ldr r3,.L8+36
 239 0066 1A76     	 strb r2,[r3,#24]
  41:../CAN_1.c    **** 	u_OUT2_Meas.CAN_Data[0] = (uint8_t)u_OUT2_Meas.UnitValue;
 240              	 .loc 3 41 0 discriminator 1
 241 0068 274B     	 ldr r3,.L8+40
 242 006a DB8A     	 ldrh r3,[r3,#22]
 243 006c DAB2     	 uxtb r2,r3
 244 006e 264B     	 ldr r3,.L8+40
 245 0070 1A76     	 strb r2,[r3,#24]
  42:../CAN_1.c    **** 
  43:../CAN_1.c    **** 
  44:../CAN_1.c    **** 	//Measuremenet 0x7E1 LM01
  45:../CAN_1.c    **** 	CAN1_data_Tx_LM01[0] = p_Pneu.CAN_Data[0];
 246              	 .loc 3 45 0 discriminator 1
 247 0072 1F4B     	 ldr r3,.L8+16
 248 0074 1A7E     	 ldrb r2,[r3,#24]
 249 0076 254B     	 ldr r3,.L8+44
 250 0078 1A70     	 strb r2,[r3]
  46:../CAN_1.c    **** 	CAN1_data_Tx_LM01[1] = x_RH_RL.CAN_Data[0];
 251              	 .loc 3 46 0 discriminator 1
 252 007a 1E4B     	 ldr r3,.L8+20
 253 007c 1A7E     	 ldrb r2,[r3,#24]
 254 007e 234B     	 ldr r3,.L8+44
 255 0080 5A70     	 strb r2,[r3,#1]
  47:../CAN_1.c    **** 	CAN1_data_Tx_LM01[2] = x_RH_RR.CAN_Data[0];
 256              	 .loc 3 47 0 discriminator 1
 257 0082 1D4B     	 ldr r3,.L8+24
 258 0084 1A7E     	 ldrb r2,[r3,#24]
 259 0086 214B     	 ldr r3,.L8+44
 260 0088 9A70     	 strb r2,[r3,#2]
  48:../CAN_1.c    **** 	CAN1_data_Tx_LM01[3] = T_Water.CAN_Data[0];
 261              	 .loc 3 48 0 discriminator 1
 262 008a 164B     	 ldr r3,.L8+4
 263 008c 1A7E     	 ldrb r2,[r3,#24]
 264 008e 1F4B     	 ldr r3,.L8+44
 265 0090 DA70     	 strb r2,[r3,#3]
  49:../CAN_1.c    **** 	CAN1_data_Tx_LM01[4] = p_Oil.CAN_Data[0];
 266              	 .loc 3 49 0 discriminator 1
 267 0092 164B     	 ldr r3,.L8+12
 268 0094 1A7E     	 ldrb r2,[r3,#24]
 269 0096 1D4B     	 ldr r3,.L8+44
 270 0098 1A71     	 strb r2,[r3,#4]
  50:../CAN_1.c    **** 	CAN1_data_Tx_LM01[5] = T_Oil.CAN_Data[0];
 271              	 .loc 3 50 0 discriminator 1
 272 009a 114B     	 ldr r3,.L8
 273 009c 1A7E     	 ldrb r2,[r3,#24]
 274 009e 1B4B     	 ldr r3,.L8+44
 275 00a0 5A71     	 strb r2,[r3,#5]
  51:../CAN_1.c    **** 	CAN1_data_Tx_LM01[6] = T_Board.CAN_Data[0];
 276              	 .loc 3 51 0 discriminator 1
 277 00a2 114B     	 ldr r3,.L8+8
 278 00a4 1A7E     	 ldrb r2,[r3,#24]
 279 00a6 194B     	 ldr r3,.L8+44
 280 00a8 9A71     	 strb r2,[r3,#6]
  52:../CAN_1.c    **** 	CAN1_data_Tx_LM01[7] = u_12V_Meas.CAN_Data[0];
 281              	 .loc 3 52 0 discriminator 1
 282 00aa 144B     	 ldr r3,.L8+28
 283 00ac 1A7E     	 ldrb r2,[r3,#24]
 284 00ae 174B     	 ldr r3,.L8+44
 285 00b0 DA71     	 strb r2,[r3,#7]
  53:../CAN_1.c    **** 
  54:../CAN_1.c    **** 	CAN_NODE_MO_UpdateData(&CAN_1_LMO_01_Config, CAN1_data_Tx_LM01);
 286              	 .loc 3 54 0 discriminator 1
 287 00b2 1748     	 ldr r0,.L8+48
 288 00b4 1549     	 ldr r1,.L8+44
 289 00b6 FFF7FEFF 	 bl CAN_NODE_MO_UpdateData
  55:../CAN_1.c    **** 	CAN_NODE_MO_Transmit(&CAN_1_LMO_01_Config);
 290              	 .loc 3 55 0 discriminator 1
 291 00ba 1548     	 ldr r0,.L8+48
 292 00bc FFF7FEFF 	 bl CAN_NODE_MO_Transmit
  56:../CAN_1.c    **** 
  57:../CAN_1.c    **** 	vTaskDelay(pdMS_TO_TICKS(delay_for_CAN1_Transmit));
 293              	 .loc 3 57 0 discriminator 1
 294 00c0 144B     	 ldr r3,.L8+52
 295 00c2 1B78     	 ldrb r3,[r3]
 296 00c4 1A46     	 mov r2,r3
 297 00c6 42F21073 	 movw r3,#10000
 298 00ca 03FB02F3 	 mul r3,r3,r2
 299 00ce 124A     	 ldr r2,.L8+56
 300 00d0 A2FB0323 	 umull r2,r3,r2,r3
 301 00d4 9B09     	 lsrs r3,r3,#6
 302 00d6 1846     	 mov r0,r3
 303 00d8 FFF7FEFF 	 bl vTaskDelay
  58:../CAN_1.c    **** 	}
 304              	 .loc 3 58 0 discriminator 1
 305 00dc 92E7     	 b .L7
 306              	.L9:
 307 00de 00BF     	 .align 2
 308              	.L8:
 309 00e0 00000000 	 .word T_Oil
 310 00e4 00000000 	 .word T_Water
 311 00e8 00000000 	 .word T_Board
 312 00ec 00000000 	 .word p_Oil
 313 00f0 00000000 	 .word p_Pneu
 314 00f4 00000000 	 .word x_RH_RL
 315 00f8 00000000 	 .word x_RH_RR
 316 00fc 00000000 	 .word u_12V_Meas
 317 0100 00000000 	 .word u_5V_ANA_Meas
 318 0104 00000000 	 .word u_OUT1_Meas
 319 0108 00000000 	 .word u_OUT2_Meas
 320 010c 00000000 	 .word CAN1_data_Tx_LM01
 321 0110 00000000 	 .word CAN_1_LMO_01_Config
 322 0114 00000000 	 .word delay_for_CAN1_Transmit
 323 0118 D34D6210 	 .word 274877907
 324              	 .cfi_endproc
 325              	.LFE388:
 327              	 .text
 328              	.Letext0:
 329              	 .file 4 "c:\\infineon\\tools\\dave ide\\4.5.0.202105191637\\eclipse\\arm-gcc-49\\arm-none-eabi\\include\\machine\\_default_types.h"
 330              	 .file 5 "c:\\infineon\\tools\\dave ide\\4.5.0.202105191637\\eclipse\\arm-gcc-49\\arm-none-eabi\\include\\stdint.h"
 331              	 .file 6 "C:/Users/Yoshi/Documents/GitHub/Software/01_jrg/04_CANModule/CAN_Modul_keckvale_AH/Libraries/CMSIS/Infineon/XMC4500_series/Include/XMC4500.h"
 332              	 .file 7 "C:/Users/Yoshi/Documents/GitHub/Software/01_jrg/04_CANModule/CAN_Modul_keckvale_AH/Libraries/XMCLib/inc/xmc4_gpio.h"
 333              	 .file 8 "C:/Users/Yoshi/Documents/GitHub/Software/01_jrg/04_CANModule/CAN_Modul_keckvale_AH/Libraries/XMCLib/inc/xmc_vadc.h"
 334              	 .file 9 "C:/Users/Yoshi/Documents/GitHub/Software/01_jrg/04_CANModule/CAN_Modul_keckvale_AH/Dave/Generated/ANALOG_IO/analog_io.h"
 335              	 .file 10 "C:/Users/Yoshi/Documents/GitHub/Software/01_jrg/04_CANModule/CAN_Modul_keckvale_AH/Dave/Generated/ADC_MEASUREMENT/adc_measurement.h"
 336              	 .file 11 "C:/Users/Yoshi/Documents/GitHub/Software/01_jrg/04_CANModule/CAN_Modul_keckvale_AH/Dave/Generated/FREERTOS/portable/GCC/portmacro.h"
 337              	 .file 12 "C:/Users/Yoshi/Documents/GitHub/Software/01_jrg/04_CANModule/CAN_Modul_keckvale_AH/Libraries/XMCLib/inc/xmc_can.h"
 338              	 .file 13 "C:/Users/Yoshi/Documents/GitHub/Software/01_jrg/04_CANModule/CAN_Modul_keckvale_AH/Dave/Generated/CAN_NODE/can_node.h"
 339              	 .file 14 "../Header.h"
 340              	 .file 15 "C:/Users/Yoshi/Documents/GitHub/Software/01_jrg/04_CANModule/CAN_Modul_keckvale_AH/Libraries/CMSIS/Include/cmsis_gcc.h"
 341              	 .file 16 "C:/Users/Yoshi/Documents/GitHub/Software/01_jrg/04_CANModule/CAN_Modul_keckvale_AH/Libraries/CMSIS/Include/core_cm4.h"
 342              	 .file 17 "C:/Users/Yoshi/Documents/GitHub/Software/01_jrg/04_CANModule/CAN_Modul_keckvale_AH/Libraries/CMSIS/Infineon/XMC4500_series/Include/system_XMC4500.h"
 343              	 .file 18 "C:/Users/Yoshi/Documents/GitHub/Software/01_jrg/04_CANModule/CAN_Modul_keckvale_AH/Dave/Generated/CAN_NODE/can_node_extern.h"
 344              	 .file 19 "C:/Users/Yoshi/Documents/GitHub/Software/01_jrg/04_CANModule/CAN_Modul_keckvale_AH/Dave/Generated/DIGITAL_IO/digital_io_extern.h"