   1              	 .syntax unified
   2              	 .cpu cortex-m4
   3              	 .eabi_attribute 27,3
   4              	 .fpu fpv4-sp-d16
   5              	 .eabi_attribute 20,1
   6              	 .eabi_attribute 21,1
   7              	 .eabi_attribute 23,3
   8              	 .eabi_attribute 24,1
   9              	 .eabi_attribute 25,1
  10              	 .eabi_attribute 26,1
  11              	 .eabi_attribute 30,6
  12              	 .eabi_attribute 34,1
  13              	 .eabi_attribute 18,4
  14              	 .thumb
  15              	 .file "Powercycle_Calibration.c"
  16              	 .text
  17              	.Ltext0:
  18              	 .cfi_sections .debug_frame
  19              	 .comm time,4,4
  20              	 .comm T_Oil,44,4
  21              	 .comm T_Water,44,4
  22              	 .comm p_Oil,44,4
  23              	 .comm p_Pneu,44,4
  24              	 .comm x_DP_RL,44,4
  25              	 .comm x_DP_RR,44,4
  26              	 .comm x_RH_RL,44,4
  27              	 .comm x_RH_RR,44,4
  28              	 .comm f_LC_RL,44,4
  29              	 .comm f_LC_RR,44,4
  30              	 .comm T_Board,44,4
  31              	 .comm u_12V_Meas,44,4
  32              	 .comm u_5V_ANA_Meas,44,4
  33              	 .comm u_OUT1_Meas,44,4
  34              	 .comm u_OUT2_Meas,44,4
  35              	 .comm NTC1,44,4
  36              	 .section .text.Powercycle_Calibration,"ax",%progbits
  37              	 .align 2
  38              	 .global Powercycle_Calibration
  39              	 .thumb
  40              	 .thumb_func
  42              	Powercycle_Calibration:
  43              	.LFB387:
  44              	 .file 1 "../Powercycle_Calibration.c"
   1:../Powercycle_Calibration.c **** /*
   2:../Powercycle_Calibration.c ****  * Powercycle_Calibration.c
   3:../Powercycle_Calibration.c ****  *
   4:../Powercycle_Calibration.c ****  *  Created on: 5 Dec 2019
   5:../Powercycle_Calibration.c ****  *      Author: Valentin Keck
   6:../Powercycle_Calibration.c ****  */
   7:../Powercycle_Calibration.c **** #include "Header.h"
   8:../Powercycle_Calibration.c **** #include "ANA_Init.h"
   9:../Powercycle_Calibration.c **** 
  10:../Powercycle_Calibration.c **** void Powercycle_Calibration(Analog_Sensor_t *const Sensor)
  11:../Powercycle_Calibration.c **** {
  45              	 .loc 1 11 0
  46              	 .cfi_startproc
  47              	 
  48              	 
  49 0000 80B5     	 push {r7,lr}
  50              	 .cfi_def_cfa_offset 8
  51              	 .cfi_offset 7,-8
  52              	 .cfi_offset 14,-4
  53 0002 82B0     	 sub sp,sp,#8
  54              	 .cfi_def_cfa_offset 16
  55 0004 00AF     	 add r7,sp,#0
  56              	 .cfi_def_cfa_register 7
  57 0006 7860     	 str r0,[r7,#4]
  12:../Powercycle_Calibration.c **** 	if(Sensor->Type == Linear)
  58              	 .loc 1 12 0
  59 0008 7B68     	 ldr r3,[r7,#4]
  60 000a 93F82030 	 ldrb r3,[r3,#32]
  61 000e 002B     	 cmp r3,#0
  62 0010 03D1     	 bne .L2
  13:../Powercycle_Calibration.c **** 		Sensor->Offset = 0;				//no powercycle calibration
  63              	 .loc 1 13 0
  64 0012 7B68     	 ldr r3,[r7,#4]
  65 0014 0022     	 movs r2,#0
  66 0016 5A84     	 strh r2,[r3,#34]
  67 0018 1AE0     	 b .L1
  68              	.L2:
  14:../Powercycle_Calibration.c **** 
  15:../Powercycle_Calibration.c **** 	else if(Sensor->Type == Pressure)
  69              	 .loc 1 15 0
  70 001a 7B68     	 ldr r3,[r7,#4]
  71 001c 93F82030 	 ldrb r3,[r3,#32]
  72 0020 032B     	 cmp r3,#3
  73 0022 03D1     	 bne .L4
  16:../Powercycle_Calibration.c **** 		Sensor->Offset = 0;
  74              	 .loc 1 16 0
  75 0024 7B68     	 ldr r3,[r7,#4]
  76 0026 0022     	 movs r2,#0
  77 0028 5A84     	 strh r2,[r3,#34]
  78 002a 11E0     	 b .L1
  79              	.L4:
  17:../Powercycle_Calibration.c **** 
  18:../Powercycle_Calibration.c **** 	else if(Sensor->Type == RideHeight)
  80              	 .loc 1 18 0
  81 002c 7B68     	 ldr r3,[r7,#4]
  82 002e 93F82030 	 ldrb r3,[r3,#32]
  83 0032 012B     	 cmp r3,#1
  84 0034 09D1     	 bne .L5
  19:../Powercycle_Calibration.c **** 		Sensor->Offset = ADC_MEASUREMENT_GetResult(Sensor->Channel);
  85              	 .loc 1 19 0
  86 0036 7B68     	 ldr r3,[r7,#4]
  87 0038 DB69     	 ldr r3,[r3,#28]
  88 003a 1846     	 mov r0,r3
  89 003c FFF7FEFF 	 bl ADC_MEASUREMENT_GetResult
  90 0040 0346     	 mov r3,r0
  91 0042 1A46     	 mov r2,r3
  92 0044 7B68     	 ldr r3,[r7,#4]
  93 0046 5A84     	 strh r2,[r3,#34]
  94 0048 02E0     	 b .L1
  95              	.L5:
  20:../Powercycle_Calibration.c **** 
  21:../Powercycle_Calibration.c **** 	else
  22:../Powercycle_Calibration.c **** 		Sensor->Offset = 0;
  96              	 .loc 1 22 0
  97 004a 7B68     	 ldr r3,[r7,#4]
  98 004c 0022     	 movs r2,#0
  99 004e 5A84     	 strh r2,[r3,#34]
 100              	.L1:
  23:../Powercycle_Calibration.c **** 
  24:../Powercycle_Calibration.c **** }
 101              	 .loc 1 24 0
 102 0050 0837     	 adds r7,r7,#8
 103              	 .cfi_def_cfa_offset 8
 104 0052 BD46     	 mov sp,r7
 105              	 .cfi_def_cfa_register 13
 106              	 
 107 0054 80BD     	 pop {r7,pc}
 108              	 .cfi_endproc
 109              	.LFE387:
 111 0056 00BF     	 .text
 112              	.Letext0:
 113              	 .file 2 "c:\\infineon\\tools\\dave ide\\4.5.0.202105191637\\eclipse\\arm-gcc-49\\arm-none-eabi\\include\\machine\\_default_types.h"
 114              	 .file 3 "c:\\infineon\\tools\\dave ide\\4.5.0.202105191637\\eclipse\\arm-gcc-49\\arm-none-eabi\\include\\stdint.h"
 115              	 .file 4 "C:/Users/Yoshi/Documents/GitHub/Software/01_jrg/04_CANModule/CAN_Modul_keckvale_AH/Libraries/CMSIS/Infineon/XMC4500_series/Include/XMC4500.h"
 116              	 .file 5 "C:/Users/Yoshi/Documents/GitHub/Software/01_jrg/04_CANModule/CAN_Modul_keckvale_AH/Libraries/XMCLib/inc/xmc4_gpio.h"
 117              	 .file 6 "C:/Users/Yoshi/Documents/GitHub/Software/01_jrg/04_CANModule/CAN_Modul_keckvale_AH/Libraries/XMCLib/inc/xmc_vadc.h"
 118              	 .file 7 "C:/Users/Yoshi/Documents/GitHub/Software/01_jrg/04_CANModule/CAN_Modul_keckvale_AH/Dave/Generated/ANALOG_IO/analog_io.h"
 119              	 .file 8 "C:/Users/Yoshi/Documents/GitHub/Software/01_jrg/04_CANModule/CAN_Modul_keckvale_AH/Dave/Generated/ADC_MEASUREMENT/adc_measurement.h"
 120              	 .file 9 "../Header.h"
 121              	 .file 10 "C:/Users/Yoshi/Documents/GitHub/Software/01_jrg/04_CANModule/CAN_Modul_keckvale_AH/Libraries/CMSIS/Include/cmsis_gcc.h"
 122              	 .file 11 "C:/Users/Yoshi/Documents/GitHub/Software/01_jrg/04_CANModule/CAN_Modul_keckvale_AH/Libraries/CMSIS/Include/core_cm4.h"
 123              	 .file 12 "C:/Users/Yoshi/Documents/GitHub/Software/01_jrg/04_CANModule/CAN_Modul_keckvale_AH/Libraries/CMSIS/Infineon/XMC4500_series/Include/system_XMC4500.h"
 124              	 .file 13 "../ANA_Init.h"