
CAN_Modul_keckvale_AH.elf:     file format elf32-littlearm

Sections:
Idx Name          Size      VMA       LMA       File off  Algn
  0 .text         00004390  08000000  0c000000  00008000  2**4
                  CONTENTS, ALLOC, LOAD, READONLY, CODE
  1 Stack         00000800  10000000  10000000  00018000  2**0
                  ALLOC
  2 .data         000003d8  20000000  0c004390  00010000  2**3
                  CONTENTS, ALLOC, LOAD, DATA
  3 .bss          000004d8  200003d8  0c004768  000103d8  2**2
                  ALLOC
  4 .no_init      00000014  2000ffc0  2000ffc0  00017fc0  2**2
                  ALLOC
  5 .debug_frame  000001a4  00000000  00000000  000103d8  2**2
                  CONTENTS, READONLY, DEBUGGING
  6 .build_attributes 00000c00  00000000  00000000  0001057c  2**0
                  CONTENTS, READONLY

Disassembly of section .text:

08000000 <__Vectors>:
 8000000:	00 08 00 10 01 02 00 08 b1 02 00 08 b1 02 00 08     ................
 8000010:	b1 02 00 08 b1 02 00 08 b1 02 00 08 00 00 00 00     ................
	...
 800002c:	91 11 00 08 b1 02 00 08 00 00 00 00 31 12 00 08     ............1...
 800003c:	a1 12 00 08 b1 02 00 08 b1 02 00 08 b1 02 00 08     ................
 800004c:	b1 02 00 08 b1 02 00 08 b1 02 00 08 b1 02 00 08     ................
 800005c:	b1 02 00 08 b1 02 00 08 00 00 00 00 00 00 00 00     ................
 800006c:	00 00 00 00 b1 02 00 08 00 00 00 00 b1 02 00 08     ................
 800007c:	b1 02 00 08 b1 02 00 08 b1 02 00 08 b1 02 00 08     ................
 800008c:	b1 02 00 08 b1 02 00 08 b1 02 00 08 b1 02 00 08     ................
 800009c:	b1 02 00 08 b1 02 00 08 b1 02 00 08 b1 02 00 08     ................
 80000ac:	b1 02 00 08 b1 02 00 08 b1 02 00 08 b1 02 00 08     ................
 80000bc:	b1 02 00 08 b1 02 00 08 b1 02 00 08 b1 02 00 08     ................
 80000cc:	b1 02 00 08 b1 02 00 08 b1 02 00 08 b1 02 00 08     ................
 80000dc:	b1 02 00 08 b1 02 00 08 b1 02 00 08 b1 02 00 08     ................
 80000ec:	b1 02 00 08 b1 02 00 08 b1 02 00 08 b1 02 00 08     ................
 80000fc:	b1 02 00 08 b1 02 00 08 b1 02 00 08 b1 02 00 08     ................
 800010c:	b1 02 00 08 b1 02 00 08 b1 02 00 08 b1 02 00 08     ................
 800011c:	b1 02 00 08 b1 02 00 08 b1 02 00 08 b1 02 00 08     ................
 800012c:	b1 02 00 08 b1 02 00 08 b1 02 00 08 b1 02 00 08     ................
 800013c:	b1 02 00 08 b1 02 00 08 b1 02 00 08 b1 02 00 08     ................
 800014c:	b1 02 00 08 b1 02 00 08 b1 02 00 08 b1 02 00 08     ................
 800015c:	b1 02 00 08 00 00 00 00 00 00 00 00 00 00 00 00     ................
 800016c:	00 00 00 00 b1 02 00 08 b1 02 00 08 b1 02 00 08     ................
 800017c:	b1 02 00 08 b1 02 00 08 b1 02 00 08 b1 02 00 08     ................
 800018c:	b1 02 00 08 b1 02 00 08 b1 02 00 08 b1 02 00 08     ................
 800019c:	b1 02 00 08 b1 02 00 08 b1 02 00 08 b1 02 00 08     ................
 80001ac:	b1 02 00 08 b1 02 00 08 b1 02 00 08 b1 02 00 08     ................
 80001bc:	b1 02 00 08 b1 02 00 08 b1 02 00 08 b1 02 00 08     ................
 80001cc:	b1 02 00 08 b1 02 00 08 b1 02 00 08 b1 02 00 08     ................
 80001dc:	00 00 00 00 b1 02 00 08 b1 02 00 08 b1 02 00 08     ................
 80001ec:	b1 02 00 08 b1 02 00 08 00 00 00 00 b1 02 00 08     ................
 80001fc:	00 00 00 00                                         ....

08000200 <Reset_Handler>:
 8000200:	f8df d08c 	ldr.w	sp, [pc, #140]	; 8000290 <__zero_table_end__>
 8000204:	4823      	ldr	r0, [pc, #140]	; (8000294 <__zero_table_end__+0x4>)
 8000206:	4780      	blx	r0
 8000208:	4c23      	ldr	r4, [pc, #140]	; (8000298 <__zero_table_end__+0x8>)
 800020a:	4d24      	ldr	r5, [pc, #144]	; (800029c <__zero_table_end__+0xc>)
 800020c:	42ac      	cmp	r4, r5
 800020e:	da09      	bge.n	8000224 <Reset_Handler+0x24>
 8000210:	6821      	ldr	r1, [r4, #0]
 8000212:	6862      	ldr	r2, [r4, #4]
 8000214:	68a3      	ldr	r3, [r4, #8]
 8000216:	3b04      	subs	r3, #4
 8000218:	bfa2      	ittt	ge
 800021a:	58c8      	ldrge	r0, [r1, r3]
 800021c:	50d0      	strge	r0, [r2, r3]
 800021e:	e7fa      	bge.n	8000216 <Reset_Handler+0x16>
 8000220:	340c      	adds	r4, #12
 8000222:	e7f3      	b.n	800020c <Reset_Handler+0xc>
 8000224:	4b1e      	ldr	r3, [pc, #120]	; (80002a0 <__zero_table_end__+0x10>)
 8000226:	4c1f      	ldr	r4, [pc, #124]	; (80002a4 <__zero_table_end__+0x14>)
 8000228:	42a3      	cmp	r3, r4
 800022a:	da08      	bge.n	800023e <Reset_Handler+0x3e>
 800022c:	6819      	ldr	r1, [r3, #0]
 800022e:	685a      	ldr	r2, [r3, #4]
 8000230:	2000      	movs	r0, #0
 8000232:	3a04      	subs	r2, #4
 8000234:	bfa4      	itt	ge
 8000236:	5088      	strge	r0, [r1, r2]
 8000238:	e7fb      	bge.n	8000232 <Reset_Handler+0x32>
 800023a:	3308      	adds	r3, #8
 800023c:	e7f4      	b.n	8000228 <Reset_Handler+0x28>
 800023e:	481a      	ldr	r0, [pc, #104]	; (80002a8 <__zero_table_end__+0x18>)
 8000240:	4780      	blx	r0
 8000242:	481a      	ldr	r0, [pc, #104]	; (80002ac <__zero_table_end__+0x1c>)
 8000244:	4780      	blx	r0
	...

08000248 <__copy_table_start__>:
 8000248:	0c004390 	.word	0x0c004390
 800024c:	20000000 	.word	0x20000000
 8000250:	000003d8 	.word	0x000003d8
 8000254:	0c004768 	.word	0x0c004768
 8000258:	30000000 	.word	0x30000000
 800025c:	00000000 	.word	0x00000000
 8000260:	0c004390 	.word	0x0c004390
 8000264:	10000800 	.word	0x10000800
 8000268:	00000000 	.word	0x00000000
 800026c:	0c004390 	.word	0x0c004390
 8000270:	10000800 	.word	0x10000800
 8000274:	00000000 	.word	0x00000000

08000278 <__copy_table_end__>:
 8000278:	200003d8 	.word	0x200003d8
 800027c:	000004d4 	.word	0x000004d4
 8000280:	30000000 	.word	0x30000000
 8000284:	00000000 	.word	0x00000000
 8000288:	10000800 	.word	0x10000800
 800028c:	00000000 	.word	0x00000000

08000290 <__zero_table_end__>:
 8000290:	10000800 	.word	0x10000800
 8000294:	0800033d 	.word	0x0800033d
 8000298:	08000248 	.word	0x08000248
 800029c:	08000278 	.word	0x08000278
 80002a0:	08000278 	.word	0x08000278
 80002a4:	08000290 	.word	0x08000290
 80002a8:	08003d89 	.word	0x08003d89
 80002ac:	08003459 	.word	0x08003459

080002b0 <BusFault_Handler>:
 80002b0:	e7fe      	b.n	80002b0 <BusFault_Handler>
	...

080002b4 <SystemCoreClockUpdate>:
 80002b4:	4b1d      	ldr	r3, [pc, #116]	; (800032c <SystemCoreClockUpdate+0x78>)
 80002b6:	68db      	ldr	r3, [r3, #12]
 80002b8:	03d9      	lsls	r1, r3, #15
 80002ba:	b510      	push	{r4, lr}
 80002bc:	d525      	bpl.n	800030a <SystemCoreClockUpdate+0x56>
 80002be:	4b1c      	ldr	r3, [pc, #112]	; (8000330 <SystemCoreClockUpdate+0x7c>)
 80002c0:	68da      	ldr	r2, [r3, #12]
 80002c2:	f012 0f01 	tst.w	r2, #1
 80002c6:	461c      	mov	r4, r3
 80002c8:	d102      	bne.n	80002d0 <SystemCoreClockUpdate+0x1c>
 80002ca:	f002 fa9f 	bl	800280c <OSCHP_GetFrequency>
 80002ce:	e000      	b.n	80002d2 <SystemCoreClockUpdate+0x1e>
 80002d0:	4818      	ldr	r0, [pc, #96]	; (8000334 <SystemCoreClockUpdate+0x80>)
 80002d2:	6822      	ldr	r2, [r4, #0]
 80002d4:	4b16      	ldr	r3, [pc, #88]	; (8000330 <SystemCoreClockUpdate+0x7c>)
 80002d6:	0752      	lsls	r2, r2, #29
 80002d8:	d510      	bpl.n	80002fc <SystemCoreClockUpdate+0x48>
 80002da:	689a      	ldr	r2, [r3, #8]
 80002dc:	6899      	ldr	r1, [r3, #8]
 80002de:	689b      	ldr	r3, [r3, #8]
 80002e0:	f3c2 6203 	ubfx	r2, r2, #24, #4
 80002e4:	f3c3 4406 	ubfx	r4, r3, #16, #7
 80002e8:	1c53      	adds	r3, r2, #1
 80002ea:	fb04 3303 	mla	r3, r4, r3, r3
 80002ee:	fbb0 f0f3 	udiv	r0, r0, r3
 80002f2:	f3c1 2306 	ubfx	r3, r1, #8, #7
 80002f6:	fb03 0000 	mla	r0, r3, r0, r0
 80002fa:	e007      	b.n	800030c <SystemCoreClockUpdate+0x58>
 80002fc:	689b      	ldr	r3, [r3, #8]
 80002fe:	f003 037f 	and.w	r3, r3, #127	; 0x7f
 8000302:	3301      	adds	r3, #1
 8000304:	fbb0 f0f3 	udiv	r0, r0, r3
 8000308:	e000      	b.n	800030c <SystemCoreClockUpdate+0x58>
 800030a:	480a      	ldr	r0, [pc, #40]	; (8000334 <SystemCoreClockUpdate+0x80>)
 800030c:	4a07      	ldr	r2, [pc, #28]	; (800032c <SystemCoreClockUpdate+0x78>)
 800030e:	68d3      	ldr	r3, [r2, #12]
 8000310:	b2db      	uxtb	r3, r3
 8000312:	3301      	adds	r3, #1
 8000314:	fbb0 f0f3 	udiv	r0, r0, r3
 8000318:	6913      	ldr	r3, [r2, #16]
 800031a:	f003 0301 	and.w	r3, r3, #1
 800031e:	3301      	adds	r3, #1
 8000320:	fbb0 f0f3 	udiv	r0, r0, r3
 8000324:	4b04      	ldr	r3, [pc, #16]	; (8000338 <SystemCoreClockUpdate+0x84>)
 8000326:	6018      	str	r0, [r3, #0]
 8000328:	bd10      	pop	{r4, pc}
 800032a:	bf00      	nop
 800032c:	50004600 	.word	0x50004600
 8000330:	50004710 	.word	0x50004710
 8000334:	016e3600 	.word	0x016e3600
 8000338:	2000ffc0 	.word	0x2000ffc0

0800033c <SystemInit>:
 800033c:	b538      	push	{r3, r4, r5, lr}
 800033e:	4a09      	ldr	r2, [pc, #36]	; (8000364 <SystemInit+0x28>)
 8000340:	4d09      	ldr	r5, [pc, #36]	; (8000368 <SystemInit+0x2c>)
 8000342:	f04f 5400 	mov.w	r4, #536870912	; 0x20000000
 8000346:	4623      	mov	r3, r4
 8000348:	cb03      	ldmia	r3!, {r0, r1}
 800034a:	42ab      	cmp	r3, r5
 800034c:	6010      	str	r0, [r2, #0]
 800034e:	6051      	str	r1, [r2, #4]
 8000350:	461c      	mov	r4, r3
 8000352:	f102 0208 	add.w	r2, r2, #8
 8000356:	d1f6      	bne.n	8000346 <SystemInit+0xa>
 8000358:	f002 fa18 	bl	800278c <SystemCoreSetup>
 800035c:	f002 fa5a 	bl	8002814 <SystemCoreClockSetup>
 8000360:	bd38      	pop	{r3, r4, r5, pc}
 8000362:	bf00      	nop
 8000364:	2000ffc4 	.word	0x2000ffc4
 8000368:	20000010 	.word	0x20000010

0800036c <XMC_GPIO_Init>:
 800036c:	f001 03fc 	and.w	r3, r1, #252	; 0xfc
 8000370:	4403      	add	r3, r0
 8000372:	b5f0      	push	{r4, r5, r6, r7, lr}
 8000374:	f001 0403 	and.w	r4, r1, #3
 8000378:	691e      	ldr	r6, [r3, #16]
 800037a:	00e4      	lsls	r4, r4, #3
 800037c:	25f8      	movs	r5, #248	; 0xf8
 800037e:	40a5      	lsls	r5, r4
 8000380:	ea26 0505 	bic.w	r5, r6, r5
 8000384:	611d      	str	r5, [r3, #16]
 8000386:	6f46      	ldr	r6, [r0, #116]	; 0x74
 8000388:	004f      	lsls	r7, r1, #1
 800038a:	2503      	movs	r5, #3
 800038c:	40bd      	lsls	r5, r7
 800038e:	ea26 0505 	bic.w	r5, r6, r5
 8000392:	6745      	str	r5, [r0, #116]	; 0x74
 8000394:	4d16      	ldr	r5, [pc, #88]	; (80003f0 <XMC_GPIO_Init+0x84>)
 8000396:	42a8      	cmp	r0, r5
 8000398:	d003      	beq.n	80003a2 <XMC_GPIO_Init+0x36>
 800039a:	f505 7580 	add.w	r5, r5, #256	; 0x100
 800039e:	42a8      	cmp	r0, r5
 80003a0:	d107      	bne.n	80003b2 <XMC_GPIO_Init+0x46>
 80003a2:	6e05      	ldr	r5, [r0, #96]	; 0x60
 80003a4:	2601      	movs	r6, #1
 80003a6:	fa06 f101 	lsl.w	r1, r6, r1
 80003aa:	ea25 0101 	bic.w	r1, r5, r1
 80003ae:	6601      	str	r1, [r0, #96]	; 0x60
 80003b0:	e018      	b.n	80003e4 <XMC_GPIO_Init+0x78>
 80003b2:	f992 5000 	ldrsb.w	r5, [r2]
 80003b6:	2d00      	cmp	r5, #0
 80003b8:	da14      	bge.n	80003e4 <XMC_GPIO_Init+0x78>
 80003ba:	6855      	ldr	r5, [r2, #4]
 80003bc:	408d      	lsls	r5, r1
 80003be:	6045      	str	r5, [r0, #4]
 80003c0:	08cd      	lsrs	r5, r1, #3
 80003c2:	eb00 0085 	add.w	r0, r0, r5, lsl #2
 80003c6:	f001 0107 	and.w	r1, r1, #7
 80003ca:	6c06      	ldr	r6, [r0, #64]	; 0x40
 80003cc:	0089      	lsls	r1, r1, #2
 80003ce:	2507      	movs	r5, #7
 80003d0:	408d      	lsls	r5, r1
 80003d2:	ea26 0505 	bic.w	r5, r6, r5
 80003d6:	6405      	str	r5, [r0, #64]	; 0x40
 80003d8:	7a16      	ldrb	r6, [r2, #8]
 80003da:	6c05      	ldr	r5, [r0, #64]	; 0x40
 80003dc:	fa06 f101 	lsl.w	r1, r6, r1
 80003e0:	4329      	orrs	r1, r5
 80003e2:	6401      	str	r1, [r0, #64]	; 0x40
 80003e4:	7812      	ldrb	r2, [r2, #0]
 80003e6:	6919      	ldr	r1, [r3, #16]
 80003e8:	40a2      	lsls	r2, r4
 80003ea:	430a      	orrs	r2, r1
 80003ec:	611a      	str	r2, [r3, #16]
 80003ee:	bdf0      	pop	{r4, r5, r6, r7, pc}
 80003f0:	48028e00 	.word	0x48028e00

080003f4 <XMC_SCU_lDelay>:
 80003f4:	b510      	push	{r4, lr}
 80003f6:	4604      	mov	r4, r0
 80003f8:	f7ff ff5c 	bl	80002b4 <SystemCoreClockUpdate>
 80003fc:	4b06      	ldr	r3, [pc, #24]	; (8000418 <XMC_SCU_lDelay+0x24>)
 80003fe:	4807      	ldr	r0, [pc, #28]	; (800041c <XMC_SCU_lDelay+0x28>)
 8000400:	681b      	ldr	r3, [r3, #0]
 8000402:	fbb3 f3f0 	udiv	r3, r3, r0
 8000406:	fb03 f004 	mul.w	r0, r3, r4
 800040a:	2300      	movs	r3, #0
 800040c:	4283      	cmp	r3, r0
 800040e:	d002      	beq.n	8000416 <XMC_SCU_lDelay+0x22>
 8000410:	bf00      	nop
 8000412:	3301      	adds	r3, #1
 8000414:	e7fa      	b.n	800040c <XMC_SCU_lDelay+0x18>
 8000416:	bd10      	pop	{r4, pc}
 8000418:	2000ffc0 	.word	0x2000ffc0
 800041c:	000f4240 	.word	0x000f4240

08000420 <XMC_SCU_RESET_DeassertPeripheralReset>:
 8000420:	0f02      	lsrs	r2, r0, #28
 8000422:	230c      	movs	r3, #12
 8000424:	4353      	muls	r3, r2
 8000426:	4a02      	ldr	r2, [pc, #8]	; (8000430 <XMC_SCU_RESET_DeassertPeripheralReset+0x10>)
 8000428:	f020 4070 	bic.w	r0, r0, #4026531840	; 0xf0000000
 800042c:	5098      	str	r0, [r3, r2]
 800042e:	4770      	bx	lr
 8000430:	50004414 	.word	0x50004414

08000434 <XMC_SCU_CLOCK_GetPeripheralClockFrequency>:
 8000434:	4b03      	ldr	r3, [pc, #12]	; (8000444 <XMC_SCU_CLOCK_GetPeripheralClockFrequency+0x10>)
 8000436:	4a04      	ldr	r2, [pc, #16]	; (8000448 <XMC_SCU_CLOCK_GetPeripheralClockFrequency+0x14>)
 8000438:	695b      	ldr	r3, [r3, #20]
 800043a:	6810      	ldr	r0, [r2, #0]
 800043c:	f003 0301 	and.w	r3, r3, #1
 8000440:	40d8      	lsrs	r0, r3
 8000442:	4770      	bx	lr
 8000444:	50004600 	.word	0x50004600
 8000448:	2000ffc0 	.word	0x2000ffc0

0800044c <XMC_SCU_CLOCK_SetSystemClockSource>:
 800044c:	4a03      	ldr	r2, [pc, #12]	; (800045c <XMC_SCU_CLOCK_SetSystemClockSource+0x10>)
 800044e:	68d3      	ldr	r3, [r2, #12]
 8000450:	f423 3380 	bic.w	r3, r3, #65536	; 0x10000
 8000454:	4318      	orrs	r0, r3
 8000456:	60d0      	str	r0, [r2, #12]
 8000458:	4770      	bx	lr
 800045a:	bf00      	nop
 800045c:	50004600 	.word	0x50004600

08000460 <XMC_SCU_CLOCK_SetUsbClockSource>:
 8000460:	4a03      	ldr	r2, [pc, #12]	; (8000470 <XMC_SCU_CLOCK_SetUsbClockSource+0x10>)
 8000462:	6993      	ldr	r3, [r2, #24]
 8000464:	f423 3380 	bic.w	r3, r3, #65536	; 0x10000
 8000468:	4318      	orrs	r0, r3
 800046a:	6190      	str	r0, [r2, #24]
 800046c:	4770      	bx	lr
 800046e:	bf00      	nop
 8000470:	50004600 	.word	0x50004600

08000474 <XMC_SCU_CLOCK_SetWdtClockSource>:
 8000474:	4a03      	ldr	r2, [pc, #12]	; (8000484 <XMC_SCU_CLOCK_SetWdtClockSource+0x10>)
 8000476:	6a53      	ldr	r3, [r2, #36]	; 0x24
 8000478:	f423 3340 	bic.w	r3, r3, #196608	; 0x30000
 800047c:	4318      	orrs	r0, r3
 800047e:	6250      	str	r0, [r2, #36]	; 0x24
 8000480:	4770      	bx	lr
 8000482:	bf00      	nop
 8000484:	50004600 	.word	0x50004600

08000488 <XMC_SCU_CLOCK_SetSystemPllClockSource>:
 8000488:	4a06      	ldr	r2, [pc, #24]	; (80004a4 <XMC_SCU_CLOCK_SetSystemPllClockSource+0x1c>)
 800048a:	68d3      	ldr	r3, [r2, #12]
 800048c:	b920      	cbnz	r0, 8000498 <XMC_SCU_CLOCK_SetSystemPllClockSource+0x10>
 800048e:	f423 7380 	bic.w	r3, r3, #256	; 0x100
 8000492:	f023 0301 	bic.w	r3, r3, #1
 8000496:	e003      	b.n	80004a0 <XMC_SCU_CLOCK_SetSystemPllClockSource+0x18>
 8000498:	f443 7380 	orr.w	r3, r3, #256	; 0x100
 800049c:	f043 0301 	orr.w	r3, r3, #1
 80004a0:	60d3      	str	r3, [r2, #12]
 80004a2:	4770      	bx	lr
 80004a4:	50004710 	.word	0x50004710

080004a8 <XMC_SCU_HIB_SetRtcClockSource>:
 80004a8:	4b05      	ldr	r3, [pc, #20]	; (80004c0 <XMC_SCU_HIB_SetRtcClockSource+0x18>)
 80004aa:	f8d3 30c4 	ldr.w	r3, [r3, #196]	; 0xc4
 80004ae:	071b      	lsls	r3, r3, #28
 80004b0:	d4fa      	bmi.n	80004a8 <XMC_SCU_HIB_SetRtcClockSource>
 80004b2:	4a04      	ldr	r2, [pc, #16]	; (80004c4 <XMC_SCU_HIB_SetRtcClockSource+0x1c>)
 80004b4:	68d3      	ldr	r3, [r2, #12]
 80004b6:	f023 0340 	bic.w	r3, r3, #64	; 0x40
 80004ba:	4318      	orrs	r0, r3
 80004bc:	60d0      	str	r0, [r2, #12]
 80004be:	4770      	bx	lr
 80004c0:	50004000 	.word	0x50004000
 80004c4:	50004300 	.word	0x50004300

080004c8 <XMC_SCU_HIB_SetStandbyClockSource>:
 80004c8:	4b05      	ldr	r3, [pc, #20]	; (80004e0 <XMC_SCU_HIB_SetStandbyClockSource+0x18>)
 80004ca:	f8d3 30c4 	ldr.w	r3, [r3, #196]	; 0xc4
 80004ce:	071b      	lsls	r3, r3, #28
 80004d0:	d4fa      	bmi.n	80004c8 <XMC_SCU_HIB_SetStandbyClockSource>
 80004d2:	4a04      	ldr	r2, [pc, #16]	; (80004e4 <XMC_SCU_HIB_SetStandbyClockSource+0x1c>)
 80004d4:	68d3      	ldr	r3, [r2, #12]
 80004d6:	f023 0380 	bic.w	r3, r3, #128	; 0x80
 80004da:	4318      	orrs	r0, r3
 80004dc:	60d0      	str	r0, [r2, #12]
 80004de:	4770      	bx	lr
 80004e0:	50004000 	.word	0x50004000
 80004e4:	50004300 	.word	0x50004300

080004e8 <XMC_SCU_CLOCK_SetSystemClockDivider>:
 80004e8:	4a03      	ldr	r2, [pc, #12]	; (80004f8 <XMC_SCU_CLOCK_SetSystemClockDivider+0x10>)
 80004ea:	68d3      	ldr	r3, [r2, #12]
 80004ec:	3801      	subs	r0, #1
 80004ee:	f023 03ff 	bic.w	r3, r3, #255	; 0xff
 80004f2:	4303      	orrs	r3, r0
 80004f4:	60d3      	str	r3, [r2, #12]
 80004f6:	4770      	bx	lr
 80004f8:	50004600 	.word	0x50004600

080004fc <XMC_SCU_CLOCK_SetCcuClockDivider>:
 80004fc:	4a03      	ldr	r2, [pc, #12]	; (800050c <XMC_SCU_CLOCK_SetCcuClockDivider+0x10>)
 80004fe:	6a13      	ldr	r3, [r2, #32]
 8000500:	3801      	subs	r0, #1
 8000502:	f023 0301 	bic.w	r3, r3, #1
 8000506:	4303      	orrs	r3, r0
 8000508:	6213      	str	r3, [r2, #32]
 800050a:	4770      	bx	lr
 800050c:	50004600 	.word	0x50004600

08000510 <XMC_SCU_CLOCK_SetCpuClockDivider>:
 8000510:	4a03      	ldr	r2, [pc, #12]	; (8000520 <XMC_SCU_CLOCK_SetCpuClockDivider+0x10>)
 8000512:	6913      	ldr	r3, [r2, #16]
 8000514:	3801      	subs	r0, #1
 8000516:	f023 0301 	bic.w	r3, r3, #1
 800051a:	4303      	orrs	r3, r0
 800051c:	6113      	str	r3, [r2, #16]
 800051e:	4770      	bx	lr
 8000520:	50004600 	.word	0x50004600

08000524 <XMC_SCU_CLOCK_SetPeripheralClockDivider>:
 8000524:	4a03      	ldr	r2, [pc, #12]	; (8000534 <XMC_SCU_CLOCK_SetPeripheralClockDivider+0x10>)
 8000526:	6953      	ldr	r3, [r2, #20]
 8000528:	3801      	subs	r0, #1
 800052a:	f023 0301 	bic.w	r3, r3, #1
 800052e:	4303      	orrs	r3, r0
 8000530:	6153      	str	r3, [r2, #20]
 8000532:	4770      	bx	lr
 8000534:	50004600 	.word	0x50004600

08000538 <XMC_SCU_CLOCK_SetUsbClockDivider>:
 8000538:	4a03      	ldr	r2, [pc, #12]	; (8000548 <XMC_SCU_CLOCK_SetUsbClockDivider+0x10>)
 800053a:	6993      	ldr	r3, [r2, #24]
 800053c:	3801      	subs	r0, #1
 800053e:	f023 0307 	bic.w	r3, r3, #7
 8000542:	4303      	orrs	r3, r0
 8000544:	6193      	str	r3, [r2, #24]
 8000546:	4770      	bx	lr
 8000548:	50004600 	.word	0x50004600

0800054c <XMC_SCU_CLOCK_SetEbuClockDivider>:
 800054c:	4a03      	ldr	r2, [pc, #12]	; (800055c <XMC_SCU_CLOCK_SetEbuClockDivider+0x10>)
 800054e:	69d3      	ldr	r3, [r2, #28]
 8000550:	3801      	subs	r0, #1
 8000552:	f023 033f 	bic.w	r3, r3, #63	; 0x3f
 8000556:	4303      	orrs	r3, r0
 8000558:	61d3      	str	r3, [r2, #28]
 800055a:	4770      	bx	lr
 800055c:	50004600 	.word	0x50004600

08000560 <XMC_SCU_CLOCK_SetWdtClockDivider>:
 8000560:	4a03      	ldr	r2, [pc, #12]	; (8000570 <XMC_SCU_CLOCK_SetWdtClockDivider+0x10>)
 8000562:	6a53      	ldr	r3, [r2, #36]	; 0x24
 8000564:	3801      	subs	r0, #1
 8000566:	f023 03ff 	bic.w	r3, r3, #255	; 0xff
 800056a:	4303      	orrs	r3, r0
 800056c:	6253      	str	r3, [r2, #36]	; 0x24
 800056e:	4770      	bx	lr
 8000570:	50004600 	.word	0x50004600

08000574 <XMC_SCU_CLOCK_EnableClock>:
 8000574:	4b01      	ldr	r3, [pc, #4]	; (800057c <XMC_SCU_CLOCK_EnableClock+0x8>)
 8000576:	6058      	str	r0, [r3, #4]
 8000578:	4770      	bx	lr
 800057a:	bf00      	nop
 800057c:	50004600 	.word	0x50004600

08000580 <XMC_SCU_CLOCK_StartUsbPll>:
 8000580:	4b0f      	ldr	r3, [pc, #60]	; (80005c0 <XMC_SCU_CLOCK_StartUsbPll+0x40>)
 8000582:	695a      	ldr	r2, [r3, #20]
 8000584:	f042 0201 	orr.w	r2, r2, #1
 8000588:	615a      	str	r2, [r3, #20]
 800058a:	695a      	ldr	r2, [r3, #20]
 800058c:	3801      	subs	r0, #1
 800058e:	3901      	subs	r1, #1
 8000590:	0600      	lsls	r0, r0, #24
 8000592:	f042 0210 	orr.w	r2, r2, #16
 8000596:	ea40 2101 	orr.w	r1, r0, r1, lsl #8
 800059a:	615a      	str	r2, [r3, #20]
 800059c:	6159      	str	r1, [r3, #20]
 800059e:	695a      	ldr	r2, [r3, #20]
 80005a0:	f042 0240 	orr.w	r2, r2, #64	; 0x40
 80005a4:	615a      	str	r2, [r3, #20]
 80005a6:	695a      	ldr	r2, [r3, #20]
 80005a8:	f022 0210 	bic.w	r2, r2, #16
 80005ac:	615a      	str	r2, [r3, #20]
 80005ae:	695a      	ldr	r2, [r3, #20]
 80005b0:	f442 2280 	orr.w	r2, r2, #262144	; 0x40000
 80005b4:	615a      	str	r2, [r3, #20]
 80005b6:	691a      	ldr	r2, [r3, #16]
 80005b8:	0752      	lsls	r2, r2, #29
 80005ba:	d5fc      	bpl.n	80005b6 <XMC_SCU_CLOCK_StartUsbPll+0x36>
 80005bc:	4770      	bx	lr
 80005be:	bf00      	nop
 80005c0:	50004710 	.word	0x50004710

080005c4 <XMC_SCU_CLOCK_SetBackupClockCalibrationMode>:
 80005c4:	b510      	push	{r4, lr}
 80005c6:	4c0b      	ldr	r4, [pc, #44]	; (80005f4 <XMC_SCU_CLOCK_SetBackupClockCalibrationMode+0x30>)
 80005c8:	6863      	ldr	r3, [r4, #4]
 80005ca:	2801      	cmp	r0, #1
 80005cc:	f443 1380 	orr.w	r3, r3, #1048576	; 0x100000
 80005d0:	6063      	str	r3, [r4, #4]
 80005d2:	d10a      	bne.n	80005ea <XMC_SCU_CLOCK_SetBackupClockCalibrationMode+0x26>
 80005d4:	6863      	ldr	r3, [r4, #4]
 80005d6:	f423 1380 	bic.w	r3, r3, #1048576	; 0x100000
 80005da:	6063      	str	r3, [r4, #4]
 80005dc:	2064      	movs	r0, #100	; 0x64
 80005de:	f7ff ff09 	bl	80003f4 <XMC_SCU_lDelay>
 80005e2:	6863      	ldr	r3, [r4, #4]
 80005e4:	f443 2300 	orr.w	r3, r3, #524288	; 0x80000
 80005e8:	6063      	str	r3, [r4, #4]
 80005ea:	2064      	movs	r0, #100	; 0x64
 80005ec:	e8bd 4010 	ldmia.w	sp!, {r4, lr}
 80005f0:	f7ff bf00 	b.w	80003f4 <XMC_SCU_lDelay>
 80005f4:	50004710 	.word	0x50004710

080005f8 <XMC_SCU_HIB_EnableHibernateDomain>:
 80005f8:	4b0a      	ldr	r3, [pc, #40]	; (8000624 <XMC_SCU_HIB_EnableHibernateDomain+0x2c>)
 80005fa:	681a      	ldr	r2, [r3, #0]
 80005fc:	07d2      	lsls	r2, r2, #31
 80005fe:	d504      	bpl.n	800060a <XMC_SCU_HIB_EnableHibernateDomain+0x12>
 8000600:	4b09      	ldr	r3, [pc, #36]	; (8000628 <XMC_SCU_HIB_EnableHibernateDomain+0x30>)
 8000602:	681a      	ldr	r2, [r3, #0]
 8000604:	0590      	lsls	r0, r2, #22
 8000606:	d406      	bmi.n	8000616 <XMC_SCU_HIB_EnableHibernateDomain+0x1e>
 8000608:	4770      	bx	lr
 800060a:	2201      	movs	r2, #1
 800060c:	605a      	str	r2, [r3, #4]
 800060e:	681a      	ldr	r2, [r3, #0]
 8000610:	07d1      	lsls	r1, r2, #31
 8000612:	d5fc      	bpl.n	800060e <XMC_SCU_HIB_EnableHibernateDomain+0x16>
 8000614:	e7f4      	b.n	8000600 <XMC_SCU_HIB_EnableHibernateDomain+0x8>
 8000616:	f44f 7200 	mov.w	r2, #512	; 0x200
 800061a:	609a      	str	r2, [r3, #8]
 800061c:	681a      	ldr	r2, [r3, #0]
 800061e:	0592      	lsls	r2, r2, #22
 8000620:	d4fc      	bmi.n	800061c <XMC_SCU_HIB_EnableHibernateDomain+0x24>
 8000622:	4770      	bx	lr
 8000624:	50004200 	.word	0x50004200
 8000628:	50004400 	.word	0x50004400

0800062c <XMC_SCU_CLOCK_IsLowPowerOscillatorStable>:
 800062c:	4b03      	ldr	r3, [pc, #12]	; (800063c <XMC_SCU_CLOCK_IsLowPowerOscillatorStable+0x10>)
 800062e:	6818      	ldr	r0, [r3, #0]
 8000630:	f080 0008 	eor.w	r0, r0, #8
 8000634:	f3c0 00c0 	ubfx	r0, r0, #3, #1
 8000638:	4770      	bx	lr
 800063a:	bf00      	nop
 800063c:	50004300 	.word	0x50004300

08000640 <XMC_SCU_CLOCK_EnableLowPowerOscillator>:
 8000640:	4b10      	ldr	r3, [pc, #64]	; (8000684 <XMC_SCU_CLOCK_EnableLowPowerOscillator+0x44>)
 8000642:	f44f 0200 	mov.w	r2, #8388608	; 0x800000
 8000646:	60da      	str	r2, [r3, #12]
 8000648:	4a0f      	ldr	r2, [pc, #60]	; (8000688 <XMC_SCU_CLOCK_EnableLowPowerOscillator+0x48>)
 800064a:	69d1      	ldr	r1, [r2, #28]
 800064c:	f021 0130 	bic.w	r1, r1, #48	; 0x30
 8000650:	61d1      	str	r1, [r2, #28]
 8000652:	6859      	ldr	r1, [r3, #4]
 8000654:	0208      	lsls	r0, r1, #8
 8000656:	d5fc      	bpl.n	8000652 <XMC_SCU_CLOCK_EnableLowPowerOscillator+0x12>
 8000658:	490a      	ldr	r1, [pc, #40]	; (8000684 <XMC_SCU_CLOCK_EnableLowPowerOscillator+0x44>)
 800065a:	f44f 3000 	mov.w	r0, #131072	; 0x20000
 800065e:	60c8      	str	r0, [r1, #12]
 8000660:	2108      	movs	r1, #8
 8000662:	6051      	str	r1, [r2, #4]
 8000664:	685a      	ldr	r2, [r3, #4]
 8000666:	0391      	lsls	r1, r2, #14
 8000668:	d5fc      	bpl.n	8000664 <XMC_SCU_CLOCK_EnableLowPowerOscillator+0x24>
 800066a:	4a06      	ldr	r2, [pc, #24]	; (8000684 <XMC_SCU_CLOCK_EnableLowPowerOscillator+0x44>)
 800066c:	f44f 2100 	mov.w	r1, #524288	; 0x80000
 8000670:	60d1      	str	r1, [r2, #12]
 8000672:	4905      	ldr	r1, [pc, #20]	; (8000688 <XMC_SCU_CLOCK_EnableLowPowerOscillator+0x48>)
 8000674:	68ca      	ldr	r2, [r1, #12]
 8000676:	f042 0208 	orr.w	r2, r2, #8
 800067a:	60ca      	str	r2, [r1, #12]
 800067c:	685a      	ldr	r2, [r3, #4]
 800067e:	0312      	lsls	r2, r2, #12
 8000680:	d5fc      	bpl.n	800067c <XMC_SCU_CLOCK_EnableLowPowerOscillator+0x3c>
 8000682:	4770      	bx	lr
 8000684:	50004074 	.word	0x50004074
 8000688:	50004300 	.word	0x50004300

0800068c <XMC_SCU_CLOCK_EnableHighPerformanceOscillator>:
 800068c:	b570      	push	{r4, r5, r6, lr}
 800068e:	4d0c      	ldr	r5, [pc, #48]	; (80006c0 <XMC_SCU_CLOCK_EnableHighPerformanceOscillator+0x34>)
 8000690:	4e0c      	ldr	r6, [pc, #48]	; (80006c4 <XMC_SCU_CLOCK_EnableHighPerformanceOscillator+0x38>)
 8000692:	686b      	ldr	r3, [r5, #4]
 8000694:	f423 3380 	bic.w	r3, r3, #65536	; 0x10000
 8000698:	606b      	str	r3, [r5, #4]
 800069a:	6874      	ldr	r4, [r6, #4]
 800069c:	f002 f8b6 	bl	800280c <OSCHP_GetFrequency>
 80006a0:	4b09      	ldr	r3, [pc, #36]	; (80006c8 <XMC_SCU_CLOCK_EnableHighPerformanceOscillator+0x3c>)
 80006a2:	fbb0 f0f3 	udiv	r0, r0, r3
 80006a6:	f424 2370 	bic.w	r3, r4, #983040	; 0xf0000
 80006aa:	3801      	subs	r0, #1
 80006ac:	f023 0330 	bic.w	r3, r3, #48	; 0x30
 80006b0:	ea43 4300 	orr.w	r3, r3, r0, lsl #16
 80006b4:	6073      	str	r3, [r6, #4]
 80006b6:	686b      	ldr	r3, [r5, #4]
 80006b8:	f423 3300 	bic.w	r3, r3, #131072	; 0x20000
 80006bc:	606b      	str	r3, [r5, #4]
 80006be:	bd70      	pop	{r4, r5, r6, pc}
 80006c0:	50004710 	.word	0x50004710
 80006c4:	50004700 	.word	0x50004700
 80006c8:	002625a0 	.word	0x002625a0

080006cc <XMC_SCU_CLOCK_IsHighPerformanceOscillatorStable>:
 80006cc:	4b04      	ldr	r3, [pc, #16]	; (80006e0 <XMC_SCU_CLOCK_IsHighPerformanceOscillatorStable+0x14>)
 80006ce:	6818      	ldr	r0, [r3, #0]
 80006d0:	f400 7060 	and.w	r0, r0, #896	; 0x380
 80006d4:	f5a0 7360 	sub.w	r3, r0, #896	; 0x380
 80006d8:	4258      	negs	r0, r3
 80006da:	4158      	adcs	r0, r3
 80006dc:	4770      	bx	lr
 80006de:	bf00      	nop
 80006e0:	50004710 	.word	0x50004710

080006e4 <XMC_SCU_CLOCK_EnableSystemPll>:
 80006e4:	4a03      	ldr	r2, [pc, #12]	; (80006f4 <XMC_SCU_CLOCK_EnableSystemPll+0x10>)
 80006e6:	6853      	ldr	r3, [r2, #4]
 80006e8:	f423 3380 	bic.w	r3, r3, #65536	; 0x10000
 80006ec:	f023 0302 	bic.w	r3, r3, #2
 80006f0:	6053      	str	r3, [r2, #4]
 80006f2:	4770      	bx	lr
 80006f4:	50004710 	.word	0x50004710

080006f8 <XMC_SCU_CLOCK_DisableSystemPll>:
 80006f8:	4a03      	ldr	r2, [pc, #12]	; (8000708 <XMC_SCU_CLOCK_DisableSystemPll+0x10>)
 80006fa:	6853      	ldr	r3, [r2, #4]
 80006fc:	f443 3380 	orr.w	r3, r3, #65536	; 0x10000
 8000700:	f043 0302 	orr.w	r3, r3, #2
 8000704:	6053      	str	r3, [r2, #4]
 8000706:	4770      	bx	lr
 8000708:	50004710 	.word	0x50004710

0800070c <XMC_SCU_CLOCK_StepSystemPllFrequency>:
 800070c:	4a05      	ldr	r2, [pc, #20]	; (8000724 <XMC_SCU_CLOCK_StepSystemPllFrequency+0x18>)
 800070e:	6893      	ldr	r3, [r2, #8]
 8000710:	3801      	subs	r0, #1
 8000712:	f423 03fe 	bic.w	r3, r3, #8323072	; 0x7f0000
 8000716:	ea43 4300 	orr.w	r3, r3, r0, lsl #16
 800071a:	6093      	str	r3, [r2, #8]
 800071c:	2032      	movs	r0, #50	; 0x32
 800071e:	f7ff be69 	b.w	80003f4 <XMC_SCU_lDelay>
 8000722:	bf00      	nop
 8000724:	50004710 	.word	0x50004710

08000728 <XMC_SCU_CLOCK_StartSystemPll>:
 8000728:	e92d 41f0 	stmdb	sp!, {r4, r5, r6, r7, r8, lr}
 800072c:	460c      	mov	r4, r1
 800072e:	4605      	mov	r5, r0
 8000730:	4690      	mov	r8, r2
 8000732:	461f      	mov	r7, r3
 8000734:	9e06      	ldr	r6, [sp, #24]
 8000736:	f7ff fea7 	bl	8000488 <XMC_SCU_CLOCK_SetSystemPllClockSource>
 800073a:	2c01      	cmp	r4, #1
 800073c:	4c31      	ldr	r4, [pc, #196]	; (8000804 <XMC_SCU_CLOCK_StartSystemPll+0xdc>)
 800073e:	d152      	bne.n	80007e6 <XMC_SCU_CLOCK_StartSystemPll+0xbe>
 8000740:	b935      	cbnz	r5, 8000750 <XMC_SCU_CLOCK_StartSystemPll+0x28>
 8000742:	f002 f863 	bl	800280c <OSCHP_GetFrequency>
 8000746:	4d30      	ldr	r5, [pc, #192]	; (8000808 <XMC_SCU_CLOCK_StartSystemPll+0xe0>)
 8000748:	fbb0 f0f5 	udiv	r0, r0, r5
 800074c:	0580      	lsls	r0, r0, #22
 800074e:	e001      	b.n	8000754 <XMC_SCU_CLOCK_StartSystemPll+0x2c>
 8000750:	f04f 60c0 	mov.w	r0, #100663296	; 0x6000000
 8000754:	6863      	ldr	r3, [r4, #4]
 8000756:	f043 0301 	orr.w	r3, r3, #1
 800075a:	6063      	str	r3, [r4, #4]
 800075c:	6863      	ldr	r3, [r4, #4]
 800075e:	f043 0310 	orr.w	r3, r3, #16
 8000762:	6063      	str	r3, [r4, #4]
 8000764:	68a1      	ldr	r1, [r4, #8]
 8000766:	4b29      	ldr	r3, [pc, #164]	; (800080c <XMC_SCU_CLOCK_StartSystemPll+0xe4>)
 8000768:	f108 32ff 	add.w	r2, r8, #4294967295
 800076c:	400b      	ands	r3, r1
 800076e:	ea43 6302 	orr.w	r3, r3, r2, lsl #24
 8000772:	1e7a      	subs	r2, r7, #1
 8000774:	ea43 2202 	orr.w	r2, r3, r2, lsl #8
 8000778:	4378      	muls	r0, r7
 800077a:	2318      	movs	r3, #24
 800077c:	fbb0 f5f8 	udiv	r5, r0, r8
 8000780:	fbb5 f3f3 	udiv	r3, r5, r3
 8000784:	0d9b      	lsrs	r3, r3, #22
 8000786:	3b01      	subs	r3, #1
 8000788:	ea42 4303 	orr.w	r3, r2, r3, lsl #16
 800078c:	60a3      	str	r3, [r4, #8]
 800078e:	6863      	ldr	r3, [r4, #4]
 8000790:	f043 0340 	orr.w	r3, r3, #64	; 0x40
 8000794:	6063      	str	r3, [r4, #4]
 8000796:	6863      	ldr	r3, [r4, #4]
 8000798:	f023 0310 	bic.w	r3, r3, #16
 800079c:	6063      	str	r3, [r4, #4]
 800079e:	6863      	ldr	r3, [r4, #4]
 80007a0:	f443 2380 	orr.w	r3, r3, #262144	; 0x40000
 80007a4:	6063      	str	r3, [r4, #4]
 80007a6:	6823      	ldr	r3, [r4, #0]
 80007a8:	4a16      	ldr	r2, [pc, #88]	; (8000804 <XMC_SCU_CLOCK_StartSystemPll+0xdc>)
 80007aa:	0759      	lsls	r1, r3, #29
 80007ac:	d5fb      	bpl.n	80007a6 <XMC_SCU_CLOCK_StartSystemPll+0x7e>
 80007ae:	6853      	ldr	r3, [r2, #4]
 80007b0:	f023 0301 	bic.w	r3, r3, #1
 80007b4:	6053      	str	r3, [r2, #4]
 80007b6:	6823      	ldr	r3, [r4, #0]
 80007b8:	07da      	lsls	r2, r3, #31
 80007ba:	d4fc      	bmi.n	80007b6 <XMC_SCU_CLOCK_StartSystemPll+0x8e>
 80007bc:	203c      	movs	r0, #60	; 0x3c
 80007be:	fbb5 f0f0 	udiv	r0, r5, r0
 80007c2:	0d80      	lsrs	r0, r0, #22
 80007c4:	4286      	cmp	r6, r0
 80007c6:	d201      	bcs.n	80007cc <XMC_SCU_CLOCK_StartSystemPll+0xa4>
 80007c8:	f7ff ffa0 	bl	800070c <XMC_SCU_CLOCK_StepSystemPllFrequency>
 80007cc:	205a      	movs	r0, #90	; 0x5a
 80007ce:	fbb5 f0f0 	udiv	r0, r5, r0
 80007d2:	0d80      	lsrs	r0, r0, #22
 80007d4:	4286      	cmp	r6, r0
 80007d6:	d201      	bcs.n	80007dc <XMC_SCU_CLOCK_StartSystemPll+0xb4>
 80007d8:	f7ff ff98 	bl	800070c <XMC_SCU_CLOCK_StepSystemPllFrequency>
 80007dc:	4630      	mov	r0, r6
 80007de:	e8bd 41f0 	ldmia.w	sp!, {r4, r5, r6, r7, r8, lr}
 80007e2:	f7ff bf93 	b.w	800070c <XMC_SCU_CLOCK_StepSystemPllFrequency>
 80007e6:	68a3      	ldr	r3, [r4, #8]
 80007e8:	3e01      	subs	r6, #1
 80007ea:	f023 037f 	bic.w	r3, r3, #127	; 0x7f
 80007ee:	431e      	orrs	r6, r3
 80007f0:	60a6      	str	r6, [r4, #8]
 80007f2:	6863      	ldr	r3, [r4, #4]
 80007f4:	f043 0301 	orr.w	r3, r3, #1
 80007f8:	6063      	str	r3, [r4, #4]
 80007fa:	6823      	ldr	r3, [r4, #0]
 80007fc:	07db      	lsls	r3, r3, #31
 80007fe:	d5fc      	bpl.n	80007fa <XMC_SCU_CLOCK_StartSystemPll+0xd2>
 8000800:	e8bd 81f0 	ldmia.w	sp!, {r4, r5, r6, r7, r8, pc}
 8000804:	50004710 	.word	0x50004710
 8000808:	000f4240 	.word	0x000f4240
 800080c:	f08080ff 	.word	0xf08080ff

08000810 <XMC_SCU_CLOCK_Init>:
 8000810:	b537      	push	{r0, r1, r2, r4, r5, lr}
 8000812:	4604      	mov	r4, r0
 8000814:	2000      	movs	r0, #0
 8000816:	f7ff fe19 	bl	800044c <XMC_SCU_CLOCK_SetSystemClockSource>
 800081a:	f7ff feed 	bl	80005f8 <XMC_SCU_HIB_EnableHibernateDomain>
 800081e:	79e3      	ldrb	r3, [r4, #7]
 8000820:	b91b      	cbnz	r3, 800082a <XMC_SCU_CLOCK_Init+0x1a>
 8000822:	7a60      	ldrb	r0, [r4, #9]
 8000824:	f7ff fe50 	bl	80004c8 <XMC_SCU_HIB_SetStandbyClockSource>
 8000828:	e006      	b.n	8000838 <XMC_SCU_CLOCK_Init+0x28>
 800082a:	f7ff ff09 	bl	8000640 <XMC_SCU_CLOCK_EnableLowPowerOscillator>
 800082e:	f7ff fefd 	bl	800062c <XMC_SCU_CLOCK_IsLowPowerOscillatorStable>
 8000832:	2800      	cmp	r0, #0
 8000834:	d0fb      	beq.n	800082e <XMC_SCU_CLOCK_Init+0x1e>
 8000836:	e7f4      	b.n	8000822 <XMC_SCU_CLOCK_Init+0x12>
 8000838:	4b1b      	ldr	r3, [pc, #108]	; (80008a8 <XMC_SCU_CLOCK_Init+0x98>)
 800083a:	f8d3 30c4 	ldr.w	r3, [r3, #196]	; 0xc4
 800083e:	2b00      	cmp	r3, #0
 8000840:	d1fa      	bne.n	8000838 <XMC_SCU_CLOCK_Init+0x28>
 8000842:	7a20      	ldrb	r0, [r4, #8]
 8000844:	f7ff febe 	bl	80005c4 <XMC_SCU_CLOCK_SetBackupClockCalibrationMode>
 8000848:	7c20      	ldrb	r0, [r4, #16]
 800084a:	f7ff fe4d 	bl	80004e8 <XMC_SCU_CLOCK_SetSystemClockDivider>
 800084e:	7c60      	ldrb	r0, [r4, #17]
 8000850:	f7ff fe5e 	bl	8000510 <XMC_SCU_CLOCK_SetCpuClockDivider>
 8000854:	7ca0      	ldrb	r0, [r4, #18]
 8000856:	f7ff fe51 	bl	80004fc <XMC_SCU_CLOCK_SetCcuClockDivider>
 800085a:	7ce0      	ldrb	r0, [r4, #19]
 800085c:	f7ff fe62 	bl	8000524 <XMC_SCU_CLOCK_SetPeripheralClockDivider>
 8000860:	79a3      	ldrb	r3, [r4, #6]
 8000862:	b923      	cbnz	r3, 800086e <XMC_SCU_CLOCK_Init+0x5e>
 8000864:	78e3      	ldrb	r3, [r4, #3]
 8000866:	b94b      	cbnz	r3, 800087c <XMC_SCU_CLOCK_Init+0x6c>
 8000868:	f7ff ff46 	bl	80006f8 <XMC_SCU_CLOCK_DisableSystemPll>
 800086c:	e010      	b.n	8000890 <XMC_SCU_CLOCK_Init+0x80>
 800086e:	f7ff ff0d 	bl	800068c <XMC_SCU_CLOCK_EnableHighPerformanceOscillator>
 8000872:	f7ff ff2b 	bl	80006cc <XMC_SCU_CLOCK_IsHighPerformanceOscillatorStable>
 8000876:	2800      	cmp	r0, #0
 8000878:	d0fb      	beq.n	8000872 <XMC_SCU_CLOCK_Init+0x62>
 800087a:	e7f3      	b.n	8000864 <XMC_SCU_CLOCK_Init+0x54>
 800087c:	f7ff ff32 	bl	80006e4 <XMC_SCU_CLOCK_EnableSystemPll>
 8000880:	78a5      	ldrb	r5, [r4, #2]
 8000882:	88a0      	ldrh	r0, [r4, #4]
 8000884:	78e1      	ldrb	r1, [r4, #3]
 8000886:	7862      	ldrb	r2, [r4, #1]
 8000888:	7823      	ldrb	r3, [r4, #0]
 800088a:	9500      	str	r5, [sp, #0]
 800088c:	f7ff ff4c 	bl	8000728 <XMC_SCU_CLOCK_StartSystemPll>
 8000890:	68e0      	ldr	r0, [r4, #12]
 8000892:	f5b0 3f80 	cmp.w	r0, #65536	; 0x10000
 8000896:	d101      	bne.n	800089c <XMC_SCU_CLOCK_Init+0x8c>
 8000898:	f7ff fdd8 	bl	800044c <XMC_SCU_CLOCK_SetSystemClockSource>
 800089c:	b003      	add	sp, #12
 800089e:	e8bd 4030 	ldmia.w	sp!, {r4, r5, lr}
 80008a2:	f7ff bd07 	b.w	80002b4 <SystemCoreClockUpdate>
 80008a6:	bf00      	nop
 80008a8:	50004000 	.word	0x50004000

080008ac <XMC_CAN_NODE_NominalBitTimeConfigure>:
 80008ac:	680b      	ldr	r3, [r1, #0]
 80008ae:	e92d 43f0 	stmdb	sp!, {r4, r5, r6, r7, r8, r9, lr}
 80008b2:	f04f 080a 	mov.w	r8, #10
 80008b6:	fb08 f803 	mul.w	r8, r8, r3
 80008ba:	f8d1 e004 	ldr.w	lr, [r1, #4]
 80008be:	2300      	movs	r3, #0
 80008c0:	f242 7910 	movw	r9, #10000	; 0x2710
 80008c4:	461e      	mov	r6, r3
 80008c6:	2701      	movs	r7, #1
 80008c8:	220a      	movs	r2, #10
 80008ca:	fbb8 f4f7 	udiv	r4, r8, r7
 80008ce:	fbb4 fcfe 	udiv	ip, r4, lr
 80008d2:	fbbc f5f2 	udiv	r5, ip, r2
 80008d6:	fb02 cc15 	mls	ip, r2, r5, ip
 80008da:	f1bc 0f05 	cmp.w	ip, #5
 80008de:	4694      	mov	ip, r2
 80008e0:	d901      	bls.n	80008e6 <XMC_CAN_NODE_NominalBitTimeConfigure+0x3a>
 80008e2:	3501      	adds	r5, #1
 80008e4:	e000      	b.n	80008e8 <XMC_CAN_NODE_NominalBitTimeConfigure+0x3c>
 80008e6:	b125      	cbz	r5, 80008f2 <XMC_CAN_NODE_NominalBitTimeConfigure+0x46>
 80008e8:	fb0c f205 	mul.w	r2, ip, r5
 80008ec:	fbb4 f2f2 	udiv	r2, r4, r2
 80008f0:	e002      	b.n	80008f8 <XMC_CAN_NODE_NominalBitTimeConfigure+0x4c>
 80008f2:	2501      	movs	r5, #1
 80008f4:	fbb4 f2f2 	udiv	r2, r4, r2
 80008f8:	4572      	cmp	r2, lr
 80008fa:	bf2c      	ite	cs
 80008fc:	ebce 0202 	rsbcs	r2, lr, r2
 8000900:	ebc2 020e 	rsbcc	r2, r2, lr
 8000904:	2d14      	cmp	r5, #20
 8000906:	d807      	bhi.n	8000918 <XMC_CAN_NODE_NominalBitTimeConfigure+0x6c>
 8000908:	4591      	cmp	r9, r2
 800090a:	d905      	bls.n	8000918 <XMC_CAN_NODE_NominalBitTimeConfigure+0x6c>
 800090c:	f5b2 7f7a 	cmp.w	r2, #1000	; 0x3e8
 8000910:	d306      	bcc.n	8000920 <XMC_CAN_NODE_NominalBitTimeConfigure+0x74>
 8000912:	4691      	mov	r9, r2
 8000914:	462b      	mov	r3, r5
 8000916:	463e      	mov	r6, r7
 8000918:	3701      	adds	r7, #1
 800091a:	2f41      	cmp	r7, #65	; 0x41
 800091c:	d1d4      	bne.n	80008c8 <XMC_CAN_NODE_NominalBitTimeConfigure+0x1c>
 800091e:	e001      	b.n	8000924 <XMC_CAN_NODE_NominalBitTimeConfigure+0x78>
 8000920:	462b      	mov	r3, r5
 8000922:	463e      	mov	r6, r7
 8000924:	890f      	ldrh	r7, [r1, #8]
 8000926:	f242 7e10 	movw	lr, #10000	; 0x2710
 800092a:	2401      	movs	r4, #1
 800092c:	2540      	movs	r5, #64	; 0x40
 800092e:	f242 7210 	movw	r2, #10000	; 0x2710
 8000932:	fb05 2202 	mla	r2, r5, r2, r2
 8000936:	fbb2 f2f3 	udiv	r2, r2, r3
 800093a:	42ba      	cmp	r2, r7
 800093c:	d305      	bcc.n	800094a <XMC_CAN_NODE_NominalBitTimeConfigure+0x9e>
 800093e:	1bd2      	subs	r2, r2, r7
 8000940:	4596      	cmp	lr, r2
 8000942:	d907      	bls.n	8000954 <XMC_CAN_NODE_NominalBitTimeConfigure+0xa8>
 8000944:	4696      	mov	lr, r2
 8000946:	462c      	mov	r4, r5
 8000948:	e004      	b.n	8000954 <XMC_CAN_NODE_NominalBitTimeConfigure+0xa8>
 800094a:	1aba      	subs	r2, r7, r2
 800094c:	4596      	cmp	lr, r2
 800094e:	bf88      	it	hi
 8000950:	462c      	movhi	r4, r5
 8000952:	e002      	b.n	800095a <XMC_CAN_NODE_NominalBitTimeConfigure+0xae>
 8000954:	3d01      	subs	r5, #1
 8000956:	2d02      	cmp	r5, #2
 8000958:	d1e9      	bne.n	800092e <XMC_CAN_NODE_NominalBitTimeConfigure+0x82>
 800095a:	6802      	ldr	r2, [r0, #0]
 800095c:	f042 0240 	orr.w	r2, r2, #64	; 0x40
 8000960:	6002      	str	r2, [r0, #0]
 8000962:	894a      	ldrh	r2, [r1, #10]
 8000964:	3a01      	subs	r2, #1
 8000966:	3e01      	subs	r6, #1
 8000968:	0192      	lsls	r2, r2, #6
 800096a:	1e61      	subs	r1, r4, #1
 800096c:	f006 063f 	and.w	r6, r6, #63	; 0x3f
 8000970:	b2d2      	uxtb	r2, r2
 8000972:	0209      	lsls	r1, r1, #8
 8000974:	4332      	orrs	r2, r6
 8000976:	f401 6170 	and.w	r1, r1, #3840	; 0xf00
 800097a:	4311      	orrs	r1, r2
 800097c:	1e9a      	subs	r2, r3, #2
 800097e:	1b13      	subs	r3, r2, r4
 8000980:	031b      	lsls	r3, r3, #12
 8000982:	f403 43e0 	and.w	r3, r3, #28672	; 0x7000
 8000986:	430b      	orrs	r3, r1
 8000988:	6103      	str	r3, [r0, #16]
 800098a:	6803      	ldr	r3, [r0, #0]
 800098c:	f023 0340 	bic.w	r3, r3, #64	; 0x40
 8000990:	6003      	str	r3, [r0, #0]
 8000992:	e8bd 83f0 	ldmia.w	sp!, {r4, r5, r6, r7, r8, r9, pc}

08000996 <XMC_CAN_AllocateMOtoNodeList>:
 8000996:	f8d0 31c4 	ldr.w	r3, [r0, #452]	; 0x1c4
 800099a:	f413 7f40 	tst.w	r3, #768	; 0x300
 800099e:	d1fa      	bne.n	8000996 <XMC_CAN_AllocateMOtoNodeList>
 80009a0:	0412      	lsls	r2, r2, #16
 80009a2:	f042 0202 	orr.w	r2, r2, #2
 80009a6:	3101      	adds	r1, #1
 80009a8:	ea42 6101 	orr.w	r1, r2, r1, lsl #24
 80009ac:	f8c0 11c4 	str.w	r1, [r0, #452]	; 0x1c4
 80009b0:	4770      	bx	lr
	...

080009b4 <XMC_CAN_Enable>:
 80009b4:	b510      	push	{r4, lr}
 80009b6:	4604      	mov	r4, r0
 80009b8:	4805      	ldr	r0, [pc, #20]	; (80009d0 <XMC_CAN_Enable+0x1c>)
 80009ba:	f7ff fd31 	bl	8000420 <XMC_SCU_RESET_DeassertPeripheralReset>
 80009be:	6823      	ldr	r3, [r4, #0]
 80009c0:	f023 0301 	bic.w	r3, r3, #1
 80009c4:	6023      	str	r3, [r4, #0]
 80009c6:	6823      	ldr	r3, [r4, #0]
 80009c8:	079b      	lsls	r3, r3, #30
 80009ca:	d4fc      	bmi.n	80009c6 <XMC_CAN_Enable+0x12>
 80009cc:	bd10      	pop	{r4, pc}
 80009ce:	bf00      	nop
 80009d0:	10000010 	.word	0x10000010

080009d4 <XMC_CAN_Init>:
 80009d4:	b570      	push	{r4, r5, r6, lr}
 80009d6:	460e      	mov	r6, r1
 80009d8:	4605      	mov	r5, r0
 80009da:	f7ff fd2b 	bl	8000434 <XMC_SCU_CLOCK_GetPeripheralClockFrequency>
 80009de:	4604      	mov	r4, r0
 80009e0:	4628      	mov	r0, r5
 80009e2:	f7ff ffe7 	bl	80009b4 <XMC_CAN_Enable>
 80009e6:	fbb4 f2f6 	udiv	r2, r4, r6
 80009ea:	f5c2 6280 	rsb	r2, r2, #1024	; 0x400
 80009ee:	2a00      	cmp	r2, #0
 80009f0:	f240 31ff 	movw	r1, #1023	; 0x3ff
 80009f4:	bf38      	it	cc
 80009f6:	2200      	movcc	r2, #0
 80009f8:	428a      	cmp	r2, r1
 80009fa:	ea4f 1396 	mov.w	r3, r6, lsr #6
 80009fe:	bf28      	it	cs
 8000a00:	460a      	movcs	r2, r1
 8000a02:	09a0      	lsrs	r0, r4, #6
 8000a04:	029b      	lsls	r3, r3, #10
 8000a06:	fbb3 f3f0 	udiv	r3, r3, r0
 8000a0a:	428b      	cmp	r3, r1
 8000a0c:	bf28      	it	cs
 8000a0e:	460b      	movcs	r3, r1
 8000a10:	4358      	muls	r0, r3
 8000a12:	0a80      	lsrs	r0, r0, #10
 8000a14:	f5c2 6180 	rsb	r1, r2, #1024	; 0x400
 8000a18:	fbb4 f4f1 	udiv	r4, r4, r1
 8000a1c:	eba6 1180 	sub.w	r1, r6, r0, lsl #6
 8000a20:	1b34      	subs	r4, r6, r4
 8000a22:	428c      	cmp	r4, r1
 8000a24:	bf98      	it	ls
 8000a26:	4613      	movls	r3, r2
 8000a28:	68ea      	ldr	r2, [r5, #12]
 8000a2a:	f422 4243 	bic.w	r2, r2, #49920	; 0xc300
 8000a2e:	f022 02ff 	bic.w	r2, r2, #255	; 0xff
 8000a32:	60ea      	str	r2, [r5, #12]
 8000a34:	68ea      	ldr	r2, [r5, #12]
 8000a36:	bf8c      	ite	hi
 8000a38:	2102      	movhi	r1, #2
 8000a3a:	2101      	movls	r1, #1
 8000a3c:	4313      	orrs	r3, r2
 8000a3e:	ea43 3381 	orr.w	r3, r3, r1, lsl #14
 8000a42:	60eb      	str	r3, [r5, #12]
 8000a44:	bd70      	pop	{r4, r5, r6, pc}
	...

08000a48 <XMC_CAN_MO_UpdateData>:
 8000a48:	7e03      	ldrb	r3, [r0, #24]
 8000a4a:	2b01      	cmp	r3, #1
 8000a4c:	d114      	bne.n	8000a78 <XMC_CAN_MO_UpdateData+0x30>
 8000a4e:	6803      	ldr	r3, [r0, #0]
 8000a50:	2220      	movs	r2, #32
 8000a52:	61da      	str	r2, [r3, #28]
 8000a54:	6803      	ldr	r3, [r0, #0]
 8000a56:	7b01      	ldrb	r1, [r0, #12]
 8000a58:	681a      	ldr	r2, [r3, #0]
 8000a5a:	0609      	lsls	r1, r1, #24
 8000a5c:	f001 6170 	and.w	r1, r1, #251658240	; 0xf000000
 8000a60:	f022 6270 	bic.w	r2, r2, #251658240	; 0xf000000
 8000a64:	430a      	orrs	r2, r1
 8000a66:	601a      	str	r2, [r3, #0]
 8000a68:	6902      	ldr	r2, [r0, #16]
 8000a6a:	611a      	str	r2, [r3, #16]
 8000a6c:	6942      	ldr	r2, [r0, #20]
 8000a6e:	615a      	str	r2, [r3, #20]
 8000a70:	4a02      	ldr	r2, [pc, #8]	; (8000a7c <XMC_CAN_MO_UpdateData+0x34>)
 8000a72:	61da      	str	r2, [r3, #28]
 8000a74:	2000      	movs	r0, #0
 8000a76:	4770      	bx	lr
 8000a78:	2003      	movs	r0, #3
 8000a7a:	4770      	bx	lr
 8000a7c:	00280040 	.word	0x00280040

08000a80 <XMC_CAN_MO_Config>:
 8000a80:	6802      	ldr	r2, [r0, #0]
 8000a82:	6891      	ldr	r1, [r2, #8]
 8000a84:	f102 4338 	add.w	r3, r2, #3087007744	; 0xb8000000
 8000a88:	f421 417f 	bic.w	r1, r1, #65280	; 0xff00
 8000a8c:	b510      	push	{r4, lr}
 8000a8e:	f5a3 33a8 	sub.w	r3, r3, #86016	; 0x15000
 8000a92:	6091      	str	r1, [r2, #8]
 8000a94:	6891      	ldr	r1, [r2, #8]
 8000a96:	00db      	lsls	r3, r3, #3
 8000a98:	f023 03ff 	bic.w	r3, r3, #255	; 0xff
 8000a9c:	430b      	orrs	r3, r1
 8000a9e:	6093      	str	r3, [r2, #8]
 8000aa0:	7e03      	ldrb	r3, [r0, #24]
 8000aa2:	2b01      	cmp	r3, #1
 8000aa4:	4604      	mov	r4, r0
 8000aa6:	d828      	bhi.n	8000afa <XMC_CAN_MO_Config+0x7a>
 8000aa8:	2320      	movs	r3, #32
 8000aaa:	61d3      	str	r3, [r2, #28]
 8000aac:	79c3      	ldrb	r3, [r0, #7]
 8000aae:	6842      	ldr	r2, [r0, #4]
 8000ab0:	f013 0f20 	tst.w	r3, #32
 8000ab4:	bf08      	it	eq
 8000ab6:	f002 4160 	andeq.w	r1, r2, #3758096384	; 0xe0000000
 8000aba:	6803      	ldr	r3, [r0, #0]
 8000abc:	bf03      	ittte	eq
 8000abe:	ea41 4282 	orreq.w	r2, r1, r2, lsl #18
 8000ac2:	619a      	streq	r2, [r3, #24]
 8000ac4:	6881      	ldreq	r1, [r0, #8]
 8000ac6:	619a      	strne	r2, [r3, #24]
 8000ac8:	bf06      	itte	eq
 8000aca:	f001 4260 	andeq.w	r2, r1, #3758096384	; 0xe0000000
 8000ace:	ea42 4281 	orreq.w	r2, r2, r1, lsl #18
 8000ad2:	6882      	ldrne	r2, [r0, #8]
 8000ad4:	60da      	str	r2, [r3, #12]
 8000ad6:	7e02      	ldrb	r2, [r0, #24]
 8000ad8:	2a01      	cmp	r2, #1
 8000ada:	d108      	bne.n	8000aee <XMC_CAN_MO_Config+0x6e>
 8000adc:	f7ff ffb4 	bl	8000a48 <XMC_CAN_MO_UpdateData>
 8000ae0:	6823      	ldr	r3, [r4, #0]
 8000ae2:	f04f 6200 	mov.w	r2, #134217728	; 0x8000000
 8000ae6:	61da      	str	r2, [r3, #28]
 8000ae8:	6823      	ldr	r3, [r4, #0]
 8000aea:	4a04      	ldr	r2, [pc, #16]	; (8000afc <XMC_CAN_MO_Config+0x7c>)
 8000aec:	e004      	b.n	8000af8 <XMC_CAN_MO_Config+0x78>
 8000aee:	f44f 6200 	mov.w	r2, #2048	; 0x800
 8000af2:	61da      	str	r2, [r3, #28]
 8000af4:	6803      	ldr	r3, [r0, #0]
 8000af6:	4a02      	ldr	r2, [pc, #8]	; (8000b00 <XMC_CAN_MO_Config+0x80>)
 8000af8:	61da      	str	r2, [r3, #28]
 8000afa:	bd10      	pop	{r4, pc}
 8000afc:	062000c0 	.word	0x062000c0
 8000b00:	00a00640 	.word	0x00a00640

08000b04 <XMC_CAN_MO_Transmit>:
 8000b04:	6803      	ldr	r3, [r0, #0]
 8000b06:	69d9      	ldr	r1, [r3, #28]
 8000b08:	69da      	ldr	r2, [r3, #28]
 8000b0a:	0689      	lsls	r1, r1, #26
 8000b0c:	d506      	bpl.n	8000b1c <XMC_CAN_MO_Transmit+0x18>
 8000b0e:	05d2      	lsls	r2, r2, #23
 8000b10:	d406      	bmi.n	8000b20 <XMC_CAN_MO_Transmit+0x1c>
 8000b12:	f04f 62e0 	mov.w	r2, #117440512	; 0x7000000
 8000b16:	61da      	str	r2, [r3, #28]
 8000b18:	2000      	movs	r0, #0
 8000b1a:	4770      	bx	lr
 8000b1c:	2004      	movs	r0, #4
 8000b1e:	4770      	bx	lr
 8000b20:	2002      	movs	r0, #2
 8000b22:	4770      	bx	lr

08000b24 <XMC_CAN_MO_Receive>:
 8000b24:	6803      	ldr	r3, [r0, #0]
 8000b26:	69da      	ldr	r2, [r3, #28]
 8000b28:	69db      	ldr	r3, [r3, #28]
 8000b2a:	0512      	lsls	r2, r2, #20
 8000b2c:	d44e      	bmi.n	8000bcc <XMC_CAN_MO_Receive+0xa8>
 8000b2e:	0759      	lsls	r1, r3, #29
 8000b30:	d44e      	bmi.n	8000bd0 <XMC_CAN_MO_Receive+0xac>
 8000b32:	6803      	ldr	r3, [r0, #0]
 8000b34:	2208      	movs	r2, #8
 8000b36:	61da      	str	r2, [r3, #28]
 8000b38:	6803      	ldr	r3, [r0, #0]
 8000b3a:	79c2      	ldrb	r2, [r0, #7]
 8000b3c:	6999      	ldr	r1, [r3, #24]
 8000b3e:	f3c1 7140 	ubfx	r1, r1, #29, #1
 8000b42:	b9d9      	cbnz	r1, 8000b7c <XMC_CAN_MO_Receive+0x58>
 8000b44:	f361 1245 	bfi	r2, r1, #5, #1
 8000b48:	71c2      	strb	r2, [r0, #7]
 8000b4a:	699a      	ldr	r2, [r3, #24]
 8000b4c:	6841      	ldr	r1, [r0, #4]
 8000b4e:	f3c2 428a 	ubfx	r2, r2, #18, #11
 8000b52:	f362 011c 	bfi	r1, r2, #0, #29
 8000b56:	6041      	str	r1, [r0, #4]
 8000b58:	68d9      	ldr	r1, [r3, #12]
 8000b5a:	7ac2      	ldrb	r2, [r0, #11]
 8000b5c:	f3c1 7140 	ubfx	r1, r1, #29, #1
 8000b60:	f361 1245 	bfi	r2, r1, #5, #1
 8000b64:	72c2      	strb	r2, [r0, #11]
 8000b66:	68d9      	ldr	r1, [r3, #12]
 8000b68:	f012 0f20 	tst.w	r2, #32
 8000b6c:	6882      	ldr	r2, [r0, #8]
 8000b6e:	bf18      	it	ne
 8000b70:	f3c1 418a 	ubfxne	r1, r1, #18, #11
 8000b74:	f361 021c 	bfi	r2, r1, #0, #29
 8000b78:	6082      	str	r2, [r0, #8]
 8000b7a:	e013      	b.n	8000ba4 <XMC_CAN_MO_Receive+0x80>
 8000b7c:	f042 0220 	orr.w	r2, r2, #32
 8000b80:	71c2      	strb	r2, [r0, #7]
 8000b82:	6999      	ldr	r1, [r3, #24]
 8000b84:	6842      	ldr	r2, [r0, #4]
 8000b86:	f361 021c 	bfi	r2, r1, #0, #29
 8000b8a:	6042      	str	r2, [r0, #4]
 8000b8c:	68d9      	ldr	r1, [r3, #12]
 8000b8e:	6882      	ldr	r2, [r0, #8]
 8000b90:	f361 021c 	bfi	r2, r1, #0, #29
 8000b94:	6082      	str	r2, [r0, #8]
 8000b96:	68da      	ldr	r2, [r3, #12]
 8000b98:	7ac1      	ldrb	r1, [r0, #11]
 8000b9a:	f3c2 7240 	ubfx	r2, r2, #29, #1
 8000b9e:	f362 1145 	bfi	r1, r2, #5, #1
 8000ba2:	72c1      	strb	r1, [r0, #11]
 8000ba4:	681a      	ldr	r2, [r3, #0]
 8000ba6:	f3c2 6203 	ubfx	r2, r2, #24, #4
 8000baa:	7302      	strb	r2, [r0, #12]
 8000bac:	691a      	ldr	r2, [r3, #16]
 8000bae:	6102      	str	r2, [r0, #16]
 8000bb0:	695a      	ldr	r2, [r3, #20]
 8000bb2:	6142      	str	r2, [r0, #20]
 8000bb4:	69da      	ldr	r2, [r3, #28]
 8000bb6:	69db      	ldr	r3, [r3, #28]
 8000bb8:	0752      	lsls	r2, r2, #29
 8000bba:	f3c3 03c0 	ubfx	r3, r3, #3, #1
 8000bbe:	d501      	bpl.n	8000bc4 <XMC_CAN_MO_Receive+0xa0>
 8000bc0:	2b00      	cmp	r3, #0
 8000bc2:	d1b6      	bne.n	8000b32 <XMC_CAN_MO_Receive+0xe>
 8000bc4:	2300      	movs	r3, #0
 8000bc6:	7603      	strb	r3, [r0, #24]
 8000bc8:	4618      	mov	r0, r3
 8000bca:	4770      	bx	lr
 8000bcc:	2003      	movs	r0, #3
 8000bce:	4770      	bx	lr
 8000bd0:	2002      	movs	r0, #2
 8000bd2:	4770      	bx	lr

08000bd4 <XMC_CAN_NODE_EnableEvent>:
 8000bd4:	f5b1 0f80 	cmp.w	r1, #4194304	; 0x400000
 8000bd8:	bf15      	itete	ne
 8000bda:	6803      	ldrne	r3, [r0, #0]
 8000bdc:	6983      	ldreq	r3, [r0, #24]
 8000bde:	4319      	orrne	r1, r3
 8000be0:	f443 0380 	orreq.w	r3, r3, #4194304	; 0x400000
 8000be4:	bf14      	ite	ne
 8000be6:	6001      	strne	r1, [r0, #0]
 8000be8:	6183      	streq	r3, [r0, #24]
 8000bea:	4770      	bx	lr

08000bec <XMC_CCU4_EnableModule>:
 8000bec:	b510      	push	{r4, lr}
 8000bee:	4604      	mov	r4, r0
 8000bf0:	2010      	movs	r0, #16
 8000bf2:	f7ff fcbf 	bl	8000574 <XMC_SCU_CLOCK_EnableClock>
 8000bf6:	4b0c      	ldr	r3, [pc, #48]	; (8000c28 <XMC_CCU4_EnableModule+0x3c>)
 8000bf8:	429c      	cmp	r4, r3
 8000bfa:	d101      	bne.n	8000c00 <XMC_CCU4_EnableModule+0x14>
 8000bfc:	2004      	movs	r0, #4
 8000bfe:	e00d      	b.n	8000c1c <XMC_CCU4_EnableModule+0x30>
 8000c00:	4b0a      	ldr	r3, [pc, #40]	; (8000c2c <XMC_CCU4_EnableModule+0x40>)
 8000c02:	429c      	cmp	r4, r3
 8000c04:	d101      	bne.n	8000c0a <XMC_CCU4_EnableModule+0x1e>
 8000c06:	2008      	movs	r0, #8
 8000c08:	e008      	b.n	8000c1c <XMC_CCU4_EnableModule+0x30>
 8000c0a:	4b09      	ldr	r3, [pc, #36]	; (8000c30 <XMC_CCU4_EnableModule+0x44>)
 8000c0c:	429c      	cmp	r4, r3
 8000c0e:	d101      	bne.n	8000c14 <XMC_CCU4_EnableModule+0x28>
 8000c10:	2010      	movs	r0, #16
 8000c12:	e003      	b.n	8000c1c <XMC_CCU4_EnableModule+0x30>
 8000c14:	4b07      	ldr	r3, [pc, #28]	; (8000c34 <XMC_CCU4_EnableModule+0x48>)
 8000c16:	429c      	cmp	r4, r3
 8000c18:	d104      	bne.n	8000c24 <XMC_CCU4_EnableModule+0x38>
 8000c1a:	4807      	ldr	r0, [pc, #28]	; (8000c38 <XMC_CCU4_EnableModule+0x4c>)
 8000c1c:	e8bd 4010 	ldmia.w	sp!, {r4, lr}
 8000c20:	f7ff bbfe 	b.w	8000420 <XMC_SCU_RESET_DeassertPeripheralReset>
 8000c24:	bd10      	pop	{r4, pc}
 8000c26:	bf00      	nop
 8000c28:	4000c000 	.word	0x4000c000
 8000c2c:	40010000 	.word	0x40010000
 8000c30:	40014000 	.word	0x40014000
 8000c34:	48004000 	.word	0x48004000
 8000c38:	10000001 	.word	0x10000001

08000c3c <XMC_CCU4_Init>:
 8000c3c:	b538      	push	{r3, r4, r5, lr}
 8000c3e:	4604      	mov	r4, r0
 8000c40:	460d      	mov	r5, r1
 8000c42:	f7ff ffd3 	bl	8000bec <XMC_CCU4_EnableModule>
 8000c46:	f44f 7380 	mov.w	r3, #256	; 0x100
 8000c4a:	60e3      	str	r3, [r4, #12]
 8000c4c:	6823      	ldr	r3, [r4, #0]
 8000c4e:	f423 4340 	bic.w	r3, r3, #49152	; 0xc000
 8000c52:	ea43 3185 	orr.w	r1, r3, r5, lsl #14
 8000c56:	6021      	str	r1, [r4, #0]
 8000c58:	bd38      	pop	{r3, r4, r5, pc}

08000c5a <XMC_CCU4_SLICE_CompareInit>:
 8000c5a:	680b      	ldr	r3, [r1, #0]
 8000c5c:	6143      	str	r3, [r0, #20]
 8000c5e:	794b      	ldrb	r3, [r1, #5]
 8000c60:	f3c3 1340 	ubfx	r3, r3, #5, #1
 8000c64:	051b      	lsls	r3, r3, #20
 8000c66:	6043      	str	r3, [r0, #4]
 8000c68:	790b      	ldrb	r3, [r1, #4]
 8000c6a:	f003 030f 	and.w	r3, r3, #15
 8000c6e:	6243      	str	r3, [r0, #36]	; 0x24
 8000c70:	794b      	ldrb	r3, [r1, #5]
 8000c72:	f003 030f 	and.w	r3, r3, #15
 8000c76:	6203      	str	r3, [r0, #32]
 8000c78:	794b      	ldrb	r3, [r1, #5]
 8000c7a:	f3c3 1300 	ubfx	r3, r3, #4, #1
 8000c7e:	6183      	str	r3, [r0, #24]
 8000c80:	790b      	ldrb	r3, [r1, #4]
 8000c82:	091b      	lsrs	r3, r3, #4
 8000c84:	62c3      	str	r3, [r0, #44]	; 0x2c
 8000c86:	4770      	bx	lr

08000c88 <XMC_GPIO_SetHardwareControl>:
 8000c88:	6f43      	ldr	r3, [r0, #116]	; 0x74
 8000c8a:	0049      	lsls	r1, r1, #1
 8000c8c:	b510      	push	{r4, lr}
 8000c8e:	2403      	movs	r4, #3
 8000c90:	408c      	lsls	r4, r1
 8000c92:	ea23 0304 	bic.w	r3, r3, r4
 8000c96:	6743      	str	r3, [r0, #116]	; 0x74
 8000c98:	6f43      	ldr	r3, [r0, #116]	; 0x74
 8000c9a:	408a      	lsls	r2, r1
 8000c9c:	4313      	orrs	r3, r2
 8000c9e:	6743      	str	r3, [r0, #116]	; 0x74
 8000ca0:	bd10      	pop	{r4, pc}

08000ca2 <XMC_VADC_GLOBAL_EnableModule>:
 8000ca2:	2001      	movs	r0, #1
 8000ca4:	f7ff bbbc 	b.w	8000420 <XMC_SCU_RESET_DeassertPeripheralReset>

08000ca8 <XMC_VADC_GLOBAL_Init>:
 8000ca8:	b538      	push	{r3, r4, r5, lr}
 8000caa:	460d      	mov	r5, r1
 8000cac:	4604      	mov	r4, r0
 8000cae:	f7ff fff8 	bl	8000ca2 <XMC_VADC_GLOBAL_EnableModule>
 8000cb2:	696b      	ldr	r3, [r5, #20]
 8000cb4:	6023      	str	r3, [r4, #0]
 8000cb6:	686b      	ldr	r3, [r5, #4]
 8000cb8:	f443 4300 	orr.w	r3, r3, #32768	; 0x8000
 8000cbc:	f8c4 3080 	str.w	r3, [r4, #128]	; 0x80
 8000cc0:	68ab      	ldr	r3, [r5, #8]
 8000cc2:	f8c4 30a0 	str.w	r3, [r4, #160]	; 0xa0
 8000cc6:	68eb      	ldr	r3, [r5, #12]
 8000cc8:	f8c4 30a4 	str.w	r3, [r4, #164]	; 0xa4
 8000ccc:	692b      	ldr	r3, [r5, #16]
 8000cce:	f8c4 3280 	str.w	r3, [r4, #640]	; 0x280
 8000cd2:	682b      	ldr	r3, [r5, #0]
 8000cd4:	f8c4 30b8 	str.w	r3, [r4, #184]	; 0xb8
 8000cd8:	bd38      	pop	{r3, r4, r5, pc}
	...

08000cdc <XMC_VADC_GLOBAL_InputClassInit>:
 8000cdc:	3328      	adds	r3, #40	; 0x28
 8000cde:	b912      	cbnz	r2, 8000ce6 <XMC_VADC_GLOBAL_InputClassInit+0xa>
 8000ce0:	f240 721f 	movw	r2, #1823	; 0x71f
 8000ce4:	e000      	b.n	8000ce8 <XMC_VADC_GLOBAL_InputClassInit+0xc>
 8000ce6:	4a02      	ldr	r2, [pc, #8]	; (8000cf0 <XMC_VADC_GLOBAL_InputClassInit+0x14>)
 8000ce8:	400a      	ands	r2, r1
 8000cea:	f840 2023 	str.w	r2, [r0, r3, lsl #2]
 8000cee:	4770      	bx	lr
 8000cf0:	071f0000 	.word	0x071f0000

08000cf4 <XMC_VADC_GLOBAL_StartupCalibration>:
 8000cf4:	f8d0 3080 	ldr.w	r3, [r0, #128]	; 0x80
 8000cf8:	f043 4300 	orr.w	r3, r3, #2147483648	; 0x80000000
 8000cfc:	f8c0 3080 	str.w	r3, [r0, #128]	; 0x80
 8000d00:	2300      	movs	r3, #0
 8000d02:	4a09      	ldr	r2, [pc, #36]	; (8000d28 <XMC_VADC_GLOBAL_StartupCalibration+0x34>)
 8000d04:	f852 2023 	ldr.w	r2, [r2, r3, lsl #2]
 8000d08:	f8d2 1080 	ldr.w	r1, [r2, #128]	; 0x80
 8000d0c:	f411 3f40 	tst.w	r1, #196608	; 0x30000
 8000d10:	d005      	beq.n	8000d1e <XMC_VADC_GLOBAL_StartupCalibration+0x2a>
 8000d12:	f8d2 1080 	ldr.w	r1, [r2, #128]	; 0x80
 8000d16:	00c9      	lsls	r1, r1, #3
 8000d18:	d501      	bpl.n	8000d1e <XMC_VADC_GLOBAL_StartupCalibration+0x2a>
 8000d1a:	bf00      	nop
 8000d1c:	e7f9      	b.n	8000d12 <XMC_VADC_GLOBAL_StartupCalibration+0x1e>
 8000d1e:	3301      	adds	r3, #1
 8000d20:	2b04      	cmp	r3, #4
 8000d22:	d1ee      	bne.n	8000d02 <XMC_VADC_GLOBAL_StartupCalibration+0xe>
 8000d24:	4770      	bx	lr
 8000d26:	bf00      	nop
 8000d28:	08003f70 	.word	0x08003f70

08000d2c <XMC_VADC_GLOBAL_BackgroundSetReqSrcEventInterruptNode>:
 8000d2c:	f8d0 3140 	ldr.w	r3, [r0, #320]	; 0x140
 8000d30:	f023 030f 	bic.w	r3, r3, #15
 8000d34:	f8c0 3140 	str.w	r3, [r0, #320]	; 0x140
 8000d38:	2903      	cmp	r1, #3
 8000d3a:	f8d0 3140 	ldr.w	r3, [r0, #320]	; 0x140
 8000d3e:	bf88      	it	hi
 8000d40:	3904      	subhi	r1, #4
 8000d42:	4319      	orrs	r1, r3
 8000d44:	f8c0 1140 	str.w	r1, [r0, #320]	; 0x140
 8000d48:	4770      	bx	lr

08000d4a <XMC_VADC_GROUP_InputClassInit>:
 8000d4a:	b5f0      	push	{r4, r5, r6, r7, lr}
 8000d4c:	b942      	cbnz	r2, 8000d60 <XMC_VADC_GROUP_InputClassInit+0x16>
 8000d4e:	f001 051f 	and.w	r5, r1, #31
 8000d52:	261f      	movs	r6, #31
 8000d54:	f3c1 2102 	ubfx	r1, r1, #8, #3
 8000d58:	f44f 6ee0 	mov.w	lr, #1792	; 0x700
 8000d5c:	2708      	movs	r7, #8
 8000d5e:	e009      	b.n	8000d74 <XMC_VADC_GROUP_InputClassInit+0x2a>
 8000d60:	f3c1 4504 	ubfx	r5, r1, #16, #5
 8000d64:	f44f 16f8 	mov.w	r6, #2031616	; 0x1f0000
 8000d68:	f3c1 6102 	ubfx	r1, r1, #24, #3
 8000d6c:	f04f 6ee0 	mov.w	lr, #117440512	; 0x7000000
 8000d70:	2210      	movs	r2, #16
 8000d72:	2718      	movs	r7, #24
 8000d74:	eb00 0383 	add.w	r3, r0, r3, lsl #2
 8000d78:	40b9      	lsls	r1, r7
 8000d7a:	f8d3 40a0 	ldr.w	r4, [r3, #160]	; 0xa0
 8000d7e:	ea24 040e 	bic.w	r4, r4, lr
 8000d82:	4321      	orrs	r1, r4
 8000d84:	ea21 0106 	bic.w	r1, r1, r6
 8000d88:	4095      	lsls	r5, r2
 8000d8a:	4329      	orrs	r1, r5
 8000d8c:	f8c3 10a0 	str.w	r1, [r3, #160]	; 0xa0
 8000d90:	bdf0      	pop	{r4, r5, r6, r7, pc}

08000d92 <XMC_VADC_GROUP_Init>:
 8000d92:	b5f8      	push	{r3, r4, r5, r6, r7, lr}
 8000d94:	2200      	movs	r2, #0
 8000d96:	460c      	mov	r4, r1
 8000d98:	4605      	mov	r5, r0
 8000d9a:	4613      	mov	r3, r2
 8000d9c:	6849      	ldr	r1, [r1, #4]
 8000d9e:	f7ff ffd4 	bl	8000d4a <XMC_VADC_GROUP_InputClassInit>
 8000da2:	4628      	mov	r0, r5
 8000da4:	6861      	ldr	r1, [r4, #4]
 8000da6:	2201      	movs	r2, #1
 8000da8:	2300      	movs	r3, #0
 8000daa:	f7ff ffce 	bl	8000d4a <XMC_VADC_GROUP_InputClassInit>
 8000dae:	4628      	mov	r0, r5
 8000db0:	68a1      	ldr	r1, [r4, #8]
 8000db2:	2200      	movs	r2, #0
 8000db4:	2301      	movs	r3, #1
 8000db6:	f7ff ffc8 	bl	8000d4a <XMC_VADC_GROUP_InputClassInit>
 8000dba:	2201      	movs	r2, #1
 8000dbc:	4613      	mov	r3, r2
 8000dbe:	4628      	mov	r0, r5
 8000dc0:	68a1      	ldr	r1, [r4, #8]
 8000dc2:	f7ff ffc2 	bl	8000d4a <XMC_VADC_GROUP_InputClassInit>
 8000dc6:	78a0      	ldrb	r0, [r4, #2]
 8000dc8:	6923      	ldr	r3, [r4, #16]
 8000dca:	f8c5 3080 	str.w	r3, [r5, #128]	; 0x80
 8000dce:	f000 061f 	and.w	r6, r0, #31
 8000dd2:	7820      	ldrb	r0, [r4, #0]
 8000dd4:	68e3      	ldr	r3, [r4, #12]
 8000dd6:	78e1      	ldrb	r1, [r4, #3]
 8000dd8:	f8c5 30b8 	str.w	r3, [r5, #184]	; 0xb8
 8000ddc:	f000 0007 	and.w	r0, r0, #7
 8000de0:	ea40 4006 	orr.w	r0, r0, r6, lsl #16
 8000de4:	f8c5 01f0 	str.w	r0, [r5, #496]	; 0x1f0
 8000de8:	f8d5 21f0 	ldr.w	r2, [r5, #496]	; 0x1f0
 8000dec:	f3c1 1700 	ubfx	r7, r1, #4, #1
 8000df0:	f042 4200 	orr.w	r2, r2, #2147483648	; 0x80000000
 8000df4:	f3c1 0381 	ubfx	r3, r1, #2, #2
 8000df8:	ea42 7207 	orr.w	r2, r2, r7, lsl #28
 8000dfc:	f3c1 1140 	ubfx	r1, r1, #5, #1
 8000e00:	ea42 6383 	orr.w	r3, r2, r3, lsl #26
 8000e04:	ea43 7341 	orr.w	r3, r3, r1, lsl #29
 8000e08:	f8c5 31f0 	str.w	r3, [r5, #496]	; 0x1f0
 8000e0c:	bdf8      	pop	{r3, r4, r5, r6, r7, pc}

08000e0e <XMC_VADC_GROUP_SetPowerMode>:
 8000e0e:	f8d0 3080 	ldr.w	r3, [r0, #128]	; 0x80
 8000e12:	f023 0303 	bic.w	r3, r3, #3
 8000e16:	4319      	orrs	r1, r3
 8000e18:	f8c0 1080 	str.w	r1, [r0, #128]	; 0x80
 8000e1c:	4770      	bx	lr
	...

08000e20 <XMC_VADC_GLOBAL_BackgroundInit>:
 8000e20:	4a30      	ldr	r2, [pc, #192]	; (8000ee4 <XMC_VADC_GLOBAL_BackgroundInit+0xc4>)
 8000e22:	f8d2 3084 	ldr.w	r3, [r2, #132]	; 0x84
 8000e26:	f023 6380 	bic.w	r3, r3, #67108864	; 0x4000000
 8000e2a:	b5f0      	push	{r4, r5, r6, r7, lr}
 8000e2c:	f8c2 3084 	str.w	r3, [r2, #132]	; 0x84
 8000e30:	f8d2 3484 	ldr.w	r3, [r2, #1156]	; 0x484
 8000e34:	f023 6380 	bic.w	r3, r3, #67108864	; 0x4000000
 8000e38:	f8c2 3484 	str.w	r3, [r2, #1156]	; 0x484
 8000e3c:	f8d2 3884 	ldr.w	r3, [r2, #2180]	; 0x884
 8000e40:	f023 6380 	bic.w	r3, r3, #67108864	; 0x4000000
 8000e44:	f8c2 3884 	str.w	r3, [r2, #2180]	; 0x884
 8000e48:	f8d2 3c84 	ldr.w	r3, [r2, #3204]	; 0xc84
 8000e4c:	f023 6380 	bic.w	r3, r3, #67108864	; 0x4000000
 8000e50:	f8c2 3c84 	str.w	r3, [r2, #3204]	; 0xc84
 8000e54:	780b      	ldrb	r3, [r1, #0]
 8000e56:	f013 0503 	ands.w	r5, r3, #3
 8000e5a:	f3c3 0381 	ubfx	r3, r3, #2, #2
 8000e5e:	bf0c      	ite	eq
 8000e60:	2700      	moveq	r7, #0
 8000e62:	f44f 6700 	movne.w	r7, #2048	; 0x800
 8000e66:	021a      	lsls	r2, r3, #8
 8000e68:	2400      	movs	r4, #0
 8000e6a:	4b1f      	ldr	r3, [pc, #124]	; (8000ee8 <XMC_VADC_GLOBAL_BackgroundInit+0xc8>)
 8000e6c:	f853 6024 	ldr.w	r6, [r3, r4, lsl #2]
 8000e70:	f8d6 3084 	ldr.w	r3, [r6, #132]	; 0x84
 8000e74:	f423 7340 	bic.w	r3, r3, #768	; 0x300
 8000e78:	4313      	orrs	r3, r2
 8000e7a:	3401      	adds	r4, #1
 8000e7c:	433b      	orrs	r3, r7
 8000e7e:	2c04      	cmp	r4, #4
 8000e80:	f8c6 3084 	str.w	r3, [r6, #132]	; 0x84
 8000e84:	d1f1      	bne.n	8000e6a <XMC_VADC_GLOBAL_BackgroundInit+0x4a>
 8000e86:	684b      	ldr	r3, [r1, #4]
 8000e88:	4a16      	ldr	r2, [pc, #88]	; (8000ee4 <XMC_VADC_GLOBAL_BackgroundInit+0xc4>)
 8000e8a:	f443 0300 	orr.w	r3, r3, #8388608	; 0x800000
 8000e8e:	f443 4300 	orr.w	r3, r3, #32768	; 0x8000
 8000e92:	f8c0 3200 	str.w	r3, [r0, #512]	; 0x200
 8000e96:	688b      	ldr	r3, [r1, #8]
 8000e98:	f043 0301 	orr.w	r3, r3, #1
 8000e9c:	f8c0 3204 	str.w	r3, [r0, #516]	; 0x204
 8000ea0:	2d02      	cmp	r5, #2
 8000ea2:	bf02      	ittt	eq
 8000ea4:	f8d0 3204 	ldreq.w	r3, [r0, #516]	; 0x204
 8000ea8:	f443 3380 	orreq.w	r3, r3, #65536	; 0x10000
 8000eac:	f8c0 3204 	streq.w	r3, [r0, #516]	; 0x204
 8000eb0:	f8d2 3084 	ldr.w	r3, [r2, #132]	; 0x84
 8000eb4:	f043 6380 	orr.w	r3, r3, #67108864	; 0x4000000
 8000eb8:	f8c2 3084 	str.w	r3, [r2, #132]	; 0x84
 8000ebc:	f8d2 3484 	ldr.w	r3, [r2, #1156]	; 0x484
 8000ec0:	f043 6380 	orr.w	r3, r3, #67108864	; 0x4000000
 8000ec4:	f8c2 3484 	str.w	r3, [r2, #1156]	; 0x484
 8000ec8:	f8d2 3884 	ldr.w	r3, [r2, #2180]	; 0x884
 8000ecc:	f043 6380 	orr.w	r3, r3, #67108864	; 0x4000000
 8000ed0:	f8c2 3884 	str.w	r3, [r2, #2180]	; 0x884
 8000ed4:	f8d2 3c84 	ldr.w	r3, [r2, #3204]	; 0xc84
 8000ed8:	f043 6380 	orr.w	r3, r3, #67108864	; 0x4000000
 8000edc:	f8c2 3c84 	str.w	r3, [r2, #3204]	; 0xc84
 8000ee0:	bdf0      	pop	{r4, r5, r6, r7, pc}
 8000ee2:	bf00      	nop
 8000ee4:	40004400 	.word	0x40004400
 8000ee8:	08003f70 	.word	0x08003f70

08000eec <XMC_VADC_GROUP_ChannelInit>:
 8000eec:	b530      	push	{r4, r5, lr}
 8000eee:	2301      	movs	r3, #1
 8000ef0:	f8d0 5088 	ldr.w	r5, [r0, #136]	; 0x88
 8000ef4:	408b      	lsls	r3, r1
 8000ef6:	ea25 0403 	bic.w	r4, r5, r3
 8000efa:	7a13      	ldrb	r3, [r2, #8]
 8000efc:	408b      	lsls	r3, r1
 8000efe:	4323      	orrs	r3, r4
 8000f00:	f8c0 3088 	str.w	r3, [r0, #136]	; 0x88
 8000f04:	f992 3009 	ldrsb.w	r3, [r2, #9]
 8000f08:	2b00      	cmp	r3, #0
 8000f0a:	db19      	blt.n	8000f40 <XMC_VADC_GROUP_ChannelInit+0x54>
 8000f0c:	2901      	cmp	r1, #1
 8000f0e:	d107      	bne.n	8000f20 <XMC_VADC_GROUP_ChannelInit+0x34>
 8000f10:	f8d0 30b0 	ldr.w	r3, [r0, #176]	; 0xb0
 8000f14:	f423 53f8 	bic.w	r3, r3, #7936	; 0x1f00
 8000f18:	f8c0 30b0 	str.w	r3, [r0, #176]	; 0xb0
 8000f1c:	2508      	movs	r5, #8
 8000f1e:	e007      	b.n	8000f30 <XMC_VADC_GROUP_ChannelInit+0x44>
 8000f20:	b929      	cbnz	r1, 8000f2e <XMC_VADC_GROUP_ChannelInit+0x42>
 8000f22:	f8d0 30b0 	ldr.w	r3, [r0, #176]	; 0xb0
 8000f26:	f023 031f 	bic.w	r3, r3, #31
 8000f2a:	f8c0 30b0 	str.w	r3, [r0, #176]	; 0xb0
 8000f2e:	2500      	movs	r5, #0
 8000f30:	f992 3009 	ldrsb.w	r3, [r2, #9]
 8000f34:	f8d0 40b0 	ldr.w	r4, [r0, #176]	; 0xb0
 8000f38:	40ab      	lsls	r3, r5
 8000f3a:	4323      	orrs	r3, r4
 8000f3c:	f8c0 30b0 	str.w	r3, [r0, #176]	; 0xb0
 8000f40:	f8d0 40c8 	ldr.w	r4, [r0, #200]	; 0xc8
 8000f44:	6853      	ldr	r3, [r2, #4]
 8000f46:	4323      	orrs	r3, r4
 8000f48:	f8c0 30c8 	str.w	r3, [r0, #200]	; 0xc8
 8000f4c:	3180      	adds	r1, #128	; 0x80
 8000f4e:	6813      	ldr	r3, [r2, #0]
 8000f50:	f840 3021 	str.w	r3, [r0, r1, lsl #2]
 8000f54:	bd30      	pop	{r4, r5, pc}
	...

08000f58 <_sbrk>:
 8000f58:	b508      	push	{r3, lr}
 8000f5a:	4b0c      	ldr	r3, [pc, #48]	; (8000f8c <_sbrk+0x34>)
 8000f5c:	681a      	ldr	r2, [r3, #0]
 8000f5e:	b90a      	cbnz	r2, 8000f64 <_sbrk+0xc>
 8000f60:	4a0b      	ldr	r2, [pc, #44]	; (8000f90 <_sbrk+0x38>)
 8000f62:	601a      	str	r2, [r3, #0]
 8000f64:	681a      	ldr	r2, [r3, #0]
 8000f66:	490b      	ldr	r1, [pc, #44]	; (8000f94 <_sbrk+0x3c>)
 8000f68:	1cc3      	adds	r3, r0, #3
 8000f6a:	f023 0303 	bic.w	r3, r3, #3
 8000f6e:	4413      	add	r3, r2
 8000f70:	428b      	cmp	r3, r1
 8000f72:	d203      	bcs.n	8000f7c <_sbrk+0x24>
 8000f74:	4905      	ldr	r1, [pc, #20]	; (8000f8c <_sbrk+0x34>)
 8000f76:	4610      	mov	r0, r2
 8000f78:	600b      	str	r3, [r1, #0]
 8000f7a:	bd08      	pop	{r3, pc}
 8000f7c:	f002 fefe 	bl	8003d7c <__errno>
 8000f80:	230c      	movs	r3, #12
 8000f82:	6003      	str	r3, [r0, #0]
 8000f84:	f04f 30ff 	mov.w	r0, #4294967295
 8000f88:	bd08      	pop	{r3, pc}
 8000f8a:	bf00      	nop
 8000f8c:	200003d8 	.word	0x200003d8
 8000f90:	200008b0 	.word	0x200008b0
 8000f94:	2000ffc0 	.word	0x2000ffc0

08000f98 <_init>:
 8000f98:	4770      	bx	lr
	...

08000f9c <TIMER_GetTime>:
 8000f9c:	b508      	push	{r3, lr}
 8000f9e:	f890 3021 	ldrb.w	r3, [r0, #33]	; 0x21
 8000fa2:	b97b      	cbnz	r3, 8000fc4 <TIMER_GetTime+0x28>
 8000fa4:	6943      	ldr	r3, [r0, #20]
 8000fa6:	69c2      	ldr	r2, [r0, #28]
 8000fa8:	6f1b      	ldr	r3, [r3, #112]	; 0x70
 8000faa:	7912      	ldrb	r2, [r2, #4]
 8000fac:	4806      	ldr	r0, [pc, #24]	; (8000fc8 <TIMER_GetTime+0x2c>)
 8000fae:	b29b      	uxth	r3, r3
 8000fb0:	3301      	adds	r3, #1
 8000fb2:	f002 020f 	and.w	r2, r2, #15
 8000fb6:	fba3 0100 	umull	r0, r1, r3, r0
 8000fba:	f1c2 0220 	rsb	r2, r2, #32
 8000fbe:	f002 fa97 	bl	80034f0 <__aeabi_llsr>
 8000fc2:	bd08      	pop	{r3, pc}
 8000fc4:	2000      	movs	r0, #0
 8000fc6:	bd08      	pop	{r3, pc}
 8000fc8:	d5555555 	.word	0xd5555555

08000fcc <TIMER_Clear>:
 8000fcc:	f890 3026 	ldrb.w	r3, [r0, #38]	; 0x26
 8000fd0:	b133      	cbz	r3, 8000fe0 <TIMER_Clear+0x14>
 8000fd2:	f890 3021 	ldrb.w	r3, [r0, #33]	; 0x21
 8000fd6:	b92b      	cbnz	r3, 8000fe4 <TIMER_Clear+0x18>
 8000fd8:	6942      	ldr	r2, [r0, #20]
 8000fda:	2102      	movs	r1, #2
 8000fdc:	6111      	str	r1, [r2, #16]
 8000fde:	e001      	b.n	8000fe4 <TIMER_Clear+0x18>
 8000fe0:	2001      	movs	r0, #1
 8000fe2:	4770      	bx	lr
 8000fe4:	2000      	movs	r0, #0
 8000fe6:	4770      	bx	lr

08000fe8 <TIMER_CCU4_lShadowTransfer>:
 8000fe8:	6943      	ldr	r3, [r0, #20]
 8000fea:	8c42      	ldrh	r2, [r0, #34]	; 0x22
 8000fec:	635a      	str	r2, [r3, #52]	; 0x34
 8000fee:	2200      	movs	r2, #0
 8000ff0:	63da      	str	r2, [r3, #60]	; 0x3c
 8000ff2:	6903      	ldr	r3, [r0, #16]
 8000ff4:	68c2      	ldr	r2, [r0, #12]
 8000ff6:	689b      	ldr	r3, [r3, #8]
 8000ff8:	611a      	str	r2, [r3, #16]
 8000ffa:	4770      	bx	lr

08000ffc <TIMER_CCU4_lInit>:
 8000ffc:	b570      	push	{r4, r5, r6, lr}
 8000ffe:	4604      	mov	r4, r0
 8001000:	6900      	ldr	r0, [r0, #16]
 8001002:	f000 f824 	bl	800104e <GLOBAL_CCU4_Init>
 8001006:	6923      	ldr	r3, [r4, #16]
 8001008:	7e22      	ldrb	r2, [r4, #24]
 800100a:	689b      	ldr	r3, [r3, #8]
 800100c:	69e1      	ldr	r1, [r4, #28]
 800100e:	2501      	movs	r5, #1
 8001010:	fa05 f202 	lsl.w	r2, r5, r2
 8001014:	60da      	str	r2, [r3, #12]
 8001016:	4606      	mov	r6, r0
 8001018:	6960      	ldr	r0, [r4, #20]
 800101a:	f7ff fe1e 	bl	8000c5a <XMC_CCU4_SLICE_CompareInit>
 800101e:	4620      	mov	r0, r4
 8001020:	f7ff ffe2 	bl	8000fe8 <TIMER_CCU4_lShadowTransfer>
 8001024:	6963      	ldr	r3, [r4, #20]
 8001026:	2202      	movs	r2, #2
 8001028:	611a      	str	r2, [r3, #16]
 800102a:	f894 2024 	ldrb.w	r2, [r4, #36]	; 0x24
 800102e:	f884 5026 	strb.w	r5, [r4, #38]	; 0x26
 8001032:	b102      	cbz	r2, 8001036 <TIMER_CCU4_lInit+0x3a>
 8001034:	60dd      	str	r5, [r3, #12]
 8001036:	4630      	mov	r0, r6
 8001038:	bd70      	pop	{r4, r5, r6, pc}

0800103a <TIMER_Init>:
 800103a:	f890 2026 	ldrb.w	r2, [r0, #38]	; 0x26
 800103e:	b922      	cbnz	r2, 800104a <TIMER_Init+0x10>
 8001040:	f890 3021 	ldrb.w	r3, [r0, #33]	; 0x21
 8001044:	b90b      	cbnz	r3, 800104a <TIMER_Init+0x10>
 8001046:	f7ff bfd9 	b.w	8000ffc <TIMER_CCU4_lInit>
 800104a:	2000      	movs	r0, #0
 800104c:	4770      	bx	lr

0800104e <GLOBAL_CCU4_Init>:
 800104e:	7b43      	ldrb	r3, [r0, #13]
 8001050:	b510      	push	{r4, lr}
 8001052:	4604      	mov	r4, r0
 8001054:	b94b      	cbnz	r3, 800106a <GLOBAL_CCU4_Init+0x1c>
 8001056:	6880      	ldr	r0, [r0, #8]
 8001058:	7b21      	ldrb	r1, [r4, #12]
 800105a:	f7ff fdef 	bl	8000c3c <XMC_CCU4_Init>
 800105e:	68a3      	ldr	r3, [r4, #8]
 8001060:	f44f 7280 	mov.w	r2, #256	; 0x100
 8001064:	60da      	str	r2, [r3, #12]
 8001066:	2301      	movs	r3, #1
 8001068:	7363      	strb	r3, [r4, #13]
 800106a:	2000      	movs	r0, #0
 800106c:	bd10      	pop	{r4, pc}

0800106e <GLOBAL_CAN_Init>:
 800106e:	7a43      	ldrb	r3, [r0, #9]
 8001070:	b510      	push	{r4, lr}
 8001072:	4604      	mov	r4, r0
 8001074:	b92b      	cbnz	r3, 8001082 <GLOBAL_CAN_Init+0x14>
 8001076:	6840      	ldr	r0, [r0, #4]
 8001078:	6821      	ldr	r1, [r4, #0]
 800107a:	f7ff fcab 	bl	80009d4 <XMC_CAN_Init>
 800107e:	2301      	movs	r3, #1
 8001080:	7263      	strb	r3, [r4, #9]
 8001082:	2000      	movs	r0, #0
 8001084:	bd10      	pop	{r4, pc}

08001086 <GLOBAL_ADC_Init>:
 8001086:	b5f8      	push	{r3, r4, r5, r6, r7, lr}
 8001088:	7e03      	ldrb	r3, [r0, #24]
 800108a:	2b02      	cmp	r3, #2
 800108c:	4604      	mov	r4, r0
 800108e:	d129      	bne.n	80010e4 <GLOBAL_ADC_Init+0x5e>
 8001090:	6940      	ldr	r0, [r0, #20]
 8001092:	6921      	ldr	r1, [r4, #16]
 8001094:	f7ff fe08 	bl	8000ca8 <XMC_VADC_GLOBAL_Init>
 8001098:	1f27      	subs	r7, r4, #4
 800109a:	2600      	movs	r6, #0
 800109c:	f857 3f04 	ldr.w	r3, [r7, #4]!
 80010a0:	e893 0003 	ldmia.w	r3, {r0, r1}
 80010a4:	f7ff fe75 	bl	8000d92 <XMC_VADC_GROUP_Init>
 80010a8:	683b      	ldr	r3, [r7, #0]
 80010aa:	2103      	movs	r1, #3
 80010ac:	6818      	ldr	r0, [r3, #0]
 80010ae:	f7ff feae 	bl	8000e0e <XMC_VADC_GROUP_SetPowerMode>
 80010b2:	6839      	ldr	r1, [r7, #0]
 80010b4:	7a0b      	ldrb	r3, [r1, #8]
 80010b6:	b94b      	cbnz	r3, 80010cc <GLOBAL_ADC_Init+0x46>
 80010b8:	6960      	ldr	r0, [r4, #20]
 80010ba:	f106 0510 	add.w	r5, r6, #16
 80010be:	f8d0 2080 	ldr.w	r2, [r0, #128]	; 0x80
 80010c2:	2301      	movs	r3, #1
 80010c4:	40ab      	lsls	r3, r5
 80010c6:	4313      	orrs	r3, r2
 80010c8:	f8c0 3080 	str.w	r3, [r0, #128]	; 0x80
 80010cc:	3601      	adds	r6, #1
 80010ce:	2300      	movs	r3, #0
 80010d0:	2e04      	cmp	r6, #4
 80010d2:	724b      	strb	r3, [r1, #9]
 80010d4:	461d      	mov	r5, r3
 80010d6:	d1e1      	bne.n	800109c <GLOBAL_ADC_Init+0x16>
 80010d8:	7e63      	ldrb	r3, [r4, #25]
 80010da:	b113      	cbz	r3, 80010e2 <GLOBAL_ADC_Init+0x5c>
 80010dc:	6960      	ldr	r0, [r4, #20]
 80010de:	f7ff fe09 	bl	8000cf4 <XMC_VADC_GLOBAL_StartupCalibration>
 80010e2:	7625      	strb	r5, [r4, #24]
 80010e4:	7e20      	ldrb	r0, [r4, #24]
 80010e6:	bdf8      	pop	{r3, r4, r5, r6, r7, pc}

080010e8 <prvTaskExitError>:
 80010e8:	b082      	sub	sp, #8
 80010ea:	2300      	movs	r3, #0
 80010ec:	9301      	str	r3, [sp, #4]
 80010ee:	4b0d      	ldr	r3, [pc, #52]	; (8001124 <prvTaskExitError+0x3c>)
 80010f0:	681b      	ldr	r3, [r3, #0]
 80010f2:	3301      	adds	r3, #1
 80010f4:	d008      	beq.n	8001108 <prvTaskExitError+0x20>
 80010f6:	f04f 03fc 	mov.w	r3, #252	; 0xfc
 80010fa:	f383 8811 	msr	BASEPRI, r3
 80010fe:	f3bf 8f6f 	isb	sy
 8001102:	f3bf 8f4f 	dsb	sy
 8001106:	e7fe      	b.n	8001106 <prvTaskExitError+0x1e>
 8001108:	f04f 03fc 	mov.w	r3, #252	; 0xfc
 800110c:	f383 8811 	msr	BASEPRI, r3
 8001110:	f3bf 8f6f 	isb	sy
 8001114:	f3bf 8f4f 	dsb	sy
 8001118:	9b01      	ldr	r3, [sp, #4]
 800111a:	2b00      	cmp	r3, #0
 800111c:	d0fc      	beq.n	8001118 <prvTaskExitError+0x30>
 800111e:	b002      	add	sp, #8
 8001120:	4770      	bx	lr
 8001122:	bf00      	nop
 8001124:	20000090 	.word	0x20000090

08001128 <prvPortStartFirstTask>:
 8001128:	4808      	ldr	r0, [pc, #32]	; (800114c <prvPortStartFirstTask+0x24>)
 800112a:	6800      	ldr	r0, [r0, #0]
 800112c:	6800      	ldr	r0, [r0, #0]
 800112e:	f380 8808 	msr	MSP, r0
 8001132:	f04f 0000 	mov.w	r0, #0
 8001136:	f380 8814 	msr	CONTROL, r0
 800113a:	b662      	cpsie	i
 800113c:	b661      	cpsie	f
 800113e:	f3bf 8f4f 	dsb	sy
 8001142:	f3bf 8f6f 	isb	sy
 8001146:	df00      	svc	0
 8001148:	bf00      	nop
 800114a:	0000      	.short	0x0000
 800114c:	e000ed08 	.word	0xe000ed08

08001150 <vPortEnableVFP>:
 8001150:	f8df 000c 	ldr.w	r0, [pc, #12]	; 8001160 <vPortEnableVFP+0x10>
 8001154:	6801      	ldr	r1, [r0, #0]
 8001156:	f441 0170 	orr.w	r1, r1, #15728640	; 0xf00000
 800115a:	6001      	str	r1, [r0, #0]
 800115c:	4770      	bx	lr
 800115e:	0000      	.short	0x0000
 8001160:	e000ed88 	.word	0xe000ed88

08001164 <pxPortInitialiseStack>:
 8001164:	f04f 7380 	mov.w	r3, #16777216	; 0x1000000
 8001168:	f840 3c04 	str.w	r3, [r0, #-4]
 800116c:	4b07      	ldr	r3, [pc, #28]	; (800118c <pxPortInitialiseStack+0x28>)
 800116e:	f840 3c0c 	str.w	r3, [r0, #-12]
 8001172:	f021 0101 	bic.w	r1, r1, #1
 8001176:	f06f 0302 	mvn.w	r3, #2
 800117a:	f840 1c08 	str.w	r1, [r0, #-8]
 800117e:	f840 2c20 	str.w	r2, [r0, #-32]
 8001182:	f840 3c24 	str.w	r3, [r0, #-36]
 8001186:	3844      	subs	r0, #68	; 0x44
 8001188:	4770      	bx	lr
 800118a:	bf00      	nop
 800118c:	080010e9 	.word	0x080010e9

08001190 <SVC_Handler>:
 8001190:	4b07      	ldr	r3, [pc, #28]	; (80011b0 <pxCurrentTCBConst2>)
 8001192:	6819      	ldr	r1, [r3, #0]
 8001194:	6808      	ldr	r0, [r1, #0]
 8001196:	e8b0 4ff0 	ldmia.w	r0!, {r4, r5, r6, r7, r8, r9, sl, fp, lr}
 800119a:	f380 8809 	msr	PSP, r0
 800119e:	f3bf 8f6f 	isb	sy
 80011a2:	f04f 0000 	mov.w	r0, #0
 80011a6:	f380 8811 	msr	BASEPRI, r0
 80011aa:	4770      	bx	lr
 80011ac:	f3af 8000 	nop.w

080011b0 <pxCurrentTCBConst2>:
 80011b0:	2000048c 	.word	0x2000048c
 80011b4:	f3af 8000 	nop.w
 80011b8:	f3af 8000 	nop.w
 80011bc:	f3af 8000 	nop.w

080011c0 <vPortEnterCritical>:
 80011c0:	f04f 03fc 	mov.w	r3, #252	; 0xfc
 80011c4:	f383 8811 	msr	BASEPRI, r3
 80011c8:	f3bf 8f6f 	isb	sy
 80011cc:	f3bf 8f4f 	dsb	sy
 80011d0:	4a0a      	ldr	r2, [pc, #40]	; (80011fc <vPortEnterCritical+0x3c>)
 80011d2:	6813      	ldr	r3, [r2, #0]
 80011d4:	3301      	adds	r3, #1
 80011d6:	2b01      	cmp	r3, #1
 80011d8:	6013      	str	r3, [r2, #0]
 80011da:	d10d      	bne.n	80011f8 <vPortEnterCritical+0x38>
 80011dc:	4b08      	ldr	r3, [pc, #32]	; (8001200 <vPortEnterCritical+0x40>)
 80011de:	681b      	ldr	r3, [r3, #0]
 80011e0:	f013 0fff 	tst.w	r3, #255	; 0xff
 80011e4:	d008      	beq.n	80011f8 <vPortEnterCritical+0x38>
 80011e6:	f04f 03fc 	mov.w	r3, #252	; 0xfc
 80011ea:	f383 8811 	msr	BASEPRI, r3
 80011ee:	f3bf 8f6f 	isb	sy
 80011f2:	f3bf 8f4f 	dsb	sy
 80011f6:	e7fe      	b.n	80011f6 <vPortEnterCritical+0x36>
 80011f8:	4770      	bx	lr
 80011fa:	bf00      	nop
 80011fc:	20000090 	.word	0x20000090
 8001200:	e000ed04 	.word	0xe000ed04

08001204 <vPortExitCritical>:
 8001204:	4a08      	ldr	r2, [pc, #32]	; (8001228 <vPortExitCritical+0x24>)
 8001206:	6813      	ldr	r3, [r2, #0]
 8001208:	b943      	cbnz	r3, 800121c <vPortExitCritical+0x18>
 800120a:	f04f 03fc 	mov.w	r3, #252	; 0xfc
 800120e:	f383 8811 	msr	BASEPRI, r3
 8001212:	f3bf 8f6f 	isb	sy
 8001216:	f3bf 8f4f 	dsb	sy
 800121a:	e7fe      	b.n	800121a <vPortExitCritical+0x16>
 800121c:	3b01      	subs	r3, #1
 800121e:	6013      	str	r3, [r2, #0]
 8001220:	b90b      	cbnz	r3, 8001226 <vPortExitCritical+0x22>
 8001222:	f383 8811 	msr	BASEPRI, r3
 8001226:	4770      	bx	lr
 8001228:	20000090 	.word	0x20000090
 800122c:	00000000 	.word	0x00000000

08001230 <PendSV_Handler>:
 8001230:	f3ef 8009 	mrs	r0, PSP
 8001234:	f3bf 8f6f 	isb	sy
 8001238:	4b15      	ldr	r3, [pc, #84]	; (8001290 <pxCurrentTCBConst>)
 800123a:	681a      	ldr	r2, [r3, #0]
 800123c:	f01e 0f10 	tst.w	lr, #16
 8001240:	bf08      	it	eq
 8001242:	ed20 8a10 	vstmdbeq	r0!, {s16-s31}
 8001246:	e920 4ff0 	stmdb	r0!, {r4, r5, r6, r7, r8, r9, sl, fp, lr}
 800124a:	6010      	str	r0, [r2, #0]
 800124c:	e92d 0009 	stmdb	sp!, {r0, r3}
 8001250:	f04f 00fc 	mov.w	r0, #252	; 0xfc
 8001254:	f380 8811 	msr	BASEPRI, r0
 8001258:	f3bf 8f4f 	dsb	sy
 800125c:	f3bf 8f6f 	isb	sy
 8001260:	f000 ff60 	bl	8002124 <vTaskSwitchContext>
 8001264:	f04f 0000 	mov.w	r0, #0
 8001268:	f380 8811 	msr	BASEPRI, r0
 800126c:	bc09      	pop	{r0, r3}
 800126e:	6819      	ldr	r1, [r3, #0]
 8001270:	6808      	ldr	r0, [r1, #0]
 8001272:	e8b0 4ff0 	ldmia.w	r0!, {r4, r5, r6, r7, r8, r9, sl, fp, lr}
 8001276:	f01e 0f10 	tst.w	lr, #16
 800127a:	bf08      	it	eq
 800127c:	ecb0 8a10 	vldmiaeq	r0!, {s16-s31}
 8001280:	f380 8809 	msr	PSP, r0
 8001284:	f3bf 8f6f 	isb	sy
 8001288:	4770      	bx	lr
 800128a:	bf00      	nop
 800128c:	f3af 8000 	nop.w

08001290 <pxCurrentTCBConst>:
 8001290:	2000048c 	.word	0x2000048c
 8001294:	f3af 8000 	nop.w
 8001298:	f3af 8000 	nop.w
 800129c:	f3af 8000 	nop.w

080012a0 <SysTick_Handler>:
 80012a0:	b508      	push	{r3, lr}
 80012a2:	f04f 03fc 	mov.w	r3, #252	; 0xfc
 80012a6:	f383 8811 	msr	BASEPRI, r3
 80012aa:	f3bf 8f6f 	isb	sy
 80012ae:	f3bf 8f4f 	dsb	sy
 80012b2:	f000 fe13 	bl	8001edc <xTaskIncrementTick>
 80012b6:	b118      	cbz	r0, 80012c0 <SysTick_Handler+0x20>
 80012b8:	4b03      	ldr	r3, [pc, #12]	; (80012c8 <SysTick_Handler+0x28>)
 80012ba:	f04f 5280 	mov.w	r2, #268435456	; 0x10000000
 80012be:	601a      	str	r2, [r3, #0]
 80012c0:	2300      	movs	r3, #0
 80012c2:	f383 8811 	msr	BASEPRI, r3
 80012c6:	bd08      	pop	{r3, pc}
 80012c8:	e000ed04 	.word	0xe000ed04

080012cc <vPortSetupTimerInterrupt>:
 80012cc:	4a08      	ldr	r2, [pc, #32]	; (80012f0 <vPortSetupTimerInterrupt+0x24>)
 80012ce:	4909      	ldr	r1, [pc, #36]	; (80012f4 <vPortSetupTimerInterrupt+0x28>)
 80012d0:	2300      	movs	r3, #0
 80012d2:	6013      	str	r3, [r2, #0]
 80012d4:	600b      	str	r3, [r1, #0]
 80012d6:	4b08      	ldr	r3, [pc, #32]	; (80012f8 <vPortSetupTimerInterrupt+0x2c>)
 80012d8:	f242 7110 	movw	r1, #10000	; 0x2710
 80012dc:	681b      	ldr	r3, [r3, #0]
 80012de:	fbb3 f3f1 	udiv	r3, r3, r1
 80012e2:	4906      	ldr	r1, [pc, #24]	; (80012fc <vPortSetupTimerInterrupt+0x30>)
 80012e4:	3b01      	subs	r3, #1
 80012e6:	600b      	str	r3, [r1, #0]
 80012e8:	2307      	movs	r3, #7
 80012ea:	6013      	str	r3, [r2, #0]
 80012ec:	4770      	bx	lr
 80012ee:	bf00      	nop
 80012f0:	e000e010 	.word	0xe000e010
 80012f4:	e000e018 	.word	0xe000e018
 80012f8:	2000ffc0 	.word	0x2000ffc0
 80012fc:	e000e014 	.word	0xe000e014

08001300 <xPortStartScheduler>:
 8001300:	4b37      	ldr	r3, [pc, #220]	; (80013e0 <xPortStartScheduler+0xe0>)
 8001302:	4a38      	ldr	r2, [pc, #224]	; (80013e4 <xPortStartScheduler+0xe4>)
 8001304:	b513      	push	{r0, r1, r4, lr}
 8001306:	6819      	ldr	r1, [r3, #0]
 8001308:	4291      	cmp	r1, r2
 800130a:	d108      	bne.n	800131e <xPortStartScheduler+0x1e>
 800130c:	f04f 03fc 	mov.w	r3, #252	; 0xfc
 8001310:	f383 8811 	msr	BASEPRI, r3
 8001314:	f3bf 8f6f 	isb	sy
 8001318:	f3bf 8f4f 	dsb	sy
 800131c:	e7fe      	b.n	800131c <xPortStartScheduler+0x1c>
 800131e:	681a      	ldr	r2, [r3, #0]
 8001320:	4b31      	ldr	r3, [pc, #196]	; (80013e8 <xPortStartScheduler+0xe8>)
 8001322:	429a      	cmp	r2, r3
 8001324:	d108      	bne.n	8001338 <xPortStartScheduler+0x38>
 8001326:	f04f 03fc 	mov.w	r3, #252	; 0xfc
 800132a:	f383 8811 	msr	BASEPRI, r3
 800132e:	f3bf 8f6f 	isb	sy
 8001332:	f3bf 8f4f 	dsb	sy
 8001336:	e7fe      	b.n	8001336 <xPortStartScheduler+0x36>
 8001338:	4b2c      	ldr	r3, [pc, #176]	; (80013ec <xPortStartScheduler+0xec>)
 800133a:	781a      	ldrb	r2, [r3, #0]
 800133c:	b2d2      	uxtb	r2, r2
 800133e:	9201      	str	r2, [sp, #4]
 8001340:	22ff      	movs	r2, #255	; 0xff
 8001342:	701a      	strb	r2, [r3, #0]
 8001344:	781b      	ldrb	r3, [r3, #0]
 8001346:	4a2a      	ldr	r2, [pc, #168]	; (80013f0 <xPortStartScheduler+0xf0>)
 8001348:	b2db      	uxtb	r3, r3
 800134a:	f88d 3003 	strb.w	r3, [sp, #3]
 800134e:	f89d 3003 	ldrb.w	r3, [sp, #3]
 8001352:	f003 03fc 	and.w	r3, r3, #252	; 0xfc
 8001356:	7013      	strb	r3, [r2, #0]
 8001358:	4a26      	ldr	r2, [pc, #152]	; (80013f4 <xPortStartScheduler+0xf4>)
 800135a:	2307      	movs	r3, #7
 800135c:	6013      	str	r3, [r2, #0]
 800135e:	f89d 1003 	ldrb.w	r1, [sp, #3]
 8001362:	0609      	lsls	r1, r1, #24
 8001364:	f103 30ff 	add.w	r0, r3, #4294967295
 8001368:	d507      	bpl.n	800137a <xPortStartScheduler+0x7a>
 800136a:	f89d 3003 	ldrb.w	r3, [sp, #3]
 800136e:	005b      	lsls	r3, r3, #1
 8001370:	b2db      	uxtb	r3, r3
 8001372:	f88d 3003 	strb.w	r3, [sp, #3]
 8001376:	4603      	mov	r3, r0
 8001378:	e7f1      	b.n	800135e <xPortStartScheduler+0x5e>
 800137a:	2b01      	cmp	r3, #1
 800137c:	6013      	str	r3, [r2, #0]
 800137e:	d008      	beq.n	8001392 <xPortStartScheduler+0x92>
 8001380:	f04f 03fc 	mov.w	r3, #252	; 0xfc
 8001384:	f383 8811 	msr	BASEPRI, r3
 8001388:	f3bf 8f6f 	isb	sy
 800138c:	f3bf 8f4f 	dsb	sy
 8001390:	e7fe      	b.n	8001390 <xPortStartScheduler+0x90>
 8001392:	4a18      	ldr	r2, [pc, #96]	; (80013f4 <xPortStartScheduler+0xf4>)
 8001394:	021b      	lsls	r3, r3, #8
 8001396:	f403 63e0 	and.w	r3, r3, #1792	; 0x700
 800139a:	6013      	str	r3, [r2, #0]
 800139c:	9b01      	ldr	r3, [sp, #4]
 800139e:	4a13      	ldr	r2, [pc, #76]	; (80013ec <xPortStartScheduler+0xec>)
 80013a0:	b2db      	uxtb	r3, r3
 80013a2:	7013      	strb	r3, [r2, #0]
 80013a4:	4b14      	ldr	r3, [pc, #80]	; (80013f8 <xPortStartScheduler+0xf8>)
 80013a6:	681a      	ldr	r2, [r3, #0]
 80013a8:	f442 027c 	orr.w	r2, r2, #16515072	; 0xfc0000
 80013ac:	601a      	str	r2, [r3, #0]
 80013ae:	681a      	ldr	r2, [r3, #0]
 80013b0:	f042 427c 	orr.w	r2, r2, #4227858432	; 0xfc000000
 80013b4:	601a      	str	r2, [r3, #0]
 80013b6:	f7ff ff89 	bl	80012cc <vPortSetupTimerInterrupt>
 80013ba:	4b10      	ldr	r3, [pc, #64]	; (80013fc <xPortStartScheduler+0xfc>)
 80013bc:	2400      	movs	r4, #0
 80013be:	601c      	str	r4, [r3, #0]
 80013c0:	f7ff fec6 	bl	8001150 <vPortEnableVFP>
 80013c4:	4a0e      	ldr	r2, [pc, #56]	; (8001400 <xPortStartScheduler+0x100>)
 80013c6:	6813      	ldr	r3, [r2, #0]
 80013c8:	f043 4340 	orr.w	r3, r3, #3221225472	; 0xc0000000
 80013cc:	6013      	str	r3, [r2, #0]
 80013ce:	f7ff feab 	bl	8001128 <prvPortStartFirstTask>
 80013d2:	f000 fea7 	bl	8002124 <vTaskSwitchContext>
 80013d6:	f7ff fe87 	bl	80010e8 <prvTaskExitError>
 80013da:	4620      	mov	r0, r4
 80013dc:	b002      	add	sp, #8
 80013de:	bd10      	pop	{r4, pc}
 80013e0:	e000ed00 	.word	0xe000ed00
 80013e4:	410fc271 	.word	0x410fc271
 80013e8:	410fc270 	.word	0x410fc270
 80013ec:	e000e400 	.word	0xe000e400
 80013f0:	200003e4 	.word	0x200003e4
 80013f4:	200003e8 	.word	0x200003e8
 80013f8:	e000ed20 	.word	0xe000ed20
 80013fc:	20000090 	.word	0x20000090
 8001400:	e000ef34 	.word	0xe000ef34

08001404 <vPortValidateInterruptPriority>:
 8001404:	f3ef 8305 	mrs	r3, IPSR
 8001408:	2b0f      	cmp	r3, #15
 800140a:	d90e      	bls.n	800142a <vPortValidateInterruptPriority+0x26>
 800140c:	4a10      	ldr	r2, [pc, #64]	; (8001450 <vPortValidateInterruptPriority+0x4c>)
 800140e:	5c9b      	ldrb	r3, [r3, r2]
 8001410:	4a10      	ldr	r2, [pc, #64]	; (8001454 <vPortValidateInterruptPriority+0x50>)
 8001412:	7812      	ldrb	r2, [r2, #0]
 8001414:	429a      	cmp	r2, r3
 8001416:	d908      	bls.n	800142a <vPortValidateInterruptPriority+0x26>
 8001418:	f04f 03fc 	mov.w	r3, #252	; 0xfc
 800141c:	f383 8811 	msr	BASEPRI, r3
 8001420:	f3bf 8f6f 	isb	sy
 8001424:	f3bf 8f4f 	dsb	sy
 8001428:	e7fe      	b.n	8001428 <vPortValidateInterruptPriority+0x24>
 800142a:	4b0b      	ldr	r3, [pc, #44]	; (8001458 <vPortValidateInterruptPriority+0x54>)
 800142c:	4a0b      	ldr	r2, [pc, #44]	; (800145c <vPortValidateInterruptPriority+0x58>)
 800142e:	681b      	ldr	r3, [r3, #0]
 8001430:	6812      	ldr	r2, [r2, #0]
 8001432:	f403 63e0 	and.w	r3, r3, #1792	; 0x700
 8001436:	4293      	cmp	r3, r2
 8001438:	d908      	bls.n	800144c <vPortValidateInterruptPriority+0x48>
 800143a:	f04f 03fc 	mov.w	r3, #252	; 0xfc
 800143e:	f383 8811 	msr	BASEPRI, r3
 8001442:	f3bf 8f6f 	isb	sy
 8001446:	f3bf 8f4f 	dsb	sy
 800144a:	e7fe      	b.n	800144a <vPortValidateInterruptPriority+0x46>
 800144c:	4770      	bx	lr
 800144e:	bf00      	nop
 8001450:	e000e3f0 	.word	0xe000e3f0
 8001454:	200003e4 	.word	0x200003e4
 8001458:	e000ed0c 	.word	0xe000ed0c
 800145c:	200003e8 	.word	0x200003e8

08001460 <pvPortMalloc>:
 8001460:	b510      	push	{r4, lr}
 8001462:	4604      	mov	r4, r0
 8001464:	f000 fd2c 	bl	8001ec0 <vTaskSuspendAll>
 8001468:	4620      	mov	r0, r4
 800146a:	f002 fcb3 	bl	8003dd4 <malloc>
 800146e:	4604      	mov	r4, r0
 8001470:	f000 fdbe 	bl	8001ff0 <xTaskResumeAll>
 8001474:	4620      	mov	r0, r4
 8001476:	bd10      	pop	{r4, pc}

08001478 <vPortFree>:
 8001478:	b510      	push	{r4, lr}
 800147a:	4604      	mov	r4, r0
 800147c:	b140      	cbz	r0, 8001490 <vPortFree+0x18>
 800147e:	f000 fd1f 	bl	8001ec0 <vTaskSuspendAll>
 8001482:	4620      	mov	r0, r4
 8001484:	f002 fcae 	bl	8003de4 <free>
 8001488:	e8bd 4010 	ldmia.w	sp!, {r4, lr}
 800148c:	f000 bdb0 	b.w	8001ff0 <xTaskResumeAll>
 8001490:	bd10      	pop	{r4, pc}

08001492 <vListInitialise>:
 8001492:	f100 0308 	add.w	r3, r0, #8
 8001496:	6043      	str	r3, [r0, #4]
 8001498:	f04f 32ff 	mov.w	r2, #4294967295
 800149c:	60c3      	str	r3, [r0, #12]
 800149e:	6103      	str	r3, [r0, #16]
 80014a0:	2300      	movs	r3, #0
 80014a2:	6082      	str	r2, [r0, #8]
 80014a4:	6003      	str	r3, [r0, #0]
 80014a6:	4770      	bx	lr

080014a8 <vListInitialiseItem>:
 80014a8:	2300      	movs	r3, #0
 80014aa:	6103      	str	r3, [r0, #16]
 80014ac:	4770      	bx	lr

080014ae <vListInsertEnd>:
 80014ae:	6843      	ldr	r3, [r0, #4]
 80014b0:	604b      	str	r3, [r1, #4]
 80014b2:	689a      	ldr	r2, [r3, #8]
 80014b4:	608a      	str	r2, [r1, #8]
 80014b6:	689a      	ldr	r2, [r3, #8]
 80014b8:	6051      	str	r1, [r2, #4]
 80014ba:	6099      	str	r1, [r3, #8]
 80014bc:	6803      	ldr	r3, [r0, #0]
 80014be:	6108      	str	r0, [r1, #16]
 80014c0:	3301      	adds	r3, #1
 80014c2:	6003      	str	r3, [r0, #0]
 80014c4:	4770      	bx	lr

080014c6 <vListInsert>:
 80014c6:	680a      	ldr	r2, [r1, #0]
 80014c8:	1c53      	adds	r3, r2, #1
 80014ca:	b530      	push	{r4, r5, lr}
 80014cc:	d101      	bne.n	80014d2 <vListInsert+0xc>
 80014ce:	6903      	ldr	r3, [r0, #16]
 80014d0:	e007      	b.n	80014e2 <vListInsert+0x1c>
 80014d2:	f100 0308 	add.w	r3, r0, #8
 80014d6:	685c      	ldr	r4, [r3, #4]
 80014d8:	6825      	ldr	r5, [r4, #0]
 80014da:	4295      	cmp	r5, r2
 80014dc:	d801      	bhi.n	80014e2 <vListInsert+0x1c>
 80014de:	4623      	mov	r3, r4
 80014e0:	e7f9      	b.n	80014d6 <vListInsert+0x10>
 80014e2:	685a      	ldr	r2, [r3, #4]
 80014e4:	604a      	str	r2, [r1, #4]
 80014e6:	6091      	str	r1, [r2, #8]
 80014e8:	608b      	str	r3, [r1, #8]
 80014ea:	6059      	str	r1, [r3, #4]
 80014ec:	6803      	ldr	r3, [r0, #0]
 80014ee:	6108      	str	r0, [r1, #16]
 80014f0:	3301      	adds	r3, #1
 80014f2:	6003      	str	r3, [r0, #0]
 80014f4:	bd30      	pop	{r4, r5, pc}

080014f6 <uxListRemove>:
 80014f6:	6841      	ldr	r1, [r0, #4]
 80014f8:	6882      	ldr	r2, [r0, #8]
 80014fa:	6903      	ldr	r3, [r0, #16]
 80014fc:	608a      	str	r2, [r1, #8]
 80014fe:	6882      	ldr	r2, [r0, #8]
 8001500:	6051      	str	r1, [r2, #4]
 8001502:	6859      	ldr	r1, [r3, #4]
 8001504:	4281      	cmp	r1, r0
 8001506:	bf08      	it	eq
 8001508:	605a      	streq	r2, [r3, #4]
 800150a:	2200      	movs	r2, #0
 800150c:	6102      	str	r2, [r0, #16]
 800150e:	681a      	ldr	r2, [r3, #0]
 8001510:	3a01      	subs	r2, #1
 8001512:	601a      	str	r2, [r3, #0]
 8001514:	6818      	ldr	r0, [r3, #0]
 8001516:	4770      	bx	lr

08001518 <prvIsQueueEmpty>:
 8001518:	b510      	push	{r4, lr}
 800151a:	4604      	mov	r4, r0
 800151c:	f7ff fe50 	bl	80011c0 <vPortEnterCritical>
 8001520:	6ba4      	ldr	r4, [r4, #56]	; 0x38
 8001522:	f7ff fe6f 	bl	8001204 <vPortExitCritical>
 8001526:	fab4 f084 	clz	r0, r4
 800152a:	0940      	lsrs	r0, r0, #5
 800152c:	bd10      	pop	{r4, pc}

0800152e <prvCopyDataToQueue>:
 800152e:	b570      	push	{r4, r5, r6, lr}
 8001530:	4615      	mov	r5, r2
 8001532:	6c02      	ldr	r2, [r0, #64]	; 0x40
 8001534:	6b86      	ldr	r6, [r0, #56]	; 0x38
 8001536:	4604      	mov	r4, r0
 8001538:	b932      	cbnz	r2, 8001548 <prvCopyDataToQueue+0x1a>
 800153a:	6805      	ldr	r5, [r0, #0]
 800153c:	bb2d      	cbnz	r5, 800158a <prvCopyDataToQueue+0x5c>
 800153e:	6840      	ldr	r0, [r0, #4]
 8001540:	f000 ff0e 	bl	8002360 <xTaskPriorityDisinherit>
 8001544:	6065      	str	r5, [r4, #4]
 8001546:	e027      	b.n	8001598 <prvCopyDataToQueue+0x6a>
 8001548:	b965      	cbnz	r5, 8001564 <prvCopyDataToQueue+0x36>
 800154a:	6880      	ldr	r0, [r0, #8]
 800154c:	f002 fc52 	bl	8003df4 <memcpy>
 8001550:	68a2      	ldr	r2, [r4, #8]
 8001552:	6c23      	ldr	r3, [r4, #64]	; 0x40
 8001554:	4413      	add	r3, r2
 8001556:	6862      	ldr	r2, [r4, #4]
 8001558:	60a3      	str	r3, [r4, #8]
 800155a:	4293      	cmp	r3, r2
 800155c:	d317      	bcc.n	800158e <prvCopyDataToQueue+0x60>
 800155e:	6823      	ldr	r3, [r4, #0]
 8001560:	60a3      	str	r3, [r4, #8]
 8001562:	e014      	b.n	800158e <prvCopyDataToQueue+0x60>
 8001564:	68c0      	ldr	r0, [r0, #12]
 8001566:	f002 fc45 	bl	8003df4 <memcpy>
 800156a:	6c23      	ldr	r3, [r4, #64]	; 0x40
 800156c:	68e2      	ldr	r2, [r4, #12]
 800156e:	6821      	ldr	r1, [r4, #0]
 8001570:	425b      	negs	r3, r3
 8001572:	441a      	add	r2, r3
 8001574:	428a      	cmp	r2, r1
 8001576:	60e2      	str	r2, [r4, #12]
 8001578:	bf3e      	ittt	cc
 800157a:	6862      	ldrcc	r2, [r4, #4]
 800157c:	189b      	addcc	r3, r3, r2
 800157e:	60e3      	strcc	r3, [r4, #12]
 8001580:	2d02      	cmp	r5, #2
 8001582:	d106      	bne.n	8001592 <prvCopyDataToQueue+0x64>
 8001584:	b13e      	cbz	r6, 8001596 <prvCopyDataToQueue+0x68>
 8001586:	3e01      	subs	r6, #1
 8001588:	e003      	b.n	8001592 <prvCopyDataToQueue+0x64>
 800158a:	4610      	mov	r0, r2
 800158c:	e004      	b.n	8001598 <prvCopyDataToQueue+0x6a>
 800158e:	4628      	mov	r0, r5
 8001590:	e002      	b.n	8001598 <prvCopyDataToQueue+0x6a>
 8001592:	2000      	movs	r0, #0
 8001594:	e000      	b.n	8001598 <prvCopyDataToQueue+0x6a>
 8001596:	4630      	mov	r0, r6
 8001598:	3601      	adds	r6, #1
 800159a:	63a6      	str	r6, [r4, #56]	; 0x38
 800159c:	bd70      	pop	{r4, r5, r6, pc}

0800159e <prvCopyDataFromQueue>:
 800159e:	6c02      	ldr	r2, [r0, #64]	; 0x40
 80015a0:	b510      	push	{r4, lr}
 80015a2:	4603      	mov	r3, r0
 80015a4:	b16a      	cbz	r2, 80015c2 <prvCopyDataFromQueue+0x24>
 80015a6:	68c4      	ldr	r4, [r0, #12]
 80015a8:	4414      	add	r4, r2
 80015aa:	60c4      	str	r4, [r0, #12]
 80015ac:	6840      	ldr	r0, [r0, #4]
 80015ae:	4284      	cmp	r4, r0
 80015b0:	bf24      	itt	cs
 80015b2:	6818      	ldrcs	r0, [r3, #0]
 80015b4:	60d8      	strcs	r0, [r3, #12]
 80015b6:	e8bd 4010 	ldmia.w	sp!, {r4, lr}
 80015ba:	4608      	mov	r0, r1
 80015bc:	68d9      	ldr	r1, [r3, #12]
 80015be:	f002 bc19 	b.w	8003df4 <memcpy>
 80015c2:	bd10      	pop	{r4, pc}

080015c4 <prvNotifyQueueSetContainer>:
 80015c4:	b573      	push	{r0, r1, r4, r5, r6, lr}
 80015c6:	6c84      	ldr	r4, [r0, #72]	; 0x48
 80015c8:	9001      	str	r0, [sp, #4]
 80015ca:	460a      	mov	r2, r1
 80015cc:	b944      	cbnz	r4, 80015e0 <prvNotifyQueueSetContainer+0x1c>
 80015ce:	f04f 03fc 	mov.w	r3, #252	; 0xfc
 80015d2:	f383 8811 	msr	BASEPRI, r3
 80015d6:	f3bf 8f6f 	isb	sy
 80015da:	f3bf 8f4f 	dsb	sy
 80015de:	e7fe      	b.n	80015de <prvNotifyQueueSetContainer+0x1a>
 80015e0:	6ba1      	ldr	r1, [r4, #56]	; 0x38
 80015e2:	6be3      	ldr	r3, [r4, #60]	; 0x3c
 80015e4:	4299      	cmp	r1, r3
 80015e6:	d308      	bcc.n	80015fa <prvNotifyQueueSetContainer+0x36>
 80015e8:	f04f 03fc 	mov.w	r3, #252	; 0xfc
 80015ec:	f383 8811 	msr	BASEPRI, r3
 80015f0:	f3bf 8f6f 	isb	sy
 80015f4:	f3bf 8f4f 	dsb	sy
 80015f8:	e7fe      	b.n	80015f8 <prvNotifyQueueSetContainer+0x34>
 80015fa:	6ba1      	ldr	r1, [r4, #56]	; 0x38
 80015fc:	4299      	cmp	r1, r3
 80015fe:	d218      	bcs.n	8001632 <prvNotifyQueueSetContainer+0x6e>
 8001600:	f894 5045 	ldrb.w	r5, [r4, #69]	; 0x45
 8001604:	4620      	mov	r0, r4
 8001606:	a901      	add	r1, sp, #4
 8001608:	f7ff ff91 	bl	800152e <prvCopyDataToQueue>
 800160c:	b2ed      	uxtb	r5, r5
 800160e:	2dff      	cmp	r5, #255	; 0xff
 8001610:	4606      	mov	r6, r0
 8001612:	d109      	bne.n	8001628 <prvNotifyQueueSetContainer+0x64>
 8001614:	6a63      	ldr	r3, [r4, #36]	; 0x24
 8001616:	b16b      	cbz	r3, 8001634 <prvNotifyQueueSetContainer+0x70>
 8001618:	f104 0024 	add.w	r0, r4, #36	; 0x24
 800161c:	f000 fdf6 	bl	800220c <xTaskRemoveFromEventList>
 8001620:	2800      	cmp	r0, #0
 8001622:	bf18      	it	ne
 8001624:	2601      	movne	r6, #1
 8001626:	e005      	b.n	8001634 <prvNotifyQueueSetContainer+0x70>
 8001628:	3501      	adds	r5, #1
 800162a:	b2ed      	uxtb	r5, r5
 800162c:	f884 5045 	strb.w	r5, [r4, #69]	; 0x45
 8001630:	e000      	b.n	8001634 <prvNotifyQueueSetContainer+0x70>
 8001632:	2600      	movs	r6, #0
 8001634:	4630      	mov	r0, r6
 8001636:	b002      	add	sp, #8
 8001638:	bd70      	pop	{r4, r5, r6, pc}

0800163a <prvUnlockQueue>:
 800163a:	b538      	push	{r3, r4, r5, lr}
 800163c:	4604      	mov	r4, r0
 800163e:	f7ff fdbf 	bl	80011c0 <vPortEnterCritical>
 8001642:	f894 5045 	ldrb.w	r5, [r4, #69]	; 0x45
 8001646:	b2ed      	uxtb	r5, r5
 8001648:	b26b      	sxtb	r3, r5
 800164a:	2b00      	cmp	r3, #0
 800164c:	dd12      	ble.n	8001674 <prvUnlockQueue+0x3a>
 800164e:	6ca3      	ldr	r3, [r4, #72]	; 0x48
 8001650:	b13b      	cbz	r3, 8001662 <prvUnlockQueue+0x28>
 8001652:	4620      	mov	r0, r4
 8001654:	2100      	movs	r1, #0
 8001656:	f7ff ffb5 	bl	80015c4 <prvNotifyQueueSetContainer>
 800165a:	b148      	cbz	r0, 8001670 <prvUnlockQueue+0x36>
 800165c:	f000 fe6a 	bl	8002334 <vTaskMissedYield>
 8001660:	e006      	b.n	8001670 <prvUnlockQueue+0x36>
 8001662:	6a63      	ldr	r3, [r4, #36]	; 0x24
 8001664:	b133      	cbz	r3, 8001674 <prvUnlockQueue+0x3a>
 8001666:	f104 0024 	add.w	r0, r4, #36	; 0x24
 800166a:	f000 fdcf 	bl	800220c <xTaskRemoveFromEventList>
 800166e:	e7f4      	b.n	800165a <prvUnlockQueue+0x20>
 8001670:	3d01      	subs	r5, #1
 8001672:	e7e8      	b.n	8001646 <prvUnlockQueue+0xc>
 8001674:	23ff      	movs	r3, #255	; 0xff
 8001676:	f884 3045 	strb.w	r3, [r4, #69]	; 0x45
 800167a:	f7ff fdc3 	bl	8001204 <vPortExitCritical>
 800167e:	f7ff fd9f 	bl	80011c0 <vPortEnterCritical>
 8001682:	f894 5044 	ldrb.w	r5, [r4, #68]	; 0x44
 8001686:	b2ed      	uxtb	r5, r5
 8001688:	b26b      	sxtb	r3, r5
 800168a:	2b00      	cmp	r3, #0
 800168c:	dd0a      	ble.n	80016a4 <prvUnlockQueue+0x6a>
 800168e:	6923      	ldr	r3, [r4, #16]
 8001690:	b143      	cbz	r3, 80016a4 <prvUnlockQueue+0x6a>
 8001692:	f104 0010 	add.w	r0, r4, #16
 8001696:	f000 fdb9 	bl	800220c <xTaskRemoveFromEventList>
 800169a:	b108      	cbz	r0, 80016a0 <prvUnlockQueue+0x66>
 800169c:	f000 fe4a 	bl	8002334 <vTaskMissedYield>
 80016a0:	3d01      	subs	r5, #1
 80016a2:	e7f0      	b.n	8001686 <prvUnlockQueue+0x4c>
 80016a4:	23ff      	movs	r3, #255	; 0xff
 80016a6:	f884 3044 	strb.w	r3, [r4, #68]	; 0x44
 80016aa:	e8bd 4038 	ldmia.w	sp!, {r3, r4, r5, lr}
 80016ae:	f7ff bda9 	b.w	8001204 <vPortExitCritical>
	...

080016b4 <xQueueGenericReset>:
 80016b4:	b538      	push	{r3, r4, r5, lr}
 80016b6:	460d      	mov	r5, r1
 80016b8:	4604      	mov	r4, r0
 80016ba:	b940      	cbnz	r0, 80016ce <xQueueGenericReset+0x1a>
 80016bc:	f04f 03fc 	mov.w	r3, #252	; 0xfc
 80016c0:	f383 8811 	msr	BASEPRI, r3
 80016c4:	f3bf 8f6f 	isb	sy
 80016c8:	f3bf 8f4f 	dsb	sy
 80016cc:	e7fe      	b.n	80016cc <xQueueGenericReset+0x18>
 80016ce:	f7ff fd77 	bl	80011c0 <vPortEnterCritical>
 80016d2:	6c20      	ldr	r0, [r4, #64]	; 0x40
 80016d4:	6be3      	ldr	r3, [r4, #60]	; 0x3c
 80016d6:	6822      	ldr	r2, [r4, #0]
 80016d8:	60a2      	str	r2, [r4, #8]
 80016da:	4343      	muls	r3, r0
 80016dc:	18d1      	adds	r1, r2, r3
 80016de:	1a1b      	subs	r3, r3, r0
 80016e0:	4413      	add	r3, r2
 80016e2:	6061      	str	r1, [r4, #4]
 80016e4:	60e3      	str	r3, [r4, #12]
 80016e6:	2100      	movs	r1, #0
 80016e8:	23ff      	movs	r3, #255	; 0xff
 80016ea:	63a1      	str	r1, [r4, #56]	; 0x38
 80016ec:	f884 3044 	strb.w	r3, [r4, #68]	; 0x44
 80016f0:	f884 3045 	strb.w	r3, [r4, #69]	; 0x45
 80016f4:	b97d      	cbnz	r5, 8001716 <xQueueGenericReset+0x62>
 80016f6:	6923      	ldr	r3, [r4, #16]
 80016f8:	b1ab      	cbz	r3, 8001726 <xQueueGenericReset+0x72>
 80016fa:	f104 0010 	add.w	r0, r4, #16
 80016fe:	f000 fd85 	bl	800220c <xTaskRemoveFromEventList>
 8001702:	b180      	cbz	r0, 8001726 <xQueueGenericReset+0x72>
 8001704:	4b0a      	ldr	r3, [pc, #40]	; (8001730 <xQueueGenericReset+0x7c>)
 8001706:	f04f 5280 	mov.w	r2, #268435456	; 0x10000000
 800170a:	601a      	str	r2, [r3, #0]
 800170c:	f3bf 8f4f 	dsb	sy
 8001710:	f3bf 8f6f 	isb	sy
 8001714:	e007      	b.n	8001726 <xQueueGenericReset+0x72>
 8001716:	f104 0010 	add.w	r0, r4, #16
 800171a:	f7ff feba 	bl	8001492 <vListInitialise>
 800171e:	f104 0024 	add.w	r0, r4, #36	; 0x24
 8001722:	f7ff feb6 	bl	8001492 <vListInitialise>
 8001726:	f7ff fd6d 	bl	8001204 <vPortExitCritical>
 800172a:	2001      	movs	r0, #1
 800172c:	bd38      	pop	{r3, r4, r5, pc}
 800172e:	bf00      	nop
 8001730:	e000ed04 	.word	0xe000ed04

08001734 <xQueueGenericCreate>:
 8001734:	b5f8      	push	{r3, r4, r5, r6, r7, lr}
 8001736:	460d      	mov	r5, r1
 8001738:	4617      	mov	r7, r2
 800173a:	4606      	mov	r6, r0
 800173c:	b940      	cbnz	r0, 8001750 <xQueueGenericCreate+0x1c>
 800173e:	f04f 03fc 	mov.w	r3, #252	; 0xfc
 8001742:	f383 8811 	msr	BASEPRI, r3
 8001746:	f3bf 8f6f 	isb	sy
 800174a:	f3bf 8f4f 	dsb	sy
 800174e:	e7fe      	b.n	800174e <xQueueGenericCreate+0x1a>
 8001750:	b109      	cbz	r1, 8001756 <xQueueGenericCreate+0x22>
 8001752:	4348      	muls	r0, r1
 8001754:	e000      	b.n	8001758 <xQueueGenericCreate+0x24>
 8001756:	4608      	mov	r0, r1
 8001758:	3054      	adds	r0, #84	; 0x54
 800175a:	f7ff fe81 	bl	8001460 <pvPortMalloc>
 800175e:	4604      	mov	r4, r0
 8001760:	b178      	cbz	r0, 8001782 <xQueueGenericCreate+0x4e>
 8001762:	b90d      	cbnz	r5, 8001768 <xQueueGenericCreate+0x34>
 8001764:	6020      	str	r0, [r4, #0]
 8001766:	e002      	b.n	800176e <xQueueGenericCreate+0x3a>
 8001768:	f100 0354 	add.w	r3, r0, #84	; 0x54
 800176c:	6003      	str	r3, [r0, #0]
 800176e:	63e6      	str	r6, [r4, #60]	; 0x3c
 8001770:	6425      	str	r5, [r4, #64]	; 0x40
 8001772:	4620      	mov	r0, r4
 8001774:	2101      	movs	r1, #1
 8001776:	f7ff ff9d 	bl	80016b4 <xQueueGenericReset>
 800177a:	2300      	movs	r3, #0
 800177c:	f884 7050 	strb.w	r7, [r4, #80]	; 0x50
 8001780:	64a3      	str	r3, [r4, #72]	; 0x48
 8001782:	4620      	mov	r0, r4
 8001784:	bdf8      	pop	{r3, r4, r5, r6, r7, pc}
	...

08001788 <xQueueGenericSend>:
 8001788:	e92d 41ff 	stmdb	sp!, {r0, r1, r2, r3, r4, r5, r6, r7, r8, lr}
 800178c:	4688      	mov	r8, r1
 800178e:	9201      	str	r2, [sp, #4]
 8001790:	461f      	mov	r7, r3
 8001792:	4604      	mov	r4, r0
 8001794:	b940      	cbnz	r0, 80017a8 <xQueueGenericSend+0x20>
 8001796:	f04f 03fc 	mov.w	r3, #252	; 0xfc
 800179a:	f383 8811 	msr	BASEPRI, r3
 800179e:	f3bf 8f6f 	isb	sy
 80017a2:	f3bf 8f4f 	dsb	sy
 80017a6:	e7fe      	b.n	80017a6 <xQueueGenericSend+0x1e>
 80017a8:	b951      	cbnz	r1, 80017c0 <xQueueGenericSend+0x38>
 80017aa:	6c03      	ldr	r3, [r0, #64]	; 0x40
 80017ac:	b143      	cbz	r3, 80017c0 <xQueueGenericSend+0x38>
 80017ae:	f04f 03fc 	mov.w	r3, #252	; 0xfc
 80017b2:	f383 8811 	msr	BASEPRI, r3
 80017b6:	f3bf 8f6f 	isb	sy
 80017ba:	f3bf 8f4f 	dsb	sy
 80017be:	e7fe      	b.n	80017be <xQueueGenericSend+0x36>
 80017c0:	2f02      	cmp	r7, #2
 80017c2:	d10b      	bne.n	80017dc <xQueueGenericSend+0x54>
 80017c4:	6be3      	ldr	r3, [r4, #60]	; 0x3c
 80017c6:	2b01      	cmp	r3, #1
 80017c8:	d008      	beq.n	80017dc <xQueueGenericSend+0x54>
 80017ca:	f04f 03fc 	mov.w	r3, #252	; 0xfc
 80017ce:	f383 8811 	msr	BASEPRI, r3
 80017d2:	f3bf 8f6f 	isb	sy
 80017d6:	f3bf 8f4f 	dsb	sy
 80017da:	e7fe      	b.n	80017da <xQueueGenericSend+0x52>
 80017dc:	f000 fdb0 	bl	8002340 <xTaskGetSchedulerState>
 80017e0:	b910      	cbnz	r0, 80017e8 <xQueueGenericSend+0x60>
 80017e2:	9e01      	ldr	r6, [sp, #4]
 80017e4:	b10e      	cbz	r6, 80017ea <xQueueGenericSend+0x62>
 80017e6:	e076      	b.n	80018d6 <xQueueGenericSend+0x14e>
 80017e8:	2600      	movs	r6, #0
 80017ea:	f7ff fce9 	bl	80011c0 <vPortEnterCritical>
 80017ee:	6ba2      	ldr	r2, [r4, #56]	; 0x38
 80017f0:	6be3      	ldr	r3, [r4, #60]	; 0x3c
 80017f2:	429a      	cmp	r2, r3
 80017f4:	d301      	bcc.n	80017fa <xQueueGenericSend+0x72>
 80017f6:	2f02      	cmp	r7, #2
 80017f8:	d11e      	bne.n	8001838 <xQueueGenericSend+0xb0>
 80017fa:	4620      	mov	r0, r4
 80017fc:	4641      	mov	r1, r8
 80017fe:	463a      	mov	r2, r7
 8001800:	f7ff fe95 	bl	800152e <prvCopyDataToQueue>
 8001804:	6ca3      	ldr	r3, [r4, #72]	; 0x48
 8001806:	b123      	cbz	r3, 8001812 <xQueueGenericSend+0x8a>
 8001808:	4620      	mov	r0, r4
 800180a:	4639      	mov	r1, r7
 800180c:	f7ff feda 	bl	80015c4 <prvNotifyQueueSetContainer>
 8001810:	e005      	b.n	800181e <xQueueGenericSend+0x96>
 8001812:	6a63      	ldr	r3, [r4, #36]	; 0x24
 8001814:	b11b      	cbz	r3, 800181e <xQueueGenericSend+0x96>
 8001816:	f104 0024 	add.w	r0, r4, #36	; 0x24
 800181a:	f000 fcf7 	bl	800220c <xTaskRemoveFromEventList>
 800181e:	b138      	cbz	r0, 8001830 <xQueueGenericSend+0xa8>
 8001820:	4b33      	ldr	r3, [pc, #204]	; (80018f0 <xQueueGenericSend+0x168>)
 8001822:	f04f 5280 	mov.w	r2, #268435456	; 0x10000000
 8001826:	601a      	str	r2, [r3, #0]
 8001828:	f3bf 8f4f 	dsb	sy
 800182c:	f3bf 8f6f 	isb	sy
 8001830:	f7ff fce8 	bl	8001204 <vPortExitCritical>
 8001834:	2001      	movs	r0, #1
 8001836:	e057      	b.n	80018e8 <xQueueGenericSend+0x160>
 8001838:	9d01      	ldr	r5, [sp, #4]
 800183a:	b915      	cbnz	r5, 8001842 <xQueueGenericSend+0xba>
 800183c:	f7ff fce2 	bl	8001204 <vPortExitCritical>
 8001840:	e047      	b.n	80018d2 <xQueueGenericSend+0x14a>
 8001842:	b916      	cbnz	r6, 800184a <xQueueGenericSend+0xc2>
 8001844:	a802      	add	r0, sp, #8
 8001846:	f000 fd21 	bl	800228c <vTaskInternalSetTimeOutState>
 800184a:	f7ff fcdb 	bl	8001204 <vPortExitCritical>
 800184e:	f000 fb37 	bl	8001ec0 <vTaskSuspendAll>
 8001852:	f7ff fcb5 	bl	80011c0 <vPortEnterCritical>
 8001856:	f894 3044 	ldrb.w	r3, [r4, #68]	; 0x44
 800185a:	2bff      	cmp	r3, #255	; 0xff
 800185c:	bf04      	itt	eq
 800185e:	2300      	moveq	r3, #0
 8001860:	f884 3044 	strbeq.w	r3, [r4, #68]	; 0x44
 8001864:	f894 3045 	ldrb.w	r3, [r4, #69]	; 0x45
 8001868:	2bff      	cmp	r3, #255	; 0xff
 800186a:	bf04      	itt	eq
 800186c:	2300      	moveq	r3, #0
 800186e:	f884 3045 	strbeq.w	r3, [r4, #69]	; 0x45
 8001872:	f7ff fcc7 	bl	8001204 <vPortExitCritical>
 8001876:	a802      	add	r0, sp, #8
 8001878:	a901      	add	r1, sp, #4
 800187a:	f000 fd13 	bl	80022a4 <xTaskCheckForTimeOut>
 800187e:	bb18      	cbnz	r0, 80018c8 <xQueueGenericSend+0x140>
 8001880:	f7ff fc9e 	bl	80011c0 <vPortEnterCritical>
 8001884:	6ba6      	ldr	r6, [r4, #56]	; 0x38
 8001886:	6be5      	ldr	r5, [r4, #60]	; 0x3c
 8001888:	f7ff fcbc 	bl	8001204 <vPortExitCritical>
 800188c:	42ae      	cmp	r6, r5
 800188e:	d115      	bne.n	80018bc <xQueueGenericSend+0x134>
 8001890:	f104 0010 	add.w	r0, r4, #16
 8001894:	9901      	ldr	r1, [sp, #4]
 8001896:	f000 fc7f 	bl	8002198 <vTaskPlaceOnEventList>
 800189a:	4620      	mov	r0, r4
 800189c:	f7ff fecd 	bl	800163a <prvUnlockQueue>
 80018a0:	f000 fba6 	bl	8001ff0 <xTaskResumeAll>
 80018a4:	b108      	cbz	r0, 80018aa <xQueueGenericSend+0x122>
 80018a6:	2601      	movs	r6, #1
 80018a8:	e79f      	b.n	80017ea <xQueueGenericSend+0x62>
 80018aa:	4b11      	ldr	r3, [pc, #68]	; (80018f0 <xQueueGenericSend+0x168>)
 80018ac:	f04f 5280 	mov.w	r2, #268435456	; 0x10000000
 80018b0:	601a      	str	r2, [r3, #0]
 80018b2:	f3bf 8f4f 	dsb	sy
 80018b6:	f3bf 8f6f 	isb	sy
 80018ba:	e7f4      	b.n	80018a6 <xQueueGenericSend+0x11e>
 80018bc:	4620      	mov	r0, r4
 80018be:	f7ff febc 	bl	800163a <prvUnlockQueue>
 80018c2:	f000 fb95 	bl	8001ff0 <xTaskResumeAll>
 80018c6:	e7ee      	b.n	80018a6 <xQueueGenericSend+0x11e>
 80018c8:	4620      	mov	r0, r4
 80018ca:	f7ff feb6 	bl	800163a <prvUnlockQueue>
 80018ce:	f000 fb8f 	bl	8001ff0 <xTaskResumeAll>
 80018d2:	2000      	movs	r0, #0
 80018d4:	e008      	b.n	80018e8 <xQueueGenericSend+0x160>
 80018d6:	f04f 03fc 	mov.w	r3, #252	; 0xfc
 80018da:	f383 8811 	msr	BASEPRI, r3
 80018de:	f3bf 8f6f 	isb	sy
 80018e2:	f3bf 8f4f 	dsb	sy
 80018e6:	e7fe      	b.n	80018e6 <xQueueGenericSend+0x15e>
 80018e8:	b004      	add	sp, #16
 80018ea:	e8bd 81f0 	ldmia.w	sp!, {r4, r5, r6, r7, r8, pc}
 80018ee:	bf00      	nop
 80018f0:	e000ed04 	.word	0xe000ed04

080018f4 <xQueueGenericSendFromISR>:
 80018f4:	e92d 43f8 	stmdb	sp!, {r3, r4, r5, r6, r7, r8, r9, lr}
 80018f8:	4688      	mov	r8, r1
 80018fa:	4691      	mov	r9, r2
 80018fc:	461f      	mov	r7, r3
 80018fe:	4604      	mov	r4, r0
 8001900:	b940      	cbnz	r0, 8001914 <xQueueGenericSendFromISR+0x20>
 8001902:	f04f 03fc 	mov.w	r3, #252	; 0xfc
 8001906:	f383 8811 	msr	BASEPRI, r3
 800190a:	f3bf 8f6f 	isb	sy
 800190e:	f3bf 8f4f 	dsb	sy
 8001912:	e7fe      	b.n	8001912 <xQueueGenericSendFromISR+0x1e>
 8001914:	b951      	cbnz	r1, 800192c <xQueueGenericSendFromISR+0x38>
 8001916:	6c03      	ldr	r3, [r0, #64]	; 0x40
 8001918:	b143      	cbz	r3, 800192c <xQueueGenericSendFromISR+0x38>
 800191a:	f04f 03fc 	mov.w	r3, #252	; 0xfc
 800191e:	f383 8811 	msr	BASEPRI, r3
 8001922:	f3bf 8f6f 	isb	sy
 8001926:	f3bf 8f4f 	dsb	sy
 800192a:	e7fe      	b.n	800192a <xQueueGenericSendFromISR+0x36>
 800192c:	2f02      	cmp	r7, #2
 800192e:	d10b      	bne.n	8001948 <xQueueGenericSendFromISR+0x54>
 8001930:	6be3      	ldr	r3, [r4, #60]	; 0x3c
 8001932:	2b01      	cmp	r3, #1
 8001934:	d008      	beq.n	8001948 <xQueueGenericSendFromISR+0x54>
 8001936:	f04f 03fc 	mov.w	r3, #252	; 0xfc
 800193a:	f383 8811 	msr	BASEPRI, r3
 800193e:	f3bf 8f6f 	isb	sy
 8001942:	f3bf 8f4f 	dsb	sy
 8001946:	e7fe      	b.n	8001946 <xQueueGenericSendFromISR+0x52>
 8001948:	f7ff fd5c 	bl	8001404 <vPortValidateInterruptPriority>
 800194c:	f3ef 8611 	mrs	r6, BASEPRI
 8001950:	f04f 03fc 	mov.w	r3, #252	; 0xfc
 8001954:	f383 8811 	msr	BASEPRI, r3
 8001958:	f3bf 8f6f 	isb	sy
 800195c:	f3bf 8f4f 	dsb	sy
 8001960:	6ba2      	ldr	r2, [r4, #56]	; 0x38
 8001962:	6be3      	ldr	r3, [r4, #60]	; 0x3c
 8001964:	429a      	cmp	r2, r3
 8001966:	d301      	bcc.n	800196c <xQueueGenericSendFromISR+0x78>
 8001968:	2f02      	cmp	r7, #2
 800196a:	d124      	bne.n	80019b6 <xQueueGenericSendFromISR+0xc2>
 800196c:	f894 5045 	ldrb.w	r5, [r4, #69]	; 0x45
 8001970:	4620      	mov	r0, r4
 8001972:	b2ed      	uxtb	r5, r5
 8001974:	4641      	mov	r1, r8
 8001976:	463a      	mov	r2, r7
 8001978:	f7ff fdd9 	bl	800152e <prvCopyDataToQueue>
 800197c:	2dff      	cmp	r5, #255	; 0xff
 800197e:	d114      	bne.n	80019aa <xQueueGenericSendFromISR+0xb6>
 8001980:	6ca3      	ldr	r3, [r4, #72]	; 0x48
 8001982:	b15b      	cbz	r3, 800199c <xQueueGenericSendFromISR+0xa8>
 8001984:	4620      	mov	r0, r4
 8001986:	4639      	mov	r1, r7
 8001988:	f7ff fe1c 	bl	80015c4 <prvNotifyQueueSetContainer>
 800198c:	b188      	cbz	r0, 80019b2 <xQueueGenericSendFromISR+0xbe>
 800198e:	f1b9 0f00 	cmp.w	r9, #0
 8001992:	d00e      	beq.n	80019b2 <xQueueGenericSendFromISR+0xbe>
 8001994:	2001      	movs	r0, #1
 8001996:	f8c9 0000 	str.w	r0, [r9]
 800199a:	e00d      	b.n	80019b8 <xQueueGenericSendFromISR+0xc4>
 800199c:	6a63      	ldr	r3, [r4, #36]	; 0x24
 800199e:	b143      	cbz	r3, 80019b2 <xQueueGenericSendFromISR+0xbe>
 80019a0:	f104 0024 	add.w	r0, r4, #36	; 0x24
 80019a4:	f000 fc32 	bl	800220c <xTaskRemoveFromEventList>
 80019a8:	e7f0      	b.n	800198c <xQueueGenericSendFromISR+0x98>
 80019aa:	3501      	adds	r5, #1
 80019ac:	b2ed      	uxtb	r5, r5
 80019ae:	f884 5045 	strb.w	r5, [r4, #69]	; 0x45
 80019b2:	2001      	movs	r0, #1
 80019b4:	e000      	b.n	80019b8 <xQueueGenericSendFromISR+0xc4>
 80019b6:	2000      	movs	r0, #0
 80019b8:	f386 8811 	msr	BASEPRI, r6
 80019bc:	e8bd 83f8 	ldmia.w	sp!, {r3, r4, r5, r6, r7, r8, r9, pc}

080019c0 <xQueueReceive>:
 80019c0:	b5f0      	push	{r4, r5, r6, r7, lr}
 80019c2:	b085      	sub	sp, #20
 80019c4:	460f      	mov	r7, r1
 80019c6:	9201      	str	r2, [sp, #4]
 80019c8:	4604      	mov	r4, r0
 80019ca:	b940      	cbnz	r0, 80019de <xQueueReceive+0x1e>
 80019cc:	f04f 03fc 	mov.w	r3, #252	; 0xfc
 80019d0:	f383 8811 	msr	BASEPRI, r3
 80019d4:	f3bf 8f6f 	isb	sy
 80019d8:	f3bf 8f4f 	dsb	sy
 80019dc:	e7fe      	b.n	80019dc <xQueueReceive+0x1c>
 80019de:	b951      	cbnz	r1, 80019f6 <xQueueReceive+0x36>
 80019e0:	6c03      	ldr	r3, [r0, #64]	; 0x40
 80019e2:	b143      	cbz	r3, 80019f6 <xQueueReceive+0x36>
 80019e4:	f04f 03fc 	mov.w	r3, #252	; 0xfc
 80019e8:	f383 8811 	msr	BASEPRI, r3
 80019ec:	f3bf 8f6f 	isb	sy
 80019f0:	f3bf 8f4f 	dsb	sy
 80019f4:	e7fe      	b.n	80019f4 <xQueueReceive+0x34>
 80019f6:	f000 fca3 	bl	8002340 <xTaskGetSchedulerState>
 80019fa:	b910      	cbnz	r0, 8001a02 <xQueueReceive+0x42>
 80019fc:	9e01      	ldr	r6, [sp, #4]
 80019fe:	b10e      	cbz	r6, 8001a04 <xQueueReceive+0x44>
 8001a00:	e06d      	b.n	8001ade <xQueueReceive+0x11e>
 8001a02:	2600      	movs	r6, #0
 8001a04:	f7ff fbdc 	bl	80011c0 <vPortEnterCritical>
 8001a08:	6ba5      	ldr	r5, [r4, #56]	; 0x38
 8001a0a:	b1c5      	cbz	r5, 8001a3e <xQueueReceive+0x7e>
 8001a0c:	4620      	mov	r0, r4
 8001a0e:	4639      	mov	r1, r7
 8001a10:	3d01      	subs	r5, #1
 8001a12:	f7ff fdc4 	bl	800159e <prvCopyDataFromQueue>
 8001a16:	63a5      	str	r5, [r4, #56]	; 0x38
 8001a18:	6923      	ldr	r3, [r4, #16]
 8001a1a:	b163      	cbz	r3, 8001a36 <xQueueReceive+0x76>
 8001a1c:	f104 0010 	add.w	r0, r4, #16
 8001a20:	f000 fbf4 	bl	800220c <xTaskRemoveFromEventList>
 8001a24:	b138      	cbz	r0, 8001a36 <xQueueReceive+0x76>
 8001a26:	4b33      	ldr	r3, [pc, #204]	; (8001af4 <xQueueReceive+0x134>)
 8001a28:	f04f 5280 	mov.w	r2, #268435456	; 0x10000000
 8001a2c:	601a      	str	r2, [r3, #0]
 8001a2e:	f3bf 8f4f 	dsb	sy
 8001a32:	f3bf 8f6f 	isb	sy
 8001a36:	f7ff fbe5 	bl	8001204 <vPortExitCritical>
 8001a3a:	2001      	movs	r0, #1
 8001a3c:	e058      	b.n	8001af0 <xQueueReceive+0x130>
 8001a3e:	9d01      	ldr	r5, [sp, #4]
 8001a40:	b915      	cbnz	r5, 8001a48 <xQueueReceive+0x88>
 8001a42:	f7ff fbdf 	bl	8001204 <vPortExitCritical>
 8001a46:	e048      	b.n	8001ada <xQueueReceive+0x11a>
 8001a48:	b916      	cbnz	r6, 8001a50 <xQueueReceive+0x90>
 8001a4a:	a802      	add	r0, sp, #8
 8001a4c:	f000 fc1e 	bl	800228c <vTaskInternalSetTimeOutState>
 8001a50:	f7ff fbd8 	bl	8001204 <vPortExitCritical>
 8001a54:	f000 fa34 	bl	8001ec0 <vTaskSuspendAll>
 8001a58:	f7ff fbb2 	bl	80011c0 <vPortEnterCritical>
 8001a5c:	f894 3044 	ldrb.w	r3, [r4, #68]	; 0x44
 8001a60:	2bff      	cmp	r3, #255	; 0xff
 8001a62:	bf04      	itt	eq
 8001a64:	2300      	moveq	r3, #0
 8001a66:	f884 3044 	strbeq.w	r3, [r4, #68]	; 0x44
 8001a6a:	f894 3045 	ldrb.w	r3, [r4, #69]	; 0x45
 8001a6e:	2bff      	cmp	r3, #255	; 0xff
 8001a70:	bf04      	itt	eq
 8001a72:	2300      	moveq	r3, #0
 8001a74:	f884 3045 	strbeq.w	r3, [r4, #69]	; 0x45
 8001a78:	f7ff fbc4 	bl	8001204 <vPortExitCritical>
 8001a7c:	a802      	add	r0, sp, #8
 8001a7e:	a901      	add	r1, sp, #4
 8001a80:	f000 fc10 	bl	80022a4 <xTaskCheckForTimeOut>
 8001a84:	b9f8      	cbnz	r0, 8001ac6 <xQueueReceive+0x106>
 8001a86:	4620      	mov	r0, r4
 8001a88:	f7ff fd46 	bl	8001518 <prvIsQueueEmpty>
 8001a8c:	b1a8      	cbz	r0, 8001aba <xQueueReceive+0xfa>
 8001a8e:	f104 0024 	add.w	r0, r4, #36	; 0x24
 8001a92:	9901      	ldr	r1, [sp, #4]
 8001a94:	f000 fb80 	bl	8002198 <vTaskPlaceOnEventList>
 8001a98:	4620      	mov	r0, r4
 8001a9a:	f7ff fdce 	bl	800163a <prvUnlockQueue>
 8001a9e:	f000 faa7 	bl	8001ff0 <xTaskResumeAll>
 8001aa2:	b108      	cbz	r0, 8001aa8 <xQueueReceive+0xe8>
 8001aa4:	2601      	movs	r6, #1
 8001aa6:	e7ad      	b.n	8001a04 <xQueueReceive+0x44>
 8001aa8:	4b12      	ldr	r3, [pc, #72]	; (8001af4 <xQueueReceive+0x134>)
 8001aaa:	f04f 5280 	mov.w	r2, #268435456	; 0x10000000
 8001aae:	601a      	str	r2, [r3, #0]
 8001ab0:	f3bf 8f4f 	dsb	sy
 8001ab4:	f3bf 8f6f 	isb	sy
 8001ab8:	e7f4      	b.n	8001aa4 <xQueueReceive+0xe4>
 8001aba:	4620      	mov	r0, r4
 8001abc:	f7ff fdbd 	bl	800163a <prvUnlockQueue>
 8001ac0:	f000 fa96 	bl	8001ff0 <xTaskResumeAll>
 8001ac4:	e7ee      	b.n	8001aa4 <xQueueReceive+0xe4>
 8001ac6:	4620      	mov	r0, r4
 8001ac8:	f7ff fdb7 	bl	800163a <prvUnlockQueue>
 8001acc:	f000 fa90 	bl	8001ff0 <xTaskResumeAll>
 8001ad0:	4620      	mov	r0, r4
 8001ad2:	f7ff fd21 	bl	8001518 <prvIsQueueEmpty>
 8001ad6:	2800      	cmp	r0, #0
 8001ad8:	d0e4      	beq.n	8001aa4 <xQueueReceive+0xe4>
 8001ada:	2000      	movs	r0, #0
 8001adc:	e008      	b.n	8001af0 <xQueueReceive+0x130>
 8001ade:	f04f 03fc 	mov.w	r3, #252	; 0xfc
 8001ae2:	f383 8811 	msr	BASEPRI, r3
 8001ae6:	f3bf 8f6f 	isb	sy
 8001aea:	f3bf 8f4f 	dsb	sy
 8001aee:	e7fe      	b.n	8001aee <xQueueReceive+0x12e>
 8001af0:	b005      	add	sp, #20
 8001af2:	bdf0      	pop	{r4, r5, r6, r7, pc}
 8001af4:	e000ed04 	.word	0xe000ed04

08001af8 <vQueueAddToRegistry>:
 8001af8:	b530      	push	{r4, r5, lr}
 8001afa:	2300      	movs	r3, #0
 8001afc:	4a06      	ldr	r2, [pc, #24]	; (8001b18 <vQueueAddToRegistry+0x20>)
 8001afe:	f852 5033 	ldr.w	r5, [r2, r3, lsl #3]
 8001b02:	eb02 04c3 	add.w	r4, r2, r3, lsl #3
 8001b06:	b91d      	cbnz	r5, 8001b10 <vQueueAddToRegistry+0x18>
 8001b08:	f842 1033 	str.w	r1, [r2, r3, lsl #3]
 8001b0c:	6060      	str	r0, [r4, #4]
 8001b0e:	bd30      	pop	{r4, r5, pc}
 8001b10:	3301      	adds	r3, #1
 8001b12:	2b08      	cmp	r3, #8
 8001b14:	d1f2      	bne.n	8001afc <vQueueAddToRegistry+0x4>
 8001b16:	bd30      	pop	{r4, r5, pc}
 8001b18:	20000598 	.word	0x20000598

08001b1c <vQueueWaitForMessageRestricted>:
 8001b1c:	b570      	push	{r4, r5, r6, lr}
 8001b1e:	4604      	mov	r4, r0
 8001b20:	460e      	mov	r6, r1
 8001b22:	4615      	mov	r5, r2
 8001b24:	f7ff fb4c 	bl	80011c0 <vPortEnterCritical>
 8001b28:	f894 3044 	ldrb.w	r3, [r4, #68]	; 0x44
 8001b2c:	2bff      	cmp	r3, #255	; 0xff
 8001b2e:	bf04      	itt	eq
 8001b30:	2300      	moveq	r3, #0
 8001b32:	f884 3044 	strbeq.w	r3, [r4, #68]	; 0x44
 8001b36:	f894 3045 	ldrb.w	r3, [r4, #69]	; 0x45
 8001b3a:	2bff      	cmp	r3, #255	; 0xff
 8001b3c:	bf04      	itt	eq
 8001b3e:	2300      	moveq	r3, #0
 8001b40:	f884 3045 	strbeq.w	r3, [r4, #69]	; 0x45
 8001b44:	f7ff fb5e 	bl	8001204 <vPortExitCritical>
 8001b48:	6ba3      	ldr	r3, [r4, #56]	; 0x38
 8001b4a:	b92b      	cbnz	r3, 8001b58 <vQueueWaitForMessageRestricted+0x3c>
 8001b4c:	f104 0024 	add.w	r0, r4, #36	; 0x24
 8001b50:	4631      	mov	r1, r6
 8001b52:	462a      	mov	r2, r5
 8001b54:	f000 fb3a 	bl	80021cc <vTaskPlaceOnEventListRestricted>
 8001b58:	4620      	mov	r0, r4
 8001b5a:	e8bd 4070 	ldmia.w	sp!, {r4, r5, r6, lr}
 8001b5e:	f7ff bd6c 	b.w	800163a <prvUnlockQueue>
	...

08001b64 <prvAddCurrentTaskToDelayedList>:
 8001b64:	b5f8      	push	{r3, r4, r5, r6, r7, lr}
 8001b66:	4b1d      	ldr	r3, [pc, #116]	; (8001bdc <prvAddCurrentTaskToDelayedList+0x78>)
 8001b68:	4d1d      	ldr	r5, [pc, #116]	; (8001be0 <prvAddCurrentTaskToDelayedList+0x7c>)
 8001b6a:	681e      	ldr	r6, [r3, #0]
 8001b6c:	682b      	ldr	r3, [r5, #0]
 8001b6e:	4604      	mov	r4, r0
 8001b70:	6828      	ldr	r0, [r5, #0]
 8001b72:	2200      	movs	r2, #0
 8001b74:	f883 206d 	strb.w	r2, [r3, #109]	; 0x6d
 8001b78:	3004      	adds	r0, #4
 8001b7a:	460f      	mov	r7, r1
 8001b7c:	f7ff fcbb 	bl	80014f6 <uxListRemove>
 8001b80:	b940      	cbnz	r0, 8001b94 <prvAddCurrentTaskToDelayedList+0x30>
 8001b82:	682b      	ldr	r3, [r5, #0]
 8001b84:	4817      	ldr	r0, [pc, #92]	; (8001be4 <prvAddCurrentTaskToDelayedList+0x80>)
 8001b86:	6ad9      	ldr	r1, [r3, #44]	; 0x2c
 8001b88:	6802      	ldr	r2, [r0, #0]
 8001b8a:	2301      	movs	r3, #1
 8001b8c:	408b      	lsls	r3, r1
 8001b8e:	ea22 0303 	bic.w	r3, r2, r3
 8001b92:	6003      	str	r3, [r0, #0]
 8001b94:	1c63      	adds	r3, r4, #1
 8001b96:	d107      	bne.n	8001ba8 <prvAddCurrentTaskToDelayedList+0x44>
 8001b98:	b137      	cbz	r7, 8001ba8 <prvAddCurrentTaskToDelayedList+0x44>
 8001b9a:	6829      	ldr	r1, [r5, #0]
 8001b9c:	4812      	ldr	r0, [pc, #72]	; (8001be8 <prvAddCurrentTaskToDelayedList+0x84>)
 8001b9e:	3104      	adds	r1, #4
 8001ba0:	e8bd 40f8 	ldmia.w	sp!, {r3, r4, r5, r6, r7, lr}
 8001ba4:	f7ff bc83 	b.w	80014ae <vListInsertEnd>
 8001ba8:	4434      	add	r4, r6
 8001baa:	682a      	ldr	r2, [r5, #0]
 8001bac:	4b0c      	ldr	r3, [pc, #48]	; (8001be0 <prvAddCurrentTaskToDelayedList+0x7c>)
 8001bae:	6054      	str	r4, [r2, #4]
 8001bb0:	42b4      	cmp	r4, r6
 8001bb2:	d207      	bcs.n	8001bc4 <prvAddCurrentTaskToDelayedList+0x60>
 8001bb4:	4a0d      	ldr	r2, [pc, #52]	; (8001bec <prvAddCurrentTaskToDelayedList+0x88>)
 8001bb6:	6810      	ldr	r0, [r2, #0]
 8001bb8:	6819      	ldr	r1, [r3, #0]
 8001bba:	e8bd 40f8 	ldmia.w	sp!, {r3, r4, r5, r6, r7, lr}
 8001bbe:	3104      	adds	r1, #4
 8001bc0:	f7ff bc81 	b.w	80014c6 <vListInsert>
 8001bc4:	4a0a      	ldr	r2, [pc, #40]	; (8001bf0 <prvAddCurrentTaskToDelayedList+0x8c>)
 8001bc6:	6810      	ldr	r0, [r2, #0]
 8001bc8:	6819      	ldr	r1, [r3, #0]
 8001bca:	3104      	adds	r1, #4
 8001bcc:	f7ff fc7b 	bl	80014c6 <vListInsert>
 8001bd0:	4b08      	ldr	r3, [pc, #32]	; (8001bf4 <prvAddCurrentTaskToDelayedList+0x90>)
 8001bd2:	681a      	ldr	r2, [r3, #0]
 8001bd4:	4294      	cmp	r4, r2
 8001bd6:	bf38      	it	cc
 8001bd8:	601c      	strcc	r4, [r3, #0]
 8001bda:	bdf8      	pop	{r3, r4, r5, r6, r7, pc}
 8001bdc:	200004a8 	.word	0x200004a8
 8001be0:	2000048c 	.word	0x2000048c
 8001be4:	200004e8 	.word	0x200004e8
 8001be8:	200004d4 	.word	0x200004d4
 8001bec:	200004ac 	.word	0x200004ac
 8001bf0:	200003f0 	.word	0x200003f0
 8001bf4:	20000490 	.word	0x20000490

08001bf8 <prvResetNextTaskUnblockTime>:
 8001bf8:	4a06      	ldr	r2, [pc, #24]	; (8001c14 <prvResetNextTaskUnblockTime+0x1c>)
 8001bfa:	6813      	ldr	r3, [r2, #0]
 8001bfc:	6819      	ldr	r1, [r3, #0]
 8001bfe:	4b06      	ldr	r3, [pc, #24]	; (8001c18 <prvResetNextTaskUnblockTime+0x20>)
 8001c00:	b911      	cbnz	r1, 8001c08 <prvResetNextTaskUnblockTime+0x10>
 8001c02:	f04f 32ff 	mov.w	r2, #4294967295
 8001c06:	e003      	b.n	8001c10 <prvResetNextTaskUnblockTime+0x18>
 8001c08:	6812      	ldr	r2, [r2, #0]
 8001c0a:	68d2      	ldr	r2, [r2, #12]
 8001c0c:	68d2      	ldr	r2, [r2, #12]
 8001c0e:	6852      	ldr	r2, [r2, #4]
 8001c10:	601a      	str	r2, [r3, #0]
 8001c12:	4770      	bx	lr
 8001c14:	200003f0 	.word	0x200003f0
 8001c18:	20000490 	.word	0x20000490

08001c1c <prvIdleTask>:
 8001c1c:	b508      	push	{r3, lr}
 8001c1e:	4c14      	ldr	r4, [pc, #80]	; (8001c70 <prvIdleTask+0x54>)
 8001c20:	6823      	ldr	r3, [r4, #0]
 8001c22:	b1bb      	cbz	r3, 8001c54 <prvIdleTask+0x38>
 8001c24:	f7ff facc 	bl	80011c0 <vPortEnterCritical>
 8001c28:	4b12      	ldr	r3, [pc, #72]	; (8001c74 <prvIdleTask+0x58>)
 8001c2a:	68db      	ldr	r3, [r3, #12]
 8001c2c:	68dd      	ldr	r5, [r3, #12]
 8001c2e:	1d28      	adds	r0, r5, #4
 8001c30:	f7ff fc61 	bl	80014f6 <uxListRemove>
 8001c34:	4a10      	ldr	r2, [pc, #64]	; (8001c78 <prvIdleTask+0x5c>)
 8001c36:	6813      	ldr	r3, [r2, #0]
 8001c38:	3b01      	subs	r3, #1
 8001c3a:	6013      	str	r3, [r2, #0]
 8001c3c:	6823      	ldr	r3, [r4, #0]
 8001c3e:	3b01      	subs	r3, #1
 8001c40:	6023      	str	r3, [r4, #0]
 8001c42:	f7ff fadf 	bl	8001204 <vPortExitCritical>
 8001c46:	6b28      	ldr	r0, [r5, #48]	; 0x30
 8001c48:	f7ff fc16 	bl	8001478 <vPortFree>
 8001c4c:	4628      	mov	r0, r5
 8001c4e:	f7ff fc13 	bl	8001478 <vPortFree>
 8001c52:	e7e4      	b.n	8001c1e <prvIdleTask+0x2>
 8001c54:	4b09      	ldr	r3, [pc, #36]	; (8001c7c <prvIdleTask+0x60>)
 8001c56:	681b      	ldr	r3, [r3, #0]
 8001c58:	2b01      	cmp	r3, #1
 8001c5a:	d9e0      	bls.n	8001c1e <prvIdleTask+0x2>
 8001c5c:	4b08      	ldr	r3, [pc, #32]	; (8001c80 <prvIdleTask+0x64>)
 8001c5e:	f04f 5280 	mov.w	r2, #268435456	; 0x10000000
 8001c62:	601a      	str	r2, [r3, #0]
 8001c64:	f3bf 8f4f 	dsb	sy
 8001c68:	f3bf 8f6f 	isb	sy
 8001c6c:	e7d7      	b.n	8001c1e <prvIdleTask+0x2>
 8001c6e:	bf00      	nop
 8001c70:	200004cc 	.word	0x200004cc
 8001c74:	200003f8 	.word	0x200003f8
 8001c78:	200004c8 	.word	0x200004c8
 8001c7c:	20000424 	.word	0x20000424
 8001c80:	e000ed04 	.word	0xe000ed04

08001c84 <xTaskCreate>:
 8001c84:	e92d 4ff8 	stmdb	sp!, {r3, r4, r5, r6, r7, r8, r9, sl, fp, lr}
 8001c88:	0095      	lsls	r5, r2, #2
 8001c8a:	4682      	mov	sl, r0
 8001c8c:	4628      	mov	r0, r5
 8001c8e:	460e      	mov	r6, r1
 8001c90:	4699      	mov	r9, r3
 8001c92:	f8dd 802c 	ldr.w	r8, [sp, #44]	; 0x2c
 8001c96:	f7ff fbe3 	bl	8001460 <pvPortMalloc>
 8001c9a:	4607      	mov	r7, r0
 8001c9c:	2800      	cmp	r0, #0
 8001c9e:	f000 80af 	beq.w	8001e00 <xTaskCreate+0x17c>
 8001ca2:	2070      	movs	r0, #112	; 0x70
 8001ca4:	f7ff fbdc 	bl	8001460 <pvPortMalloc>
 8001ca8:	4604      	mov	r4, r0
 8001caa:	b180      	cbz	r0, 8001cce <xTaskCreate+0x4a>
 8001cac:	462a      	mov	r2, r5
 8001cae:	6307      	str	r7, [r0, #48]	; 0x30
 8001cb0:	21a5      	movs	r1, #165	; 0xa5
 8001cb2:	4638      	mov	r0, r7
 8001cb4:	f002 f8a9 	bl	8003e0a <memset>
 8001cb8:	f1a5 0b04 	sub.w	fp, r5, #4
 8001cbc:	6b25      	ldr	r5, [r4, #48]	; 0x30
 8001cbe:	44ab      	add	fp, r5
 8001cc0:	1e73      	subs	r3, r6, #1
 8001cc2:	f02b 0b07 	bic.w	fp, fp, #7
 8001cc6:	f104 0233 	add.w	r2, r4, #51	; 0x33
 8001cca:	360f      	adds	r6, #15
 8001ccc:	e005      	b.n	8001cda <xTaskCreate+0x56>
 8001cce:	4638      	mov	r0, r7
 8001cd0:	f7ff fbd2 	bl	8001478 <vPortFree>
 8001cd4:	e094      	b.n	8001e00 <xTaskCreate+0x17c>
 8001cd6:	42b3      	cmp	r3, r6
 8001cd8:	d006      	beq.n	8001ce8 <xTaskCreate+0x64>
 8001cda:	f813 1f01 	ldrb.w	r1, [r3, #1]!
 8001cde:	f802 1f01 	strb.w	r1, [r2, #1]!
 8001ce2:	7819      	ldrb	r1, [r3, #0]
 8001ce4:	2900      	cmp	r1, #0
 8001ce6:	d1f6      	bne.n	8001cd6 <xTaskCreate+0x52>
 8001ce8:	9e0a      	ldr	r6, [sp, #40]	; 0x28
 8001cea:	2e04      	cmp	r6, #4
 8001cec:	f04f 0500 	mov.w	r5, #0
 8001cf0:	bf28      	it	cs
 8001cf2:	2604      	movcs	r6, #4
 8001cf4:	1d27      	adds	r7, r4, #4
 8001cf6:	62e6      	str	r6, [r4, #44]	; 0x2c
 8001cf8:	64e6      	str	r6, [r4, #76]	; 0x4c
 8001cfa:	4638      	mov	r0, r7
 8001cfc:	f884 5043 	strb.w	r5, [r4, #67]	; 0x43
 8001d00:	6525      	str	r5, [r4, #80]	; 0x50
 8001d02:	f7ff fbd1 	bl	80014a8 <vListInitialiseItem>
 8001d06:	f1c6 0605 	rsb	r6, r6, #5
 8001d0a:	f104 0018 	add.w	r0, r4, #24
 8001d0e:	f7ff fbcb 	bl	80014a8 <vListInitialiseItem>
 8001d12:	66a5      	str	r5, [r4, #104]	; 0x68
 8001d14:	6124      	str	r4, [r4, #16]
 8001d16:	61a6      	str	r6, [r4, #24]
 8001d18:	6264      	str	r4, [r4, #36]	; 0x24
 8001d1a:	6565      	str	r5, [r4, #84]	; 0x54
 8001d1c:	65a5      	str	r5, [r4, #88]	; 0x58
 8001d1e:	65e5      	str	r5, [r4, #92]	; 0x5c
 8001d20:	6625      	str	r5, [r4, #96]	; 0x60
 8001d22:	6665      	str	r5, [r4, #100]	; 0x64
 8001d24:	f884 506c 	strb.w	r5, [r4, #108]	; 0x6c
 8001d28:	f884 506d 	strb.w	r5, [r4, #109]	; 0x6d
 8001d2c:	4658      	mov	r0, fp
 8001d2e:	4651      	mov	r1, sl
 8001d30:	464a      	mov	r2, r9
 8001d32:	f7ff fa17 	bl	8001164 <pxPortInitialiseStack>
 8001d36:	6020      	str	r0, [r4, #0]
 8001d38:	f1b8 0f00 	cmp.w	r8, #0
 8001d3c:	d001      	beq.n	8001d42 <xTaskCreate+0xbe>
 8001d3e:	f8c8 4000 	str.w	r4, [r8]
 8001d42:	f7ff fa3d 	bl	80011c0 <vPortEnterCritical>
 8001d46:	4b30      	ldr	r3, [pc, #192]	; (8001e08 <xTaskCreate+0x184>)
 8001d48:	4e30      	ldr	r6, [pc, #192]	; (8001e0c <xTaskCreate+0x188>)
 8001d4a:	681a      	ldr	r2, [r3, #0]
 8001d4c:	f8df 80e8 	ldr.w	r8, [pc, #232]	; 8001e38 <xTaskCreate+0x1b4>
 8001d50:	3201      	adds	r2, #1
 8001d52:	601a      	str	r2, [r3, #0]
 8001d54:	6835      	ldr	r5, [r6, #0]
 8001d56:	bb15      	cbnz	r5, 8001d9e <xTaskCreate+0x11a>
 8001d58:	6034      	str	r4, [r6, #0]
 8001d5a:	681b      	ldr	r3, [r3, #0]
 8001d5c:	2b01      	cmp	r3, #1
 8001d5e:	d127      	bne.n	8001db0 <xTaskCreate+0x12c>
 8001d60:	eb08 0005 	add.w	r0, r8, r5
 8001d64:	3514      	adds	r5, #20
 8001d66:	f7ff fb94 	bl	8001492 <vListInitialise>
 8001d6a:	2d64      	cmp	r5, #100	; 0x64
 8001d6c:	d1f8      	bne.n	8001d60 <xTaskCreate+0xdc>
 8001d6e:	f8df 90cc 	ldr.w	r9, [pc, #204]	; 8001e3c <xTaskCreate+0x1b8>
 8001d72:	4d27      	ldr	r5, [pc, #156]	; (8001e10 <xTaskCreate+0x18c>)
 8001d74:	4648      	mov	r0, r9
 8001d76:	f7ff fb8c 	bl	8001492 <vListInitialise>
 8001d7a:	4628      	mov	r0, r5
 8001d7c:	f7ff fb89 	bl	8001492 <vListInitialise>
 8001d80:	4824      	ldr	r0, [pc, #144]	; (8001e14 <xTaskCreate+0x190>)
 8001d82:	f7ff fb86 	bl	8001492 <vListInitialise>
 8001d86:	4824      	ldr	r0, [pc, #144]	; (8001e18 <xTaskCreate+0x194>)
 8001d88:	f7ff fb83 	bl	8001492 <vListInitialise>
 8001d8c:	4823      	ldr	r0, [pc, #140]	; (8001e1c <xTaskCreate+0x198>)
 8001d8e:	f7ff fb80 	bl	8001492 <vListInitialise>
 8001d92:	4b23      	ldr	r3, [pc, #140]	; (8001e20 <xTaskCreate+0x19c>)
 8001d94:	f8c3 9000 	str.w	r9, [r3]
 8001d98:	4b22      	ldr	r3, [pc, #136]	; (8001e24 <xTaskCreate+0x1a0>)
 8001d9a:	601d      	str	r5, [r3, #0]
 8001d9c:	e008      	b.n	8001db0 <xTaskCreate+0x12c>
 8001d9e:	4b22      	ldr	r3, [pc, #136]	; (8001e28 <xTaskCreate+0x1a4>)
 8001da0:	681b      	ldr	r3, [r3, #0]
 8001da2:	b92b      	cbnz	r3, 8001db0 <xTaskCreate+0x12c>
 8001da4:	6833      	ldr	r3, [r6, #0]
 8001da6:	6ada      	ldr	r2, [r3, #44]	; 0x2c
 8001da8:	6ae3      	ldr	r3, [r4, #44]	; 0x2c
 8001daa:	429a      	cmp	r2, r3
 8001dac:	bf98      	it	ls
 8001dae:	6034      	strls	r4, [r6, #0]
 8001db0:	4a1e      	ldr	r2, [pc, #120]	; (8001e2c <xTaskCreate+0x1a8>)
 8001db2:	491f      	ldr	r1, [pc, #124]	; (8001e30 <xTaskCreate+0x1ac>)
 8001db4:	6813      	ldr	r3, [r2, #0]
 8001db6:	3301      	adds	r3, #1
 8001db8:	6013      	str	r3, [r2, #0]
 8001dba:	6ae2      	ldr	r2, [r4, #44]	; 0x2c
 8001dbc:	6463      	str	r3, [r4, #68]	; 0x44
 8001dbe:	2501      	movs	r5, #1
 8001dc0:	680b      	ldr	r3, [r1, #0]
 8001dc2:	fa05 f002 	lsl.w	r0, r5, r2
 8001dc6:	4303      	orrs	r3, r0
 8001dc8:	2014      	movs	r0, #20
 8001dca:	600b      	str	r3, [r1, #0]
 8001dcc:	fb00 8002 	mla	r0, r0, r2, r8
 8001dd0:	4639      	mov	r1, r7
 8001dd2:	f7ff fb6c 	bl	80014ae <vListInsertEnd>
 8001dd6:	f7ff fa15 	bl	8001204 <vPortExitCritical>
 8001dda:	4b13      	ldr	r3, [pc, #76]	; (8001e28 <xTaskCreate+0x1a4>)
 8001ddc:	681b      	ldr	r3, [r3, #0]
 8001dde:	b163      	cbz	r3, 8001dfa <xTaskCreate+0x176>
 8001de0:	6833      	ldr	r3, [r6, #0]
 8001de2:	6ada      	ldr	r2, [r3, #44]	; 0x2c
 8001de4:	6ae3      	ldr	r3, [r4, #44]	; 0x2c
 8001de6:	429a      	cmp	r2, r3
 8001de8:	d207      	bcs.n	8001dfa <xTaskCreate+0x176>
 8001dea:	4b12      	ldr	r3, [pc, #72]	; (8001e34 <xTaskCreate+0x1b0>)
 8001dec:	f04f 5280 	mov.w	r2, #268435456	; 0x10000000
 8001df0:	601a      	str	r2, [r3, #0]
 8001df2:	f3bf 8f4f 	dsb	sy
 8001df6:	f3bf 8f6f 	isb	sy
 8001dfa:	4628      	mov	r0, r5
 8001dfc:	e8bd 8ff8 	ldmia.w	sp!, {r3, r4, r5, r6, r7, r8, r9, sl, fp, pc}
 8001e00:	f04f 30ff 	mov.w	r0, #4294967295
 8001e04:	e8bd 8ff8 	ldmia.w	sp!, {r3, r4, r5, r6, r7, r8, r9, sl, fp, pc}
 8001e08:	200004c8 	.word	0x200004c8
 8001e0c:	2000048c 	.word	0x2000048c
 8001e10:	2000040c 	.word	0x2000040c
 8001e14:	200004b0 	.word	0x200004b0
 8001e18:	200003f8 	.word	0x200003f8
 8001e1c:	200004d4 	.word	0x200004d4
 8001e20:	200003f0 	.word	0x200003f0
 8001e24:	200004ac 	.word	0x200004ac
 8001e28:	200003f4 	.word	0x200003f4
 8001e2c:	200004c4 	.word	0x200004c4
 8001e30:	200004e8 	.word	0x200004e8
 8001e34:	e000ed04 	.word	0xe000ed04
 8001e38:	20000424 	.word	0x20000424
 8001e3c:	20000494 	.word	0x20000494

08001e40 <vTaskStartScheduler>:
 8001e40:	b513      	push	{r0, r1, r4, lr}
 8001e42:	4b19      	ldr	r3, [pc, #100]	; (8001ea8 <vTaskStartScheduler+0x68>)
 8001e44:	9301      	str	r3, [sp, #4]
 8001e46:	2400      	movs	r4, #0
 8001e48:	9400      	str	r4, [sp, #0]
 8001e4a:	4818      	ldr	r0, [pc, #96]	; (8001eac <vTaskStartScheduler+0x6c>)
 8001e4c:	4918      	ldr	r1, [pc, #96]	; (8001eb0 <vTaskStartScheduler+0x70>)
 8001e4e:	2282      	movs	r2, #130	; 0x82
 8001e50:	4623      	mov	r3, r4
 8001e52:	f7ff ff17 	bl	8001c84 <xTaskCreate>
 8001e56:	2801      	cmp	r0, #1
 8001e58:	d118      	bne.n	8001e8c <vTaskStartScheduler+0x4c>
 8001e5a:	f000 fb1b 	bl	8002494 <xTimerCreateTimerTask>
 8001e5e:	2801      	cmp	r0, #1
 8001e60:	d114      	bne.n	8001e8c <vTaskStartScheduler+0x4c>
 8001e62:	f04f 03fc 	mov.w	r3, #252	; 0xfc
 8001e66:	f383 8811 	msr	BASEPRI, r3
 8001e6a:	f3bf 8f6f 	isb	sy
 8001e6e:	f3bf 8f4f 	dsb	sy
 8001e72:	4b10      	ldr	r3, [pc, #64]	; (8001eb4 <vTaskStartScheduler+0x74>)
 8001e74:	f04f 32ff 	mov.w	r2, #4294967295
 8001e78:	601a      	str	r2, [r3, #0]
 8001e7a:	4b0f      	ldr	r3, [pc, #60]	; (8001eb8 <vTaskStartScheduler+0x78>)
 8001e7c:	6018      	str	r0, [r3, #0]
 8001e7e:	4b0f      	ldr	r3, [pc, #60]	; (8001ebc <vTaskStartScheduler+0x7c>)
 8001e80:	601c      	str	r4, [r3, #0]
 8001e82:	b002      	add	sp, #8
 8001e84:	e8bd 4010 	ldmia.w	sp!, {r4, lr}
 8001e88:	f7ff ba3a 	b.w	8001300 <xPortStartScheduler>
 8001e8c:	3001      	adds	r0, #1
 8001e8e:	d108      	bne.n	8001ea2 <vTaskStartScheduler+0x62>
 8001e90:	f04f 03fc 	mov.w	r3, #252	; 0xfc
 8001e94:	f383 8811 	msr	BASEPRI, r3
 8001e98:	f3bf 8f6f 	isb	sy
 8001e9c:	f3bf 8f4f 	dsb	sy
 8001ea0:	e7fe      	b.n	8001ea0 <vTaskStartScheduler+0x60>
 8001ea2:	b002      	add	sp, #8
 8001ea4:	bd10      	pop	{r4, pc}
 8001ea6:	bf00      	nop
 8001ea8:	200004d0 	.word	0x200004d0
 8001eac:	08001c1d 	.word	0x08001c1d
 8001eb0:	08003fe8 	.word	0x08003fe8
 8001eb4:	20000490 	.word	0x20000490
 8001eb8:	200003f4 	.word	0x200003f4
 8001ebc:	200004a8 	.word	0x200004a8

08001ec0 <vTaskSuspendAll>:
 8001ec0:	4a02      	ldr	r2, [pc, #8]	; (8001ecc <vTaskSuspendAll+0xc>)
 8001ec2:	6813      	ldr	r3, [r2, #0]
 8001ec4:	3301      	adds	r3, #1
 8001ec6:	6013      	str	r3, [r2, #0]
 8001ec8:	4770      	bx	lr
 8001eca:	bf00      	nop
 8001ecc:	20000488 	.word	0x20000488

08001ed0 <xTaskGetTickCount>:
 8001ed0:	4b01      	ldr	r3, [pc, #4]	; (8001ed8 <xTaskGetTickCount+0x8>)
 8001ed2:	6818      	ldr	r0, [r3, #0]
 8001ed4:	4770      	bx	lr
 8001ed6:	bf00      	nop
 8001ed8:	200004a8 	.word	0x200004a8

08001edc <xTaskIncrementTick>:
 8001edc:	4b39      	ldr	r3, [pc, #228]	; (8001fc4 <xTaskIncrementTick+0xe8>)
 8001ede:	681b      	ldr	r3, [r3, #0]
 8001ee0:	e92d 47f0 	stmdb	sp!, {r4, r5, r6, r7, r8, r9, sl, lr}
 8001ee4:	2b00      	cmp	r3, #0
 8001ee6:	d13f      	bne.n	8001f68 <xTaskIncrementTick+0x8c>
 8001ee8:	4b37      	ldr	r3, [pc, #220]	; (8001fc8 <xTaskIncrementTick+0xec>)
 8001eea:	681d      	ldr	r5, [r3, #0]
 8001eec:	3501      	adds	r5, #1
 8001eee:	601d      	str	r5, [r3, #0]
 8001ef0:	b9bd      	cbnz	r5, 8001f22 <xTaskIncrementTick+0x46>
 8001ef2:	4b36      	ldr	r3, [pc, #216]	; (8001fcc <xTaskIncrementTick+0xf0>)
 8001ef4:	681a      	ldr	r2, [r3, #0]
 8001ef6:	6812      	ldr	r2, [r2, #0]
 8001ef8:	b142      	cbz	r2, 8001f0c <xTaskIncrementTick+0x30>
 8001efa:	f04f 03fc 	mov.w	r3, #252	; 0xfc
 8001efe:	f383 8811 	msr	BASEPRI, r3
 8001f02:	f3bf 8f6f 	isb	sy
 8001f06:	f3bf 8f4f 	dsb	sy
 8001f0a:	e7fe      	b.n	8001f0a <xTaskIncrementTick+0x2e>
 8001f0c:	4a30      	ldr	r2, [pc, #192]	; (8001fd0 <xTaskIncrementTick+0xf4>)
 8001f0e:	6819      	ldr	r1, [r3, #0]
 8001f10:	6810      	ldr	r0, [r2, #0]
 8001f12:	6018      	str	r0, [r3, #0]
 8001f14:	6011      	str	r1, [r2, #0]
 8001f16:	4a2f      	ldr	r2, [pc, #188]	; (8001fd4 <xTaskIncrementTick+0xf8>)
 8001f18:	6813      	ldr	r3, [r2, #0]
 8001f1a:	3301      	adds	r3, #1
 8001f1c:	6013      	str	r3, [r2, #0]
 8001f1e:	f7ff fe6b 	bl	8001bf8 <prvResetNextTaskUnblockTime>
 8001f22:	4f2d      	ldr	r7, [pc, #180]	; (8001fd8 <xTaskIncrementTick+0xfc>)
 8001f24:	f8df 80c0 	ldr.w	r8, [pc, #192]	; 8001fe8 <xTaskIncrementTick+0x10c>
 8001f28:	683b      	ldr	r3, [r7, #0]
 8001f2a:	f8df 90c0 	ldr.w	r9, [pc, #192]	; 8001fec <xTaskIncrementTick+0x110>
 8001f2e:	429d      	cmp	r5, r3
 8001f30:	f04f 0400 	mov.w	r4, #0
 8001f34:	d30d      	bcc.n	8001f52 <xTaskIncrementTick+0x76>
 8001f36:	4b25      	ldr	r3, [pc, #148]	; (8001fcc <xTaskIncrementTick+0xf0>)
 8001f38:	681a      	ldr	r2, [r3, #0]
 8001f3a:	6812      	ldr	r2, [r2, #0]
 8001f3c:	b912      	cbnz	r2, 8001f44 <xTaskIncrementTick+0x68>
 8001f3e:	f04f 33ff 	mov.w	r3, #4294967295
 8001f42:	e005      	b.n	8001f50 <xTaskIncrementTick+0x74>
 8001f44:	681b      	ldr	r3, [r3, #0]
 8001f46:	68db      	ldr	r3, [r3, #12]
 8001f48:	68de      	ldr	r6, [r3, #12]
 8001f4a:	6873      	ldr	r3, [r6, #4]
 8001f4c:	429d      	cmp	r5, r3
 8001f4e:	d211      	bcs.n	8001f74 <xTaskIncrementTick+0x98>
 8001f50:	603b      	str	r3, [r7, #0]
 8001f52:	f8d9 3000 	ldr.w	r3, [r9]
 8001f56:	6ada      	ldr	r2, [r3, #44]	; 0x2c
 8001f58:	2314      	movs	r3, #20
 8001f5a:	4353      	muls	r3, r2
 8001f5c:	f858 3003 	ldr.w	r3, [r8, r3]
 8001f60:	2b02      	cmp	r3, #2
 8001f62:	bf28      	it	cs
 8001f64:	2401      	movcs	r4, #1
 8001f66:	e025      	b.n	8001fb4 <xTaskIncrementTick+0xd8>
 8001f68:	4a1c      	ldr	r2, [pc, #112]	; (8001fdc <xTaskIncrementTick+0x100>)
 8001f6a:	6813      	ldr	r3, [r2, #0]
 8001f6c:	3301      	adds	r3, #1
 8001f6e:	6013      	str	r3, [r2, #0]
 8001f70:	2400      	movs	r4, #0
 8001f72:	e01f      	b.n	8001fb4 <xTaskIncrementTick+0xd8>
 8001f74:	f106 0a04 	add.w	sl, r6, #4
 8001f78:	4650      	mov	r0, sl
 8001f7a:	f7ff fabc 	bl	80014f6 <uxListRemove>
 8001f7e:	6ab3      	ldr	r3, [r6, #40]	; 0x28
 8001f80:	b11b      	cbz	r3, 8001f8a <xTaskIncrementTick+0xae>
 8001f82:	f106 0018 	add.w	r0, r6, #24
 8001f86:	f7ff fab6 	bl	80014f6 <uxListRemove>
 8001f8a:	4815      	ldr	r0, [pc, #84]	; (8001fe0 <xTaskIncrementTick+0x104>)
 8001f8c:	6af1      	ldr	r1, [r6, #44]	; 0x2c
 8001f8e:	6802      	ldr	r2, [r0, #0]
 8001f90:	2301      	movs	r3, #1
 8001f92:	408b      	lsls	r3, r1
 8001f94:	4313      	orrs	r3, r2
 8001f96:	6003      	str	r3, [r0, #0]
 8001f98:	2014      	movs	r0, #20
 8001f9a:	fb00 8001 	mla	r0, r0, r1, r8
 8001f9e:	4651      	mov	r1, sl
 8001fa0:	f7ff fa85 	bl	80014ae <vListInsertEnd>
 8001fa4:	f8d9 3000 	ldr.w	r3, [r9]
 8001fa8:	6af2      	ldr	r2, [r6, #44]	; 0x2c
 8001faa:	6adb      	ldr	r3, [r3, #44]	; 0x2c
 8001fac:	429a      	cmp	r2, r3
 8001fae:	bf28      	it	cs
 8001fb0:	2401      	movcs	r4, #1
 8001fb2:	e7c0      	b.n	8001f36 <xTaskIncrementTick+0x5a>
 8001fb4:	4b0b      	ldr	r3, [pc, #44]	; (8001fe4 <xTaskIncrementTick+0x108>)
 8001fb6:	681b      	ldr	r3, [r3, #0]
 8001fb8:	2b00      	cmp	r3, #0
 8001fba:	bf18      	it	ne
 8001fbc:	2401      	movne	r4, #1
 8001fbe:	4620      	mov	r0, r4
 8001fc0:	e8bd 87f0 	ldmia.w	sp!, {r4, r5, r6, r7, r8, r9, sl, pc}
 8001fc4:	20000488 	.word	0x20000488
 8001fc8:	200004a8 	.word	0x200004a8
 8001fcc:	200003f0 	.word	0x200003f0
 8001fd0:	200004ac 	.word	0x200004ac
 8001fd4:	200003ec 	.word	0x200003ec
 8001fd8:	20000490 	.word	0x20000490
 8001fdc:	20000420 	.word	0x20000420
 8001fe0:	200004e8 	.word	0x200004e8
 8001fe4:	200004ec 	.word	0x200004ec
 8001fe8:	20000424 	.word	0x20000424
 8001fec:	2000048c 	.word	0x2000048c

08001ff0 <xTaskResumeAll>:
 8001ff0:	b570      	push	{r4, r5, r6, lr}
 8001ff2:	4c2f      	ldr	r4, [pc, #188]	; (80020b0 <xTaskResumeAll+0xc0>)
 8001ff4:	6823      	ldr	r3, [r4, #0]
 8001ff6:	b943      	cbnz	r3, 800200a <xTaskResumeAll+0x1a>
 8001ff8:	f04f 03fc 	mov.w	r3, #252	; 0xfc
 8001ffc:	f383 8811 	msr	BASEPRI, r3
 8002000:	f3bf 8f6f 	isb	sy
 8002004:	f3bf 8f4f 	dsb	sy
 8002008:	e7fe      	b.n	8002008 <xTaskResumeAll+0x18>
 800200a:	f7ff f8d9 	bl	80011c0 <vPortEnterCritical>
 800200e:	6823      	ldr	r3, [r4, #0]
 8002010:	3b01      	subs	r3, #1
 8002012:	6023      	str	r3, [r4, #0]
 8002014:	6824      	ldr	r4, [r4, #0]
 8002016:	b10c      	cbz	r4, 800201c <xTaskResumeAll+0x2c>
 8002018:	2400      	movs	r4, #0
 800201a:	e045      	b.n	80020a8 <xTaskResumeAll+0xb8>
 800201c:	4b25      	ldr	r3, [pc, #148]	; (80020b4 <xTaskResumeAll+0xc4>)
 800201e:	681b      	ldr	r3, [r3, #0]
 8002020:	2b00      	cmp	r3, #0
 8002022:	d0f9      	beq.n	8002018 <xTaskResumeAll+0x28>
 8002024:	4b24      	ldr	r3, [pc, #144]	; (80020b8 <xTaskResumeAll+0xc8>)
 8002026:	681a      	ldr	r2, [r3, #0]
 8002028:	b30a      	cbz	r2, 800206e <xTaskResumeAll+0x7e>
 800202a:	68db      	ldr	r3, [r3, #12]
 800202c:	68dc      	ldr	r4, [r3, #12]
 800202e:	1d26      	adds	r6, r4, #4
 8002030:	f104 0018 	add.w	r0, r4, #24
 8002034:	f7ff fa5f 	bl	80014f6 <uxListRemove>
 8002038:	4630      	mov	r0, r6
 800203a:	f7ff fa5c 	bl	80014f6 <uxListRemove>
 800203e:	491f      	ldr	r1, [pc, #124]	; (80020bc <xTaskResumeAll+0xcc>)
 8002040:	6ae2      	ldr	r2, [r4, #44]	; 0x2c
 8002042:	680b      	ldr	r3, [r1, #0]
 8002044:	2501      	movs	r5, #1
 8002046:	fa05 f002 	lsl.w	r0, r5, r2
 800204a:	4303      	orrs	r3, r0
 800204c:	600b      	str	r3, [r1, #0]
 800204e:	4b1c      	ldr	r3, [pc, #112]	; (80020c0 <xTaskResumeAll+0xd0>)
 8002050:	2014      	movs	r0, #20
 8002052:	fb00 3002 	mla	r0, r0, r2, r3
 8002056:	4631      	mov	r1, r6
 8002058:	f7ff fa29 	bl	80014ae <vListInsertEnd>
 800205c:	4b19      	ldr	r3, [pc, #100]	; (80020c4 <xTaskResumeAll+0xd4>)
 800205e:	6ae2      	ldr	r2, [r4, #44]	; 0x2c
 8002060:	681b      	ldr	r3, [r3, #0]
 8002062:	6adb      	ldr	r3, [r3, #44]	; 0x2c
 8002064:	429a      	cmp	r2, r3
 8002066:	bf24      	itt	cs
 8002068:	4b17      	ldrcs	r3, [pc, #92]	; (80020c8 <xTaskResumeAll+0xd8>)
 800206a:	601d      	strcs	r5, [r3, #0]
 800206c:	e7da      	b.n	8002024 <xTaskResumeAll+0x34>
 800206e:	b10c      	cbz	r4, 8002074 <xTaskResumeAll+0x84>
 8002070:	f7ff fdc2 	bl	8001bf8 <prvResetNextTaskUnblockTime>
 8002074:	4b15      	ldr	r3, [pc, #84]	; (80020cc <xTaskResumeAll+0xdc>)
 8002076:	681c      	ldr	r4, [r3, #0]
 8002078:	461d      	mov	r5, r3
 800207a:	b144      	cbz	r4, 800208e <xTaskResumeAll+0x9e>
 800207c:	f7ff ff2e 	bl	8001edc <xTaskIncrementTick>
 8002080:	b110      	cbz	r0, 8002088 <xTaskResumeAll+0x98>
 8002082:	4b11      	ldr	r3, [pc, #68]	; (80020c8 <xTaskResumeAll+0xd8>)
 8002084:	2201      	movs	r2, #1
 8002086:	601a      	str	r2, [r3, #0]
 8002088:	3c01      	subs	r4, #1
 800208a:	d1f7      	bne.n	800207c <xTaskResumeAll+0x8c>
 800208c:	602c      	str	r4, [r5, #0]
 800208e:	4b0e      	ldr	r3, [pc, #56]	; (80020c8 <xTaskResumeAll+0xd8>)
 8002090:	681b      	ldr	r3, [r3, #0]
 8002092:	2b00      	cmp	r3, #0
 8002094:	d0c0      	beq.n	8002018 <xTaskResumeAll+0x28>
 8002096:	4b0e      	ldr	r3, [pc, #56]	; (80020d0 <xTaskResumeAll+0xe0>)
 8002098:	f04f 5280 	mov.w	r2, #268435456	; 0x10000000
 800209c:	601a      	str	r2, [r3, #0]
 800209e:	f3bf 8f4f 	dsb	sy
 80020a2:	f3bf 8f6f 	isb	sy
 80020a6:	2401      	movs	r4, #1
 80020a8:	f7ff f8ac 	bl	8001204 <vPortExitCritical>
 80020ac:	4620      	mov	r0, r4
 80020ae:	bd70      	pop	{r4, r5, r6, pc}
 80020b0:	20000488 	.word	0x20000488
 80020b4:	200004c8 	.word	0x200004c8
 80020b8:	200004b0 	.word	0x200004b0
 80020bc:	200004e8 	.word	0x200004e8
 80020c0:	20000424 	.word	0x20000424
 80020c4:	2000048c 	.word	0x2000048c
 80020c8:	200004ec 	.word	0x200004ec
 80020cc:	20000420 	.word	0x20000420
 80020d0:	e000ed04 	.word	0xe000ed04

080020d4 <vTaskDelay>:
 80020d4:	b538      	push	{r3, r4, r5, lr}
 80020d6:	4605      	mov	r5, r0
 80020d8:	b940      	cbnz	r0, 80020ec <vTaskDelay+0x18>
 80020da:	4b10      	ldr	r3, [pc, #64]	; (800211c <vTaskDelay+0x48>)
 80020dc:	f04f 5280 	mov.w	r2, #268435456	; 0x10000000
 80020e0:	601a      	str	r2, [r3, #0]
 80020e2:	f3bf 8f4f 	dsb	sy
 80020e6:	f3bf 8f6f 	isb	sy
 80020ea:	bd38      	pop	{r3, r4, r5, pc}
 80020ec:	4b0c      	ldr	r3, [pc, #48]	; (8002120 <vTaskDelay+0x4c>)
 80020ee:	681c      	ldr	r4, [r3, #0]
 80020f0:	b144      	cbz	r4, 8002104 <vTaskDelay+0x30>
 80020f2:	f04f 03fc 	mov.w	r3, #252	; 0xfc
 80020f6:	f383 8811 	msr	BASEPRI, r3
 80020fa:	f3bf 8f6f 	isb	sy
 80020fe:	f3bf 8f4f 	dsb	sy
 8002102:	e7fe      	b.n	8002102 <vTaskDelay+0x2e>
 8002104:	f7ff fedc 	bl	8001ec0 <vTaskSuspendAll>
 8002108:	4628      	mov	r0, r5
 800210a:	4621      	mov	r1, r4
 800210c:	f7ff fd2a 	bl	8001b64 <prvAddCurrentTaskToDelayedList>
 8002110:	f7ff ff6e 	bl	8001ff0 <xTaskResumeAll>
 8002114:	2800      	cmp	r0, #0
 8002116:	d0e0      	beq.n	80020da <vTaskDelay+0x6>
 8002118:	bd38      	pop	{r3, r4, r5, pc}
 800211a:	bf00      	nop
 800211c:	e000ed04 	.word	0xe000ed04
 8002120:	20000488 	.word	0x20000488

08002124 <vTaskSwitchContext>:
 8002124:	4b17      	ldr	r3, [pc, #92]	; (8002184 <vTaskSwitchContext+0x60>)
 8002126:	681a      	ldr	r2, [r3, #0]
 8002128:	4b17      	ldr	r3, [pc, #92]	; (8002188 <vTaskSwitchContext+0x64>)
 800212a:	b510      	push	{r4, lr}
 800212c:	b10a      	cbz	r2, 8002132 <vTaskSwitchContext+0xe>
 800212e:	2201      	movs	r2, #1
 8002130:	e025      	b.n	800217e <vTaskSwitchContext+0x5a>
 8002132:	601a      	str	r2, [r3, #0]
 8002134:	4b15      	ldr	r3, [pc, #84]	; (800218c <vTaskSwitchContext+0x68>)
 8002136:	681b      	ldr	r3, [r3, #0]
 8002138:	fab3 f383 	clz	r3, r3
 800213c:	b2db      	uxtb	r3, r3
 800213e:	f1c3 031f 	rsb	r3, r3, #31
 8002142:	2214      	movs	r2, #20
 8002144:	4912      	ldr	r1, [pc, #72]	; (8002190 <vTaskSwitchContext+0x6c>)
 8002146:	435a      	muls	r2, r3
 8002148:	1888      	adds	r0, r1, r2
 800214a:	588c      	ldr	r4, [r1, r2]
 800214c:	b944      	cbnz	r4, 8002160 <vTaskSwitchContext+0x3c>
 800214e:	f04f 03fc 	mov.w	r3, #252	; 0xfc
 8002152:	f383 8811 	msr	BASEPRI, r3
 8002156:	f3bf 8f6f 	isb	sy
 800215a:	f3bf 8f4f 	dsb	sy
 800215e:	e7fe      	b.n	800215e <vTaskSwitchContext+0x3a>
 8002160:	6844      	ldr	r4, [r0, #4]
 8002162:	3208      	adds	r2, #8
 8002164:	6864      	ldr	r4, [r4, #4]
 8002166:	6044      	str	r4, [r0, #4]
 8002168:	440a      	add	r2, r1
 800216a:	4294      	cmp	r4, r2
 800216c:	bf04      	itt	eq
 800216e:	6862      	ldreq	r2, [r4, #4]
 8002170:	6042      	streq	r2, [r0, #4]
 8002172:	2214      	movs	r2, #20
 8002174:	fb02 1303 	mla	r3, r2, r3, r1
 8002178:	685b      	ldr	r3, [r3, #4]
 800217a:	68da      	ldr	r2, [r3, #12]
 800217c:	4b05      	ldr	r3, [pc, #20]	; (8002194 <vTaskSwitchContext+0x70>)
 800217e:	601a      	str	r2, [r3, #0]
 8002180:	bd10      	pop	{r4, pc}
 8002182:	bf00      	nop
 8002184:	20000488 	.word	0x20000488
 8002188:	200004ec 	.word	0x200004ec
 800218c:	200004e8 	.word	0x200004e8
 8002190:	20000424 	.word	0x20000424
 8002194:	2000048c 	.word	0x2000048c

08002198 <vTaskPlaceOnEventList>:
 8002198:	b510      	push	{r4, lr}
 800219a:	460c      	mov	r4, r1
 800219c:	b940      	cbnz	r0, 80021b0 <vTaskPlaceOnEventList+0x18>
 800219e:	f04f 03fc 	mov.w	r3, #252	; 0xfc
 80021a2:	f383 8811 	msr	BASEPRI, r3
 80021a6:	f3bf 8f6f 	isb	sy
 80021aa:	f3bf 8f4f 	dsb	sy
 80021ae:	e7fe      	b.n	80021ae <vTaskPlaceOnEventList+0x16>
 80021b0:	4b05      	ldr	r3, [pc, #20]	; (80021c8 <vTaskPlaceOnEventList+0x30>)
 80021b2:	6819      	ldr	r1, [r3, #0]
 80021b4:	3118      	adds	r1, #24
 80021b6:	f7ff f986 	bl	80014c6 <vListInsert>
 80021ba:	4620      	mov	r0, r4
 80021bc:	2101      	movs	r1, #1
 80021be:	e8bd 4010 	ldmia.w	sp!, {r4, lr}
 80021c2:	f7ff bccf 	b.w	8001b64 <prvAddCurrentTaskToDelayedList>
 80021c6:	bf00      	nop
 80021c8:	2000048c 	.word	0x2000048c

080021cc <vTaskPlaceOnEventListRestricted>:
 80021cc:	b538      	push	{r3, r4, r5, lr}
 80021ce:	460d      	mov	r5, r1
 80021d0:	4614      	mov	r4, r2
 80021d2:	b940      	cbnz	r0, 80021e6 <vTaskPlaceOnEventListRestricted+0x1a>
 80021d4:	f04f 03fc 	mov.w	r3, #252	; 0xfc
 80021d8:	f383 8811 	msr	BASEPRI, r3
 80021dc:	f3bf 8f6f 	isb	sy
 80021e0:	f3bf 8f4f 	dsb	sy
 80021e4:	e7fe      	b.n	80021e4 <vTaskPlaceOnEventListRestricted+0x18>
 80021e6:	4b08      	ldr	r3, [pc, #32]	; (8002208 <vTaskPlaceOnEventListRestricted+0x3c>)
 80021e8:	6819      	ldr	r1, [r3, #0]
 80021ea:	3118      	adds	r1, #24
 80021ec:	f7ff f95f 	bl	80014ae <vListInsertEnd>
 80021f0:	2c00      	cmp	r4, #0
 80021f2:	bf08      	it	eq
 80021f4:	4628      	moveq	r0, r5
 80021f6:	4621      	mov	r1, r4
 80021f8:	bf18      	it	ne
 80021fa:	f04f 30ff 	movne.w	r0, #4294967295
 80021fe:	e8bd 4038 	ldmia.w	sp!, {r3, r4, r5, lr}
 8002202:	f7ff bcaf 	b.w	8001b64 <prvAddCurrentTaskToDelayedList>
 8002206:	bf00      	nop
 8002208:	2000048c 	.word	0x2000048c

0800220c <xTaskRemoveFromEventList>:
 800220c:	b538      	push	{r3, r4, r5, lr}
 800220e:	68c3      	ldr	r3, [r0, #12]
 8002210:	68dc      	ldr	r4, [r3, #12]
 8002212:	b944      	cbnz	r4, 8002226 <xTaskRemoveFromEventList+0x1a>
 8002214:	f04f 03fc 	mov.w	r3, #252	; 0xfc
 8002218:	f383 8811 	msr	BASEPRI, r3
 800221c:	f3bf 8f6f 	isb	sy
 8002220:	f3bf 8f4f 	dsb	sy
 8002224:	e7fe      	b.n	8002224 <xTaskRemoveFromEventList+0x18>
 8002226:	f104 0518 	add.w	r5, r4, #24
 800222a:	4628      	mov	r0, r5
 800222c:	f7ff f963 	bl	80014f6 <uxListRemove>
 8002230:	4b10      	ldr	r3, [pc, #64]	; (8002274 <xTaskRemoveFromEventList+0x68>)
 8002232:	681b      	ldr	r3, [r3, #0]
 8002234:	b97b      	cbnz	r3, 8002256 <xTaskRemoveFromEventList+0x4a>
 8002236:	1d25      	adds	r5, r4, #4
 8002238:	4628      	mov	r0, r5
 800223a:	f7ff f95c 	bl	80014f6 <uxListRemove>
 800223e:	480e      	ldr	r0, [pc, #56]	; (8002278 <xTaskRemoveFromEventList+0x6c>)
 8002240:	6ae1      	ldr	r1, [r4, #44]	; 0x2c
 8002242:	6802      	ldr	r2, [r0, #0]
 8002244:	2301      	movs	r3, #1
 8002246:	408b      	lsls	r3, r1
 8002248:	4313      	orrs	r3, r2
 800224a:	6003      	str	r3, [r0, #0]
 800224c:	4b0b      	ldr	r3, [pc, #44]	; (800227c <xTaskRemoveFromEventList+0x70>)
 800224e:	2014      	movs	r0, #20
 8002250:	fb00 3001 	mla	r0, r0, r1, r3
 8002254:	e000      	b.n	8002258 <xTaskRemoveFromEventList+0x4c>
 8002256:	480a      	ldr	r0, [pc, #40]	; (8002280 <xTaskRemoveFromEventList+0x74>)
 8002258:	4629      	mov	r1, r5
 800225a:	f7ff f928 	bl	80014ae <vListInsertEnd>
 800225e:	4b09      	ldr	r3, [pc, #36]	; (8002284 <xTaskRemoveFromEventList+0x78>)
 8002260:	6ae2      	ldr	r2, [r4, #44]	; 0x2c
 8002262:	681b      	ldr	r3, [r3, #0]
 8002264:	6adb      	ldr	r3, [r3, #44]	; 0x2c
 8002266:	429a      	cmp	r2, r3
 8002268:	bf83      	ittte	hi
 800226a:	4b07      	ldrhi	r3, [pc, #28]	; (8002288 <xTaskRemoveFromEventList+0x7c>)
 800226c:	2001      	movhi	r0, #1
 800226e:	6018      	strhi	r0, [r3, #0]
 8002270:	2000      	movls	r0, #0
 8002272:	bd38      	pop	{r3, r4, r5, pc}
 8002274:	20000488 	.word	0x20000488
 8002278:	200004e8 	.word	0x200004e8
 800227c:	20000424 	.word	0x20000424
 8002280:	200004b0 	.word	0x200004b0
 8002284:	2000048c 	.word	0x2000048c
 8002288:	200004ec 	.word	0x200004ec

0800228c <vTaskInternalSetTimeOutState>:
 800228c:	4b03      	ldr	r3, [pc, #12]	; (800229c <vTaskInternalSetTimeOutState+0x10>)
 800228e:	681b      	ldr	r3, [r3, #0]
 8002290:	6003      	str	r3, [r0, #0]
 8002292:	4b03      	ldr	r3, [pc, #12]	; (80022a0 <vTaskInternalSetTimeOutState+0x14>)
 8002294:	681b      	ldr	r3, [r3, #0]
 8002296:	6043      	str	r3, [r0, #4]
 8002298:	4770      	bx	lr
 800229a:	bf00      	nop
 800229c:	200003ec 	.word	0x200003ec
 80022a0:	200004a8 	.word	0x200004a8

080022a4 <xTaskCheckForTimeOut>:
 80022a4:	b570      	push	{r4, r5, r6, lr}
 80022a6:	460d      	mov	r5, r1
 80022a8:	4606      	mov	r6, r0
 80022aa:	b940      	cbnz	r0, 80022be <xTaskCheckForTimeOut+0x1a>
 80022ac:	f04f 03fc 	mov.w	r3, #252	; 0xfc
 80022b0:	f383 8811 	msr	BASEPRI, r3
 80022b4:	f3bf 8f6f 	isb	sy
 80022b8:	f3bf 8f4f 	dsb	sy
 80022bc:	e7fe      	b.n	80022bc <xTaskCheckForTimeOut+0x18>
 80022be:	b941      	cbnz	r1, 80022d2 <xTaskCheckForTimeOut+0x2e>
 80022c0:	f04f 03fc 	mov.w	r3, #252	; 0xfc
 80022c4:	f383 8811 	msr	BASEPRI, r3
 80022c8:	f3bf 8f6f 	isb	sy
 80022cc:	f3bf 8f4f 	dsb	sy
 80022d0:	e7fe      	b.n	80022d0 <xTaskCheckForTimeOut+0x2c>
 80022d2:	f7fe ff75 	bl	80011c0 <vPortEnterCritical>
 80022d6:	4b14      	ldr	r3, [pc, #80]	; (8002328 <xTaskCheckForTimeOut+0x84>)
 80022d8:	6871      	ldr	r1, [r6, #4]
 80022da:	681a      	ldr	r2, [r3, #0]
 80022dc:	4b13      	ldr	r3, [pc, #76]	; (800232c <xTaskCheckForTimeOut+0x88>)
 80022de:	6818      	ldr	r0, [r3, #0]
 80022e0:	f890 406d 	ldrb.w	r4, [r0, #109]	; 0x6d
 80022e4:	b124      	cbz	r4, 80022f0 <xTaskCheckForTimeOut+0x4c>
 80022e6:	681b      	ldr	r3, [r3, #0]
 80022e8:	2200      	movs	r2, #0
 80022ea:	f883 206d 	strb.w	r2, [r3, #109]	; 0x6d
 80022ee:	e015      	b.n	800231c <xTaskCheckForTimeOut+0x78>
 80022f0:	682b      	ldr	r3, [r5, #0]
 80022f2:	1c58      	adds	r0, r3, #1
 80022f4:	d013      	beq.n	800231e <xTaskCheckForTimeOut+0x7a>
 80022f6:	480e      	ldr	r0, [pc, #56]	; (8002330 <xTaskCheckForTimeOut+0x8c>)
 80022f8:	6804      	ldr	r4, [r0, #0]
 80022fa:	6830      	ldr	r0, [r6, #0]
 80022fc:	4284      	cmp	r4, r0
 80022fe:	d001      	beq.n	8002304 <xTaskCheckForTimeOut+0x60>
 8002300:	428a      	cmp	r2, r1
 8002302:	d20b      	bcs.n	800231c <xTaskCheckForTimeOut+0x78>
 8002304:	1a52      	subs	r2, r2, r1
 8002306:	429a      	cmp	r2, r3
 8002308:	d206      	bcs.n	8002318 <xTaskCheckForTimeOut+0x74>
 800230a:	1a9b      	subs	r3, r3, r2
 800230c:	602b      	str	r3, [r5, #0]
 800230e:	4630      	mov	r0, r6
 8002310:	f7ff ffbc 	bl	800228c <vTaskInternalSetTimeOutState>
 8002314:	2400      	movs	r4, #0
 8002316:	e002      	b.n	800231e <xTaskCheckForTimeOut+0x7a>
 8002318:	2300      	movs	r3, #0
 800231a:	602b      	str	r3, [r5, #0]
 800231c:	2401      	movs	r4, #1
 800231e:	f7fe ff71 	bl	8001204 <vPortExitCritical>
 8002322:	4620      	mov	r0, r4
 8002324:	bd70      	pop	{r4, r5, r6, pc}
 8002326:	bf00      	nop
 8002328:	200004a8 	.word	0x200004a8
 800232c:	2000048c 	.word	0x2000048c
 8002330:	200003ec 	.word	0x200003ec

08002334 <vTaskMissedYield>:
 8002334:	4b01      	ldr	r3, [pc, #4]	; (800233c <vTaskMissedYield+0x8>)
 8002336:	2201      	movs	r2, #1
 8002338:	601a      	str	r2, [r3, #0]
 800233a:	4770      	bx	lr
 800233c:	200004ec 	.word	0x200004ec

08002340 <xTaskGetSchedulerState>:
 8002340:	4b05      	ldr	r3, [pc, #20]	; (8002358 <xTaskGetSchedulerState+0x18>)
 8002342:	681b      	ldr	r3, [r3, #0]
 8002344:	b133      	cbz	r3, 8002354 <xTaskGetSchedulerState+0x14>
 8002346:	4b05      	ldr	r3, [pc, #20]	; (800235c <xTaskGetSchedulerState+0x1c>)
 8002348:	681b      	ldr	r3, [r3, #0]
 800234a:	2b00      	cmp	r3, #0
 800234c:	bf0c      	ite	eq
 800234e:	2002      	moveq	r0, #2
 8002350:	2000      	movne	r0, #0
 8002352:	4770      	bx	lr
 8002354:	2001      	movs	r0, #1
 8002356:	4770      	bx	lr
 8002358:	200003f4 	.word	0x200003f4
 800235c:	20000488 	.word	0x20000488

08002360 <xTaskPriorityDisinherit>:
 8002360:	b570      	push	{r4, r5, r6, lr}
 8002362:	4604      	mov	r4, r0
 8002364:	b908      	cbnz	r0, 800236a <xTaskPriorityDisinherit+0xa>
 8002366:	2000      	movs	r0, #0
 8002368:	bd70      	pop	{r4, r5, r6, pc}
 800236a:	4b22      	ldr	r3, [pc, #136]	; (80023f4 <xTaskPriorityDisinherit+0x94>)
 800236c:	681b      	ldr	r3, [r3, #0]
 800236e:	4298      	cmp	r0, r3
 8002370:	d008      	beq.n	8002384 <xTaskPriorityDisinherit+0x24>
 8002372:	f04f 03fc 	mov.w	r3, #252	; 0xfc
 8002376:	f383 8811 	msr	BASEPRI, r3
 800237a:	f3bf 8f6f 	isb	sy
 800237e:	f3bf 8f4f 	dsb	sy
 8002382:	e7fe      	b.n	8002382 <xTaskPriorityDisinherit+0x22>
 8002384:	6d03      	ldr	r3, [r0, #80]	; 0x50
 8002386:	b943      	cbnz	r3, 800239a <xTaskPriorityDisinherit+0x3a>
 8002388:	f04f 03fc 	mov.w	r3, #252	; 0xfc
 800238c:	f383 8811 	msr	BASEPRI, r3
 8002390:	f3bf 8f6f 	isb	sy
 8002394:	f3bf 8f4f 	dsb	sy
 8002398:	e7fe      	b.n	8002398 <xTaskPriorityDisinherit+0x38>
 800239a:	6ac1      	ldr	r1, [r0, #44]	; 0x2c
 800239c:	6cc2      	ldr	r2, [r0, #76]	; 0x4c
 800239e:	3b01      	subs	r3, #1
 80023a0:	4291      	cmp	r1, r2
 80023a2:	6503      	str	r3, [r0, #80]	; 0x50
 80023a4:	d0df      	beq.n	8002366 <xTaskPriorityDisinherit+0x6>
 80023a6:	2b00      	cmp	r3, #0
 80023a8:	d1dd      	bne.n	8002366 <xTaskPriorityDisinherit+0x6>
 80023aa:	1d05      	adds	r5, r0, #4
 80023ac:	4628      	mov	r0, r5
 80023ae:	f7ff f8a2 	bl	80014f6 <uxListRemove>
 80023b2:	4911      	ldr	r1, [pc, #68]	; (80023f8 <xTaskPriorityDisinherit+0x98>)
 80023b4:	4a11      	ldr	r2, [pc, #68]	; (80023fc <xTaskPriorityDisinherit+0x9c>)
 80023b6:	b950      	cbnz	r0, 80023ce <xTaskPriorityDisinherit+0x6e>
 80023b8:	6ae6      	ldr	r6, [r4, #44]	; 0x2c
 80023ba:	2314      	movs	r3, #20
 80023bc:	4373      	muls	r3, r6
 80023be:	58cb      	ldr	r3, [r1, r3]
 80023c0:	b92b      	cbnz	r3, 80023ce <xTaskPriorityDisinherit+0x6e>
 80023c2:	6810      	ldr	r0, [r2, #0]
 80023c4:	2301      	movs	r3, #1
 80023c6:	40b3      	lsls	r3, r6
 80023c8:	ea20 0303 	bic.w	r3, r0, r3
 80023cc:	6013      	str	r3, [r2, #0]
 80023ce:	6ce3      	ldr	r3, [r4, #76]	; 0x4c
 80023d0:	62e3      	str	r3, [r4, #44]	; 0x2c
 80023d2:	f1c3 0005 	rsb	r0, r3, #5
 80023d6:	61a0      	str	r0, [r4, #24]
 80023d8:	6810      	ldr	r0, [r2, #0]
 80023da:	2401      	movs	r4, #1
 80023dc:	fa04 f603 	lsl.w	r6, r4, r3
 80023e0:	4330      	orrs	r0, r6
 80023e2:	6010      	str	r0, [r2, #0]
 80023e4:	2014      	movs	r0, #20
 80023e6:	fb00 1003 	mla	r0, r0, r3, r1
 80023ea:	4629      	mov	r1, r5
 80023ec:	f7ff f85f 	bl	80014ae <vListInsertEnd>
 80023f0:	4620      	mov	r0, r4
 80023f2:	bd70      	pop	{r4, r5, r6, pc}
 80023f4:	2000048c 	.word	0x2000048c
 80023f8:	20000424 	.word	0x20000424
 80023fc:	200004e8 	.word	0x200004e8

08002400 <prvCheckForValidListAndQueue>:
 8002400:	b5f8      	push	{r3, r4, r5, r6, r7, lr}
 8002402:	4c0f      	ldr	r4, [pc, #60]	; (8002440 <prvCheckForValidListAndQueue+0x40>)
 8002404:	f7fe fedc 	bl	80011c0 <vPortEnterCritical>
 8002408:	6825      	ldr	r5, [r4, #0]
 800240a:	b9ad      	cbnz	r5, 8002438 <prvCheckForValidListAndQueue+0x38>
 800240c:	4f0d      	ldr	r7, [pc, #52]	; (8002444 <prvCheckForValidListAndQueue+0x44>)
 800240e:	4e0e      	ldr	r6, [pc, #56]	; (8002448 <prvCheckForValidListAndQueue+0x48>)
 8002410:	4638      	mov	r0, r7
 8002412:	f7ff f83e 	bl	8001492 <vListInitialise>
 8002416:	4630      	mov	r0, r6
 8002418:	f7ff f83b 	bl	8001492 <vListInitialise>
 800241c:	4b0b      	ldr	r3, [pc, #44]	; (800244c <prvCheckForValidListAndQueue+0x4c>)
 800241e:	601f      	str	r7, [r3, #0]
 8002420:	4b0b      	ldr	r3, [pc, #44]	; (8002450 <prvCheckForValidListAndQueue+0x50>)
 8002422:	2005      	movs	r0, #5
 8002424:	2110      	movs	r1, #16
 8002426:	462a      	mov	r2, r5
 8002428:	601e      	str	r6, [r3, #0]
 800242a:	f7ff f983 	bl	8001734 <xQueueGenericCreate>
 800242e:	6020      	str	r0, [r4, #0]
 8002430:	b110      	cbz	r0, 8002438 <prvCheckForValidListAndQueue+0x38>
 8002432:	4908      	ldr	r1, [pc, #32]	; (8002454 <prvCheckForValidListAndQueue+0x54>)
 8002434:	f7ff fb60 	bl	8001af8 <vQueueAddToRegistry>
 8002438:	e8bd 40f8 	ldmia.w	sp!, {r3, r4, r5, r6, r7, lr}
 800243c:	f7fe bee2 	b.w	8001204 <vPortExitCritical>
 8002440:	20000520 	.word	0x20000520
 8002444:	200004f4 	.word	0x200004f4
 8002448:	20000508 	.word	0x20000508
 800244c:	200004f0 	.word	0x200004f0
 8002450:	20000524 	.word	0x20000524
 8002454:	08003ffc 	.word	0x08003ffc

08002458 <prvInsertTimerInActiveList>:
 8002458:	b510      	push	{r4, lr}
 800245a:	4604      	mov	r4, r0
 800245c:	4291      	cmp	r1, r2
 800245e:	6041      	str	r1, [r0, #4]
 8002460:	6120      	str	r0, [r4, #16]
 8002462:	d805      	bhi.n	8002470 <prvInsertTimerInActiveList+0x18>
 8002464:	1ad2      	subs	r2, r2, r3
 8002466:	6983      	ldr	r3, [r0, #24]
 8002468:	429a      	cmp	r2, r3
 800246a:	d20c      	bcs.n	8002486 <prvInsertTimerInActiveList+0x2e>
 800246c:	4b07      	ldr	r3, [pc, #28]	; (800248c <prvInsertTimerInActiveList+0x34>)
 800246e:	e004      	b.n	800247a <prvInsertTimerInActiveList+0x22>
 8002470:	429a      	cmp	r2, r3
 8002472:	d201      	bcs.n	8002478 <prvInsertTimerInActiveList+0x20>
 8002474:	4299      	cmp	r1, r3
 8002476:	d206      	bcs.n	8002486 <prvInsertTimerInActiveList+0x2e>
 8002478:	4b05      	ldr	r3, [pc, #20]	; (8002490 <prvInsertTimerInActiveList+0x38>)
 800247a:	6818      	ldr	r0, [r3, #0]
 800247c:	1d21      	adds	r1, r4, #4
 800247e:	f7ff f822 	bl	80014c6 <vListInsert>
 8002482:	2000      	movs	r0, #0
 8002484:	bd10      	pop	{r4, pc}
 8002486:	2001      	movs	r0, #1
 8002488:	bd10      	pop	{r4, pc}
 800248a:	bf00      	nop
 800248c:	20000524 	.word	0x20000524
 8002490:	200004f0 	.word	0x200004f0

08002494 <xTimerCreateTimerTask>:
 8002494:	b507      	push	{r0, r1, r2, lr}
 8002496:	f7ff ffb3 	bl	8002400 <prvCheckForValidListAndQueue>
 800249a:	4b0e      	ldr	r3, [pc, #56]	; (80024d4 <xTimerCreateTimerTask+0x40>)
 800249c:	681b      	ldr	r3, [r3, #0]
 800249e:	b943      	cbnz	r3, 80024b2 <xTimerCreateTimerTask+0x1e>
 80024a0:	f04f 03fc 	mov.w	r3, #252	; 0xfc
 80024a4:	f383 8811 	msr	BASEPRI, r3
 80024a8:	f3bf 8f6f 	isb	sy
 80024ac:	f3bf 8f4f 	dsb	sy
 80024b0:	e00f      	b.n	80024d2 <xTimerCreateTimerTask+0x3e>
 80024b2:	2302      	movs	r3, #2
 80024b4:	9300      	str	r3, [sp, #0]
 80024b6:	4b08      	ldr	r3, [pc, #32]	; (80024d8 <xTimerCreateTimerTask+0x44>)
 80024b8:	9301      	str	r3, [sp, #4]
 80024ba:	4808      	ldr	r0, [pc, #32]	; (80024dc <xTimerCreateTimerTask+0x48>)
 80024bc:	4908      	ldr	r1, [pc, #32]	; (80024e0 <xTimerCreateTimerTask+0x4c>)
 80024be:	f44f 7282 	mov.w	r2, #260	; 0x104
 80024c2:	2300      	movs	r3, #0
 80024c4:	f7ff fbde 	bl	8001c84 <xTaskCreate>
 80024c8:	2800      	cmp	r0, #0
 80024ca:	d0e9      	beq.n	80024a0 <xTimerCreateTimerTask+0xc>
 80024cc:	b003      	add	sp, #12
 80024ce:	f85d fb04 	ldr.w	pc, [sp], #4
 80024d2:	e7fe      	b.n	80024d2 <xTimerCreateTimerTask+0x3e>
 80024d4:	20000520 	.word	0x20000520
 80024d8:	20000528 	.word	0x20000528
 80024dc:	080025b1 	.word	0x080025b1
 80024e0:	08004001 	.word	0x08004001

080024e4 <xTimerGenericCommand>:
 80024e4:	b530      	push	{r4, r5, lr}
 80024e6:	4605      	mov	r5, r0
 80024e8:	b085      	sub	sp, #20
 80024ea:	b940      	cbnz	r0, 80024fe <xTimerGenericCommand+0x1a>
 80024ec:	f04f 03fc 	mov.w	r3, #252	; 0xfc
 80024f0:	f383 8811 	msr	BASEPRI, r3
 80024f4:	f3bf 8f6f 	isb	sy
 80024f8:	f3bf 8f4f 	dsb	sy
 80024fc:	e7fe      	b.n	80024fc <xTimerGenericCommand+0x18>
 80024fe:	4c0e      	ldr	r4, [pc, #56]	; (8002538 <xTimerGenericCommand+0x54>)
 8002500:	6820      	ldr	r0, [r4, #0]
 8002502:	b1b8      	cbz	r0, 8002534 <xTimerGenericCommand+0x50>
 8002504:	2905      	cmp	r1, #5
 8002506:	e88d 0026 	stmia.w	sp, {r1, r2, r5}
 800250a:	dc0e      	bgt.n	800252a <xTimerGenericCommand+0x46>
 800250c:	f7ff ff18 	bl	8002340 <xTaskGetSchedulerState>
 8002510:	2802      	cmp	r0, #2
 8002512:	bf18      	it	ne
 8002514:	2200      	movne	r2, #0
 8002516:	6820      	ldr	r0, [r4, #0]
 8002518:	bf08      	it	eq
 800251a:	9a08      	ldreq	r2, [sp, #32]
 800251c:	4669      	mov	r1, sp
 800251e:	bf0c      	ite	eq
 8002520:	2300      	moveq	r3, #0
 8002522:	4613      	movne	r3, r2
 8002524:	f7ff f930 	bl	8001788 <xQueueGenericSend>
 8002528:	e004      	b.n	8002534 <xTimerGenericCommand+0x50>
 800252a:	461a      	mov	r2, r3
 800252c:	4669      	mov	r1, sp
 800252e:	2300      	movs	r3, #0
 8002530:	f7ff f9e0 	bl	80018f4 <xQueueGenericSendFromISR>
 8002534:	b005      	add	sp, #20
 8002536:	bd30      	pop	{r4, r5, pc}
 8002538:	20000520 	.word	0x20000520

0800253c <prvSwitchTimerLists>:
 800253c:	b5f7      	push	{r0, r1, r2, r4, r5, r6, r7, lr}
 800253e:	4d1a      	ldr	r5, [pc, #104]	; (80025a8 <prvSwitchTimerLists+0x6c>)
 8002540:	682b      	ldr	r3, [r5, #0]
 8002542:	681a      	ldr	r2, [r3, #0]
 8002544:	b34a      	cbz	r2, 800259a <prvSwitchTimerLists+0x5e>
 8002546:	68db      	ldr	r3, [r3, #12]
 8002548:	68dc      	ldr	r4, [r3, #12]
 800254a:	681e      	ldr	r6, [r3, #0]
 800254c:	1d27      	adds	r7, r4, #4
 800254e:	4638      	mov	r0, r7
 8002550:	f7fe ffd1 	bl	80014f6 <uxListRemove>
 8002554:	6a63      	ldr	r3, [r4, #36]	; 0x24
 8002556:	4620      	mov	r0, r4
 8002558:	4798      	blx	r3
 800255a:	69e3      	ldr	r3, [r4, #28]
 800255c:	2b01      	cmp	r3, #1
 800255e:	d1ee      	bne.n	800253e <prvSwitchTimerLists+0x2>
 8002560:	69a3      	ldr	r3, [r4, #24]
 8002562:	4433      	add	r3, r6
 8002564:	42b3      	cmp	r3, r6
 8002566:	d906      	bls.n	8002576 <prvSwitchTimerLists+0x3a>
 8002568:	6063      	str	r3, [r4, #4]
 800256a:	6124      	str	r4, [r4, #16]
 800256c:	6828      	ldr	r0, [r5, #0]
 800256e:	4639      	mov	r1, r7
 8002570:	f7fe ffa9 	bl	80014c6 <vListInsert>
 8002574:	e7e3      	b.n	800253e <prvSwitchTimerLists+0x2>
 8002576:	2100      	movs	r1, #0
 8002578:	9100      	str	r1, [sp, #0]
 800257a:	4620      	mov	r0, r4
 800257c:	4632      	mov	r2, r6
 800257e:	460b      	mov	r3, r1
 8002580:	f7ff ffb0 	bl	80024e4 <xTimerGenericCommand>
 8002584:	2800      	cmp	r0, #0
 8002586:	d1da      	bne.n	800253e <prvSwitchTimerLists+0x2>
 8002588:	f04f 03fc 	mov.w	r3, #252	; 0xfc
 800258c:	f383 8811 	msr	BASEPRI, r3
 8002590:	f3bf 8f6f 	isb	sy
 8002594:	f3bf 8f4f 	dsb	sy
 8002598:	e7fe      	b.n	8002598 <prvSwitchTimerLists+0x5c>
 800259a:	4a04      	ldr	r2, [pc, #16]	; (80025ac <prvSwitchTimerLists+0x70>)
 800259c:	6811      	ldr	r1, [r2, #0]
 800259e:	6029      	str	r1, [r5, #0]
 80025a0:	6013      	str	r3, [r2, #0]
 80025a2:	b003      	add	sp, #12
 80025a4:	bdf0      	pop	{r4, r5, r6, r7, pc}
 80025a6:	bf00      	nop
 80025a8:	200004f0 	.word	0x200004f0
 80025ac:	20000524 	.word	0x20000524

080025b0 <prvTimerTask>:
 80025b0:	e92d 43f0 	stmdb	sp!, {r4, r5, r6, r7, r8, r9, lr}
 80025b4:	b087      	sub	sp, #28
 80025b6:	f8df 91b4 	ldr.w	r9, [pc, #436]	; 800276c <prvTimerTask+0x1bc>
 80025ba:	f8d9 3000 	ldr.w	r3, [r9]
 80025be:	681c      	ldr	r4, [r3, #0]
 80025c0:	fab4 f484 	clz	r4, r4
 80025c4:	0964      	lsrs	r4, r4, #5
 80025c6:	b914      	cbnz	r4, 80025ce <prvTimerTask+0x1e>
 80025c8:	68db      	ldr	r3, [r3, #12]
 80025ca:	681f      	ldr	r7, [r3, #0]
 80025cc:	e000      	b.n	80025d0 <prvTimerTask+0x20>
 80025ce:	2700      	movs	r7, #0
 80025d0:	4d62      	ldr	r5, [pc, #392]	; (800275c <prvTimerTask+0x1ac>)
 80025d2:	f7ff fc75 	bl	8001ec0 <vTaskSuspendAll>
 80025d6:	f7ff fc7b 	bl	8001ed0 <xTaskGetTickCount>
 80025da:	682b      	ldr	r3, [r5, #0]
 80025dc:	4298      	cmp	r0, r3
 80025de:	4680      	mov	r8, r0
 80025e0:	462e      	mov	r6, r5
 80025e2:	d203      	bcs.n	80025ec <prvTimerTask+0x3c>
 80025e4:	f7ff ffaa 	bl	800253c <prvSwitchTimerLists>
 80025e8:	2301      	movs	r3, #1
 80025ea:	e000      	b.n	80025ee <prvTimerTask+0x3e>
 80025ec:	2300      	movs	r3, #0
 80025ee:	f8c5 8000 	str.w	r8, [r5]
 80025f2:	2b00      	cmp	r3, #0
 80025f4:	d145      	bne.n	8002682 <prvTimerTask+0xd2>
 80025f6:	bb54      	cbnz	r4, 800264e <prvTimerTask+0x9e>
 80025f8:	4547      	cmp	r7, r8
 80025fa:	d82f      	bhi.n	800265c <prvTimerTask+0xac>
 80025fc:	f7ff fcf8 	bl	8001ff0 <xTaskResumeAll>
 8002600:	f8d9 3000 	ldr.w	r3, [r9]
 8002604:	68db      	ldr	r3, [r3, #12]
 8002606:	68dd      	ldr	r5, [r3, #12]
 8002608:	1d28      	adds	r0, r5, #4
 800260a:	f7fe ff74 	bl	80014f6 <uxListRemove>
 800260e:	69eb      	ldr	r3, [r5, #28]
 8002610:	2b01      	cmp	r3, #1
 8002612:	d118      	bne.n	8002646 <prvTimerTask+0x96>
 8002614:	69a9      	ldr	r1, [r5, #24]
 8002616:	4628      	mov	r0, r5
 8002618:	4439      	add	r1, r7
 800261a:	4642      	mov	r2, r8
 800261c:	463b      	mov	r3, r7
 800261e:	f7ff ff1b 	bl	8002458 <prvInsertTimerInActiveList>
 8002622:	b180      	cbz	r0, 8002646 <prvTimerTask+0x96>
 8002624:	9400      	str	r4, [sp, #0]
 8002626:	4628      	mov	r0, r5
 8002628:	4621      	mov	r1, r4
 800262a:	463a      	mov	r2, r7
 800262c:	4623      	mov	r3, r4
 800262e:	f7ff ff59 	bl	80024e4 <xTimerGenericCommand>
 8002632:	b940      	cbnz	r0, 8002646 <prvTimerTask+0x96>
 8002634:	f04f 03fc 	mov.w	r3, #252	; 0xfc
 8002638:	f383 8811 	msr	BASEPRI, r3
 800263c:	f3bf 8f6f 	isb	sy
 8002640:	f3bf 8f4f 	dsb	sy
 8002644:	e7fe      	b.n	8002644 <prvTimerTask+0x94>
 8002646:	6a6b      	ldr	r3, [r5, #36]	; 0x24
 8002648:	4628      	mov	r0, r5
 800264a:	4798      	blx	r3
 800264c:	e026      	b.n	800269c <prvTimerTask+0xec>
 800264e:	4b44      	ldr	r3, [pc, #272]	; (8002760 <prvTimerTask+0x1b0>)
 8002650:	681b      	ldr	r3, [r3, #0]
 8002652:	681c      	ldr	r4, [r3, #0]
 8002654:	fab4 f284 	clz	r2, r4
 8002658:	0952      	lsrs	r2, r2, #5
 800265a:	e000      	b.n	800265e <prvTimerTask+0xae>
 800265c:	4622      	mov	r2, r4
 800265e:	4b41      	ldr	r3, [pc, #260]	; (8002764 <prvTimerTask+0x1b4>)
 8002660:	ebc8 0107 	rsb	r1, r8, r7
 8002664:	6818      	ldr	r0, [r3, #0]
 8002666:	f7ff fa59 	bl	8001b1c <vQueueWaitForMessageRestricted>
 800266a:	f7ff fcc1 	bl	8001ff0 <xTaskResumeAll>
 800266e:	b9a8      	cbnz	r0, 800269c <prvTimerTask+0xec>
 8002670:	4b3d      	ldr	r3, [pc, #244]	; (8002768 <prvTimerTask+0x1b8>)
 8002672:	f04f 5280 	mov.w	r2, #268435456	; 0x10000000
 8002676:	601a      	str	r2, [r3, #0]
 8002678:	f3bf 8f4f 	dsb	sy
 800267c:	f3bf 8f6f 	isb	sy
 8002680:	e00c      	b.n	800269c <prvTimerTask+0xec>
 8002682:	f7ff fcb5 	bl	8001ff0 <xTaskResumeAll>
 8002686:	e009      	b.n	800269c <prvTimerTask+0xec>
 8002688:	9b02      	ldr	r3, [sp, #8]
 800268a:	2b00      	cmp	r3, #0
 800268c:	da03      	bge.n	8002696 <prvTimerTask+0xe6>
 800268e:	9804      	ldr	r0, [sp, #16]
 8002690:	9905      	ldr	r1, [sp, #20]
 8002692:	9b03      	ldr	r3, [sp, #12]
 8002694:	4798      	blx	r3
 8002696:	9b02      	ldr	r3, [sp, #8]
 8002698:	2b00      	cmp	r3, #0
 800269a:	da08      	bge.n	80026ae <prvTimerTask+0xfe>
 800269c:	4b31      	ldr	r3, [pc, #196]	; (8002764 <prvTimerTask+0x1b4>)
 800269e:	a902      	add	r1, sp, #8
 80026a0:	6818      	ldr	r0, [r3, #0]
 80026a2:	2200      	movs	r2, #0
 80026a4:	f7ff f98c 	bl	80019c0 <xQueueReceive>
 80026a8:	2800      	cmp	r0, #0
 80026aa:	d1ed      	bne.n	8002688 <prvTimerTask+0xd8>
 80026ac:	e783      	b.n	80025b6 <prvTimerTask+0x6>
 80026ae:	9c04      	ldr	r4, [sp, #16]
 80026b0:	6963      	ldr	r3, [r4, #20]
 80026b2:	b113      	cbz	r3, 80026ba <prvTimerTask+0x10a>
 80026b4:	1d20      	adds	r0, r4, #4
 80026b6:	f7fe ff1e 	bl	80014f6 <uxListRemove>
 80026ba:	f7ff fc09 	bl	8001ed0 <xTaskGetTickCount>
 80026be:	6833      	ldr	r3, [r6, #0]
 80026c0:	4298      	cmp	r0, r3
 80026c2:	4605      	mov	r5, r0
 80026c4:	d201      	bcs.n	80026ca <prvTimerTask+0x11a>
 80026c6:	f7ff ff39 	bl	800253c <prvSwitchTimerLists>
 80026ca:	9a02      	ldr	r2, [sp, #8]
 80026cc:	6035      	str	r5, [r6, #0]
 80026ce:	2a09      	cmp	r2, #9
 80026d0:	d8e4      	bhi.n	800269c <prvTimerTask+0xec>
 80026d2:	2301      	movs	r3, #1
 80026d4:	4093      	lsls	r3, r2
 80026d6:	f413 7704 	ands.w	r7, r3, #528	; 0x210
 80026da:	d12b      	bne.n	8002734 <prvTimerTask+0x184>
 80026dc:	f013 0fc7 	tst.w	r3, #199	; 0xc7
 80026e0:	d105      	bne.n	80026ee <prvTimerTask+0x13e>
 80026e2:	069b      	lsls	r3, r3, #26
 80026e4:	d5da      	bpl.n	800269c <prvTimerTask+0xec>
 80026e6:	4620      	mov	r0, r4
 80026e8:	f7fe fec6 	bl	8001478 <vPortFree>
 80026ec:	e7d6      	b.n	800269c <prvTimerTask+0xec>
 80026ee:	9b03      	ldr	r3, [sp, #12]
 80026f0:	69a1      	ldr	r1, [r4, #24]
 80026f2:	4620      	mov	r0, r4
 80026f4:	4419      	add	r1, r3
 80026f6:	462a      	mov	r2, r5
 80026f8:	f7ff feae 	bl	8002458 <prvInsertTimerInActiveList>
 80026fc:	2800      	cmp	r0, #0
 80026fe:	d0cd      	beq.n	800269c <prvTimerTask+0xec>
 8002700:	6a63      	ldr	r3, [r4, #36]	; 0x24
 8002702:	4620      	mov	r0, r4
 8002704:	4798      	blx	r3
 8002706:	69e3      	ldr	r3, [r4, #28]
 8002708:	2b01      	cmp	r3, #1
 800270a:	d1c7      	bne.n	800269c <prvTimerTask+0xec>
 800270c:	69a2      	ldr	r2, [r4, #24]
 800270e:	9b03      	ldr	r3, [sp, #12]
 8002710:	9700      	str	r7, [sp, #0]
 8002712:	441a      	add	r2, r3
 8002714:	4620      	mov	r0, r4
 8002716:	4639      	mov	r1, r7
 8002718:	463b      	mov	r3, r7
 800271a:	f7ff fee3 	bl	80024e4 <xTimerGenericCommand>
 800271e:	2800      	cmp	r0, #0
 8002720:	d1bc      	bne.n	800269c <prvTimerTask+0xec>
 8002722:	f04f 03fc 	mov.w	r3, #252	; 0xfc
 8002726:	f383 8811 	msr	BASEPRI, r3
 800272a:	f3bf 8f6f 	isb	sy
 800272e:	f3bf 8f4f 	dsb	sy
 8002732:	e7fe      	b.n	8002732 <prvTimerTask+0x182>
 8002734:	9903      	ldr	r1, [sp, #12]
 8002736:	61a1      	str	r1, [r4, #24]
 8002738:	b941      	cbnz	r1, 800274c <prvTimerTask+0x19c>
 800273a:	f04f 03fc 	mov.w	r3, #252	; 0xfc
 800273e:	f383 8811 	msr	BASEPRI, r3
 8002742:	f3bf 8f6f 	isb	sy
 8002746:	f3bf 8f4f 	dsb	sy
 800274a:	e7fe      	b.n	800274a <prvTimerTask+0x19a>
 800274c:	4620      	mov	r0, r4
 800274e:	4429      	add	r1, r5
 8002750:	462a      	mov	r2, r5
 8002752:	462b      	mov	r3, r5
 8002754:	f7ff fe80 	bl	8002458 <prvInsertTimerInActiveList>
 8002758:	e7a0      	b.n	800269c <prvTimerTask+0xec>
 800275a:	bf00      	nop
 800275c:	2000051c 	.word	0x2000051c
 8002760:	20000524 	.word	0x20000524
 8002764:	20000520 	.word	0x20000520
 8002768:	e000ed04 	.word	0xe000ed04
 800276c:	200004f0 	.word	0x200004f0

08002770 <DIGITAL_IO_Init>:
 8002770:	b510      	push	{r4, lr}
 8002772:	4604      	mov	r4, r0
 8002774:	1d22      	adds	r2, r4, #4
 8002776:	7c21      	ldrb	r1, [r4, #16]
 8002778:	6800      	ldr	r0, [r0, #0]
 800277a:	f7fd fdf7 	bl	800036c <XMC_GPIO_Init>
 800277e:	6820      	ldr	r0, [r4, #0]
 8002780:	7c21      	ldrb	r1, [r4, #16]
 8002782:	7c62      	ldrb	r2, [r4, #17]
 8002784:	f7fe fa80 	bl	8000c88 <XMC_GPIO_SetHardwareControl>
 8002788:	2000      	movs	r0, #0
 800278a:	bd10      	pop	{r4, pc}

0800278c <SystemCoreSetup>:
 800278c:	4b19      	ldr	r3, [pc, #100]	; (80027f4 <SystemCoreSetup+0x68>)
 800278e:	4a1a      	ldr	r2, [pc, #104]	; (80027f8 <SystemCoreSetup+0x6c>)
 8002790:	68d9      	ldr	r1, [r3, #12]
 8002792:	f421 61e0 	bic.w	r1, r1, #1792	; 0x700
 8002796:	0409      	lsls	r1, r1, #16
 8002798:	0c09      	lsrs	r1, r1, #16
 800279a:	430a      	orrs	r2, r1
 800279c:	60da      	str	r2, [r3, #12]
 800279e:	b672      	cpsid	i
 80027a0:	4a16      	ldr	r2, [pc, #88]	; (80027fc <SystemCoreSetup+0x70>)
 80027a2:	609a      	str	r2, [r3, #8]
 80027a4:	f3bf 8f4f 	dsb	sy
 80027a8:	b662      	cpsie	i
 80027aa:	f8d3 2088 	ldr.w	r2, [r3, #136]	; 0x88
 80027ae:	4814      	ldr	r0, [pc, #80]	; (8002800 <SystemCoreSetup+0x74>)
 80027b0:	f442 0270 	orr.w	r2, r2, #15728640	; 0xf00000
 80027b4:	f241 0114 	movw	r1, #4116	; 0x1014
 80027b8:	f8c3 2088 	str.w	r2, [r3, #136]	; 0x88
 80027bc:	5842      	ldr	r2, [r0, r1]
 80027be:	f022 020f 	bic.w	r2, r2, #15
 80027c2:	f042 0203 	orr.w	r2, r2, #3
 80027c6:	5042      	str	r2, [r0, r1]
 80027c8:	695a      	ldr	r2, [r3, #20]
 80027ca:	f022 0210 	bic.w	r2, r2, #16
 80027ce:	615a      	str	r2, [r3, #20]
 80027d0:	695a      	ldr	r2, [r3, #20]
 80027d2:	f022 0208 	bic.w	r2, r2, #8
 80027d6:	615a      	str	r2, [r3, #20]
 80027d8:	6a5a      	ldr	r2, [r3, #36]	; 0x24
 80027da:	f422 3280 	bic.w	r2, r2, #65536	; 0x10000
 80027de:	625a      	str	r2, [r3, #36]	; 0x24
 80027e0:	6a5a      	ldr	r2, [r3, #36]	; 0x24
 80027e2:	f422 3200 	bic.w	r2, r2, #131072	; 0x20000
 80027e6:	625a      	str	r2, [r3, #36]	; 0x24
 80027e8:	6a5a      	ldr	r2, [r3, #36]	; 0x24
 80027ea:	f422 2280 	bic.w	r2, r2, #262144	; 0x40000
 80027ee:	625a      	str	r2, [r3, #36]	; 0x24
 80027f0:	4770      	bx	lr
 80027f2:	bf00      	nop
 80027f4:	e000ed00 	.word	0xe000ed00
 80027f8:	05fa0100 	.word	0x05fa0100
 80027fc:	08000000 	.word	0x08000000
 8002800:	58001000 	.word	0x58001000

08002804 <CLOCK_XMC4_Init>:
 8002804:	2301      	movs	r3, #1
 8002806:	7003      	strb	r3, [r0, #0]
 8002808:	2000      	movs	r0, #0
 800280a:	4770      	bx	lr

0800280c <OSCHP_GetFrequency>:
 800280c:	4800      	ldr	r0, [pc, #0]	; (8002810 <OSCHP_GetFrequency+0x4>)
 800280e:	4770      	bx	lr
 8002810:	00b71b00 	.word	0x00b71b00

08002814 <SystemCoreClockSetup>:
 8002814:	b530      	push	{r4, r5, lr}
 8002816:	4d11      	ldr	r5, [pc, #68]	; (800285c <SystemCoreClockSetup+0x48>)
 8002818:	cd0f      	ldmia	r5!, {r0, r1, r2, r3}
 800281a:	b087      	sub	sp, #28
 800281c:	ac01      	add	r4, sp, #4
 800281e:	c40f      	stmia	r4!, {r0, r1, r2, r3}
 8002820:	682b      	ldr	r3, [r5, #0]
 8002822:	6023      	str	r3, [r4, #0]
 8002824:	a801      	add	r0, sp, #4
 8002826:	f7fd fff3 	bl	8000810 <XMC_SCU_CLOCK_Init>
 800282a:	2000      	movs	r0, #0
 800282c:	f7fd fe3c 	bl	80004a8 <XMC_SCU_HIB_SetRtcClockSource>
 8002830:	2000      	movs	r0, #0
 8002832:	f7fd fe15 	bl	8000460 <XMC_SCU_CLOCK_SetUsbClockSource>
 8002836:	2004      	movs	r0, #4
 8002838:	f7fd fe7e 	bl	8000538 <XMC_SCU_CLOCK_SetUsbClockDivider>
 800283c:	2120      	movs	r1, #32
 800283e:	2001      	movs	r0, #1
 8002840:	f7fd fe9e 	bl	8000580 <XMC_SCU_CLOCK_StartUsbPll>
 8002844:	2000      	movs	r0, #0
 8002846:	f7fd fe15 	bl	8000474 <XMC_SCU_CLOCK_SetWdtClockSource>
 800284a:	2001      	movs	r0, #1
 800284c:	f7fd fe88 	bl	8000560 <XMC_SCU_CLOCK_SetWdtClockDivider>
 8002850:	2001      	movs	r0, #1
 8002852:	f7fd fe7b 	bl	800054c <XMC_SCU_CLOCK_SetEbuClockDivider>
 8002856:	b007      	add	sp, #28
 8002858:	bd30      	pop	{r4, r5, pc}
 800285a:	bf00      	nop
 800285c:	0800405c 	.word	0x0800405c

08002860 <CAN_NODE_MO_Init>:
 8002860:	b510      	push	{r4, lr}
 8002862:	4604      	mov	r4, r0
 8002864:	6800      	ldr	r0, [r0, #0]
 8002866:	f7fe f90b 	bl	8000a80 <XMC_CAN_MO_Config>
 800286a:	79e3      	ldrb	r3, [r4, #7]
 800286c:	b163      	cbz	r3, 8002888 <CAN_NODE_MO_Init+0x28>
 800286e:	6823      	ldr	r3, [r4, #0]
 8002870:	7961      	ldrb	r1, [r4, #5]
 8002872:	681a      	ldr	r2, [r3, #0]
 8002874:	6893      	ldr	r3, [r2, #8]
 8002876:	f023 0370 	bic.w	r3, r3, #112	; 0x70
 800287a:	ea43 1301 	orr.w	r3, r3, r1, lsl #4
 800287e:	6093      	str	r3, [r2, #8]
 8002880:	6813      	ldr	r3, [r2, #0]
 8002882:	f443 3300 	orr.w	r3, r3, #131072	; 0x20000
 8002886:	6013      	str	r3, [r2, #0]
 8002888:	7a23      	ldrb	r3, [r4, #8]
 800288a:	b15b      	cbz	r3, 80028a4 <CAN_NODE_MO_Init+0x44>
 800288c:	6823      	ldr	r3, [r4, #0]
 800288e:	681b      	ldr	r3, [r3, #0]
 8002890:	689a      	ldr	r2, [r3, #8]
 8002892:	f022 0107 	bic.w	r1, r2, #7
 8002896:	79a2      	ldrb	r2, [r4, #6]
 8002898:	430a      	orrs	r2, r1
 800289a:	609a      	str	r2, [r3, #8]
 800289c:	681a      	ldr	r2, [r3, #0]
 800289e:	f442 3280 	orr.w	r2, r2, #65536	; 0x10000
 80028a2:	601a      	str	r2, [r3, #0]
 80028a4:	bd10      	pop	{r4, pc}

080028a6 <CAN_NODE_MO_Transmit>:
 80028a6:	6800      	ldr	r0, [r0, #0]
 80028a8:	f7fe b92c 	b.w	8000b04 <XMC_CAN_MO_Transmit>

080028ac <CAN_NODE_MO_Receive>:
 80028ac:	6800      	ldr	r0, [r0, #0]
 80028ae:	f7fe b939 	b.w	8000b24 <XMC_CAN_MO_Receive>

080028b2 <CAN_NODE_MO_UpdateData>:
 80028b2:	6803      	ldr	r3, [r0, #0]
 80028b4:	680a      	ldr	r2, [r1, #0]
 80028b6:	611a      	str	r2, [r3, #16]
 80028b8:	6803      	ldr	r3, [r0, #0]
 80028ba:	684a      	ldr	r2, [r1, #4]
 80028bc:	615a      	str	r2, [r3, #20]
 80028be:	6800      	ldr	r0, [r0, #0]
 80028c0:	f7fe b8c2 	b.w	8000a48 <XMC_CAN_MO_UpdateData>

080028c4 <CAN_NODE_Init>:
 80028c4:	e92d 43f8 	stmdb	sp!, {r3, r4, r5, r6, r7, r8, r9, lr}
 80028c8:	f8d0 6090 	ldr.w	r6, [r0, #144]	; 0x90
 80028cc:	4604      	mov	r4, r0
 80028ce:	6800      	ldr	r0, [r0, #0]
 80028d0:	f7fe fbcd 	bl	800106e <GLOBAL_CAN_Init>
 80028d4:	4605      	mov	r5, r0
 80028d6:	2800      	cmp	r0, #0
 80028d8:	f040 8088 	bne.w	80029ec <CAN_NODE_Init+0x128>
 80028dc:	6860      	ldr	r0, [r4, #4]
 80028de:	68a1      	ldr	r1, [r4, #8]
 80028e0:	f7fd ffe4 	bl	80008ac <XMC_CAN_NODE_NominalBitTimeConfigure>
 80028e4:	6863      	ldr	r3, [r4, #4]
 80028e6:	681a      	ldr	r2, [r3, #0]
 80028e8:	f042 0240 	orr.w	r2, r2, #64	; 0x40
 80028ec:	601a      	str	r2, [r3, #0]
 80028ee:	681a      	ldr	r2, [r3, #0]
 80028f0:	f042 0201 	orr.w	r2, r2, #1
 80028f4:	601a      	str	r2, [r3, #0]
 80028f6:	f894 20a7 	ldrb.w	r2, [r4, #167]	; 0xa7
 80028fa:	b122      	cbz	r2, 8002906 <CAN_NODE_Init+0x42>
 80028fc:	68da      	ldr	r2, [r3, #12]
 80028fe:	f442 7280 	orr.w	r2, r2, #256	; 0x100
 8002902:	60da      	str	r2, [r3, #12]
 8002904:	e011      	b.n	800292a <CAN_NODE_Init+0x66>
 8002906:	f8d4 3098 	ldr.w	r3, [r4, #152]	; 0x98
 800290a:	f8d4 209c 	ldr.w	r2, [r4, #156]	; 0x9c
 800290e:	7919      	ldrb	r1, [r3, #4]
 8002910:	6818      	ldr	r0, [r3, #0]
 8002912:	f7fd fd2b 	bl	800036c <XMC_GPIO_Init>
 8002916:	6861      	ldr	r1, [r4, #4]
 8002918:	f894 20a0 	ldrb.w	r2, [r4, #160]	; 0xa0
 800291c:	68cb      	ldr	r3, [r1, #12]
 800291e:	f002 0207 	and.w	r2, r2, #7
 8002922:	f023 0307 	bic.w	r3, r3, #7
 8002926:	4313      	orrs	r3, r2
 8002928:	60cb      	str	r3, [r1, #12]
 800292a:	6860      	ldr	r0, [r4, #4]
 800292c:	f8d4 208c 	ldr.w	r2, [r4, #140]	; 0x8c
 8002930:	6883      	ldr	r3, [r0, #8]
 8002932:	f023 0107 	bic.w	r1, r3, #7
 8002936:	7813      	ldrb	r3, [r2, #0]
 8002938:	430b      	orrs	r3, r1
 800293a:	6083      	str	r3, [r0, #8]
 800293c:	6883      	ldr	r3, [r0, #8]
 800293e:	7851      	ldrb	r1, [r2, #1]
 8002940:	f023 0370 	bic.w	r3, r3, #112	; 0x70
 8002944:	ea43 1301 	orr.w	r3, r3, r1, lsl #4
 8002948:	6083      	str	r3, [r0, #8]
 800294a:	6883      	ldr	r3, [r0, #8]
 800294c:	7891      	ldrb	r1, [r2, #2]
 800294e:	f423 63e0 	bic.w	r3, r3, #1792	; 0x700
 8002952:	ea43 2301 	orr.w	r3, r3, r1, lsl #8
 8002956:	6083      	str	r3, [r0, #8]
 8002958:	6883      	ldr	r3, [r0, #8]
 800295a:	78d2      	ldrb	r2, [r2, #3]
 800295c:	f423 43e0 	bic.w	r3, r3, #28672	; 0x7000
 8002960:	ea43 3302 	orr.w	r3, r3, r2, lsl #12
 8002964:	6083      	str	r3, [r0, #8]
 8002966:	f894 30a4 	ldrb.w	r3, [r4, #164]	; 0xa4
 800296a:	2b00      	cmp	r3, #0
 800296c:	f894 30a3 	ldrb.w	r3, [r4, #163]	; 0xa3
 8002970:	bf0c      	ite	eq
 8002972:	2100      	moveq	r1, #0
 8002974:	2102      	movne	r1, #2
 8002976:	b10b      	cbz	r3, 800297c <CAN_NODE_Init+0xb8>
 8002978:	f041 0104 	orr.w	r1, r1, #4
 800297c:	f894 30a5 	ldrb.w	r3, [r4, #165]	; 0xa5
 8002980:	b10b      	cbz	r3, 8002986 <CAN_NODE_Init+0xc2>
 8002982:	f041 0108 	orr.w	r1, r1, #8
 8002986:	f7fe f925 	bl	8000bd4 <XMC_CAN_NODE_EnableEvent>
 800298a:	f894 30a6 	ldrb.w	r3, [r4, #166]	; 0xa6
 800298e:	b123      	cbz	r3, 800299a <CAN_NODE_Init+0xd6>
 8002990:	6860      	ldr	r0, [r4, #4]
 8002992:	f44f 0180 	mov.w	r1, #4194304	; 0x400000
 8002996:	f7fe f91d 	bl	8000bd4 <XMC_CAN_NODE_EnableEvent>
 800299a:	f104 0808 	add.w	r8, r4, #8
 800299e:	2700      	movs	r7, #0
 80029a0:	f894 30a2 	ldrb.w	r3, [r4, #162]	; 0xa2
 80029a4:	429f      	cmp	r7, r3
 80029a6:	d20e      	bcs.n	80029c6 <CAN_NODE_Init+0x102>
 80029a8:	f858 9f04 	ldr.w	r9, [r8, #4]!
 80029ac:	6823      	ldr	r3, [r4, #0]
 80029ae:	f894 10a1 	ldrb.w	r1, [r4, #161]	; 0xa1
 80029b2:	6858      	ldr	r0, [r3, #4]
 80029b4:	f899 2004 	ldrb.w	r2, [r9, #4]
 80029b8:	f7fd ffed 	bl	8000996 <XMC_CAN_AllocateMOtoNodeList>
 80029bc:	4648      	mov	r0, r9
 80029be:	f7ff ff4f 	bl	8002860 <CAN_NODE_MO_Init>
 80029c2:	3701      	adds	r7, #1
 80029c4:	e7ec      	b.n	80029a0 <CAN_NODE_Init+0xdc>
 80029c6:	6863      	ldr	r3, [r4, #4]
 80029c8:	681a      	ldr	r2, [r3, #0]
 80029ca:	f022 0240 	bic.w	r2, r2, #64	; 0x40
 80029ce:	601a      	str	r2, [r3, #0]
 80029d0:	681a      	ldr	r2, [r3, #0]
 80029d2:	f022 0201 	bic.w	r2, r2, #1
 80029d6:	601a      	str	r2, [r3, #0]
 80029d8:	f894 30a7 	ldrb.w	r3, [r4, #167]	; 0xa7
 80029dc:	b93b      	cbnz	r3, 80029ee <CAN_NODE_Init+0x12a>
 80029de:	6830      	ldr	r0, [r6, #0]
 80029e0:	7931      	ldrb	r1, [r6, #4]
 80029e2:	f8d4 2094 	ldr.w	r2, [r4, #148]	; 0x94
 80029e6:	f7fd fcc1 	bl	800036c <XMC_GPIO_Init>
 80029ea:	e000      	b.n	80029ee <CAN_NODE_Init+0x12a>
 80029ec:	2501      	movs	r5, #1
 80029ee:	4628      	mov	r0, r5
 80029f0:	e8bd 83f8 	ldmia.w	sp!, {r3, r4, r5, r6, r7, r8, r9, pc}

080029f4 <ANALOG_IO_Init>:
 80029f4:	6843      	ldr	r3, [r0, #4]
 80029f6:	781b      	ldrb	r3, [r3, #0]
 80029f8:	b510      	push	{r4, lr}
 80029fa:	4604      	mov	r4, r0
 80029fc:	b92b      	cbnz	r3, 8002a0a <ANALOG_IO_Init+0x16>
 80029fe:	6803      	ldr	r3, [r0, #0]
 8002a00:	b103      	cbz	r3, 8002a04 <ANALOG_IO_Init+0x10>
 8002a02:	4798      	blx	r3
 8002a04:	6863      	ldr	r3, [r4, #4]
 8002a06:	2201      	movs	r2, #1
 8002a08:	701a      	strb	r2, [r3, #0]
 8002a0a:	2000      	movs	r0, #0
 8002a0c:	bd10      	pop	{r4, pc}
	...

08002a10 <ADC_MEASUREMENT_Init>:
 8002a10:	b5f8      	push	{r3, r4, r5, r6, r7, lr}
 8002a12:	7e03      	ldrb	r3, [r0, #24]
 8002a14:	2b02      	cmp	r3, #2
 8002a16:	4604      	mov	r4, r0
 8002a18:	f040 8095 	bne.w	8002b46 <ADC_MEASUREMENT_Init+0x136>
 8002a1c:	68c0      	ldr	r0, [r0, #12]
 8002a1e:	f7fe fb32 	bl	8001086 <GLOBAL_ADC_Init>
 8002a22:	68e2      	ldr	r2, [r4, #12]
 8002a24:	68a3      	ldr	r3, [r4, #8]
 8002a26:	4605      	mov	r5, r0
 8002a28:	6950      	ldr	r0, [r2, #20]
 8002a2a:	6819      	ldr	r1, [r3, #0]
 8002a2c:	2200      	movs	r2, #0
 8002a2e:	4613      	mov	r3, r2
 8002a30:	f7fe f954 	bl	8000cdc <XMC_VADC_GLOBAL_InputClassInit>
 8002a34:	68e3      	ldr	r3, [r4, #12]
 8002a36:	6861      	ldr	r1, [r4, #4]
 8002a38:	6958      	ldr	r0, [r3, #20]
 8002a3a:	f7fe f9f1 	bl	8000e20 <XMC_VADC_GLOBAL_BackgroundInit>
 8002a3e:	2700      	movs	r7, #0
 8002a40:	6823      	ldr	r3, [r4, #0]
 8002a42:	f853 6027 	ldr.w	r6, [r3, r7, lsl #2]
 8002a46:	68b0      	ldr	r0, [r6, #8]
 8002a48:	7c71      	ldrb	r1, [r6, #17]
 8002a4a:	6832      	ldr	r2, [r6, #0]
 8002a4c:	f7fe fa4e 	bl	8000eec <XMC_VADC_GROUP_ChannelInit>
 8002a50:	6833      	ldr	r3, [r6, #0]
 8002a52:	6871      	ldr	r1, [r6, #4]
 8002a54:	789b      	ldrb	r3, [r3, #2]
 8002a56:	68b2      	ldr	r2, [r6, #8]
 8002a58:	6809      	ldr	r1, [r1, #0]
 8002a5a:	f003 030f 	and.w	r3, r3, #15
 8002a5e:	33a0      	adds	r3, #160	; 0xa0
 8002a60:	f842 1023 	str.w	r1, [r2, r3, lsl #2]
 8002a64:	68e3      	ldr	r3, [r4, #12]
 8002a66:	7c32      	ldrb	r2, [r6, #16]
 8002a68:	695b      	ldr	r3, [r3, #20]
 8002a6a:	7c70      	ldrb	r0, [r6, #17]
 8002a6c:	eb03 0382 	add.w	r3, r3, r2, lsl #2
 8002a70:	2201      	movs	r2, #1
 8002a72:	f8d3 1180 	ldr.w	r1, [r3, #384]	; 0x180
 8002a76:	4082      	lsls	r2, r0
 8002a78:	68f0      	ldr	r0, [r6, #12]
 8002a7a:	430a      	orrs	r2, r1
 8002a7c:	f8c3 2180 	str.w	r2, [r3, #384]	; 0x180
 8002a80:	b118      	cbz	r0, 8002a8a <ADC_MEASUREMENT_Init+0x7a>
 8002a82:	f7ff ffb7 	bl	80029f4 <ANALOG_IO_Init>
 8002a86:	4328      	orrs	r0, r5
 8002a88:	b2c5      	uxtb	r5, r0
 8002a8a:	3701      	adds	r7, #1
 8002a8c:	2f10      	cmp	r7, #16
 8002a8e:	d1d7      	bne.n	8002a40 <ADC_MEASUREMENT_Init+0x30>
 8002a90:	6863      	ldr	r3, [r4, #4]
 8002a92:	7a1b      	ldrb	r3, [r3, #8]
 8002a94:	071b      	lsls	r3, r3, #28
 8002a96:	d548      	bpl.n	8002b2a <ADC_MEASUREMENT_Init+0x11a>
 8002a98:	6923      	ldr	r3, [r4, #16]
 8002a9a:	2b00      	cmp	r3, #0
 8002a9c:	d045      	beq.n	8002b2a <ADC_MEASUREMENT_Init+0x11a>
 8002a9e:	4a2b      	ldr	r2, [pc, #172]	; (8002b4c <ADC_MEASUREMENT_Init+0x13c>)
 8002aa0:	681e      	ldr	r6, [r3, #0]
 8002aa2:	68d1      	ldr	r1, [r2, #12]
 8002aa4:	685a      	ldr	r2, [r3, #4]
 8002aa6:	689b      	ldr	r3, [r3, #8]
 8002aa8:	f3c1 2102 	ubfx	r1, r1, #8, #3
 8002aac:	f1c1 0c07 	rsb	ip, r1, #7
 8002ab0:	f1bc 0f06 	cmp.w	ip, #6
 8002ab4:	b2f7      	uxtb	r7, r6
 8002ab6:	bf28      	it	cs
 8002ab8:	f04f 0c06 	movcs.w	ip, #6
 8002abc:	b109      	cbz	r1, 8002ac2 <ADC_MEASUREMENT_Init+0xb2>
 8002abe:	1e48      	subs	r0, r1, #1
 8002ac0:	e000      	b.n	8002ac4 <ADC_MEASUREMENT_Init+0xb4>
 8002ac2:	4608      	mov	r0, r1
 8002ac4:	2101      	movs	r1, #1
 8002ac6:	fa01 fe00 	lsl.w	lr, r1, r0
 8002aca:	f10e 3eff 	add.w	lr, lr, #4294967295
 8002ace:	fa01 f10c 	lsl.w	r1, r1, ip
 8002ad2:	ea0e 0e03 	and.w	lr, lr, r3
 8002ad6:	1e4b      	subs	r3, r1, #1
 8002ad8:	4013      	ands	r3, r2
 8002ada:	4083      	lsls	r3, r0
 8002adc:	b27a      	sxtb	r2, r7
 8002ade:	2a00      	cmp	r2, #0
 8002ae0:	ea4e 0303 	orr.w	r3, lr, r3
 8002ae4:	ea4f 0383 	mov.w	r3, r3, lsl #2
 8002ae8:	bfad      	iteet	ge
 8002aea:	f102 4260 	addge.w	r2, r2, #3758096384	; 0xe0000000
 8002aee:	4a18      	ldrlt	r2, [pc, #96]	; (8002b50 <ADC_MEASUREMENT_Init+0x140>)
 8002af0:	f006 060f 	andlt.w	r6, r6, #15
 8002af4:	f502 4261 	addge.w	r2, r2, #57600	; 0xe100
 8002af8:	bfb9      	ittee	lt
 8002afa:	b2db      	uxtblt	r3, r3
 8002afc:	5593      	strblt	r3, [r2, r6]
 8002afe:	b2db      	uxtbge	r3, r3
 8002b00:	f882 3300 	strbge.w	r3, [r2, #768]	; 0x300
 8002b04:	68e3      	ldr	r3, [r4, #12]
 8002b06:	7e61      	ldrb	r1, [r4, #25]
 8002b08:	6958      	ldr	r0, [r3, #20]
 8002b0a:	f7fe f90f 	bl	8000d2c <XMC_VADC_GLOBAL_BackgroundSetReqSrcEventInterruptNode>
 8002b0e:	6923      	ldr	r3, [r4, #16]
 8002b10:	681a      	ldr	r2, [r3, #0]
 8002b12:	b253      	sxtb	r3, r2
 8002b14:	2b00      	cmp	r3, #0
 8002b16:	db08      	blt.n	8002b2a <ADC_MEASUREMENT_Init+0x11a>
 8002b18:	2101      	movs	r1, #1
 8002b1a:	f002 021f 	and.w	r2, r2, #31
 8002b1e:	fa01 f202 	lsl.w	r2, r1, r2
 8002b22:	095b      	lsrs	r3, r3, #5
 8002b24:	490b      	ldr	r1, [pc, #44]	; (8002b54 <ADC_MEASUREMENT_Init+0x144>)
 8002b26:	f841 2023 	str.w	r2, [r1, r3, lsl #2]
 8002b2a:	6963      	ldr	r3, [r4, #20]
 8002b2c:	b103      	cbz	r3, 8002b30 <ADC_MEASUREMENT_Init+0x120>
 8002b2e:	4798      	blx	r3
 8002b30:	7ea3      	ldrb	r3, [r4, #26]
 8002b32:	b13b      	cbz	r3, 8002b44 <ADC_MEASUREMENT_Init+0x134>
 8002b34:	68e3      	ldr	r3, [r4, #12]
 8002b36:	695a      	ldr	r2, [r3, #20]
 8002b38:	f8d2 3204 	ldr.w	r3, [r2, #516]	; 0x204
 8002b3c:	f443 7300 	orr.w	r3, r3, #512	; 0x200
 8002b40:	f8c2 3204 	str.w	r3, [r2, #516]	; 0x204
 8002b44:	7625      	strb	r5, [r4, #24]
 8002b46:	7e20      	ldrb	r0, [r4, #24]
 8002b48:	bdf8      	pop	{r3, r4, r5, r6, r7, pc}
 8002b4a:	bf00      	nop
 8002b4c:	e000ed00 	.word	0xe000ed00
 8002b50:	e000ed14 	.word	0xe000ed14
 8002b54:	e000e100 	.word	0xe000e100

08002b58 <ADC_MEASUREMENT_GetResult>:
 8002b58:	6803      	ldr	r3, [r0, #0]
 8002b5a:	6882      	ldr	r2, [r0, #8]
 8002b5c:	789b      	ldrb	r3, [r3, #2]
 8002b5e:	f003 030f 	and.w	r3, r3, #15
 8002b62:	33c0      	adds	r3, #192	; 0xc0
 8002b64:	f852 0023 	ldr.w	r0, [r2, r3, lsl #2]
 8002b68:	b280      	uxth	r0, r0
 8002b6a:	4770      	bx	lr

08002b6c <DAVE_Init>:
 8002b6c:	b508      	push	{r3, lr}
 8002b6e:	4813      	ldr	r0, [pc, #76]	; (8002bbc <DAVE_Init+0x50>)
 8002b70:	f7ff fe48 	bl	8002804 <CLOCK_XMC4_Init>
 8002b74:	bb00      	cbnz	r0, 8002bb8 <DAVE_Init+0x4c>
 8002b76:	4812      	ldr	r0, [pc, #72]	; (8002bc0 <DAVE_Init+0x54>)
 8002b78:	f7ff ff4a 	bl	8002a10 <ADC_MEASUREMENT_Init>
 8002b7c:	b9e0      	cbnz	r0, 8002bb8 <DAVE_Init+0x4c>
 8002b7e:	4811      	ldr	r0, [pc, #68]	; (8002bc4 <DAVE_Init+0x58>)
 8002b80:	f7fe fa5b 	bl	800103a <TIMER_Init>
 8002b84:	b9c0      	cbnz	r0, 8002bb8 <DAVE_Init+0x4c>
 8002b86:	4810      	ldr	r0, [pc, #64]	; (8002bc8 <DAVE_Init+0x5c>)
 8002b88:	f7ff fe9c 	bl	80028c4 <CAN_NODE_Init>
 8002b8c:	b9a0      	cbnz	r0, 8002bb8 <DAVE_Init+0x4c>
 8002b8e:	480f      	ldr	r0, [pc, #60]	; (8002bcc <DAVE_Init+0x60>)
 8002b90:	f7ff fdee 	bl	8002770 <DIGITAL_IO_Init>
 8002b94:	b980      	cbnz	r0, 8002bb8 <DAVE_Init+0x4c>
 8002b96:	480e      	ldr	r0, [pc, #56]	; (8002bd0 <DAVE_Init+0x64>)
 8002b98:	f7ff fdea 	bl	8002770 <DIGITAL_IO_Init>
 8002b9c:	b960      	cbnz	r0, 8002bb8 <DAVE_Init+0x4c>
 8002b9e:	480d      	ldr	r0, [pc, #52]	; (8002bd4 <DAVE_Init+0x68>)
 8002ba0:	f7ff fde6 	bl	8002770 <DIGITAL_IO_Init>
 8002ba4:	b940      	cbnz	r0, 8002bb8 <DAVE_Init+0x4c>
 8002ba6:	480c      	ldr	r0, [pc, #48]	; (8002bd8 <DAVE_Init+0x6c>)
 8002ba8:	f7ff fe8c 	bl	80028c4 <CAN_NODE_Init>
 8002bac:	b920      	cbnz	r0, 8002bb8 <DAVE_Init+0x4c>
 8002bae:	480b      	ldr	r0, [pc, #44]	; (8002bdc <DAVE_Init+0x70>)
 8002bb0:	e8bd 4008 	ldmia.w	sp!, {r3, lr}
 8002bb4:	f7ff bddc 	b.w	8002770 <DIGITAL_IO_Init>
 8002bb8:	bd08      	pop	{r3, pc}
 8002bba:	bf00      	nop
 8002bbc:	2000052c 	.word	0x2000052c
 8002bc0:	200002c0 	.word	0x200002c0
 8002bc4:	20000000 	.word	0x20000000
 8002bc8:	08004180 	.word	0x08004180
 8002bcc:	08004020 	.word	0x08004020
 8002bd0:	08004034 	.word	0x08004034
 8002bd4:	0800400c 	.word	0x0800400c
 8002bd8:	080040a8 	.word	0x080040a8
 8002bdc:	08004048 	.word	0x08004048

08002be0 <ANA_Init>:
 8002be0:	e92d 43f8 	stmdb	sp!, {r3, r4, r5, r6, r7, r8, r9, lr}
 8002be4:	4b55      	ldr	r3, [pc, #340]	; (8002d3c <ANA_Init+0x15c>)
 8002be6:	4a56      	ldr	r2, [pc, #344]	; (8002d40 <ANA_Init+0x160>)
 8002be8:	61da      	str	r2, [r3, #28]
 8002bea:	2400      	movs	r4, #0
 8002bec:	2502      	movs	r5, #2
 8002bee:	2605      	movs	r6, #5
 8002bf0:	f883 5020 	strb.w	r5, [r3, #32]
 8002bf4:	f883 4021 	strb.w	r4, [r3, #33]	; 0x21
 8002bf8:	f883 6028 	strb.w	r6, [r3, #40]	; 0x28
 8002bfc:	4b51      	ldr	r3, [pc, #324]	; (8002d44 <ANA_Init+0x164>)
 8002bfe:	4a52      	ldr	r2, [pc, #328]	; (8002d48 <ANA_Init+0x168>)
 8002c00:	61da      	str	r2, [r3, #28]
 8002c02:	f883 5020 	strb.w	r5, [r3, #32]
 8002c06:	f883 4021 	strb.w	r4, [r3, #33]	; 0x21
 8002c0a:	f883 6028 	strb.w	r6, [r3, #40]	; 0x28
 8002c0e:	4b4f      	ldr	r3, [pc, #316]	; (8002d4c <ANA_Init+0x16c>)
 8002c10:	4a4f      	ldr	r2, [pc, #316]	; (8002d50 <ANA_Init+0x170>)
 8002c12:	61da      	str	r2, [r3, #28]
 8002c14:	2103      	movs	r1, #3
 8002c16:	4a4f      	ldr	r2, [pc, #316]	; (8002d54 <ANA_Init+0x174>)
 8002c18:	625a      	str	r2, [r3, #36]	; 0x24
 8002c1a:	f883 1020 	strb.w	r1, [r3, #32]
 8002c1e:	f883 4021 	strb.w	r4, [r3, #33]	; 0x21
 8002c22:	f883 6028 	strb.w	r6, [r3, #40]	; 0x28
 8002c26:	4b4c      	ldr	r3, [pc, #304]	; (8002d58 <ANA_Init+0x178>)
 8002c28:	484c      	ldr	r0, [pc, #304]	; (8002d5c <ANA_Init+0x17c>)
 8002c2a:	61d8      	str	r0, [r3, #28]
 8002c2c:	484c      	ldr	r0, [pc, #304]	; (8002d60 <ANA_Init+0x180>)
 8002c2e:	625a      	str	r2, [r3, #36]	; 0x24
 8002c30:	2701      	movs	r7, #1
 8002c32:	f883 1020 	strb.w	r1, [r3, #32]
 8002c36:	f8df 9188 	ldr.w	r9, [pc, #392]	; 8002dc0 <ANA_Init+0x1e0>
 8002c3a:	f883 4021 	strb.w	r4, [r3, #33]	; 0x21
 8002c3e:	f04f 080c 	mov.w	r8, #12
 8002c42:	f883 6028 	strb.w	r6, [r3, #40]	; 0x28
 8002c46:	4b47      	ldr	r3, [pc, #284]	; (8002d64 <ANA_Init+0x184>)
 8002c48:	61c3      	str	r3, [r0, #28]
 8002c4a:	f8c0 9024 	str.w	r9, [r0, #36]	; 0x24
 8002c4e:	f880 8028 	strb.w	r8, [r0, #40]	; 0x28
 8002c52:	f880 4020 	strb.w	r4, [r0, #32]
 8002c56:	f880 7021 	strb.w	r7, [r0, #33]	; 0x21
 8002c5a:	f000 fa7d 	bl	8003158 <Powercycle_Calibration>
 8002c5e:	4842      	ldr	r0, [pc, #264]	; (8002d68 <ANA_Init+0x188>)
 8002c60:	4b42      	ldr	r3, [pc, #264]	; (8002d6c <ANA_Init+0x18c>)
 8002c62:	61c3      	str	r3, [r0, #28]
 8002c64:	f8c0 9024 	str.w	r9, [r0, #36]	; 0x24
 8002c68:	f880 8028 	strb.w	r8, [r0, #40]	; 0x28
 8002c6c:	f880 4020 	strb.w	r4, [r0, #32]
 8002c70:	f880 7021 	strb.w	r7, [r0, #33]	; 0x21
 8002c74:	f000 fa70 	bl	8003158 <Powercycle_Calibration>
 8002c78:	483d      	ldr	r0, [pc, #244]	; (8002d70 <ANA_Init+0x190>)
 8002c7a:	4b3e      	ldr	r3, [pc, #248]	; (8002d74 <ANA_Init+0x194>)
 8002c7c:	f8df 9144 	ldr.w	r9, [pc, #324]	; 8002dc4 <ANA_Init+0x1e4>
 8002c80:	61c3      	str	r3, [r0, #28]
 8002c82:	f04f 080a 	mov.w	r8, #10
 8002c86:	f880 7020 	strb.w	r7, [r0, #32]
 8002c8a:	f880 7021 	strb.w	r7, [r0, #33]	; 0x21
 8002c8e:	f8c0 9024 	str.w	r9, [r0, #36]	; 0x24
 8002c92:	f880 8028 	strb.w	r8, [r0, #40]	; 0x28
 8002c96:	f000 fa5f 	bl	8003158 <Powercycle_Calibration>
 8002c9a:	4837      	ldr	r0, [pc, #220]	; (8002d78 <ANA_Init+0x198>)
 8002c9c:	4b37      	ldr	r3, [pc, #220]	; (8002d7c <ANA_Init+0x19c>)
 8002c9e:	61c3      	str	r3, [r0, #28]
 8002ca0:	f880 7020 	strb.w	r7, [r0, #32]
 8002ca4:	f880 7021 	strb.w	r7, [r0, #33]	; 0x21
 8002ca8:	f8c0 9024 	str.w	r9, [r0, #36]	; 0x24
 8002cac:	f880 8028 	strb.w	r8, [r0, #40]	; 0x28
 8002cb0:	f000 fa52 	bl	8003158 <Powercycle_Calibration>
 8002cb4:	4b32      	ldr	r3, [pc, #200]	; (8002d80 <ANA_Init+0x1a0>)
 8002cb6:	4a33      	ldr	r2, [pc, #204]	; (8002d84 <ANA_Init+0x1a4>)
 8002cb8:	61da      	str	r2, [r3, #28]
 8002cba:	2204      	movs	r2, #4
 8002cbc:	f883 2020 	strb.w	r2, [r3, #32]
 8002cc0:	f883 7021 	strb.w	r7, [r3, #33]	; 0x21
 8002cc4:	f883 6028 	strb.w	r6, [r3, #40]	; 0x28
 8002cc8:	4b2f      	ldr	r3, [pc, #188]	; (8002d88 <ANA_Init+0x1a8>)
 8002cca:	4a30      	ldr	r2, [pc, #192]	; (8002d8c <ANA_Init+0x1ac>)
 8002ccc:	61da      	str	r2, [r3, #28]
 8002cce:	f883 6020 	strb.w	r6, [r3, #32]
 8002cd2:	f883 7021 	strb.w	r7, [r3, #33]	; 0x21
 8002cd6:	f883 6028 	strb.w	r6, [r3, #40]	; 0x28
 8002cda:	4b2d      	ldr	r3, [pc, #180]	; (8002d90 <ANA_Init+0x1b0>)
 8002cdc:	4a2d      	ldr	r2, [pc, #180]	; (8002d94 <ANA_Init+0x1b4>)
 8002cde:	61da      	str	r2, [r3, #28]
 8002ce0:	2206      	movs	r2, #6
 8002ce2:	f883 2020 	strb.w	r2, [r3, #32]
 8002ce6:	f883 5021 	strb.w	r5, [r3, #33]	; 0x21
 8002cea:	f883 6028 	strb.w	r6, [r3, #40]	; 0x28
 8002cee:	4b2a      	ldr	r3, [pc, #168]	; (8002d98 <ANA_Init+0x1b8>)
 8002cf0:	4a2a      	ldr	r2, [pc, #168]	; (8002d9c <ANA_Init+0x1bc>)
 8002cf2:	61da      	str	r2, [r3, #28]
 8002cf4:	2207      	movs	r2, #7
 8002cf6:	f883 2020 	strb.w	r2, [r3, #32]
 8002cfa:	f883 5021 	strb.w	r5, [r3, #33]	; 0x21
 8002cfe:	4b28      	ldr	r3, [pc, #160]	; (8002da0 <ANA_Init+0x1c0>)
 8002d00:	4a28      	ldr	r2, [pc, #160]	; (8002da4 <ANA_Init+0x1c4>)
 8002d02:	61da      	str	r2, [r3, #28]
 8002d04:	f883 4020 	strb.w	r4, [r3, #32]
 8002d08:	f883 5021 	strb.w	r5, [r3, #33]	; 0x21
 8002d0c:	4b26      	ldr	r3, [pc, #152]	; (8002da8 <ANA_Init+0x1c8>)
 8002d0e:	4a27      	ldr	r2, [pc, #156]	; (8002dac <ANA_Init+0x1cc>)
 8002d10:	61da      	str	r2, [r3, #28]
 8002d12:	f883 4020 	strb.w	r4, [r3, #32]
 8002d16:	f883 5021 	strb.w	r5, [r3, #33]	; 0x21
 8002d1a:	4b25      	ldr	r3, [pc, #148]	; (8002db0 <ANA_Init+0x1d0>)
 8002d1c:	4a25      	ldr	r2, [pc, #148]	; (8002db4 <ANA_Init+0x1d4>)
 8002d1e:	61da      	str	r2, [r3, #28]
 8002d20:	f883 4020 	strb.w	r4, [r3, #32]
 8002d24:	f883 5021 	strb.w	r5, [r3, #33]	; 0x21
 8002d28:	4b23      	ldr	r3, [pc, #140]	; (8002db8 <ANA_Init+0x1d8>)
 8002d2a:	4a24      	ldr	r2, [pc, #144]	; (8002dbc <ANA_Init+0x1dc>)
 8002d2c:	f883 5020 	strb.w	r5, [r3, #32]
 8002d30:	f883 4021 	strb.w	r4, [r3, #33]	; 0x21
 8002d34:	61da      	str	r2, [r3, #28]
 8002d36:	e8bd 83f8 	ldmia.w	sp!, {r3, r4, r5, r6, r7, r8, r9, pc}
 8002d3a:	bf00      	nop
 8002d3c:	200007c0 	.word	0x200007c0
 8002d40:	200002fc 	.word	0x200002fc
 8002d44:	20000818 	.word	0x20000818
 8002d48:	200002ac 	.word	0x200002ac
 8002d4c:	2000070c 	.word	0x2000070c
 8002d50:	2000022c 	.word	0x2000022c
 8002d54:	400e147b 	.word	0x400e147b
 8002d58:	200006b4 	.word	0x200006b4
 8002d5c:	200001d8 	.word	0x200001d8
 8002d60:	20000844 	.word	0x20000844
 8002d64:	20000330 	.word	0x20000330
 8002d68:	2000065c 	.word	0x2000065c
 8002d6c:	20000240 	.word	0x20000240
 8002d70:	20000630 	.word	0x20000630
 8002d74:	200002e8 	.word	0x200002e8
 8002d78:	20000604 	.word	0x20000604
 8002d7c:	20000278 	.word	0x20000278
 8002d80:	200005d8 	.word	0x200005d8
 8002d84:	200001ec 	.word	0x200001ec
 8002d88:	200006e0 	.word	0x200006e0
 8002d8c:	2000018c 	.word	0x2000018c
 8002d90:	20000688 	.word	0x20000688
 8002d94:	2000031c 	.word	0x2000031c
 8002d98:	200007ec 	.word	0x200007ec
 8002d9c:	2000028c 	.word	0x2000028c
 8002da0:	20000768 	.word	0x20000768
 8002da4:	2000020c 	.word	0x2000020c
 8002da8:	20000738 	.word	0x20000738
 8002dac:	200001c4 	.word	0x200001c4
 8002db0:	20000870 	.word	0x20000870
 8002db4:	2000012c 	.word	0x2000012c
 8002db8:	20000794 	.word	0x20000794
 8002dbc:	20000344 	.word	0x20000344
 8002dc0:	3c07fcb9 	.word	0x3c07fcb9
 8002dc4:	3d0f5c29 	.word	0x3d0f5c29

08002dc8 <ANA_Read>:
 8002dc8:	b510      	push	{r4, lr}
 8002dca:	f890 3020 	ldrb.w	r3, [r0, #32]
 8002dce:	2b01      	cmp	r3, #1
 8002dd0:	4604      	mov	r4, r0
 8002dd2:	d804      	bhi.n	8002dde <ANA_Read+0x16>
 8002dd4:	69e0      	ldr	r0, [r4, #28]
 8002dd6:	f7ff febf 	bl	8002b58 <ADC_MEASUREMENT_GetResult>
 8002dda:	8020      	strh	r0, [r4, #0]
 8002ddc:	e008      	b.n	8002df0 <ANA_Read+0x28>
 8002dde:	1eda      	subs	r2, r3, #3
 8002de0:	2a02      	cmp	r2, #2
 8002de2:	d9f7      	bls.n	8002dd4 <ANA_Read+0xc>
 8002de4:	f003 02fb 	and.w	r2, r3, #251	; 0xfb
 8002de8:	2a02      	cmp	r2, #2
 8002dea:	d0f3      	beq.n	8002dd4 <ANA_Read+0xc>
 8002dec:	2b07      	cmp	r3, #7
 8002dee:	d0f1      	beq.n	8002dd4 <ANA_Read+0xc>
 8002df0:	f894 3021 	ldrb.w	r3, [r4, #33]	; 0x21
 8002df4:	b91b      	cbnz	r3, 8002dfe <ANA_Read+0x36>
 8002df6:	4620      	mov	r0, r4
 8002df8:	f000 f882 	bl	8002f00 <Average_Filter>
 8002dfc:	e00e      	b.n	8002e1c <ANA_Read+0x54>
 8002dfe:	2b01      	cmp	r3, #1
 8002e00:	d103      	bne.n	8002e0a <ANA_Read+0x42>
 8002e02:	4620      	mov	r0, r4
 8002e04:	f000 f97c 	bl	8003100 <Low_Pass_Filter>
 8002e08:	e008      	b.n	8002e1c <ANA_Read+0x54>
 8002e0a:	2b02      	cmp	r3, #2
 8002e0c:	bf01      	itttt	eq
 8002e0e:	8823      	ldrheq	r3, [r4, #0]
 8002e10:	ee07 3a90 	vmoveq	s15, r3
 8002e14:	eef8 7a67 	vcvteq.f32.u32	s15, s15
 8002e18:	edc4 7a01 	vstreq	s15, [r4, #4]
 8002e1c:	4620      	mov	r0, r4
 8002e1e:	e8bd 4010 	ldmia.w	sp!, {r4, lr}
 8002e22:	f000 b9a9 	b.w	8003178 <UnitConversion>
	...

08002e28 <Filter_Time>:
 8002e28:	b508      	push	{r3, lr}
 8002e2a:	480a      	ldr	r0, [pc, #40]	; (8002e54 <Filter_Time+0x2c>)
 8002e2c:	f7fe f8b6 	bl	8000f9c <TIMER_GetTime>
 8002e30:	4b09      	ldr	r3, [pc, #36]	; (8002e58 <Filter_Time+0x30>)
 8002e32:	6018      	str	r0, [r3, #0]
 8002e34:	b160      	cbz	r0, 8002e50 <Filter_Time+0x28>
 8002e36:	4a09      	ldr	r2, [pc, #36]	; (8002e5c <Filter_Time+0x34>)
 8002e38:	4806      	ldr	r0, [pc, #24]	; (8002e54 <Filter_Time+0x2c>)
 8002e3a:	7813      	ldrb	r3, [r2, #0]
 8002e3c:	3301      	adds	r3, #1
 8002e3e:	b2db      	uxtb	r3, r3
 8002e40:	2b04      	cmp	r3, #4
 8002e42:	bf08      	it	eq
 8002e44:	2300      	moveq	r3, #0
 8002e46:	7013      	strb	r3, [r2, #0]
 8002e48:	e8bd 4008 	ldmia.w	sp!, {r3, lr}
 8002e4c:	f7fe b8be 	b.w	8000fcc <TIMER_Clear>
 8002e50:	bd08      	pop	{r3, pc}
 8002e52:	bf00      	nop
 8002e54:	20000000 	.word	0x20000000
 8002e58:	20000764 	.word	0x20000764
 8002e5c:	200008a6 	.word	0x200008a6

08002e60 <Task_ANA_Read>:
 8002e60:	b508      	push	{r3, lr}
 8002e62:	4818      	ldr	r0, [pc, #96]	; (8002ec4 <Task_ANA_Read+0x64>)
 8002e64:	f7ff ffb0 	bl	8002dc8 <ANA_Read>
 8002e68:	4817      	ldr	r0, [pc, #92]	; (8002ec8 <Task_ANA_Read+0x68>)
 8002e6a:	f7ff ffad 	bl	8002dc8 <ANA_Read>
 8002e6e:	4817      	ldr	r0, [pc, #92]	; (8002ecc <Task_ANA_Read+0x6c>)
 8002e70:	f7ff ffaa 	bl	8002dc8 <ANA_Read>
 8002e74:	4816      	ldr	r0, [pc, #88]	; (8002ed0 <Task_ANA_Read+0x70>)
 8002e76:	f7ff ffa7 	bl	8002dc8 <ANA_Read>
 8002e7a:	4816      	ldr	r0, [pc, #88]	; (8002ed4 <Task_ANA_Read+0x74>)
 8002e7c:	f7ff ffa4 	bl	8002dc8 <ANA_Read>
 8002e80:	4815      	ldr	r0, [pc, #84]	; (8002ed8 <Task_ANA_Read+0x78>)
 8002e82:	f7ff ffa1 	bl	8002dc8 <ANA_Read>
 8002e86:	4815      	ldr	r0, [pc, #84]	; (8002edc <Task_ANA_Read+0x7c>)
 8002e88:	f7ff ff9e 	bl	8002dc8 <ANA_Read>
 8002e8c:	4814      	ldr	r0, [pc, #80]	; (8002ee0 <Task_ANA_Read+0x80>)
 8002e8e:	f7ff ff9b 	bl	8002dc8 <ANA_Read>
 8002e92:	4814      	ldr	r0, [pc, #80]	; (8002ee4 <Task_ANA_Read+0x84>)
 8002e94:	f7ff ff98 	bl	8002dc8 <ANA_Read>
 8002e98:	4813      	ldr	r0, [pc, #76]	; (8002ee8 <Task_ANA_Read+0x88>)
 8002e9a:	f7ff ff95 	bl	8002dc8 <ANA_Read>
 8002e9e:	4813      	ldr	r0, [pc, #76]	; (8002eec <Task_ANA_Read+0x8c>)
 8002ea0:	f7ff ff92 	bl	8002dc8 <ANA_Read>
 8002ea4:	4812      	ldr	r0, [pc, #72]	; (8002ef0 <Task_ANA_Read+0x90>)
 8002ea6:	f7ff ff8f 	bl	8002dc8 <ANA_Read>
 8002eaa:	4812      	ldr	r0, [pc, #72]	; (8002ef4 <Task_ANA_Read+0x94>)
 8002eac:	f7ff ff8c 	bl	8002dc8 <ANA_Read>
 8002eb0:	4811      	ldr	r0, [pc, #68]	; (8002ef8 <Task_ANA_Read+0x98>)
 8002eb2:	f7ff ff89 	bl	8002dc8 <ANA_Read>
 8002eb6:	4811      	ldr	r0, [pc, #68]	; (8002efc <Task_ANA_Read+0x9c>)
 8002eb8:	f7ff ff86 	bl	8002dc8 <ANA_Read>
 8002ebc:	f7ff ffb4 	bl	8002e28 <Filter_Time>
 8002ec0:	e7cf      	b.n	8002e62 <Task_ANA_Read+0x2>
 8002ec2:	bf00      	nop
 8002ec4:	200007c0 	.word	0x200007c0
 8002ec8:	20000818 	.word	0x20000818
 8002ecc:	20000688 	.word	0x20000688
 8002ed0:	2000070c 	.word	0x2000070c
 8002ed4:	200006b4 	.word	0x200006b4
 8002ed8:	20000844 	.word	0x20000844
 8002edc:	2000065c 	.word	0x2000065c
 8002ee0:	20000630 	.word	0x20000630
 8002ee4:	20000604 	.word	0x20000604
 8002ee8:	200005d8 	.word	0x200005d8
 8002eec:	200006e0 	.word	0x200006e0
 8002ef0:	200007ec 	.word	0x200007ec
 8002ef4:	20000768 	.word	0x20000768
 8002ef8:	20000738 	.word	0x20000738
 8002efc:	20000870 	.word	0x20000870

08002f00 <Average_Filter>:
 8002f00:	4b0e      	ldr	r3, [pc, #56]	; (8002f3c <Average_Filter+0x3c>)
 8002f02:	8802      	ldrh	r2, [r0, #0]
 8002f04:	781b      	ldrb	r3, [r3, #0]
 8002f06:	edd0 7a01 	vldr	s15, [r0, #4]
 8002f0a:	eb00 0343 	add.w	r3, r0, r3, lsl #1
 8002f0e:	819a      	strh	r2, [r3, #12]
 8002f10:	f100 030a 	add.w	r3, r0, #10
 8002f14:	f100 0214 	add.w	r2, r0, #20
 8002f18:	f833 1f02 	ldrh.w	r1, [r3, #2]!
 8002f1c:	ee07 1a10 	vmov	s14, r1
 8002f20:	eeb8 7ac7 	vcvt.f32.s32	s14, s14
 8002f24:	4293      	cmp	r3, r2
 8002f26:	ee77 7a87 	vadd.f32	s15, s15, s14
 8002f2a:	d1f5      	bne.n	8002f18 <Average_Filter+0x18>
 8002f2c:	eeb1 7a04 	vmov.f32	s14, #20
 8002f30:	eec7 7a87 	vdiv.f32	s15, s15, s14
 8002f34:	edc0 7a01 	vstr	s15, [r0, #4]
 8002f38:	4770      	bx	lr
 8002f3a:	bf00      	nop
 8002f3c:	200008a6 	.word	0x200008a6

08002f40 <CAN1_INIT>:
 8002f40:	4b03      	ldr	r3, [pc, #12]	; (8002f50 <CAN1_INIT+0x10>)
 8002f42:	7c19      	ldrb	r1, [r3, #16]
 8002f44:	681a      	ldr	r2, [r3, #0]
 8002f46:	2301      	movs	r3, #1
 8002f48:	408b      	lsls	r3, r1
 8002f4a:	6053      	str	r3, [r2, #4]
 8002f4c:	4770      	bx	lr
 8002f4e:	bf00      	nop
 8002f50:	0800400c 	.word	0x0800400c

08002f54 <Task_CAN_1_Transmit>:
 8002f54:	b580      	push	{r7, lr}
 8002f56:	4b22      	ldr	r3, [pc, #136]	; (8002fe0 <Task_CAN_1_Transmit+0x8c>)
 8002f58:	4922      	ldr	r1, [pc, #136]	; (8002fe4 <Task_CAN_1_Transmit+0x90>)
 8002f5a:	7d98      	ldrb	r0, [r3, #22]
 8002f5c:	7618      	strb	r0, [r3, #24]
 8002f5e:	4b22      	ldr	r3, [pc, #136]	; (8002fe8 <Task_CAN_1_Transmit+0x94>)
 8002f60:	7d9d      	ldrb	r5, [r3, #22]
 8002f62:	761d      	strb	r5, [r3, #24]
 8002f64:	4b21      	ldr	r3, [pc, #132]	; (8002fec <Task_CAN_1_Transmit+0x98>)
 8002f66:	7d9a      	ldrb	r2, [r3, #22]
 8002f68:	761a      	strb	r2, [r3, #24]
 8002f6a:	4b21      	ldr	r3, [pc, #132]	; (8002ff0 <Task_CAN_1_Transmit+0x9c>)
 8002f6c:	7d9c      	ldrb	r4, [r3, #22]
 8002f6e:	761c      	strb	r4, [r3, #24]
 8002f70:	4b20      	ldr	r3, [pc, #128]	; (8002ff4 <Task_CAN_1_Transmit+0xa0>)
 8002f72:	f893 e016 	ldrb.w	lr, [r3, #22]
 8002f76:	f883 e018 	strb.w	lr, [r3, #24]
 8002f7a:	4b1f      	ldr	r3, [pc, #124]	; (8002ff8 <Task_CAN_1_Transmit+0xa4>)
 8002f7c:	7d9f      	ldrb	r7, [r3, #22]
 8002f7e:	761f      	strb	r7, [r3, #24]
 8002f80:	4b1e      	ldr	r3, [pc, #120]	; (8002ffc <Task_CAN_1_Transmit+0xa8>)
 8002f82:	7d9e      	ldrb	r6, [r3, #22]
 8002f84:	761e      	strb	r6, [r3, #24]
 8002f86:	7d8b      	ldrb	r3, [r1, #22]
 8002f88:	760b      	strb	r3, [r1, #24]
 8002f8a:	491d      	ldr	r1, [pc, #116]	; (8003000 <Task_CAN_1_Transmit+0xac>)
 8002f8c:	f8b1 c016 	ldrh.w	ip, [r1, #22]
 8002f90:	f881 c018 	strb.w	ip, [r1, #24]
 8002f94:	491b      	ldr	r1, [pc, #108]	; (8003004 <Task_CAN_1_Transmit+0xb0>)
 8002f96:	f8b1 c016 	ldrh.w	ip, [r1, #22]
 8002f9a:	f881 c018 	strb.w	ip, [r1, #24]
 8002f9e:	491a      	ldr	r1, [pc, #104]	; (8003008 <Task_CAN_1_Transmit+0xb4>)
 8002fa0:	f8b1 c016 	ldrh.w	ip, [r1, #22]
 8002fa4:	f881 c018 	strb.w	ip, [r1, #24]
 8002fa8:	4918      	ldr	r1, [pc, #96]	; (800300c <Task_CAN_1_Transmit+0xb8>)
 8002faa:	7148      	strb	r0, [r1, #5]
 8002fac:	4818      	ldr	r0, [pc, #96]	; (8003010 <Task_CAN_1_Transmit+0xbc>)
 8002fae:	71cb      	strb	r3, [r1, #7]
 8002fb0:	f881 e000 	strb.w	lr, [r1]
 8002fb4:	704f      	strb	r7, [r1, #1]
 8002fb6:	708e      	strb	r6, [r1, #2]
 8002fb8:	70cd      	strb	r5, [r1, #3]
 8002fba:	710c      	strb	r4, [r1, #4]
 8002fbc:	718a      	strb	r2, [r1, #6]
 8002fbe:	f7ff fc78 	bl	80028b2 <CAN_NODE_MO_UpdateData>
 8002fc2:	4813      	ldr	r0, [pc, #76]	; (8003010 <Task_CAN_1_Transmit+0xbc>)
 8002fc4:	f7ff fc6f 	bl	80028a6 <CAN_NODE_MO_Transmit>
 8002fc8:	4b12      	ldr	r3, [pc, #72]	; (8003014 <Task_CAN_1_Transmit+0xc0>)
 8002fca:	7818      	ldrb	r0, [r3, #0]
 8002fcc:	f242 7310 	movw	r3, #10000	; 0x2710
 8002fd0:	4343      	muls	r3, r0
 8002fd2:	f44f 707a 	mov.w	r0, #1000	; 0x3e8
 8002fd6:	fbb3 f0f0 	udiv	r0, r3, r0
 8002fda:	f7ff f87b 	bl	80020d4 <vTaskDelay>
 8002fde:	e7ba      	b.n	8002f56 <Task_CAN_1_Transmit+0x2>
 8002fe0:	200007c0 	.word	0x200007c0
 8002fe4:	200007ec 	.word	0x200007ec
 8002fe8:	20000818 	.word	0x20000818
 8002fec:	20000688 	.word	0x20000688
 8002ff0:	2000070c 	.word	0x2000070c
 8002ff4:	200006b4 	.word	0x200006b4
 8002ff8:	20000630 	.word	0x20000630
 8002ffc:	20000604 	.word	0x20000604
 8003000:	20000768 	.word	0x20000768
 8003004:	20000738 	.word	0x20000738
 8003008:	20000870 	.word	0x20000870
 800300c:	20000580 	.word	0x20000580
 8003010:	08004088 	.word	0x08004088
 8003014:	20000370 	.word	0x20000370

08003018 <CAN2_INIT>:
 8003018:	4b03      	ldr	r3, [pc, #12]	; (8003028 <CAN2_INIT+0x10>)
 800301a:	7c19      	ldrb	r1, [r3, #16]
 800301c:	681a      	ldr	r2, [r3, #0]
 800301e:	2301      	movs	r3, #1
 8003020:	408b      	lsls	r3, r1
 8003022:	6053      	str	r3, [r2, #4]
 8003024:	4770      	bx	lr
 8003026:	bf00      	nop
 8003028:	08004034 	.word	0x08004034

0800302c <Task_CAN_2_Receive>:
 800302c:	b510      	push	{r4, lr}
 800302e:	4c0e      	ldr	r4, [pc, #56]	; (8003068 <Task_CAN_2_Receive+0x3c>)
 8003030:	4620      	mov	r0, r4
 8003032:	f7ff fc3b 	bl	80028ac <CAN_NODE_MO_Receive>
 8003036:	6823      	ldr	r3, [r4, #0]
 8003038:	7c1b      	ldrb	r3, [r3, #16]
 800303a:	2b80      	cmp	r3, #128	; 0x80
 800303c:	4b0b      	ldr	r3, [pc, #44]	; (800306c <Task_CAN_2_Receive+0x40>)
 800303e:	7c19      	ldrb	r1, [r3, #16]
 8003040:	681a      	ldr	r2, [r3, #0]
 8003042:	bf0c      	ite	eq
 8003044:	2301      	moveq	r3, #1
 8003046:	f44f 3380 	movne.w	r3, #65536	; 0x10000
 800304a:	408b      	lsls	r3, r1
 800304c:	6053      	str	r3, [r2, #4]
 800304e:	4b08      	ldr	r3, [pc, #32]	; (8003070 <Task_CAN_2_Receive+0x44>)
 8003050:	7818      	ldrb	r0, [r3, #0]
 8003052:	f242 7310 	movw	r3, #10000	; 0x2710
 8003056:	4343      	muls	r3, r0
 8003058:	f44f 707a 	mov.w	r0, #1000	; 0x3e8
 800305c:	fbb3 f0f0 	udiv	r0, r3, r0
 8003060:	f7ff f838 	bl	80020d4 <vTaskDelay>
 8003064:	e7e3      	b.n	800302e <Task_CAN_2_Receive+0x2>
 8003066:	bf00      	nop
 8003068:	08004094 	.word	0x08004094
 800306c:	08004020 	.word	0x08004020
 8003070:	20000371 	.word	0x20000371

08003074 <Task_CAN_2_Transmit>:
 8003074:	b5f8      	push	{r3, r4, r5, r6, r7, lr}
 8003076:	4b1b      	ldr	r3, [pc, #108]	; (80030e4 <Task_CAN_2_Transmit+0x70>)
 8003078:	491b      	ldr	r1, [pc, #108]	; (80030e8 <Task_CAN_2_Transmit+0x74>)
 800307a:	8ada      	ldrh	r2, [r3, #22]
 800307c:	b2d6      	uxtb	r6, r2
 800307e:	0a12      	lsrs	r2, r2, #8
 8003080:	765a      	strb	r2, [r3, #25]
 8003082:	761e      	strb	r6, [r3, #24]
 8003084:	8acb      	ldrh	r3, [r1, #22]
 8003086:	b2dd      	uxtb	r5, r3
 8003088:	0a1b      	lsrs	r3, r3, #8
 800308a:	764b      	strb	r3, [r1, #25]
 800308c:	760d      	strb	r5, [r1, #24]
 800308e:	4917      	ldr	r1, [pc, #92]	; (80030ec <Task_CAN_2_Transmit+0x78>)
 8003090:	8acc      	ldrh	r4, [r1, #22]
 8003092:	fa5f fe84 	uxtb.w	lr, r4
 8003096:	0a24      	lsrs	r4, r4, #8
 8003098:	f881 e018 	strb.w	lr, [r1, #24]
 800309c:	764c      	strb	r4, [r1, #25]
 800309e:	4914      	ldr	r1, [pc, #80]	; (80030f0 <Task_CAN_2_Transmit+0x7c>)
 80030a0:	8ac8      	ldrh	r0, [r1, #22]
 80030a2:	b2c7      	uxtb	r7, r0
 80030a4:	0a00      	lsrs	r0, r0, #8
 80030a6:	760f      	strb	r7, [r1, #24]
 80030a8:	7648      	strb	r0, [r1, #25]
 80030aa:	4912      	ldr	r1, [pc, #72]	; (80030f4 <Task_CAN_2_Transmit+0x80>)
 80030ac:	70c8      	strb	r0, [r1, #3]
 80030ae:	4812      	ldr	r0, [pc, #72]	; (80030f8 <Task_CAN_2_Transmit+0x84>)
 80030b0:	71cb      	strb	r3, [r1, #7]
 80030b2:	f881 e000 	strb.w	lr, [r1]
 80030b6:	704c      	strb	r4, [r1, #1]
 80030b8:	708f      	strb	r7, [r1, #2]
 80030ba:	710e      	strb	r6, [r1, #4]
 80030bc:	714a      	strb	r2, [r1, #5]
 80030be:	718d      	strb	r5, [r1, #6]
 80030c0:	f7ff fbf7 	bl	80028b2 <CAN_NODE_MO_UpdateData>
 80030c4:	480c      	ldr	r0, [pc, #48]	; (80030f8 <Task_CAN_2_Transmit+0x84>)
 80030c6:	f7ff fbee 	bl	80028a6 <CAN_NODE_MO_Transmit>
 80030ca:	4b0c      	ldr	r3, [pc, #48]	; (80030fc <Task_CAN_2_Transmit+0x88>)
 80030cc:	7818      	ldrb	r0, [r3, #0]
 80030ce:	f242 7310 	movw	r3, #10000	; 0x2710
 80030d2:	4343      	muls	r3, r0
 80030d4:	f44f 707a 	mov.w	r0, #1000	; 0x3e8
 80030d8:	fbb3 f0f0 	udiv	r0, r3, r0
 80030dc:	f7fe fffa 	bl	80020d4 <vTaskDelay>
 80030e0:	e7c9      	b.n	8003076 <Task_CAN_2_Transmit+0x2>
 80030e2:	bf00      	nop
 80030e4:	20000844 	.word	0x20000844
 80030e8:	2000065c 	.word	0x2000065c
 80030ec:	200005d8 	.word	0x200005d8
 80030f0:	200006e0 	.word	0x200006e0
 80030f4:	20000588 	.word	0x20000588
 80030f8:	08004174 	.word	0x08004174
 80030fc:	20000372 	.word	0x20000372

08003100 <Low_Pass_Filter>:
 8003100:	b5d0      	push	{r4, r6, r7, lr}
 8003102:	4604      	mov	r4, r0
 8003104:	8800      	ldrh	r0, [r0, #0]
 8003106:	f000 fb51 	bl	80037ac <__aeabi_i2d>
 800310a:	a30f      	add	r3, pc, #60	; (adr r3, 8003148 <Low_Pass_Filter+0x48>)
 800310c:	e9d3 2300 	ldrd	r2, r3, [r3]
 8003110:	f000 fbb2 	bl	8003878 <__aeabi_dmul>
 8003114:	4606      	mov	r6, r0
 8003116:	68a0      	ldr	r0, [r4, #8]
 8003118:	460f      	mov	r7, r1
 800311a:	f000 fb37 	bl	800378c <__aeabi_ui2d>
 800311e:	a30c      	add	r3, pc, #48	; (adr r3, 8003150 <Low_Pass_Filter+0x50>)
 8003120:	e9d3 2300 	ldrd	r2, r3, [r3]
 8003124:	f000 fba8 	bl	8003878 <__aeabi_dmul>
 8003128:	4602      	mov	r2, r0
 800312a:	460b      	mov	r3, r1
 800312c:	4630      	mov	r0, r6
 800312e:	4639      	mov	r1, r7
 8003130:	f000 f9f0 	bl	8003514 <__adddf3>
 8003134:	f000 fdd2 	bl	8003cdc <__aeabi_d2f>
 8003138:	ee07 0a90 	vmov	s15, r0
 800313c:	eefc 7ae7 	vcvt.u32.f32	s15, s15
 8003140:	6060      	str	r0, [r4, #4]
 8003142:	edc4 7a02 	vstr	s15, [r4, #8]
 8003146:	bdd0      	pop	{r4, r6, r7, pc}
 8003148:	cccccccd 	.word	0xcccccccd
 800314c:	3feccccc 	.word	0x3feccccc
 8003150:	99999998 	.word	0x99999998
 8003154:	3fb99999 	.word	0x3fb99999

08003158 <Powercycle_Calibration>:
 8003158:	b510      	push	{r4, lr}
 800315a:	f890 3020 	ldrb.w	r3, [r0, #32]
 800315e:	2b01      	cmp	r3, #1
 8003160:	4604      	mov	r4, r0
 8003162:	d002      	beq.n	800316a <Powercycle_Calibration+0x12>
 8003164:	2300      	movs	r3, #0
 8003166:	8443      	strh	r3, [r0, #34]	; 0x22
 8003168:	bd10      	pop	{r4, pc}
 800316a:	69c0      	ldr	r0, [r0, #28]
 800316c:	f7ff fcf4 	bl	8002b58 <ADC_MEASUREMENT_GetResult>
 8003170:	8460      	strh	r0, [r4, #34]	; 0x22
 8003172:	bd10      	pop	{r4, pc}
 8003174:	0000      	movs	r0, r0
	...

08003178 <UnitConversion>:
 8003178:	b530      	push	{r4, r5, lr}
 800317a:	f890 5020 	ldrb.w	r5, [r0, #32]
 800317e:	b08f      	sub	sp, #60	; 0x3c
 8003180:	4604      	mov	r4, r0
 8003182:	b9b5      	cbnz	r5, 80031b2 <UnitConversion+0x3a>
 8003184:	8c43      	ldrh	r3, [r0, #34]	; 0x22
 8003186:	ed90 7a01 	vldr	s14, [r0, #4]
 800318a:	ee07 3a90 	vmov	s15, r3
 800318e:	eef8 7ae7 	vcvt.f32.s32	s15, s15
 8003192:	ee77 7a67 	vsub.f32	s15, s14, s15
 8003196:	ee17 0a90 	vmov	r0, s15
 800319a:	f000 fb19 	bl	80037d0 <__aeabi_f2d>
 800319e:	a3ac      	add	r3, pc, #688	; (adr r3, 8003450 <UnitConversion+0x2d8>)
 80031a0:	e9d3 2300 	ldrd	r2, r3, [r3]
 80031a4:	f000 fb68 	bl	8003878 <__aeabi_dmul>
 80031a8:	2200      	movs	r2, #0
 80031aa:	4b99      	ldr	r3, [pc, #612]	; (8003410 <UnitConversion+0x298>)
 80031ac:	f000 f9b2 	bl	8003514 <__adddf3>
 80031b0:	e0e1      	b.n	8003376 <UnitConversion+0x1fe>
 80031b2:	2d01      	cmp	r5, #1
 80031b4:	d121      	bne.n	80031fa <UnitConversion+0x82>
 80031b6:	8c43      	ldrh	r3, [r0, #34]	; 0x22
 80031b8:	edd0 6a01 	vldr	s13, [r0, #4]
 80031bc:	ee07 3a90 	vmov	s15, r3
 80031c0:	f890 3028 	ldrb.w	r3, [r0, #40]	; 0x28
 80031c4:	eef8 7ae7 	vcvt.f32.s32	s15, s15
 80031c8:	ee36 7ae7 	vsub.f32	s14, s13, s15
 80031cc:	ee07 3a90 	vmov	s15, r3
 80031d0:	eef8 7ae7 	vcvt.f32.s32	s15, s15
 80031d4:	edd0 6a09 	vldr	s13, [r0, #36]	; 0x24
 80031d8:	ee67 7a27 	vmul.f32	s15, s14, s15
 80031dc:	ed9f 7a8d 	vldr	s14, [pc, #564]	; 8003414 <UnitConversion+0x29c>
 80031e0:	ee67 7a87 	vmul.f32	s15, s15, s14
 80031e4:	ed9f 7a8c 	vldr	s14, [pc, #560]	; 8003418 <UnitConversion+0x2a0>
 80031e8:	eec7 7a87 	vdiv.f32	s15, s15, s14
 80031ec:	ed9f 7a8b 	vldr	s14, [pc, #556]	; 800341c <UnitConversion+0x2a4>
 80031f0:	eea6 7aa7 	vfma.f32	s14, s13, s15
 80031f4:	eef0 7a47 	vmov.f32	s15, s14
 80031f8:	e0cd      	b.n	8003396 <UnitConversion+0x21e>
 80031fa:	2d03      	cmp	r5, #3
 80031fc:	d120      	bne.n	8003240 <UnitConversion+0xc8>
 80031fe:	f890 3028 	ldrb.w	r3, [r0, #40]	; 0x28
 8003202:	ed90 7a01 	vldr	s14, [r0, #4]
 8003206:	ee07 3a90 	vmov	s15, r3
 800320a:	eef8 7ae7 	vcvt.f32.s32	s15, s15
 800320e:	ee67 7a87 	vmul.f32	s15, s15, s14
 8003212:	ed9f 7a81 	vldr	s14, [pc, #516]	; 8003418 <UnitConversion+0x2a0>
 8003216:	eec7 7a87 	vdiv.f32	s15, s15, s14
 800321a:	ed90 7a09 	vldr	s14, [r0, #36]	; 0x24
 800321e:	ee67 7a87 	vmul.f32	s15, s15, s14
 8003222:	ee17 0a90 	vmov	r0, s15
 8003226:	f000 fad3 	bl	80037d0 <__aeabi_f2d>
 800322a:	a36f      	add	r3, pc, #444	; (adr r3, 80033e8 <UnitConversion+0x270>)
 800322c:	e9d3 2300 	ldrd	r2, r3, [r3]
 8003230:	f000 f96e 	bl	8003510 <__aeabi_dsub>
 8003234:	a36e      	add	r3, pc, #440	; (adr r3, 80033f0 <UnitConversion+0x278>)
 8003236:	e9d3 2300 	ldrd	r2, r3, [r3]
 800323a:	f000 fc47 	bl	8003acc <__aeabi_ddiv>
 800323e:	e09a      	b.n	8003376 <UnitConversion+0x1fe>
 8003240:	f005 03fb 	and.w	r3, r5, #251	; 0xfb
 8003244:	2b02      	cmp	r3, #2
 8003246:	d176      	bne.n	8003336 <UnitConversion+0x1be>
 8003248:	2100      	movs	r1, #0
 800324a:	2218      	movs	r2, #24
 800324c:	a802      	add	r0, sp, #8
 800324e:	f000 fddc 	bl	8003e0a <memset>
 8003252:	a808      	add	r0, sp, #32
 8003254:	2100      	movs	r1, #0
 8003256:	2218      	movs	r2, #24
 8003258:	f000 fdd7 	bl	8003e0a <memset>
 800325c:	2d02      	cmp	r5, #2
 800325e:	d018      	beq.n	8003292 <UnitConversion+0x11a>
 8003260:	2d06      	cmp	r5, #6
 8003262:	d132      	bne.n	80032ca <UnitConversion+0x152>
 8003264:	238c      	movs	r3, #140	; 0x8c
 8003266:	9302      	str	r3, [sp, #8]
 8003268:	f240 131b 	movw	r3, #283	; 0x11b
 800326c:	9303      	str	r3, [sp, #12]
 800326e:	f240 235a 	movw	r3, #602	; 0x25a
 8003272:	9304      	str	r3, [sp, #16]
 8003274:	f44f 63a1 	mov.w	r3, #1288	; 0x508
 8003278:	9305      	str	r3, [sp, #20]
 800327a:	f640 13c4 	movw	r3, #2500	; 0x9c4
 800327e:	9306      	str	r3, [sp, #24]
 8003280:	f640 730a 	movw	r3, #3850	; 0xf0a
 8003284:	9307      	str	r3, [sp, #28]
 8003286:	4b66      	ldr	r3, [pc, #408]	; (8003420 <UnitConversion+0x2a8>)
 8003288:	9308      	str	r3, [sp, #32]
 800328a:	4b66      	ldr	r3, [pc, #408]	; (8003424 <UnitConversion+0x2ac>)
 800328c:	9309      	str	r3, [sp, #36]	; 0x24
 800328e:	4b66      	ldr	r3, [pc, #408]	; (8003428 <UnitConversion+0x2b0>)
 8003290:	e016      	b.n	80032c0 <UnitConversion+0x148>
 8003292:	f240 13e1 	movw	r3, #481	; 0x1e1
 8003296:	9302      	str	r3, [sp, #8]
 8003298:	f240 33e5 	movw	r3, #997	; 0x3e5
 800329c:	9303      	str	r3, [sp, #12]
 800329e:	f240 53ed 	movw	r3, #1517	; 0x5ed
 80032a2:	9304      	str	r3, [sp, #16]
 80032a4:	f640 03c3 	movw	r3, #2243	; 0x8c3
 80032a8:	9305      	str	r3, [sp, #20]
 80032aa:	f640 5305 	movw	r3, #3333	; 0xd05
 80032ae:	9306      	str	r3, [sp, #24]
 80032b0:	f241 0398 	movw	r3, #4248	; 0x1098
 80032b4:	9307      	str	r3, [sp, #28]
 80032b6:	4b5a      	ldr	r3, [pc, #360]	; (8003420 <UnitConversion+0x2a8>)
 80032b8:	9308      	str	r3, [sp, #32]
 80032ba:	4b5c      	ldr	r3, [pc, #368]	; (800342c <UnitConversion+0x2b4>)
 80032bc:	9309      	str	r3, [sp, #36]	; 0x24
 80032be:	4b5c      	ldr	r3, [pc, #368]	; (8003430 <UnitConversion+0x2b8>)
 80032c0:	930a      	str	r3, [sp, #40]	; 0x28
 80032c2:	4b5c      	ldr	r3, [pc, #368]	; (8003434 <UnitConversion+0x2bc>)
 80032c4:	930b      	str	r3, [sp, #44]	; 0x2c
 80032c6:	4b5c      	ldr	r3, [pc, #368]	; (8003438 <UnitConversion+0x2c0>)
 80032c8:	930c      	str	r3, [sp, #48]	; 0x30
 80032ca:	ed9f 7a5c 	vldr	s14, [pc, #368]	; 800343c <UnitConversion+0x2c4>
 80032ce:	edd4 7a01 	vldr	s15, [r4, #4]
 80032d2:	ee67 7a87 	vmul.f32	s15, s15, s14
 80032d6:	ed9f 7a50 	vldr	s14, [pc, #320]	; 8003418 <UnitConversion+0x2a0>
 80032da:	eec7 7a87 	vdiv.f32	s15, s15, s14
 80032de:	2100      	movs	r1, #0
 80032e0:	eefc 7ae7 	vcvt.u32.f32	s15, s15
 80032e4:	edcd 7a01 	vstr	s15, [sp, #4]
 80032e8:	f8bd 3004 	ldrh.w	r3, [sp, #4]
 80032ec:	aa02      	add	r2, sp, #8
 80032ee:	f852 2021 	ldr.w	r2, [r2, r1, lsl #2]
 80032f2:	429a      	cmp	r2, r3
 80032f4:	d855      	bhi.n	80033a2 <UnitConversion+0x22a>
 80032f6:	3101      	adds	r1, #1
 80032f8:	2906      	cmp	r1, #6
 80032fa:	d1f7      	bne.n	80032ec <UnitConversion+0x174>
 80032fc:	eddd 7a06 	vldr	s15, [sp, #24]
 8003300:	eddd 6a0c 	vldr	s13, [sp, #48]	; 0x30
 8003304:	ed9f 6a4e 	vldr	s12, [pc, #312]	; 8003440 <UnitConversion+0x2c8>
 8003308:	eeb8 7a67 	vcvt.f32.u32	s14, s15
 800330c:	eddd 7a07 	vldr	s15, [sp, #28]
 8003310:	eef8 7a67 	vcvt.f32.u32	s15, s15
 8003314:	ee36 6a66 	vsub.f32	s12, s12, s13
 8003318:	ee77 7ac7 	vsub.f32	s15, s15, s14
 800331c:	ee86 6a27 	vdiv.f32	s12, s12, s15
 8003320:	ee07 3a90 	vmov	s15, r3
 8003324:	eee6 6a47 	vfms.f32	s13, s12, s14
 8003328:	eef8 7ae7 	vcvt.f32.s32	s15, s15
 800332c:	eee6 6a27 	vfma.f32	s13, s12, s15
 8003330:	eefc 7ae6 	vcvt.u32.f32	s15, s13
 8003334:	e031      	b.n	800339a <UnitConversion+0x222>
 8003336:	2d04      	cmp	r5, #4
 8003338:	d10a      	bne.n	8003350 <UnitConversion+0x1d8>
 800333a:	6840      	ldr	r0, [r0, #4]
 800333c:	f000 fa48 	bl	80037d0 <__aeabi_f2d>
 8003340:	a32d      	add	r3, pc, #180	; (adr r3, 80033f8 <UnitConversion+0x280>)
 8003342:	e9d3 2300 	ldrd	r2, r3, [r3]
 8003346:	f000 fa97 	bl	8003878 <__aeabi_dmul>
 800334a:	2200      	movs	r2, #0
 800334c:	4b3d      	ldr	r3, [pc, #244]	; (8003444 <UnitConversion+0x2cc>)
 800334e:	e00c      	b.n	800336a <UnitConversion+0x1f2>
 8003350:	2d05      	cmp	r5, #5
 8003352:	d114      	bne.n	800337e <UnitConversion+0x206>
 8003354:	6840      	ldr	r0, [r0, #4]
 8003356:	f000 fa3b 	bl	80037d0 <__aeabi_f2d>
 800335a:	a329      	add	r3, pc, #164	; (adr r3, 8003400 <UnitConversion+0x288>)
 800335c:	e9d3 2300 	ldrd	r2, r3, [r3]
 8003360:	f000 fa8a 	bl	8003878 <__aeabi_dmul>
 8003364:	a328      	add	r3, pc, #160	; (adr r3, 8003408 <UnitConversion+0x290>)
 8003366:	e9d3 2300 	ldrd	r2, r3, [r3]
 800336a:	f000 f8d1 	bl	8003510 <__aeabi_dsub>
 800336e:	2200      	movs	r2, #0
 8003370:	4b35      	ldr	r3, [pc, #212]	; (8003448 <UnitConversion+0x2d0>)
 8003372:	f000 fa81 	bl	8003878 <__aeabi_dmul>
 8003376:	f000 fc91 	bl	8003c9c <__aeabi_d2uiz>
 800337a:	82e0      	strh	r0, [r4, #22]
 800337c:	e032      	b.n	80033e4 <UnitConversion+0x26c>
 800337e:	2d07      	cmp	r5, #7
 8003380:	d130      	bne.n	80033e4 <UnitConversion+0x26c>
 8003382:	ed9f 7a32 	vldr	s14, [pc, #200]	; 800344c <UnitConversion+0x2d4>
 8003386:	edd0 7a01 	vldr	s15, [r0, #4]
 800338a:	ee67 7a87 	vmul.f32	s15, s15, s14
 800338e:	ed9f 7a22 	vldr	s14, [pc, #136]	; 8003418 <UnitConversion+0x2a0>
 8003392:	eec7 7a87 	vdiv.f32	s15, s15, s14
 8003396:	eefc 7ae7 	vcvt.u32.f32	s15, s15
 800339a:	ee17 3a90 	vmov	r3, s15
 800339e:	82e3      	strh	r3, [r4, #22]
 80033a0:	e020      	b.n	80033e4 <UnitConversion+0x26c>
 80033a2:	b961      	cbnz	r1, 80033be <UnitConversion+0x246>
 80033a4:	eddd 7a02 	vldr	s15, [sp, #8]
 80033a8:	eddd 6a08 	vldr	s13, [sp, #32]
 80033ac:	ed9d 6a09 	vldr	s12, [sp, #36]	; 0x24
 80033b0:	eeb8 7a67 	vcvt.f32.u32	s14, s15
 80033b4:	eddd 7a03 	vldr	s15, [sp, #12]
 80033b8:	eef8 7a67 	vcvt.f32.u32	s15, s15
 80033bc:	e7aa      	b.n	8003314 <UnitConversion+0x19c>
 80033be:	1e48      	subs	r0, r1, #1
 80033c0:	ad0e      	add	r5, sp, #56	; 0x38
 80033c2:	eb05 0080 	add.w	r0, r5, r0, lsl #2
 80033c6:	ed50 7a0c 	vldr	s15, [r0, #-48]	; 0xffffffd0
 80033ca:	ed50 6a06 	vldr	s13, [r0, #-24]	; 0xffffffe8
 80033ce:	eeb8 7a67 	vcvt.f32.u32	s14, s15
 80033d2:	ee07 2a90 	vmov	s15, r2
 80033d6:	eb05 0181 	add.w	r1, r5, r1, lsl #2
 80033da:	eef8 7a67 	vcvt.f32.u32	s15, s15
 80033de:	ed11 6a06 	vldr	s12, [r1, #-24]	; 0xffffffe8
 80033e2:	e797      	b.n	8003314 <UnitConversion+0x19c>
 80033e4:	b00f      	add	sp, #60	; 0x3c
 80033e6:	bd30      	pop	{r4, r5, pc}
 80033e8:	71c71c72 	.word	0x71c71c72
 80033ec:	3fe1c71c 	.word	0x3fe1c71c
 80033f0:	47ae147b 	.word	0x47ae147b
 80033f4:	3fa47ae1 	.word	0x3fa47ae1
 80033f8:	212d7732 	.word	0x212d7732
 80033fc:	3ff2f41f 	.word	0x3ff2f41f
 8003400:	2b020c4a 	.word	0x2b020c4a
 8003404:	3ff81687 	.word	0x3ff81687
 8003408:	00000000 	.word	0x00000000
 800340c:	40696000 	.word	0x40696000
 8003410:	40e00000 	.word	0x40e00000
 8003414:	447a0000 	.word	0x447a0000
 8003418:	457ff000 	.word	0x457ff000
 800341c:	43000000 	.word	0x43000000
 8003420:	42fa0000 	.word	0x42fa0000
 8003424:	42c80000 	.word	0x42c80000
 8003428:	42960000 	.word	0x42960000
 800342c:	42b40000 	.word	0x42b40000
 8003430:	428c0000 	.word	0x428c0000
 8003434:	42480000 	.word	0x42480000
 8003438:	41c80000 	.word	0x41c80000
 800343c:	459c4000 	.word	0x459c4000
 8003440:	00000000 	.word	0x00000000
 8003444:	40650000 	.word	0x40650000
 8003448:	40240000 	.word	0x40240000
 800344c:	42080000 	.word	0x42080000
 8003450:	edfa43fe 	.word	0xedfa43fe
 8003454:	402000eb 	.word	0x402000eb

08003458 <main>:
 8003458:	b537      	push	{r0, r1, r2, r4, r5, lr}
 800345a:	f7ff fb87 	bl	8002b6c <DAVE_Init>
 800345e:	f7ff fbbf 	bl	8002be0 <ANA_Init>
 8003462:	f7ff fd6d 	bl	8002f40 <CAN1_INIT>
 8003466:	f7ff fdd7 	bl	8003018 <CAN2_INIT>
 800346a:	4b18      	ldr	r3, [pc, #96]	; (80034cc <main+0x74>)
 800346c:	4918      	ldr	r1, [pc, #96]	; (80034d0 <main+0x78>)
 800346e:	681a      	ldr	r2, [r3, #0]
 8003470:	7c1b      	ldrb	r3, [r3, #16]
 8003472:	4818      	ldr	r0, [pc, #96]	; (80034d4 <main+0x7c>)
 8003474:	2501      	movs	r5, #1
 8003476:	2400      	movs	r4, #0
 8003478:	fa05 f303 	lsl.w	r3, r5, r3
 800347c:	6053      	str	r3, [r2, #4]
 800347e:	f44f 727a 	mov.w	r2, #1000	; 0x3e8
 8003482:	4623      	mov	r3, r4
 8003484:	9400      	str	r4, [sp, #0]
 8003486:	9401      	str	r4, [sp, #4]
 8003488:	f7fe fbfc 	bl	8001c84 <xTaskCreate>
 800348c:	9500      	str	r5, [sp, #0]
 800348e:	4912      	ldr	r1, [pc, #72]	; (80034d8 <main+0x80>)
 8003490:	9401      	str	r4, [sp, #4]
 8003492:	f44f 727a 	mov.w	r2, #1000	; 0x3e8
 8003496:	4623      	mov	r3, r4
 8003498:	2502      	movs	r5, #2
 800349a:	4810      	ldr	r0, [pc, #64]	; (80034dc <main+0x84>)
 800349c:	f7fe fbf2 	bl	8001c84 <xTaskCreate>
 80034a0:	490f      	ldr	r1, [pc, #60]	; (80034e0 <main+0x88>)
 80034a2:	9500      	str	r5, [sp, #0]
 80034a4:	f44f 727a 	mov.w	r2, #1000	; 0x3e8
 80034a8:	4623      	mov	r3, r4
 80034aa:	9401      	str	r4, [sp, #4]
 80034ac:	480d      	ldr	r0, [pc, #52]	; (80034e4 <main+0x8c>)
 80034ae:	f7fe fbe9 	bl	8001c84 <xTaskCreate>
 80034b2:	490d      	ldr	r1, [pc, #52]	; (80034e8 <main+0x90>)
 80034b4:	9500      	str	r5, [sp, #0]
 80034b6:	f44f 727a 	mov.w	r2, #1000	; 0x3e8
 80034ba:	4623      	mov	r3, r4
 80034bc:	9401      	str	r4, [sp, #4]
 80034be:	480b      	ldr	r0, [pc, #44]	; (80034ec <main+0x94>)
 80034c0:	f7fe fbe0 	bl	8001c84 <xTaskCreate>
 80034c4:	f7fe fcbc 	bl	8001e40 <vTaskStartScheduler>
 80034c8:	e7fe      	b.n	80034c8 <main+0x70>
 80034ca:	bf00      	nop
 80034cc:	08004048 	.word	0x08004048
 80034d0:	0800434c 	.word	0x0800434c
 80034d4:	08002e61 	.word	0x08002e61
 80034d8:	08004356 	.word	0x08004356
 80034dc:	0800302d 	.word	0x0800302d
 80034e0:	08004368 	.word	0x08004368
 80034e4:	08003075 	.word	0x08003075
 80034e8:	0800437b 	.word	0x0800437b
 80034ec:	08002f55 	.word	0x08002f55

080034f0 <__aeabi_llsr>:
 80034f0:	40d0      	lsrs	r0, r2
 80034f2:	1c0b      	adds	r3, r1, #0
 80034f4:	40d1      	lsrs	r1, r2
 80034f6:	469c      	mov	ip, r3
 80034f8:	3a20      	subs	r2, #32
 80034fa:	40d3      	lsrs	r3, r2
 80034fc:	4318      	orrs	r0, r3
 80034fe:	4252      	negs	r2, r2
 8003500:	4663      	mov	r3, ip
 8003502:	4093      	lsls	r3, r2
 8003504:	4318      	orrs	r0, r3
 8003506:	4770      	bx	lr

08003508 <__aeabi_drsub>:
 8003508:	f081 4100 	eor.w	r1, r1, #2147483648	; 0x80000000
 800350c:	e002      	b.n	8003514 <__adddf3>
 800350e:	bf00      	nop

08003510 <__aeabi_dsub>:
 8003510:	f083 4300 	eor.w	r3, r3, #2147483648	; 0x80000000

08003514 <__adddf3>:
 8003514:	b530      	push	{r4, r5, lr}
 8003516:	ea4f 0441 	mov.w	r4, r1, lsl #1
 800351a:	ea4f 0543 	mov.w	r5, r3, lsl #1
 800351e:	ea94 0f05 	teq	r4, r5
 8003522:	bf08      	it	eq
 8003524:	ea90 0f02 	teqeq	r0, r2
 8003528:	bf1f      	itttt	ne
 800352a:	ea54 0c00 	orrsne.w	ip, r4, r0
 800352e:	ea55 0c02 	orrsne.w	ip, r5, r2
 8003532:	ea7f 5c64 	mvnsne.w	ip, r4, asr #21
 8003536:	ea7f 5c65 	mvnsne.w	ip, r5, asr #21
 800353a:	f000 80e2 	beq.w	8003702 <__adddf3+0x1ee>
 800353e:	ea4f 5454 	mov.w	r4, r4, lsr #21
 8003542:	ebd4 5555 	rsbs	r5, r4, r5, lsr #21
 8003546:	bfb8      	it	lt
 8003548:	426d      	neglt	r5, r5
 800354a:	dd0c      	ble.n	8003566 <__adddf3+0x52>
 800354c:	442c      	add	r4, r5
 800354e:	ea80 0202 	eor.w	r2, r0, r2
 8003552:	ea81 0303 	eor.w	r3, r1, r3
 8003556:	ea82 0000 	eor.w	r0, r2, r0
 800355a:	ea83 0101 	eor.w	r1, r3, r1
 800355e:	ea80 0202 	eor.w	r2, r0, r2
 8003562:	ea81 0303 	eor.w	r3, r1, r3
 8003566:	2d36      	cmp	r5, #54	; 0x36
 8003568:	bf88      	it	hi
 800356a:	bd30      	pophi	{r4, r5, pc}
 800356c:	f011 4f00 	tst.w	r1, #2147483648	; 0x80000000
 8003570:	ea4f 3101 	mov.w	r1, r1, lsl #12
 8003574:	f44f 1c80 	mov.w	ip, #1048576	; 0x100000
 8003578:	ea4c 3111 	orr.w	r1, ip, r1, lsr #12
 800357c:	d002      	beq.n	8003584 <__adddf3+0x70>
 800357e:	4240      	negs	r0, r0
 8003580:	eb61 0141 	sbc.w	r1, r1, r1, lsl #1
 8003584:	f013 4f00 	tst.w	r3, #2147483648	; 0x80000000
 8003588:	ea4f 3303 	mov.w	r3, r3, lsl #12
 800358c:	ea4c 3313 	orr.w	r3, ip, r3, lsr #12
 8003590:	d002      	beq.n	8003598 <__adddf3+0x84>
 8003592:	4252      	negs	r2, r2
 8003594:	eb63 0343 	sbc.w	r3, r3, r3, lsl #1
 8003598:	ea94 0f05 	teq	r4, r5
 800359c:	f000 80a7 	beq.w	80036ee <__adddf3+0x1da>
 80035a0:	f1a4 0401 	sub.w	r4, r4, #1
 80035a4:	f1d5 0e20 	rsbs	lr, r5, #32
 80035a8:	db0d      	blt.n	80035c6 <__adddf3+0xb2>
 80035aa:	fa02 fc0e 	lsl.w	ip, r2, lr
 80035ae:	fa22 f205 	lsr.w	r2, r2, r5
 80035b2:	1880      	adds	r0, r0, r2
 80035b4:	f141 0100 	adc.w	r1, r1, #0
 80035b8:	fa03 f20e 	lsl.w	r2, r3, lr
 80035bc:	1880      	adds	r0, r0, r2
 80035be:	fa43 f305 	asr.w	r3, r3, r5
 80035c2:	4159      	adcs	r1, r3
 80035c4:	e00e      	b.n	80035e4 <__adddf3+0xd0>
 80035c6:	f1a5 0520 	sub.w	r5, r5, #32
 80035ca:	f10e 0e20 	add.w	lr, lr, #32
 80035ce:	2a01      	cmp	r2, #1
 80035d0:	fa03 fc0e 	lsl.w	ip, r3, lr
 80035d4:	bf28      	it	cs
 80035d6:	f04c 0c02 	orrcs.w	ip, ip, #2
 80035da:	fa43 f305 	asr.w	r3, r3, r5
 80035de:	18c0      	adds	r0, r0, r3
 80035e0:	eb51 71e3 	adcs.w	r1, r1, r3, asr #31
 80035e4:	f001 4500 	and.w	r5, r1, #2147483648	; 0x80000000
 80035e8:	d507      	bpl.n	80035fa <__adddf3+0xe6>
 80035ea:	f04f 0e00 	mov.w	lr, #0
 80035ee:	f1dc 0c00 	rsbs	ip, ip, #0
 80035f2:	eb7e 0000 	sbcs.w	r0, lr, r0
 80035f6:	eb6e 0101 	sbc.w	r1, lr, r1
 80035fa:	f5b1 1f80 	cmp.w	r1, #1048576	; 0x100000
 80035fe:	d31b      	bcc.n	8003638 <__adddf3+0x124>
 8003600:	f5b1 1f00 	cmp.w	r1, #2097152	; 0x200000
 8003604:	d30c      	bcc.n	8003620 <__adddf3+0x10c>
 8003606:	0849      	lsrs	r1, r1, #1
 8003608:	ea5f 0030 	movs.w	r0, r0, rrx
 800360c:	ea4f 0c3c 	mov.w	ip, ip, rrx
 8003610:	f104 0401 	add.w	r4, r4, #1
 8003614:	ea4f 5244 	mov.w	r2, r4, lsl #21
 8003618:	f512 0f80 	cmn.w	r2, #4194304	; 0x400000
 800361c:	f080 809a 	bcs.w	8003754 <__adddf3+0x240>
 8003620:	f1bc 4f00 	cmp.w	ip, #2147483648	; 0x80000000
 8003624:	bf08      	it	eq
 8003626:	ea5f 0c50 	movseq.w	ip, r0, lsr #1
 800362a:	f150 0000 	adcs.w	r0, r0, #0
 800362e:	eb41 5104 	adc.w	r1, r1, r4, lsl #20
 8003632:	ea41 0105 	orr.w	r1, r1, r5
 8003636:	bd30      	pop	{r4, r5, pc}
 8003638:	ea5f 0c4c 	movs.w	ip, ip, lsl #1
 800363c:	4140      	adcs	r0, r0
 800363e:	eb41 0101 	adc.w	r1, r1, r1
 8003642:	f411 1f80 	tst.w	r1, #1048576	; 0x100000
 8003646:	f1a4 0401 	sub.w	r4, r4, #1
 800364a:	d1e9      	bne.n	8003620 <__adddf3+0x10c>
 800364c:	f091 0f00 	teq	r1, #0
 8003650:	bf04      	itt	eq
 8003652:	4601      	moveq	r1, r0
 8003654:	2000      	moveq	r0, #0
 8003656:	fab1 f381 	clz	r3, r1
 800365a:	bf08      	it	eq
 800365c:	3320      	addeq	r3, #32
 800365e:	f1a3 030b 	sub.w	r3, r3, #11
 8003662:	f1b3 0220 	subs.w	r2, r3, #32
 8003666:	da0c      	bge.n	8003682 <__adddf3+0x16e>
 8003668:	320c      	adds	r2, #12
 800366a:	dd08      	ble.n	800367e <__adddf3+0x16a>
 800366c:	f102 0c14 	add.w	ip, r2, #20
 8003670:	f1c2 020c 	rsb	r2, r2, #12
 8003674:	fa01 f00c 	lsl.w	r0, r1, ip
 8003678:	fa21 f102 	lsr.w	r1, r1, r2
 800367c:	e00c      	b.n	8003698 <__adddf3+0x184>
 800367e:	f102 0214 	add.w	r2, r2, #20
 8003682:	bfd8      	it	le
 8003684:	f1c2 0c20 	rsble	ip, r2, #32
 8003688:	fa01 f102 	lsl.w	r1, r1, r2
 800368c:	fa20 fc0c 	lsr.w	ip, r0, ip
 8003690:	bfdc      	itt	le
 8003692:	ea41 010c 	orrle.w	r1, r1, ip
 8003696:	4090      	lslle	r0, r2
 8003698:	1ae4      	subs	r4, r4, r3
 800369a:	bfa2      	ittt	ge
 800369c:	eb01 5104 	addge.w	r1, r1, r4, lsl #20
 80036a0:	4329      	orrge	r1, r5
 80036a2:	bd30      	popge	{r4, r5, pc}
 80036a4:	ea6f 0404 	mvn.w	r4, r4
 80036a8:	3c1f      	subs	r4, #31
 80036aa:	da1c      	bge.n	80036e6 <__adddf3+0x1d2>
 80036ac:	340c      	adds	r4, #12
 80036ae:	dc0e      	bgt.n	80036ce <__adddf3+0x1ba>
 80036b0:	f104 0414 	add.w	r4, r4, #20
 80036b4:	f1c4 0220 	rsb	r2, r4, #32
 80036b8:	fa20 f004 	lsr.w	r0, r0, r4
 80036bc:	fa01 f302 	lsl.w	r3, r1, r2
 80036c0:	ea40 0003 	orr.w	r0, r0, r3
 80036c4:	fa21 f304 	lsr.w	r3, r1, r4
 80036c8:	ea45 0103 	orr.w	r1, r5, r3
 80036cc:	bd30      	pop	{r4, r5, pc}
 80036ce:	f1c4 040c 	rsb	r4, r4, #12
 80036d2:	f1c4 0220 	rsb	r2, r4, #32
 80036d6:	fa20 f002 	lsr.w	r0, r0, r2
 80036da:	fa01 f304 	lsl.w	r3, r1, r4
 80036de:	ea40 0003 	orr.w	r0, r0, r3
 80036e2:	4629      	mov	r1, r5
 80036e4:	bd30      	pop	{r4, r5, pc}
 80036e6:	fa21 f004 	lsr.w	r0, r1, r4
 80036ea:	4629      	mov	r1, r5
 80036ec:	bd30      	pop	{r4, r5, pc}
 80036ee:	f094 0f00 	teq	r4, #0
 80036f2:	f483 1380 	eor.w	r3, r3, #1048576	; 0x100000
 80036f6:	bf06      	itte	eq
 80036f8:	f481 1180 	eoreq.w	r1, r1, #1048576	; 0x100000
 80036fc:	3401      	addeq	r4, #1
 80036fe:	3d01      	subne	r5, #1
 8003700:	e74e      	b.n	80035a0 <__adddf3+0x8c>
 8003702:	ea7f 5c64 	mvns.w	ip, r4, asr #21
 8003706:	bf18      	it	ne
 8003708:	ea7f 5c65 	mvnsne.w	ip, r5, asr #21
 800370c:	d029      	beq.n	8003762 <__adddf3+0x24e>
 800370e:	ea94 0f05 	teq	r4, r5
 8003712:	bf08      	it	eq
 8003714:	ea90 0f02 	teqeq	r0, r2
 8003718:	d005      	beq.n	8003726 <__adddf3+0x212>
 800371a:	ea54 0c00 	orrs.w	ip, r4, r0
 800371e:	bf04      	itt	eq
 8003720:	4619      	moveq	r1, r3
 8003722:	4610      	moveq	r0, r2
 8003724:	bd30      	pop	{r4, r5, pc}
 8003726:	ea91 0f03 	teq	r1, r3
 800372a:	bf1e      	ittt	ne
 800372c:	2100      	movne	r1, #0
 800372e:	2000      	movne	r0, #0
 8003730:	bd30      	popne	{r4, r5, pc}
 8003732:	ea5f 5c54 	movs.w	ip, r4, lsr #21
 8003736:	d105      	bne.n	8003744 <__adddf3+0x230>
 8003738:	0040      	lsls	r0, r0, #1
 800373a:	4149      	adcs	r1, r1
 800373c:	bf28      	it	cs
 800373e:	f041 4100 	orrcs.w	r1, r1, #2147483648	; 0x80000000
 8003742:	bd30      	pop	{r4, r5, pc}
 8003744:	f514 0480 	adds.w	r4, r4, #4194304	; 0x400000
 8003748:	bf3c      	itt	cc
 800374a:	f501 1180 	addcc.w	r1, r1, #1048576	; 0x100000
 800374e:	bd30      	popcc	{r4, r5, pc}
 8003750:	f001 4500 	and.w	r5, r1, #2147483648	; 0x80000000
 8003754:	f045 41fe 	orr.w	r1, r5, #2130706432	; 0x7f000000
 8003758:	f441 0170 	orr.w	r1, r1, #15728640	; 0xf00000
 800375c:	f04f 0000 	mov.w	r0, #0
 8003760:	bd30      	pop	{r4, r5, pc}
 8003762:	ea7f 5c64 	mvns.w	ip, r4, asr #21
 8003766:	bf1a      	itte	ne
 8003768:	4619      	movne	r1, r3
 800376a:	4610      	movne	r0, r2
 800376c:	ea7f 5c65 	mvnseq.w	ip, r5, asr #21
 8003770:	bf1c      	itt	ne
 8003772:	460b      	movne	r3, r1
 8003774:	4602      	movne	r2, r0
 8003776:	ea50 3401 	orrs.w	r4, r0, r1, lsl #12
 800377a:	bf06      	itte	eq
 800377c:	ea52 3503 	orrseq.w	r5, r2, r3, lsl #12
 8003780:	ea91 0f03 	teqeq	r1, r3
 8003784:	f441 2100 	orrne.w	r1, r1, #524288	; 0x80000
 8003788:	bd30      	pop	{r4, r5, pc}
 800378a:	bf00      	nop

0800378c <__aeabi_ui2d>:
 800378c:	f090 0f00 	teq	r0, #0
 8003790:	bf04      	itt	eq
 8003792:	2100      	moveq	r1, #0
 8003794:	4770      	bxeq	lr
 8003796:	b530      	push	{r4, r5, lr}
 8003798:	f44f 6480 	mov.w	r4, #1024	; 0x400
 800379c:	f104 0432 	add.w	r4, r4, #50	; 0x32
 80037a0:	f04f 0500 	mov.w	r5, #0
 80037a4:	f04f 0100 	mov.w	r1, #0
 80037a8:	e750      	b.n	800364c <__adddf3+0x138>
 80037aa:	bf00      	nop

080037ac <__aeabi_i2d>:
 80037ac:	f090 0f00 	teq	r0, #0
 80037b0:	bf04      	itt	eq
 80037b2:	2100      	moveq	r1, #0
 80037b4:	4770      	bxeq	lr
 80037b6:	b530      	push	{r4, r5, lr}
 80037b8:	f44f 6480 	mov.w	r4, #1024	; 0x400
 80037bc:	f104 0432 	add.w	r4, r4, #50	; 0x32
 80037c0:	f010 4500 	ands.w	r5, r0, #2147483648	; 0x80000000
 80037c4:	bf48      	it	mi
 80037c6:	4240      	negmi	r0, r0
 80037c8:	f04f 0100 	mov.w	r1, #0
 80037cc:	e73e      	b.n	800364c <__adddf3+0x138>
 80037ce:	bf00      	nop

080037d0 <__aeabi_f2d>:
 80037d0:	0042      	lsls	r2, r0, #1
 80037d2:	ea4f 01e2 	mov.w	r1, r2, asr #3
 80037d6:	ea4f 0131 	mov.w	r1, r1, rrx
 80037da:	ea4f 7002 	mov.w	r0, r2, lsl #28
 80037de:	bf1f      	itttt	ne
 80037e0:	f012 437f 	andsne.w	r3, r2, #4278190080	; 0xff000000
 80037e4:	f093 4f7f 	teqne	r3, #4278190080	; 0xff000000
 80037e8:	f081 5160 	eorne.w	r1, r1, #939524096	; 0x38000000
 80037ec:	4770      	bxne	lr
 80037ee:	f092 0f00 	teq	r2, #0
 80037f2:	bf14      	ite	ne
 80037f4:	f093 4f7f 	teqne	r3, #4278190080	; 0xff000000
 80037f8:	4770      	bxeq	lr
 80037fa:	b530      	push	{r4, r5, lr}
 80037fc:	f44f 7460 	mov.w	r4, #896	; 0x380
 8003800:	f001 4500 	and.w	r5, r1, #2147483648	; 0x80000000
 8003804:	f021 4100 	bic.w	r1, r1, #2147483648	; 0x80000000
 8003808:	e720      	b.n	800364c <__adddf3+0x138>
 800380a:	bf00      	nop

0800380c <__aeabi_ul2d>:
 800380c:	ea50 0201 	orrs.w	r2, r0, r1
 8003810:	bf08      	it	eq
 8003812:	4770      	bxeq	lr
 8003814:	b530      	push	{r4, r5, lr}
 8003816:	f04f 0500 	mov.w	r5, #0
 800381a:	e00a      	b.n	8003832 <__aeabi_l2d+0x16>

0800381c <__aeabi_l2d>:
 800381c:	ea50 0201 	orrs.w	r2, r0, r1
 8003820:	bf08      	it	eq
 8003822:	4770      	bxeq	lr
 8003824:	b530      	push	{r4, r5, lr}
 8003826:	f011 4500 	ands.w	r5, r1, #2147483648	; 0x80000000
 800382a:	d502      	bpl.n	8003832 <__aeabi_l2d+0x16>
 800382c:	4240      	negs	r0, r0
 800382e:	eb61 0141 	sbc.w	r1, r1, r1, lsl #1
 8003832:	f44f 6480 	mov.w	r4, #1024	; 0x400
 8003836:	f104 0432 	add.w	r4, r4, #50	; 0x32
 800383a:	ea5f 5c91 	movs.w	ip, r1, lsr #22
 800383e:	f43f aedc 	beq.w	80035fa <__adddf3+0xe6>
 8003842:	f04f 0203 	mov.w	r2, #3
 8003846:	ea5f 0cdc 	movs.w	ip, ip, lsr #3
 800384a:	bf18      	it	ne
 800384c:	3203      	addne	r2, #3
 800384e:	ea5f 0cdc 	movs.w	ip, ip, lsr #3
 8003852:	bf18      	it	ne
 8003854:	3203      	addne	r2, #3
 8003856:	eb02 02dc 	add.w	r2, r2, ip, lsr #3
 800385a:	f1c2 0320 	rsb	r3, r2, #32
 800385e:	fa00 fc03 	lsl.w	ip, r0, r3
 8003862:	fa20 f002 	lsr.w	r0, r0, r2
 8003866:	fa01 fe03 	lsl.w	lr, r1, r3
 800386a:	ea40 000e 	orr.w	r0, r0, lr
 800386e:	fa21 f102 	lsr.w	r1, r1, r2
 8003872:	4414      	add	r4, r2
 8003874:	e6c1      	b.n	80035fa <__adddf3+0xe6>
 8003876:	bf00      	nop

08003878 <__aeabi_dmul>:
 8003878:	b570      	push	{r4, r5, r6, lr}
 800387a:	f04f 0cff 	mov.w	ip, #255	; 0xff
 800387e:	f44c 6ce0 	orr.w	ip, ip, #1792	; 0x700
 8003882:	ea1c 5411 	ands.w	r4, ip, r1, lsr #20
 8003886:	bf1d      	ittte	ne
 8003888:	ea1c 5513 	andsne.w	r5, ip, r3, lsr #20
 800388c:	ea94 0f0c 	teqne	r4, ip
 8003890:	ea95 0f0c 	teqne	r5, ip
 8003894:	f000 f8de 	bleq	8003a54 <__aeabi_dmul+0x1dc>
 8003898:	442c      	add	r4, r5
 800389a:	ea81 0603 	eor.w	r6, r1, r3
 800389e:	ea21 514c 	bic.w	r1, r1, ip, lsl #21
 80038a2:	ea23 534c 	bic.w	r3, r3, ip, lsl #21
 80038a6:	ea50 3501 	orrs.w	r5, r0, r1, lsl #12
 80038aa:	bf18      	it	ne
 80038ac:	ea52 3503 	orrsne.w	r5, r2, r3, lsl #12
 80038b0:	f441 1180 	orr.w	r1, r1, #1048576	; 0x100000
 80038b4:	f443 1380 	orr.w	r3, r3, #1048576	; 0x100000
 80038b8:	d038      	beq.n	800392c <__aeabi_dmul+0xb4>
 80038ba:	fba0 ce02 	umull	ip, lr, r0, r2
 80038be:	f04f 0500 	mov.w	r5, #0
 80038c2:	fbe1 e502 	umlal	lr, r5, r1, r2
 80038c6:	f006 4200 	and.w	r2, r6, #2147483648	; 0x80000000
 80038ca:	fbe0 e503 	umlal	lr, r5, r0, r3
 80038ce:	f04f 0600 	mov.w	r6, #0
 80038d2:	fbe1 5603 	umlal	r5, r6, r1, r3
 80038d6:	f09c 0f00 	teq	ip, #0
 80038da:	bf18      	it	ne
 80038dc:	f04e 0e01 	orrne.w	lr, lr, #1
 80038e0:	f1a4 04ff 	sub.w	r4, r4, #255	; 0xff
 80038e4:	f5b6 7f00 	cmp.w	r6, #512	; 0x200
 80038e8:	f564 7440 	sbc.w	r4, r4, #768	; 0x300
 80038ec:	d204      	bcs.n	80038f8 <__aeabi_dmul+0x80>
 80038ee:	ea5f 0e4e 	movs.w	lr, lr, lsl #1
 80038f2:	416d      	adcs	r5, r5
 80038f4:	eb46 0606 	adc.w	r6, r6, r6
 80038f8:	ea42 21c6 	orr.w	r1, r2, r6, lsl #11
 80038fc:	ea41 5155 	orr.w	r1, r1, r5, lsr #21
 8003900:	ea4f 20c5 	mov.w	r0, r5, lsl #11
 8003904:	ea40 505e 	orr.w	r0, r0, lr, lsr #21
 8003908:	ea4f 2ece 	mov.w	lr, lr, lsl #11
 800390c:	f1b4 0cfd 	subs.w	ip, r4, #253	; 0xfd
 8003910:	bf88      	it	hi
 8003912:	f5bc 6fe0 	cmphi.w	ip, #1792	; 0x700
 8003916:	d81e      	bhi.n	8003956 <__aeabi_dmul+0xde>
 8003918:	f1be 4f00 	cmp.w	lr, #2147483648	; 0x80000000
 800391c:	bf08      	it	eq
 800391e:	ea5f 0e50 	movseq.w	lr, r0, lsr #1
 8003922:	f150 0000 	adcs.w	r0, r0, #0
 8003926:	eb41 5104 	adc.w	r1, r1, r4, lsl #20
 800392a:	bd70      	pop	{r4, r5, r6, pc}
 800392c:	f006 4600 	and.w	r6, r6, #2147483648	; 0x80000000
 8003930:	ea46 0101 	orr.w	r1, r6, r1
 8003934:	ea40 0002 	orr.w	r0, r0, r2
 8003938:	ea81 0103 	eor.w	r1, r1, r3
 800393c:	ebb4 045c 	subs.w	r4, r4, ip, lsr #1
 8003940:	bfc2      	ittt	gt
 8003942:	ebd4 050c 	rsbsgt	r5, r4, ip
 8003946:	ea41 5104 	orrgt.w	r1, r1, r4, lsl #20
 800394a:	bd70      	popgt	{r4, r5, r6, pc}
 800394c:	f441 1180 	orr.w	r1, r1, #1048576	; 0x100000
 8003950:	f04f 0e00 	mov.w	lr, #0
 8003954:	3c01      	subs	r4, #1
 8003956:	f300 80ab 	bgt.w	8003ab0 <__aeabi_dmul+0x238>
 800395a:	f114 0f36 	cmn.w	r4, #54	; 0x36
 800395e:	bfde      	ittt	le
 8003960:	2000      	movle	r0, #0
 8003962:	f001 4100 	andle.w	r1, r1, #2147483648	; 0x80000000
 8003966:	bd70      	pople	{r4, r5, r6, pc}
 8003968:	f1c4 0400 	rsb	r4, r4, #0
 800396c:	3c20      	subs	r4, #32
 800396e:	da35      	bge.n	80039dc <__aeabi_dmul+0x164>
 8003970:	340c      	adds	r4, #12
 8003972:	dc1b      	bgt.n	80039ac <__aeabi_dmul+0x134>
 8003974:	f104 0414 	add.w	r4, r4, #20
 8003978:	f1c4 0520 	rsb	r5, r4, #32
 800397c:	fa00 f305 	lsl.w	r3, r0, r5
 8003980:	fa20 f004 	lsr.w	r0, r0, r4
 8003984:	fa01 f205 	lsl.w	r2, r1, r5
 8003988:	ea40 0002 	orr.w	r0, r0, r2
 800398c:	f001 4200 	and.w	r2, r1, #2147483648	; 0x80000000
 8003990:	f021 4100 	bic.w	r1, r1, #2147483648	; 0x80000000
 8003994:	eb10 70d3 	adds.w	r0, r0, r3, lsr #31
 8003998:	fa21 f604 	lsr.w	r6, r1, r4
 800399c:	eb42 0106 	adc.w	r1, r2, r6
 80039a0:	ea5e 0e43 	orrs.w	lr, lr, r3, lsl #1
 80039a4:	bf08      	it	eq
 80039a6:	ea20 70d3 	biceq.w	r0, r0, r3, lsr #31
 80039aa:	bd70      	pop	{r4, r5, r6, pc}
 80039ac:	f1c4 040c 	rsb	r4, r4, #12
 80039b0:	f1c4 0520 	rsb	r5, r4, #32
 80039b4:	fa00 f304 	lsl.w	r3, r0, r4
 80039b8:	fa20 f005 	lsr.w	r0, r0, r5
 80039bc:	fa01 f204 	lsl.w	r2, r1, r4
 80039c0:	ea40 0002 	orr.w	r0, r0, r2
 80039c4:	f001 4100 	and.w	r1, r1, #2147483648	; 0x80000000
 80039c8:	eb10 70d3 	adds.w	r0, r0, r3, lsr #31
 80039cc:	f141 0100 	adc.w	r1, r1, #0
 80039d0:	ea5e 0e43 	orrs.w	lr, lr, r3, lsl #1
 80039d4:	bf08      	it	eq
 80039d6:	ea20 70d3 	biceq.w	r0, r0, r3, lsr #31
 80039da:	bd70      	pop	{r4, r5, r6, pc}
 80039dc:	f1c4 0520 	rsb	r5, r4, #32
 80039e0:	fa00 f205 	lsl.w	r2, r0, r5
 80039e4:	ea4e 0e02 	orr.w	lr, lr, r2
 80039e8:	fa20 f304 	lsr.w	r3, r0, r4
 80039ec:	fa01 f205 	lsl.w	r2, r1, r5
 80039f0:	ea43 0302 	orr.w	r3, r3, r2
 80039f4:	fa21 f004 	lsr.w	r0, r1, r4
 80039f8:	f001 4100 	and.w	r1, r1, #2147483648	; 0x80000000
 80039fc:	fa21 f204 	lsr.w	r2, r1, r4
 8003a00:	ea20 0002 	bic.w	r0, r0, r2
 8003a04:	eb00 70d3 	add.w	r0, r0, r3, lsr #31
 8003a08:	ea5e 0e43 	orrs.w	lr, lr, r3, lsl #1
 8003a0c:	bf08      	it	eq
 8003a0e:	ea20 70d3 	biceq.w	r0, r0, r3, lsr #31
 8003a12:	bd70      	pop	{r4, r5, r6, pc}
 8003a14:	f094 0f00 	teq	r4, #0
 8003a18:	d10f      	bne.n	8003a3a <__aeabi_dmul+0x1c2>
 8003a1a:	f001 4600 	and.w	r6, r1, #2147483648	; 0x80000000
 8003a1e:	0040      	lsls	r0, r0, #1
 8003a20:	eb41 0101 	adc.w	r1, r1, r1
 8003a24:	f411 1f80 	tst.w	r1, #1048576	; 0x100000
 8003a28:	bf08      	it	eq
 8003a2a:	3c01      	subeq	r4, #1
 8003a2c:	d0f7      	beq.n	8003a1e <__aeabi_dmul+0x1a6>
 8003a2e:	ea41 0106 	orr.w	r1, r1, r6
 8003a32:	f095 0f00 	teq	r5, #0
 8003a36:	bf18      	it	ne
 8003a38:	4770      	bxne	lr
 8003a3a:	f003 4600 	and.w	r6, r3, #2147483648	; 0x80000000
 8003a3e:	0052      	lsls	r2, r2, #1
 8003a40:	eb43 0303 	adc.w	r3, r3, r3
 8003a44:	f413 1f80 	tst.w	r3, #1048576	; 0x100000
 8003a48:	bf08      	it	eq
 8003a4a:	3d01      	subeq	r5, #1
 8003a4c:	d0f7      	beq.n	8003a3e <__aeabi_dmul+0x1c6>
 8003a4e:	ea43 0306 	orr.w	r3, r3, r6
 8003a52:	4770      	bx	lr
 8003a54:	ea94 0f0c 	teq	r4, ip
 8003a58:	ea0c 5513 	and.w	r5, ip, r3, lsr #20
 8003a5c:	bf18      	it	ne
 8003a5e:	ea95 0f0c 	teqne	r5, ip
 8003a62:	d00c      	beq.n	8003a7e <__aeabi_dmul+0x206>
 8003a64:	ea50 0641 	orrs.w	r6, r0, r1, lsl #1
 8003a68:	bf18      	it	ne
 8003a6a:	ea52 0643 	orrsne.w	r6, r2, r3, lsl #1
 8003a6e:	d1d1      	bne.n	8003a14 <__aeabi_dmul+0x19c>
 8003a70:	ea81 0103 	eor.w	r1, r1, r3
 8003a74:	f001 4100 	and.w	r1, r1, #2147483648	; 0x80000000
 8003a78:	f04f 0000 	mov.w	r0, #0
 8003a7c:	bd70      	pop	{r4, r5, r6, pc}
 8003a7e:	ea50 0641 	orrs.w	r6, r0, r1, lsl #1
 8003a82:	bf06      	itte	eq
 8003a84:	4610      	moveq	r0, r2
 8003a86:	4619      	moveq	r1, r3
 8003a88:	ea52 0643 	orrsne.w	r6, r2, r3, lsl #1
 8003a8c:	d019      	beq.n	8003ac2 <__aeabi_dmul+0x24a>
 8003a8e:	ea94 0f0c 	teq	r4, ip
 8003a92:	d102      	bne.n	8003a9a <__aeabi_dmul+0x222>
 8003a94:	ea50 3601 	orrs.w	r6, r0, r1, lsl #12
 8003a98:	d113      	bne.n	8003ac2 <__aeabi_dmul+0x24a>
 8003a9a:	ea95 0f0c 	teq	r5, ip
 8003a9e:	d105      	bne.n	8003aac <__aeabi_dmul+0x234>
 8003aa0:	ea52 3603 	orrs.w	r6, r2, r3, lsl #12
 8003aa4:	bf1c      	itt	ne
 8003aa6:	4610      	movne	r0, r2
 8003aa8:	4619      	movne	r1, r3
 8003aaa:	d10a      	bne.n	8003ac2 <__aeabi_dmul+0x24a>
 8003aac:	ea81 0103 	eor.w	r1, r1, r3
 8003ab0:	f001 4100 	and.w	r1, r1, #2147483648	; 0x80000000
 8003ab4:	f041 41fe 	orr.w	r1, r1, #2130706432	; 0x7f000000
 8003ab8:	f441 0170 	orr.w	r1, r1, #15728640	; 0xf00000
 8003abc:	f04f 0000 	mov.w	r0, #0
 8003ac0:	bd70      	pop	{r4, r5, r6, pc}
 8003ac2:	f041 41fe 	orr.w	r1, r1, #2130706432	; 0x7f000000
 8003ac6:	f441 0178 	orr.w	r1, r1, #16252928	; 0xf80000
 8003aca:	bd70      	pop	{r4, r5, r6, pc}

08003acc <__aeabi_ddiv>:
 8003acc:	b570      	push	{r4, r5, r6, lr}
 8003ace:	f04f 0cff 	mov.w	ip, #255	; 0xff
 8003ad2:	f44c 6ce0 	orr.w	ip, ip, #1792	; 0x700
 8003ad6:	ea1c 5411 	ands.w	r4, ip, r1, lsr #20
 8003ada:	bf1d      	ittte	ne
 8003adc:	ea1c 5513 	andsne.w	r5, ip, r3, lsr #20
 8003ae0:	ea94 0f0c 	teqne	r4, ip
 8003ae4:	ea95 0f0c 	teqne	r5, ip
 8003ae8:	f000 f8a7 	bleq	8003c3a <__aeabi_ddiv+0x16e>
 8003aec:	eba4 0405 	sub.w	r4, r4, r5
 8003af0:	ea81 0e03 	eor.w	lr, r1, r3
 8003af4:	ea52 3503 	orrs.w	r5, r2, r3, lsl #12
 8003af8:	ea4f 3101 	mov.w	r1, r1, lsl #12
 8003afc:	f000 8088 	beq.w	8003c10 <__aeabi_ddiv+0x144>
 8003b00:	ea4f 3303 	mov.w	r3, r3, lsl #12
 8003b04:	f04f 5580 	mov.w	r5, #268435456	; 0x10000000
 8003b08:	ea45 1313 	orr.w	r3, r5, r3, lsr #4
 8003b0c:	ea43 6312 	orr.w	r3, r3, r2, lsr #24
 8003b10:	ea4f 2202 	mov.w	r2, r2, lsl #8
 8003b14:	ea45 1511 	orr.w	r5, r5, r1, lsr #4
 8003b18:	ea45 6510 	orr.w	r5, r5, r0, lsr #24
 8003b1c:	ea4f 2600 	mov.w	r6, r0, lsl #8
 8003b20:	f00e 4100 	and.w	r1, lr, #2147483648	; 0x80000000
 8003b24:	429d      	cmp	r5, r3
 8003b26:	bf08      	it	eq
 8003b28:	4296      	cmpeq	r6, r2
 8003b2a:	f144 04fd 	adc.w	r4, r4, #253	; 0xfd
 8003b2e:	f504 7440 	add.w	r4, r4, #768	; 0x300
 8003b32:	d202      	bcs.n	8003b3a <__aeabi_ddiv+0x6e>
 8003b34:	085b      	lsrs	r3, r3, #1
 8003b36:	ea4f 0232 	mov.w	r2, r2, rrx
 8003b3a:	1ab6      	subs	r6, r6, r2
 8003b3c:	eb65 0503 	sbc.w	r5, r5, r3
 8003b40:	085b      	lsrs	r3, r3, #1
 8003b42:	ea4f 0232 	mov.w	r2, r2, rrx
 8003b46:	f44f 1080 	mov.w	r0, #1048576	; 0x100000
 8003b4a:	f44f 2c00 	mov.w	ip, #524288	; 0x80000
 8003b4e:	ebb6 0e02 	subs.w	lr, r6, r2
 8003b52:	eb75 0e03 	sbcs.w	lr, r5, r3
 8003b56:	bf22      	ittt	cs
 8003b58:	1ab6      	subcs	r6, r6, r2
 8003b5a:	4675      	movcs	r5, lr
 8003b5c:	ea40 000c 	orrcs.w	r0, r0, ip
 8003b60:	085b      	lsrs	r3, r3, #1
 8003b62:	ea4f 0232 	mov.w	r2, r2, rrx
 8003b66:	ebb6 0e02 	subs.w	lr, r6, r2
 8003b6a:	eb75 0e03 	sbcs.w	lr, r5, r3
 8003b6e:	bf22      	ittt	cs
 8003b70:	1ab6      	subcs	r6, r6, r2
 8003b72:	4675      	movcs	r5, lr
 8003b74:	ea40 005c 	orrcs.w	r0, r0, ip, lsr #1
 8003b78:	085b      	lsrs	r3, r3, #1
 8003b7a:	ea4f 0232 	mov.w	r2, r2, rrx
 8003b7e:	ebb6 0e02 	subs.w	lr, r6, r2
 8003b82:	eb75 0e03 	sbcs.w	lr, r5, r3
 8003b86:	bf22      	ittt	cs
 8003b88:	1ab6      	subcs	r6, r6, r2
 8003b8a:	4675      	movcs	r5, lr
 8003b8c:	ea40 009c 	orrcs.w	r0, r0, ip, lsr #2
 8003b90:	085b      	lsrs	r3, r3, #1
 8003b92:	ea4f 0232 	mov.w	r2, r2, rrx
 8003b96:	ebb6 0e02 	subs.w	lr, r6, r2
 8003b9a:	eb75 0e03 	sbcs.w	lr, r5, r3
 8003b9e:	bf22      	ittt	cs
 8003ba0:	1ab6      	subcs	r6, r6, r2
 8003ba2:	4675      	movcs	r5, lr
 8003ba4:	ea40 00dc 	orrcs.w	r0, r0, ip, lsr #3
 8003ba8:	ea55 0e06 	orrs.w	lr, r5, r6
 8003bac:	d018      	beq.n	8003be0 <__aeabi_ddiv+0x114>
 8003bae:	ea4f 1505 	mov.w	r5, r5, lsl #4
 8003bb2:	ea45 7516 	orr.w	r5, r5, r6, lsr #28
 8003bb6:	ea4f 1606 	mov.w	r6, r6, lsl #4
 8003bba:	ea4f 03c3 	mov.w	r3, r3, lsl #3
 8003bbe:	ea43 7352 	orr.w	r3, r3, r2, lsr #29
 8003bc2:	ea4f 02c2 	mov.w	r2, r2, lsl #3
 8003bc6:	ea5f 1c1c 	movs.w	ip, ip, lsr #4
 8003bca:	d1c0      	bne.n	8003b4e <__aeabi_ddiv+0x82>
 8003bcc:	f411 1f80 	tst.w	r1, #1048576	; 0x100000
 8003bd0:	d10b      	bne.n	8003bea <__aeabi_ddiv+0x11e>
 8003bd2:	ea41 0100 	orr.w	r1, r1, r0
 8003bd6:	f04f 0000 	mov.w	r0, #0
 8003bda:	f04f 4c00 	mov.w	ip, #2147483648	; 0x80000000
 8003bde:	e7b6      	b.n	8003b4e <__aeabi_ddiv+0x82>
 8003be0:	f411 1f80 	tst.w	r1, #1048576	; 0x100000
 8003be4:	bf04      	itt	eq
 8003be6:	4301      	orreq	r1, r0
 8003be8:	2000      	moveq	r0, #0
 8003bea:	f1b4 0cfd 	subs.w	ip, r4, #253	; 0xfd
 8003bee:	bf88      	it	hi
 8003bf0:	f5bc 6fe0 	cmphi.w	ip, #1792	; 0x700
 8003bf4:	f63f aeaf 	bhi.w	8003956 <__aeabi_dmul+0xde>
 8003bf8:	ebb5 0c03 	subs.w	ip, r5, r3
 8003bfc:	bf04      	itt	eq
 8003bfe:	ebb6 0c02 	subseq.w	ip, r6, r2
 8003c02:	ea5f 0c50 	movseq.w	ip, r0, lsr #1
 8003c06:	f150 0000 	adcs.w	r0, r0, #0
 8003c0a:	eb41 5104 	adc.w	r1, r1, r4, lsl #20
 8003c0e:	bd70      	pop	{r4, r5, r6, pc}
 8003c10:	f00e 4e00 	and.w	lr, lr, #2147483648	; 0x80000000
 8003c14:	ea4e 3111 	orr.w	r1, lr, r1, lsr #12
 8003c18:	eb14 045c 	adds.w	r4, r4, ip, lsr #1
 8003c1c:	bfc2      	ittt	gt
 8003c1e:	ebd4 050c 	rsbsgt	r5, r4, ip
 8003c22:	ea41 5104 	orrgt.w	r1, r1, r4, lsl #20
 8003c26:	bd70      	popgt	{r4, r5, r6, pc}
 8003c28:	f441 1180 	orr.w	r1, r1, #1048576	; 0x100000
 8003c2c:	f04f 0e00 	mov.w	lr, #0
 8003c30:	3c01      	subs	r4, #1
 8003c32:	e690      	b.n	8003956 <__aeabi_dmul+0xde>
 8003c34:	ea45 0e06 	orr.w	lr, r5, r6
 8003c38:	e68d      	b.n	8003956 <__aeabi_dmul+0xde>
 8003c3a:	ea0c 5513 	and.w	r5, ip, r3, lsr #20
 8003c3e:	ea94 0f0c 	teq	r4, ip
 8003c42:	bf08      	it	eq
 8003c44:	ea95 0f0c 	teqeq	r5, ip
 8003c48:	f43f af3b 	beq.w	8003ac2 <__aeabi_dmul+0x24a>
 8003c4c:	ea94 0f0c 	teq	r4, ip
 8003c50:	d10a      	bne.n	8003c68 <__aeabi_ddiv+0x19c>
 8003c52:	ea50 3401 	orrs.w	r4, r0, r1, lsl #12
 8003c56:	f47f af34 	bne.w	8003ac2 <__aeabi_dmul+0x24a>
 8003c5a:	ea95 0f0c 	teq	r5, ip
 8003c5e:	f47f af25 	bne.w	8003aac <__aeabi_dmul+0x234>
 8003c62:	4610      	mov	r0, r2
 8003c64:	4619      	mov	r1, r3
 8003c66:	e72c      	b.n	8003ac2 <__aeabi_dmul+0x24a>
 8003c68:	ea95 0f0c 	teq	r5, ip
 8003c6c:	d106      	bne.n	8003c7c <__aeabi_ddiv+0x1b0>
 8003c6e:	ea52 3503 	orrs.w	r5, r2, r3, lsl #12
 8003c72:	f43f aefd 	beq.w	8003a70 <__aeabi_dmul+0x1f8>
 8003c76:	4610      	mov	r0, r2
 8003c78:	4619      	mov	r1, r3
 8003c7a:	e722      	b.n	8003ac2 <__aeabi_dmul+0x24a>
 8003c7c:	ea50 0641 	orrs.w	r6, r0, r1, lsl #1
 8003c80:	bf18      	it	ne
 8003c82:	ea52 0643 	orrsne.w	r6, r2, r3, lsl #1
 8003c86:	f47f aec5 	bne.w	8003a14 <__aeabi_dmul+0x19c>
 8003c8a:	ea50 0441 	orrs.w	r4, r0, r1, lsl #1
 8003c8e:	f47f af0d 	bne.w	8003aac <__aeabi_dmul+0x234>
 8003c92:	ea52 0543 	orrs.w	r5, r2, r3, lsl #1
 8003c96:	f47f aeeb 	bne.w	8003a70 <__aeabi_dmul+0x1f8>
 8003c9a:	e712      	b.n	8003ac2 <__aeabi_dmul+0x24a>

08003c9c <__aeabi_d2uiz>:
 8003c9c:	004a      	lsls	r2, r1, #1
 8003c9e:	d211      	bcs.n	8003cc4 <__aeabi_d2uiz+0x28>
 8003ca0:	f512 1200 	adds.w	r2, r2, #2097152	; 0x200000
 8003ca4:	d211      	bcs.n	8003cca <__aeabi_d2uiz+0x2e>
 8003ca6:	d50d      	bpl.n	8003cc4 <__aeabi_d2uiz+0x28>
 8003ca8:	f46f 7378 	mvn.w	r3, #992	; 0x3e0
 8003cac:	ebb3 5262 	subs.w	r2, r3, r2, asr #21
 8003cb0:	d40e      	bmi.n	8003cd0 <__aeabi_d2uiz+0x34>
 8003cb2:	ea4f 23c1 	mov.w	r3, r1, lsl #11
 8003cb6:	f043 4300 	orr.w	r3, r3, #2147483648	; 0x80000000
 8003cba:	ea43 5350 	orr.w	r3, r3, r0, lsr #21
 8003cbe:	fa23 f002 	lsr.w	r0, r3, r2
 8003cc2:	4770      	bx	lr
 8003cc4:	f04f 0000 	mov.w	r0, #0
 8003cc8:	4770      	bx	lr
 8003cca:	ea50 3001 	orrs.w	r0, r0, r1, lsl #12
 8003cce:	d102      	bne.n	8003cd6 <__aeabi_d2uiz+0x3a>
 8003cd0:	f04f 30ff 	mov.w	r0, #4294967295
 8003cd4:	4770      	bx	lr
 8003cd6:	f04f 0000 	mov.w	r0, #0
 8003cda:	4770      	bx	lr

08003cdc <__aeabi_d2f>:
 8003cdc:	ea4f 0241 	mov.w	r2, r1, lsl #1
 8003ce0:	f1b2 43e0 	subs.w	r3, r2, #1879048192	; 0x70000000
 8003ce4:	bf24      	itt	cs
 8003ce6:	f5b3 1c00 	subscs.w	ip, r3, #2097152	; 0x200000
 8003cea:	f1dc 5cfe 	rsbscs	ip, ip, #532676608	; 0x1fc00000
 8003cee:	d90d      	bls.n	8003d0c <__aeabi_d2f+0x30>
 8003cf0:	f001 4c00 	and.w	ip, r1, #2147483648	; 0x80000000
 8003cf4:	ea4f 02c0 	mov.w	r2, r0, lsl #3
 8003cf8:	ea4c 7050 	orr.w	r0, ip, r0, lsr #29
 8003cfc:	f1b2 4f00 	cmp.w	r2, #2147483648	; 0x80000000
 8003d00:	eb40 0083 	adc.w	r0, r0, r3, lsl #2
 8003d04:	bf08      	it	eq
 8003d06:	f020 0001 	biceq.w	r0, r0, #1
 8003d0a:	4770      	bx	lr
 8003d0c:	f011 4f80 	tst.w	r1, #1073741824	; 0x40000000
 8003d10:	d121      	bne.n	8003d56 <__aeabi_d2f+0x7a>
 8003d12:	f113 7238 	adds.w	r2, r3, #48234496	; 0x2e00000
 8003d16:	bfbc      	itt	lt
 8003d18:	f001 4000 	andlt.w	r0, r1, #2147483648	; 0x80000000
 8003d1c:	4770      	bxlt	lr
 8003d1e:	f441 1180 	orr.w	r1, r1, #1048576	; 0x100000
 8003d22:	ea4f 5252 	mov.w	r2, r2, lsr #21
 8003d26:	f1c2 0218 	rsb	r2, r2, #24
 8003d2a:	f1c2 0c20 	rsb	ip, r2, #32
 8003d2e:	fa10 f30c 	lsls.w	r3, r0, ip
 8003d32:	fa20 f002 	lsr.w	r0, r0, r2
 8003d36:	bf18      	it	ne
 8003d38:	f040 0001 	orrne.w	r0, r0, #1
 8003d3c:	ea4f 23c1 	mov.w	r3, r1, lsl #11
 8003d40:	ea4f 23d3 	mov.w	r3, r3, lsr #11
 8003d44:	fa03 fc0c 	lsl.w	ip, r3, ip
 8003d48:	ea40 000c 	orr.w	r0, r0, ip
 8003d4c:	fa23 f302 	lsr.w	r3, r3, r2
 8003d50:	ea4f 0343 	mov.w	r3, r3, lsl #1
 8003d54:	e7cc      	b.n	8003cf0 <__aeabi_d2f+0x14>
 8003d56:	ea7f 5362 	mvns.w	r3, r2, asr #21
 8003d5a:	d107      	bne.n	8003d6c <__aeabi_d2f+0x90>
 8003d5c:	ea50 3301 	orrs.w	r3, r0, r1, lsl #12
 8003d60:	bf1e      	ittt	ne
 8003d62:	f04f 40fe 	movne.w	r0, #2130706432	; 0x7f000000
 8003d66:	f440 0040 	orrne.w	r0, r0, #12582912	; 0xc00000
 8003d6a:	4770      	bxne	lr
 8003d6c:	f001 4000 	and.w	r0, r1, #2147483648	; 0x80000000
 8003d70:	f040 40fe 	orr.w	r0, r0, #2130706432	; 0x7f000000
 8003d74:	f440 0000 	orr.w	r0, r0, #8388608	; 0x800000
 8003d78:	4770      	bx	lr
 8003d7a:	bf00      	nop

08003d7c <__errno>:
 8003d7c:	4b01      	ldr	r3, [pc, #4]	; (8003d84 <__errno+0x8>)
 8003d7e:	6818      	ldr	r0, [r3, #0]
 8003d80:	4770      	bx	lr
 8003d82:	bf00      	nop
 8003d84:	200003d4 	.word	0x200003d4

08003d88 <__libc_init_array>:
 8003d88:	b570      	push	{r4, r5, r6, lr}
 8003d8a:	4b0e      	ldr	r3, [pc, #56]	; (8003dc4 <__libc_init_array+0x3c>)
 8003d8c:	4c0e      	ldr	r4, [pc, #56]	; (8003dc8 <__libc_init_array+0x40>)
 8003d8e:	1ae4      	subs	r4, r4, r3
 8003d90:	10a4      	asrs	r4, r4, #2
 8003d92:	2500      	movs	r5, #0
 8003d94:	461e      	mov	r6, r3
 8003d96:	42a5      	cmp	r5, r4
 8003d98:	d004      	beq.n	8003da4 <__libc_init_array+0x1c>
 8003d9a:	f856 3025 	ldr.w	r3, [r6, r5, lsl #2]
 8003d9e:	4798      	blx	r3
 8003da0:	3501      	adds	r5, #1
 8003da2:	e7f8      	b.n	8003d96 <__libc_init_array+0xe>
 8003da4:	f7fd f8f8 	bl	8000f98 <_init>
 8003da8:	4c08      	ldr	r4, [pc, #32]	; (8003dcc <__libc_init_array+0x44>)
 8003daa:	4b09      	ldr	r3, [pc, #36]	; (8003dd0 <__libc_init_array+0x48>)
 8003dac:	1ae4      	subs	r4, r4, r3
 8003dae:	10a4      	asrs	r4, r4, #2
 8003db0:	2500      	movs	r5, #0
 8003db2:	461e      	mov	r6, r3
 8003db4:	42a5      	cmp	r5, r4
 8003db6:	d004      	beq.n	8003dc2 <__libc_init_array+0x3a>
 8003db8:	f856 3025 	ldr.w	r3, [r6, r5, lsl #2]
 8003dbc:	4798      	blx	r3
 8003dbe:	3501      	adds	r5, #1
 8003dc0:	e7f8      	b.n	8003db4 <__libc_init_array+0x2c>
 8003dc2:	bd70      	pop	{r4, r5, r6, pc}
 8003dc4:	200003d8 	.word	0x200003d8
 8003dc8:	200003d8 	.word	0x200003d8
 8003dcc:	200003d8 	.word	0x200003d8
 8003dd0:	200003d8 	.word	0x200003d8

08003dd4 <malloc>:
 8003dd4:	4b02      	ldr	r3, [pc, #8]	; (8003de0 <malloc+0xc>)
 8003dd6:	4601      	mov	r1, r0
 8003dd8:	6818      	ldr	r0, [r3, #0]
 8003dda:	f000 b863 	b.w	8003ea4 <_malloc_r>
 8003dde:	bf00      	nop
 8003de0:	200003d4 	.word	0x200003d4

08003de4 <free>:
 8003de4:	4b02      	ldr	r3, [pc, #8]	; (8003df0 <free+0xc>)
 8003de6:	4601      	mov	r1, r0
 8003de8:	6818      	ldr	r0, [r3, #0]
 8003dea:	f000 b817 	b.w	8003e1c <_free_r>
 8003dee:	bf00      	nop
 8003df0:	200003d4 	.word	0x200003d4

08003df4 <memcpy>:
 8003df4:	b510      	push	{r4, lr}
 8003df6:	1e43      	subs	r3, r0, #1
 8003df8:	440a      	add	r2, r1
 8003dfa:	4291      	cmp	r1, r2
 8003dfc:	d004      	beq.n	8003e08 <memcpy+0x14>
 8003dfe:	f811 4b01 	ldrb.w	r4, [r1], #1
 8003e02:	f803 4f01 	strb.w	r4, [r3, #1]!
 8003e06:	e7f8      	b.n	8003dfa <memcpy+0x6>
 8003e08:	bd10      	pop	{r4, pc}

08003e0a <memset>:
 8003e0a:	4402      	add	r2, r0
 8003e0c:	4603      	mov	r3, r0
 8003e0e:	4293      	cmp	r3, r2
 8003e10:	d002      	beq.n	8003e18 <memset+0xe>
 8003e12:	f803 1b01 	strb.w	r1, [r3], #1
 8003e16:	e7fa      	b.n	8003e0e <memset+0x4>
 8003e18:	4770      	bx	lr
	...

08003e1c <_free_r>:
 8003e1c:	b530      	push	{r4, r5, lr}
 8003e1e:	2900      	cmp	r1, #0
 8003e20:	d03d      	beq.n	8003e9e <_free_r+0x82>
 8003e22:	f851 2c04 	ldr.w	r2, [r1, #-4]
 8003e26:	1f0b      	subs	r3, r1, #4
 8003e28:	491d      	ldr	r1, [pc, #116]	; (8003ea0 <_free_r+0x84>)
 8003e2a:	2a00      	cmp	r2, #0
 8003e2c:	bfb8      	it	lt
 8003e2e:	189b      	addlt	r3, r3, r2
 8003e30:	680a      	ldr	r2, [r1, #0]
 8003e32:	460c      	mov	r4, r1
 8003e34:	b912      	cbnz	r2, 8003e3c <_free_r+0x20>
 8003e36:	605a      	str	r2, [r3, #4]
 8003e38:	600b      	str	r3, [r1, #0]
 8003e3a:	bd30      	pop	{r4, r5, pc}
 8003e3c:	4293      	cmp	r3, r2
 8003e3e:	d20d      	bcs.n	8003e5c <_free_r+0x40>
 8003e40:	6819      	ldr	r1, [r3, #0]
 8003e42:	1858      	adds	r0, r3, r1
 8003e44:	4290      	cmp	r0, r2
 8003e46:	bf01      	itttt	eq
 8003e48:	585a      	ldreq	r2, [r3, r1]
 8003e4a:	1852      	addeq	r2, r2, r1
 8003e4c:	601a      	streq	r2, [r3, #0]
 8003e4e:	6842      	ldreq	r2, [r0, #4]
 8003e50:	605a      	str	r2, [r3, #4]
 8003e52:	6023      	str	r3, [r4, #0]
 8003e54:	bd30      	pop	{r4, r5, pc}
 8003e56:	4299      	cmp	r1, r3
 8003e58:	d803      	bhi.n	8003e62 <_free_r+0x46>
 8003e5a:	460a      	mov	r2, r1
 8003e5c:	6851      	ldr	r1, [r2, #4]
 8003e5e:	2900      	cmp	r1, #0
 8003e60:	d1f9      	bne.n	8003e56 <_free_r+0x3a>
 8003e62:	6814      	ldr	r4, [r2, #0]
 8003e64:	1915      	adds	r5, r2, r4
 8003e66:	429d      	cmp	r5, r3
 8003e68:	d10a      	bne.n	8003e80 <_free_r+0x64>
 8003e6a:	681b      	ldr	r3, [r3, #0]
 8003e6c:	4423      	add	r3, r4
 8003e6e:	18d0      	adds	r0, r2, r3
 8003e70:	4288      	cmp	r0, r1
 8003e72:	6013      	str	r3, [r2, #0]
 8003e74:	d113      	bne.n	8003e9e <_free_r+0x82>
 8003e76:	6808      	ldr	r0, [r1, #0]
 8003e78:	4403      	add	r3, r0
 8003e7a:	6013      	str	r3, [r2, #0]
 8003e7c:	684b      	ldr	r3, [r1, #4]
 8003e7e:	e00d      	b.n	8003e9c <_free_r+0x80>
 8003e80:	d902      	bls.n	8003e88 <_free_r+0x6c>
 8003e82:	230c      	movs	r3, #12
 8003e84:	6003      	str	r3, [r0, #0]
 8003e86:	bd30      	pop	{r4, r5, pc}
 8003e88:	681c      	ldr	r4, [r3, #0]
 8003e8a:	1918      	adds	r0, r3, r4
 8003e8c:	4288      	cmp	r0, r1
 8003e8e:	bf04      	itt	eq
 8003e90:	6808      	ldreq	r0, [r1, #0]
 8003e92:	6849      	ldreq	r1, [r1, #4]
 8003e94:	6059      	str	r1, [r3, #4]
 8003e96:	bf04      	itt	eq
 8003e98:	1900      	addeq	r0, r0, r4
 8003e9a:	6018      	streq	r0, [r3, #0]
 8003e9c:	6053      	str	r3, [r2, #4]
 8003e9e:	bd30      	pop	{r4, r5, pc}
 8003ea0:	20000594 	.word	0x20000594

08003ea4 <_malloc_r>:
 8003ea4:	b570      	push	{r4, r5, r6, lr}
 8003ea6:	1ccc      	adds	r4, r1, #3
 8003ea8:	f024 0403 	bic.w	r4, r4, #3
 8003eac:	3408      	adds	r4, #8
 8003eae:	2c0c      	cmp	r4, #12
 8003eb0:	bf38      	it	cc
 8003eb2:	240c      	movcc	r4, #12
 8003eb4:	2c00      	cmp	r4, #0
 8003eb6:	4606      	mov	r6, r0
 8003eb8:	da03      	bge.n	8003ec2 <_malloc_r+0x1e>
 8003eba:	230c      	movs	r3, #12
 8003ebc:	6033      	str	r3, [r6, #0]
 8003ebe:	2000      	movs	r0, #0
 8003ec0:	bd70      	pop	{r4, r5, r6, pc}
 8003ec2:	428c      	cmp	r4, r1
 8003ec4:	d3f9      	bcc.n	8003eba <_malloc_r+0x16>
 8003ec6:	4a20      	ldr	r2, [pc, #128]	; (8003f48 <_malloc_r+0xa4>)
 8003ec8:	6813      	ldr	r3, [r2, #0]
 8003eca:	4610      	mov	r0, r2
 8003ecc:	4619      	mov	r1, r3
 8003ece:	b1a1      	cbz	r1, 8003efa <_malloc_r+0x56>
 8003ed0:	680a      	ldr	r2, [r1, #0]
 8003ed2:	1b12      	subs	r2, r2, r4
 8003ed4:	d40e      	bmi.n	8003ef4 <_malloc_r+0x50>
 8003ed6:	2a0b      	cmp	r2, #11
 8003ed8:	d903      	bls.n	8003ee2 <_malloc_r+0x3e>
 8003eda:	600a      	str	r2, [r1, #0]
 8003edc:	188b      	adds	r3, r1, r2
 8003ede:	508c      	str	r4, [r1, r2]
 8003ee0:	e01f      	b.n	8003f22 <_malloc_r+0x7e>
 8003ee2:	428b      	cmp	r3, r1
 8003ee4:	bf0d      	iteet	eq
 8003ee6:	685a      	ldreq	r2, [r3, #4]
 8003ee8:	684a      	ldrne	r2, [r1, #4]
 8003eea:	605a      	strne	r2, [r3, #4]
 8003eec:	6002      	streq	r2, [r0, #0]
 8003eee:	bf18      	it	ne
 8003ef0:	460b      	movne	r3, r1
 8003ef2:	e016      	b.n	8003f22 <_malloc_r+0x7e>
 8003ef4:	460b      	mov	r3, r1
 8003ef6:	6849      	ldr	r1, [r1, #4]
 8003ef8:	e7e9      	b.n	8003ece <_malloc_r+0x2a>
 8003efa:	4d14      	ldr	r5, [pc, #80]	; (8003f4c <_malloc_r+0xa8>)
 8003efc:	682b      	ldr	r3, [r5, #0]
 8003efe:	b91b      	cbnz	r3, 8003f08 <_malloc_r+0x64>
 8003f00:	4630      	mov	r0, r6
 8003f02:	f000 f825 	bl	8003f50 <_sbrk_r>
 8003f06:	6028      	str	r0, [r5, #0]
 8003f08:	4630      	mov	r0, r6
 8003f0a:	4621      	mov	r1, r4
 8003f0c:	f000 f820 	bl	8003f50 <_sbrk_r>
 8003f10:	1c42      	adds	r2, r0, #1
 8003f12:	4603      	mov	r3, r0
 8003f14:	d0d1      	beq.n	8003eba <_malloc_r+0x16>
 8003f16:	1cc5      	adds	r5, r0, #3
 8003f18:	f025 0503 	bic.w	r5, r5, #3
 8003f1c:	4285      	cmp	r5, r0
 8003f1e:	d10a      	bne.n	8003f36 <_malloc_r+0x92>
 8003f20:	601c      	str	r4, [r3, #0]
 8003f22:	f103 000b 	add.w	r0, r3, #11
 8003f26:	1d1a      	adds	r2, r3, #4
 8003f28:	f020 0007 	bic.w	r0, r0, #7
 8003f2c:	1a82      	subs	r2, r0, r2
 8003f2e:	d00a      	beq.n	8003f46 <_malloc_r+0xa2>
 8003f30:	4251      	negs	r1, r2
 8003f32:	5099      	str	r1, [r3, r2]
 8003f34:	bd70      	pop	{r4, r5, r6, pc}
 8003f36:	4630      	mov	r0, r6
 8003f38:	1ae9      	subs	r1, r5, r3
 8003f3a:	f000 f809 	bl	8003f50 <_sbrk_r>
 8003f3e:	3001      	adds	r0, #1
 8003f40:	d0bb      	beq.n	8003eba <_malloc_r+0x16>
 8003f42:	462b      	mov	r3, r5
 8003f44:	e7ec      	b.n	8003f20 <_malloc_r+0x7c>
 8003f46:	bd70      	pop	{r4, r5, r6, pc}
 8003f48:	20000594 	.word	0x20000594
 8003f4c:	20000590 	.word	0x20000590

08003f50 <_sbrk_r>:
 8003f50:	b538      	push	{r3, r4, r5, lr}
 8003f52:	4c06      	ldr	r4, [pc, #24]	; (8003f6c <_sbrk_r+0x1c>)
 8003f54:	2300      	movs	r3, #0
 8003f56:	4605      	mov	r5, r0
 8003f58:	4608      	mov	r0, r1
 8003f5a:	6023      	str	r3, [r4, #0]
 8003f5c:	f7fc fffc 	bl	8000f58 <_sbrk>
 8003f60:	1c43      	adds	r3, r0, #1
 8003f62:	d102      	bne.n	8003f6a <_sbrk_r+0x1a>
 8003f64:	6823      	ldr	r3, [r4, #0]
 8003f66:	b103      	cbz	r3, 8003f6a <_sbrk_r+0x1a>
 8003f68:	602b      	str	r3, [r5, #0]
 8003f6a:	bd38      	pop	{r3, r4, r5, pc}
 8003f6c:	200008a8 	.word	0x200008a8

08003f70 <g_xmc_vadc_group_array>:
 8003f70:	40004400 40004800 40004c00 40005000     .D.@.H.@.L.@.P.@

08003f80 <group_init_handle0>:
	...

08003f94 <group_init_handle1>:
	...

08003fa8 <group_init_handle3>:
	...

08003fbc <global_config>:
 8003fbc:	00000000 00000003 00000000 00000000     ................
	...

08003fd4 <group_init_handle2>:
	...
 8003fe8:	454c4449 63250900 09752509 25097525     IDLE..%c.%u.%u.%
 8003ff8:	000a0d75 51726d54 726d5400 63765320     u...TmrQ.Tmr Svc
 8004008:	00000000                                ....

0800400c <CAN_1_RES_CTRL>:
 800400c:	48028100 00000080 00010000 00000000     ...H............
 800401c:	00000006                                ....

08004020 <Brake_Light>:
 8004020:	48028000 00000080 00010000 00000000     ...H............
 8004030:	00000003                                ....

08004034 <CAN_2_RES_CTRL>:
 8004034:	48028100 00000080 00010000 00000000     ...H............
 8004044:	0000000e                                ....

08004048 <Debug_LED>:
 8004048:	48028000 00000080 00010000 00000004     ...H............
 8004058:	00000002 01040250 00010000 00000000     ....P...........
 8004068:	00010000 01010101                       ........

08004070 <CAN_2_gpio_out_config>:
 8004070:	00000090 00000001 00000002              ............

0800407c <CAN_1_gpio_out_config>:
 800407c:	00000090 00000001 00000002              ............

08004088 <CAN_1_LMO_01_Config>:
 8004088:	20000098 00000021 00000000              ... !.......

08004094 <CAN_2_LMO_02_Config>:
 8004094:	200000b8 00000023 00000000              ... #.......

080040a0 <CAN_1_sr>:
 80040a0:	00000000                                ....

080040a4 <CAN_2_sr>:
 80040a4:	00000000                                ....

080040a8 <CAN_1>:
 80040a8:	20000038 48014300 200000d8 08004088     8.. .C.H... .@..
	...
 8004134:	080040a0 0800416c 0800407c 08004150     .@..lA..|@..PA..
 8004144:	08004158 00010102 00000000              XA..........

08004150 <CAN_1_gpio_in>:
 8004150:	48028100 0000000d                       ...H....

08004158 <CAN_1_gpio_in_config>:
	...

08004164 <CAN_2_gpio_out>:
 8004164:	48028100 00000004                       ...H....

0800416c <CAN_1_gpio_out>:
 800416c:	48028100 0000000c                       ...H....

08004174 <CAN_2_LMO_01_Config>:
 8004174:	200000e8 00000022 00000000              ... ".......

08004180 <CAN_2>:
 8004180:	20000038 48014200 20000108 08004174     8.. .B.H... tA..
 8004190:	08004094 00000000 00000000 00000000     .@..............
	...
 800420c:	080040a4 08004164 08004070 08004228     .@..dA..p@..(B..
 800421c:	08004230 00020000 00000000              0B..........

08004228 <CAN_2_gpio_in>:
 8004228:	48028100 00000005                       ...H....

08004230 <CAN_2_gpio_in_config>:
	...

0800423c <ANALOG_IO_10>:
 800423c:	00000000 20000534 48028f00 00000003     ....4.. ...H....

0800424c <ANALOG_IO_11>:
 800424c:	00000000 20000539 48028e00 0000000e     ....9.. ...H....

0800425c <ANALOG_IO_12>:
 800425c:	00000000 2000053c 48028e00 00000008     ....<.. ...H....

0800426c <ANALOG_IO_13>:
 800426c:	00000000 2000052f 48028e00 00000009     ..../.. ...H....

0800427c <ANALOG_IO_14>:
 800427c:	00000000 20000533 48028e00 0000000c     ....3.. ...H....

0800428c <ANALOG_IO_15>:
 800428c:	00000000 20000538 48028e00 0000000d     ....8.. ...H....

0800429c <ANALOG_IO_6>:
 800429c:	00000000 2000052d 48028e00 00000006     ....-.. ...H....

080042ac <ANALOG_IO_0>:
 80042ac:	00000000 20000537 48028e00 00000000     ....7.. ...H....

080042bc <ANALOG_IO_1>:
 80042bc:	00000000 2000053b 48028e00 00000001     ....;.. ...H....

080042cc <ANALOG_IO_2>:
 80042cc:	00000000 2000052e 48028e00 00000002     ....... ...H....

080042dc <ANALOG_IO_3>:
 80042dc:	00000000 20000531 48028e00 00000003     ....1.. ...H....

080042ec <ANALOG_IO_4>:
 80042ec:	00000000 20000536 48028e00 00000004     ....6.. ...H....

080042fc <ANALOG_IO_5>:
 80042fc:	00000000 2000053a 48028e00 00000005     ....:.. ...H....

0800430c <ANALOG_IO_9>:
 800430c:	00000000 20000532 48028f00 00000002     ....2.. ...H....

0800431c <ANALOG_IO_7>:
 800431c:	00000000 20000530 48028e00 00000007     ....0.. ...H....

0800432c <ANALOG_IO_8>:
 800432c:	00000000 20000535 48028e00 0000000f     ....5.. ...H....

0800433c <backgnd_config>:
 800433c:	00000005 00000000 00000010              ............

08004348 <global_iclass_config>:
 8004348:	0000000d 64616552 7361545f 6143006b     ....Read_Task.Ca
 8004358:	525f326e 69656365 545f6576 006b7361     n2_Receive_Task.
 8004368:	326e6143 6172545f 696d736e 61545f74     Can2_Transmit_Ta
 8004378:	43006b73 5f316e61 6e617254 74696d73     sk.Can1_Transmit
 8004388:	7361545f 0043006b                       _Task.C.
