   1              	 .syntax unified
   2              	 .cpu cortex-m4
   3              	 .eabi_attribute 27,3
   4              	 .fpu fpv4-sp-d16
   5              	 .eabi_attribute 20,1
   6              	 .eabi_attribute 21,1
   7              	 .eabi_attribute 23,3
   8              	 .eabi_attribute 24,1
   9              	 .eabi_attribute 25,1
  10              	 .eabi_attribute 26,1
  11              	 .eabi_attribute 30,6
  12              	 .eabi_attribute 34,1
  13              	 .eabi_attribute 18,4
  14              	 .thumb
  15              	 .file "Subsystem_Brakelight.c"
  16              	 .text
  17              	.Ltext0:
  18              	 .cfi_sections .debug_frame
  19              	 .global __aeabi_dcmpgt
  20              	 .section .text.FUNC_Brakelight,"ax",%progbits
  21              	 .align 2
  22              	 .global FUNC_Brakelight
  23              	 .thumb
  24              	 .thumb_func
  26              	FUNC_Brakelight:
  27              	.LFB175:
  28              	 .file 1 "../Simulink/Subsystem_Brakelight.c"
   1:../Simulink/Subsystem_Brakelight.c **** /*
   2:../Simulink/Subsystem_Brakelight.c ****  * Academic License - for use in teaching, academic research, and meeting
   3:../Simulink/Subsystem_Brakelight.c ****  * course requirements at degree granting institutions only.  Not for
   4:../Simulink/Subsystem_Brakelight.c ****  * government, commercial, or other organizational use.
   5:../Simulink/Subsystem_Brakelight.c ****  *
   6:../Simulink/Subsystem_Brakelight.c ****  * File: Subsystem_Brakelight.c
   7:../Simulink/Subsystem_Brakelight.c ****  *
   8:../Simulink/Subsystem_Brakelight.c ****  * Code generated for Simulink model : VCU.
   9:../Simulink/Subsystem_Brakelight.c ****  * Model version      : 1.302
  10:../Simulink/Subsystem_Brakelight.c ****  * Simulink Coder version    : 8.14 (R2018a) 06-Feb-2018
  11:../Simulink/Subsystem_Brakelight.c ****  * TLC version       : 8.14 (Feb 22 2018)
  12:../Simulink/Subsystem_Brakelight.c ****  * C/C++ source code generated on  : Thu Jun 17 19:22:06 2021
  13:../Simulink/Subsystem_Brakelight.c ****  *
  14:../Simulink/Subsystem_Brakelight.c ****  * Target selection: Infineon_XMC_Family.tlc
  15:../Simulink/Subsystem_Brakelight.c ****  * Embedded hardware selection: ARM Compatible->ARM Cortex
  16:../Simulink/Subsystem_Brakelight.c ****  * Code generation objectives: Unspecified
  17:../Simulink/Subsystem_Brakelight.c ****  * Validation result: Not run
  18:../Simulink/Subsystem_Brakelight.c ****  */
  19:../Simulink/Subsystem_Brakelight.c **** 
  20:../Simulink/Subsystem_Brakelight.c **** #include "Subsystem_Brakelight.h"
  21:../Simulink/Subsystem_Brakelight.c **** 
  22:../Simulink/Subsystem_Brakelight.c **** /* Include model header file for global data */
  23:../Simulink/Subsystem_Brakelight.c **** #include "VCU.h"
  24:../Simulink/Subsystem_Brakelight.c **** #include "VCU_private.h"
  25:../Simulink/Subsystem_Brakelight.c **** 
  26:../Simulink/Subsystem_Brakelight.c **** /* Output and update for atomic system: '<Root>/Brakelight' */
  27:../Simulink/Subsystem_Brakelight.c **** void FUNC_Brakelight(void)
  28:../Simulink/Subsystem_Brakelight.c **** {
  29              	 .loc 1 28 0
  30              	 .cfi_startproc
  31              	 
  32              	 
  33 0000 98B5     	 push {r3,r4,r7,lr}
  34              	.LCFI0:
  35              	 .cfi_def_cfa_offset 16
  36              	 .cfi_offset 3,-16
  37              	 .cfi_offset 4,-12
  38              	 .cfi_offset 7,-8
  39              	 .cfi_offset 14,-4
  40 0002 00AF     	 add r7,sp,#0
  41              	.LCFI1:
  42              	 .cfi_def_cfa_register 7
  29:../Simulink/Subsystem_Brakelight.c ****   /* RelationalOperator: '<S1>/Relational Operator' incorporates:
  30:../Simulink/Subsystem_Brakelight.c ****    *  Constant: '<S1>/Constant'
  31:../Simulink/Subsystem_Brakelight.c ****    */
  32:../Simulink/Subsystem_Brakelight.c ****   VCU_B.RelationalOperator_c = (VCU_B.Add1_m > 5.0);
  43              	 .loc 1 32 0
  44 0004 204B     	 ldr r3,.L7
  45 0006 03F59863 	 add r3,r3,#1216
  46 000a D3E90023 	 ldrd r2,[r3]
  47 000e 0121     	 movs r1,#1
  48 0010 0C46     	 mov r4,r1
  49 0012 1046     	 mov r0,r2
  50 0014 1946     	 mov r1,r3
  51 0016 4FF00002 	 mov r2,#0
  52 001a 1C4B     	 ldr r3,.L7+4
  53 001c FFF7FEFF 	 bl __aeabi_dcmpgt
  54 0020 0346     	 mov r3,r0
  55 0022 002B     	 cmp r3,#0
  56 0024 01D1     	 bne .L2
  57 0026 0023     	 movs r3,#0
  58 0028 1C46     	 mov r4,r3
  59              	.L2:
  60 002a E3B2     	 uxtb r3,r4
  61 002c 1A46     	 mov r2,r3
  62 002e 164B     	 ldr r3,.L7
  63 0030 83F81428 	 strb r2,[r3,#2068]
  33:../Simulink/Subsystem_Brakelight.c **** 
  34:../Simulink/Subsystem_Brakelight.c ****   /* RelationalOperator: '<S1>/Relational Operator1' incorporates:
  35:../Simulink/Subsystem_Brakelight.c ****    *  Constant: '<S1>/Constant'
  36:../Simulink/Subsystem_Brakelight.c ****    */
  37:../Simulink/Subsystem_Brakelight.c ****   VCU_B.RelationalOperator1_b = (5.0 < VCU_B.Sensitivity1538mVbar);
  64              	 .loc 1 37 0
  65 0034 144B     	 ldr r3,.L7
  66 0036 03F5C763 	 add r3,r3,#1592
  67 003a D3E90023 	 ldrd r2,[r3]
  68 003e 0121     	 movs r1,#1
  69 0040 0C46     	 mov r4,r1
  70 0042 1046     	 mov r0,r2
  71 0044 1946     	 mov r1,r3
  72 0046 4FF00002 	 mov r2,#0
  73 004a 104B     	 ldr r3,.L7+4
  74 004c FFF7FEFF 	 bl __aeabi_dcmpgt
  75 0050 0346     	 mov r3,r0
  76 0052 002B     	 cmp r3,#0
  77 0054 01D1     	 bne .L3
  78 0056 0023     	 movs r3,#0
  79 0058 1C46     	 mov r4,r3
  80              	.L3:
  81 005a E3B2     	 uxtb r3,r4
  82 005c 1A46     	 mov r2,r3
  83 005e 0A4B     	 ldr r3,.L7
  84 0060 83F81528 	 strb r2,[r3,#2069]
  38:../Simulink/Subsystem_Brakelight.c **** 
  39:../Simulink/Subsystem_Brakelight.c ****   /* Logic: '<S1>/Logical Operator' */
  40:../Simulink/Subsystem_Brakelight.c ****   VCU_B.Brakelight = (VCU_B.RelationalOperator_c || VCU_B.RelationalOperator1_b);
  85              	 .loc 1 40 0
  86 0064 084B     	 ldr r3,.L7
  87 0066 93F81438 	 ldrb r3,[r3,#2068]
  88 006a 002B     	 cmp r3,#0
  89 006c 04D1     	 bne .L4
  90              	 .loc 1 40 0 is_stmt 0 discriminator 2
  91 006e 064B     	 ldr r3,.L7
  92 0070 93F81538 	 ldrb r3,[r3,#2069]
  93 0074 002B     	 cmp r3,#0
  94 0076 01D0     	 beq .L5
  95              	.L4:
  96              	 .loc 1 40 0 discriminator 3
  97 0078 0123     	 movs r3,#1
  98 007a 00E0     	 b .L6
  99              	.L5:
 100              	 .loc 1 40 0 discriminator 4
 101 007c 0023     	 movs r3,#0
 102              	.L6:
 103              	 .loc 1 40 0 discriminator 6
 104 007e DAB2     	 uxtb r2,r3
 105 0080 014B     	 ldr r3,.L7
 106 0082 83F81628 	 strb r2,[r3,#2070]
  41:../Simulink/Subsystem_Brakelight.c **** }
 107              	 .loc 1 41 0 is_stmt 1 discriminator 6
 108 0086 98BD     	 pop {r3,r4,r7,pc}
 109              	.L8:
 110              	 .align 2
 111              	.L7:
 112 0088 00000000 	 .word VCU_B
 113 008c 00001440 	 .word 1075052544
 114              	 .cfi_endproc
 115              	.LFE175:
 117              	 .text
 118              	.Letext0:
 119              	 .file 2 "../Simulink/rtwtypes.h"
 120              	 .file 3 "c:\\dave\\dave-ide-4.4.2-64bit\\eclipse\\arm-gcc-49\\arm-none-eabi\\include\\machine\\_default_types.h"
 121              	 .file 4 "c:\\dave\\dave-ide-4.4.2-64bit\\eclipse\\arm-gcc-49\\arm-none-eabi\\include\\stdint.h"
 122              	 .file 5 "../Simulink/VCU.h"
 123              	 .file 6 "C:/Users/Yoshi/Documents/GitHub/Software/01_jrg/03_VCUJR20/2021_06_17_VCU_jr20_Source/2021_06_17_VCU_jr20_Source/Libraries/CMSIS/Include/cmsis_gcc.h"
 124              	 .file 7 "C:/Users/Yoshi/Documents/GitHub/Software/01_jrg/03_VCUJR20/2021_06_17_VCU_jr20_Source/2021_06_17_VCU_jr20_Source/Libraries/CMSIS/Include/core_cm4.h"
 125              	 .file 8 "C:/Users/Yoshi/Documents/GitHub/Software/01_jrg/03_VCUJR20/2021_06_17_VCU_jr20_Source/2021_06_17_VCU_jr20_Source/Libraries/CMSIS/Infineon/XMC4500_series/Include/system_XMC4500.h"