Archive member included because of file (symbol)

c:/dave/dave-ide-4.4.2-64bit/eclipse/arm-gcc-49/bin/../lib/gcc/arm-none-eabi/4.9.3/armv7e-m/softfp\libgcc.a(_aeabi_uldivmod.o)
                              ./Dave/Generated/TIMER/timer.o (__aeabi_uldivmod)
c:/dave/dave-ide-4.4.2-64bit/eclipse/arm-gcc-49/bin/../lib/gcc/arm-none-eabi/4.9.3/armv7e-m/softfp\libgcc.a(bpabi.o)
                              c:/dave/dave-ide-4.4.2-64bit/eclipse/arm-gcc-49/bin/../lib/gcc/arm-none-eabi/4.9.3/armv7e-m/softfp\libgcc.a(_aeabi_uldivmod.o) (__gnu_uldivmod_helper)
c:/dave/dave-ide-4.4.2-64bit/eclipse/arm-gcc-49/bin/../lib/gcc/arm-none-eabi/4.9.3/armv7e-m/softfp\libgcc.a(_dvmd_tls.o)
                              c:/dave/dave-ide-4.4.2-64bit/eclipse/arm-gcc-49/bin/../lib/gcc/arm-none-eabi/4.9.3/armv7e-m/softfp\libgcc.a(_aeabi_uldivmod.o) (__aeabi_ldiv0)
c:/dave/dave-ide-4.4.2-64bit/eclipse/arm-gcc-49/bin/../lib/gcc/arm-none-eabi/4.9.3/armv7e-m/softfp\libgcc.a(_divdi3.o)
                              c:/dave/dave-ide-4.4.2-64bit/eclipse/arm-gcc-49/bin/../lib/gcc/arm-none-eabi/4.9.3/armv7e-m/softfp\libgcc.a(bpabi.o) (__divdi3)
c:/dave/dave-ide-4.4.2-64bit/eclipse/arm-gcc-49/bin/../lib/gcc/arm-none-eabi/4.9.3/armv7e-m/softfp\libgcc.a(_udivdi3.o)
                              c:/dave/dave-ide-4.4.2-64bit/eclipse/arm-gcc-49/bin/../lib/gcc/arm-none-eabi/4.9.3/armv7e-m/softfp\libgcc.a(bpabi.o) (__udivdi3)
c:/dave/dave-ide-4.4.2-64bit/eclipse/arm-gcc-49/bin/../lib/gcc/arm-none-eabi/4.9.3/../../../../arm-none-eabi/lib/armv7e-m/softfp\libg_nano.a(lib_a-errno.o)
                              ./Libraries/Newlib/syscalls.o (__errno)
c:/dave/dave-ide-4.4.2-64bit/eclipse/arm-gcc-49/bin/../lib/gcc/arm-none-eabi/4.9.3/../../../../arm-none-eabi/lib/armv7e-m/softfp\libg_nano.a(lib_a-impure.o)
                              c:/dave/dave-ide-4.4.2-64bit/eclipse/arm-gcc-49/bin/../lib/gcc/arm-none-eabi/4.9.3/../../../../arm-none-eabi/lib/armv7e-m/softfp\libg_nano.a(lib_a-errno.o) (_impure_ptr)
c:/dave/dave-ide-4.4.2-64bit/eclipse/arm-gcc-49/bin/../lib/gcc/arm-none-eabi/4.9.3/../../../../arm-none-eabi/lib/armv7e-m/softfp\libg_nano.a(lib_a-init.o)
                              ./Startup/startup_XMC4500.o (__libc_init_array)
c:/dave/dave-ide-4.4.2-64bit/eclipse/arm-gcc-49/bin/../lib/gcc/arm-none-eabi/4.9.3/../../../../arm-none-eabi/lib/armv7e-m/softfp\libg_nano.a(lib_a-memcpy.o)
                              ./Libraries/XMCLib/src/xmc_eth_mac.o (memcpy)
c:/dave/dave-ide-4.4.2-64bit/eclipse/arm-gcc-49/bin/../lib/gcc/arm-none-eabi/4.9.3/../../../../arm-none-eabi/lib/armv7e-m/softfp\libg_nano.a(lib_a-memset.o)
                              ./Libraries/XMCLib/src/xmc_usbd.o (memset)

Allocating common symbols
Common symbol       size              file

dma0_event_handlers
                    0x20              ./Libraries/XMCLib/src/xmc_dma.o
pipe                0x1c0             ./Libraries/XMCLib/src/xmc_usbh.o
dma1_event_handlers
                    0x10              ./Libraries/XMCLib/src/xmc_dma.o
event_handler_list  0x80              ./Libraries/XMCLib/src/xmc4_scu.o
delay_count         0x4               ./main.o
is_nack             0xe               ./Libraries/XMCLib/src/xmc_usbh.o
carData             0xbb              ./main.o
buffer              0x6               ./main.o
usbd_init           0x4               ./Libraries/XMCLib/src/xmc_usbd.o
xmc_device          0x208             ./Libraries/XMCLib/src/xmc_usbd.o

Discarded input sections

 .text          0x00000000        0x0 ./Startup/startup_XMC4500.o
 .data          0x00000000        0x0 ./Startup/startup_XMC4500.o
 .bss           0x00000000        0x0 ./Startup/startup_XMC4500.o
 .text          0x00000000        0x0 ./Startup/system_XMC4500.o
 .data          0x00000000        0x0 ./Startup/system_XMC4500.o
 .bss           0x00000000        0x0 ./Startup/system_XMC4500.o
 .text.delay    0x00000000       0x28 ./Startup/system_XMC4500.o
 .text.SystemCoreSetup
                0x00000000       0x70 ./Startup/system_XMC4500.o
 .text.SystemCoreClockSetup
                0x00000000      0x208 ./Startup/system_XMC4500.o
 .text.OSCHP_GetFrequency
                0x00000000       0x14 ./Startup/system_XMC4500.o
 .comment       0x00000000       0x71 ./Startup/system_XMC4500.o
 .text          0x00000000        0x0 ./Libraries/XMCLib/src/xmc4_eru.o
 .data          0x00000000        0x0 ./Libraries/XMCLib/src/xmc4_eru.o
 .bss           0x00000000        0x0 ./Libraries/XMCLib/src/xmc4_eru.o
 .text.XMC_ERU_Enable
                0x00000000       0x24 ./Libraries/XMCLib/src/xmc4_eru.o
 .text.XMC_ERU_Disable
                0x00000000       0x24 ./Libraries/XMCLib/src/xmc4_eru.o
 .debug_info    0x00000000      0x4ae ./Libraries/XMCLib/src/xmc4_eru.o
 .debug_abbrev  0x00000000      0x13b ./Libraries/XMCLib/src/xmc4_eru.o
 .debug_loc     0x00000000       0xa0 ./Libraries/XMCLib/src/xmc4_eru.o
 .debug_aranges
                0x00000000       0x28 ./Libraries/XMCLib/src/xmc4_eru.o
 .debug_ranges  0x00000000       0x18 ./Libraries/XMCLib/src/xmc4_eru.o
 .debug_line    0x00000000      0x2a0 ./Libraries/XMCLib/src/xmc4_eru.o
 .debug_str     0x00000000      0x611 ./Libraries/XMCLib/src/xmc4_eru.o
 .comment       0x00000000       0x71 ./Libraries/XMCLib/src/xmc4_eru.o
 .debug_frame   0x00000000       0x60 ./Libraries/XMCLib/src/xmc4_eru.o
 .ARM.attributes
                0x00000000       0x37 ./Libraries/XMCLib/src/xmc4_eru.o
 .text          0x00000000        0x0 ./Libraries/XMCLib/src/xmc4_flash.o
 .data          0x00000000        0x0 ./Libraries/XMCLib/src/xmc4_flash.o
 .bss           0x00000000        0x0 ./Libraries/XMCLib/src/xmc4_flash.o
 .text.XMC_FLASH_lEnterPageModeCommand
                0x00000000       0x20 ./Libraries/XMCLib/src/xmc4_flash.o
 .text.XMC_FLASH_lLoadPageCommand
                0x00000000       0x30 ./Libraries/XMCLib/src/xmc4_flash.o
 .text.XMC_FLASH_lWritePageCommand
                0x00000000       0x44 ./Libraries/XMCLib/src/xmc4_flash.o
 .text.XMC_FLASH_lWriteUCBPageCommand
                0x00000000       0x44 ./Libraries/XMCLib/src/xmc4_flash.o
 .text.XMC_FLASH_lEraseSectorCommand
                0x00000000       0x58 ./Libraries/XMCLib/src/xmc4_flash.o
 .text.XMC_FLASH_lDisableSectorWriteProtectionCommand
                0x00000000       0x64 ./Libraries/XMCLib/src/xmc4_flash.o
 .text.XMC_FLASH_lDisableReadProtectionCommand
                0x00000000       0x60 ./Libraries/XMCLib/src/xmc4_flash.o
 .text.XMC_FLASH_lClearStatusCommand
                0x00000000       0x20 ./Libraries/XMCLib/src/xmc4_flash.o
 .text.XMC_FLASH_ClearStatus
                0x00000000        0xc ./Libraries/XMCLib/src/xmc4_flash.o
 .text.XMC_FLASH_GetStatus
                0x00000000       0x1c ./Libraries/XMCLib/src/xmc4_flash.o
 .text.XMC_FLASH_EnableEvent
                0x00000000       0x30 ./Libraries/XMCLib/src/xmc4_flash.o
 .text.XMC_FLASH_DisableEvent
                0x00000000       0x30 ./Libraries/XMCLib/src/xmc4_flash.o
 .text.XMC_FLASH_ProgramPage
                0x00000000       0x68 ./Libraries/XMCLib/src/xmc4_flash.o
 .text.XMC_FLASH_EraseSector
                0x00000000       0x30 ./Libraries/XMCLib/src/xmc4_flash.o
 .text.XMC_FLASH_lErasePhysicalSectorCommand
                0x00000000       0x58 ./Libraries/XMCLib/src/xmc4_flash.o
 .text.XMC_FLASH_lRepairPhysicalSectorCommand
                0x00000000       0x58 ./Libraries/XMCLib/src/xmc4_flash.o
 .text.XMC_FLASH_ErasePhysicalSector
                0x00000000       0x30 ./Libraries/XMCLib/src/xmc4_flash.o
 .text.XMC_FLASH_RepairPhysicalSector
                0x00000000       0x10 ./Libraries/XMCLib/src/xmc4_flash.o
 .text.XMC_FLASH_EraseUCB
                0x00000000       0x70 ./Libraries/XMCLib/src/xmc4_flash.o
 .text.XMC_FLASH_Reset
                0x00000000       0x20 ./Libraries/XMCLib/src/xmc4_flash.o
 .text.XMC_FLASH_InstallBMI
                0x00000000       0xd8 ./Libraries/XMCLib/src/xmc4_flash.o
 .text.XMC_FLASH_InstallProtection
                0x00000000       0x7c ./Libraries/XMCLib/src/xmc4_flash.o
 .text.XMC_FLASH_ConfirmProtection
                0x00000000       0x6c ./Libraries/XMCLib/src/xmc4_flash.o
 .text.XMC_FLASH_VerifyReadProtection
                0x00000000       0x48 ./Libraries/XMCLib/src/xmc4_flash.o
 .text.XMC_FLASH_VerifyWriteProtection
                0x00000000       0x84 ./Libraries/XMCLib/src/xmc4_flash.o
 .text.XMC_FLASH_ResumeProtection
                0x00000000       0x20 ./Libraries/XMCLib/src/xmc4_flash.o
 .debug_info    0x00000000      0x97e ./Libraries/XMCLib/src/xmc4_flash.o
 .debug_abbrev  0x00000000      0x1ee ./Libraries/XMCLib/src/xmc4_flash.o
 .debug_loc     0x00000000      0x880 ./Libraries/XMCLib/src/xmc4_flash.o
 .debug_aranges
                0x00000000       0xe8 ./Libraries/XMCLib/src/xmc4_flash.o
 .debug_ranges  0x00000000       0xd8 ./Libraries/XMCLib/src/xmc4_flash.o
 .debug_line    0x00000000      0x565 ./Libraries/XMCLib/src/xmc4_flash.o
 .debug_str     0x00000000      0xbb8 ./Libraries/XMCLib/src/xmc4_flash.o
 .comment       0x00000000       0x71 ./Libraries/XMCLib/src/xmc4_flash.o
 .debug_frame   0x00000000      0x404 ./Libraries/XMCLib/src/xmc4_flash.o
 .ARM.attributes
                0x00000000       0x37 ./Libraries/XMCLib/src/xmc4_flash.o
 .text          0x00000000        0x0 ./Libraries/XMCLib/src/xmc4_gpio.o
 .data          0x00000000        0x0 ./Libraries/XMCLib/src/xmc4_gpio.o
 .bss           0x00000000        0x0 ./Libraries/XMCLib/src/xmc4_gpio.o
 .text.XMC_GPIO_SetOutputStrength
                0x00000000       0x84 ./Libraries/XMCLib/src/xmc4_gpio.o
 .comment       0x00000000       0x71 ./Libraries/XMCLib/src/xmc4_gpio.o
 .text          0x00000000        0x0 ./Libraries/XMCLib/src/xmc4_rtc.o
 .data          0x00000000        0x0 ./Libraries/XMCLib/src/xmc4_rtc.o
 .bss           0x00000000        0x0 ./Libraries/XMCLib/src/xmc4_rtc.o
 .text.XMC_RTC_IsRunning
                0x00000000       0x24 ./Libraries/XMCLib/src/xmc4_rtc.o
 .text.XMC_SCU_GetMirrorStatus
                0x00000000       0x18 ./Libraries/XMCLib/src/xmc4_rtc.o
 .text.XMC_RTC_Enable
                0x00000000        0xc ./Libraries/XMCLib/src/xmc4_rtc.o
 .text.XMC_RTC_Disable
                0x00000000        0xc ./Libraries/XMCLib/src/xmc4_rtc.o
 .text.XMC_RTC_IsEnabled
                0x00000000       0x10 ./Libraries/XMCLib/src/xmc4_rtc.o
 .text.XMC_RTC_Init
                0x00000000       0xa4 ./Libraries/XMCLib/src/xmc4_rtc.o
 .text.XMC_RTC_EnableEvent
                0x00000000       0x30 ./Libraries/XMCLib/src/xmc4_rtc.o
 .text.XMC_RTC_DisableEvent
                0x00000000       0x30 ./Libraries/XMCLib/src/xmc4_rtc.o
 .text.XMC_RTC_ClearEvent
                0x00000000       0x28 ./Libraries/XMCLib/src/xmc4_rtc.o
 .text.XMC_RTC_EnableHibernationWakeUp
                0x00000000       0x30 ./Libraries/XMCLib/src/xmc4_rtc.o
 .text.XMC_RTC_DisableHibernationWakeUp
                0x00000000       0x30 ./Libraries/XMCLib/src/xmc4_rtc.o
 .debug_info    0x00000000      0x702 ./Libraries/XMCLib/src/xmc4_rtc.o
 .debug_abbrev  0x00000000      0x1e5 ./Libraries/XMCLib/src/xmc4_rtc.o
 .debug_loc     0x00000000      0x304 ./Libraries/XMCLib/src/xmc4_rtc.o
 .debug_aranges
                0x00000000       0x70 ./Libraries/XMCLib/src/xmc4_rtc.o
 .debug_ranges  0x00000000       0x60 ./Libraries/XMCLib/src/xmc4_rtc.o
 .debug_line    0x00000000      0x3b0 ./Libraries/XMCLib/src/xmc4_rtc.o
 .debug_str     0x00000000      0x518 ./Libraries/XMCLib/src/xmc4_rtc.o
 .comment       0x00000000       0x71 ./Libraries/XMCLib/src/xmc4_rtc.o
 .debug_frame   0x00000000      0x1a4 ./Libraries/XMCLib/src/xmc4_rtc.o
 .ARM.attributes
                0x00000000       0x37 ./Libraries/XMCLib/src/xmc4_rtc.o
 .text          0x00000000        0x0 ./Libraries/XMCLib/src/xmc4_scu.o
 .data          0x00000000        0x0 ./Libraries/XMCLib/src/xmc4_scu.o
 .bss           0x00000000        0x0 ./Libraries/XMCLib/src/xmc4_scu.o
 .text.XMC_SCU_CLOCK_GetUsbClockSource
                0x00000000       0x1c ./Libraries/XMCLib/src/xmc4_scu.o
 .text.XMC_SCU_CLOCK_GetWdtClockSource
                0x00000000       0x1c ./Libraries/XMCLib/src/xmc4_scu.o
 .text.XMC_SCU_CLOCK_GetExternalOutputClockSource
                0x00000000       0x20 ./Libraries/XMCLib/src/xmc4_scu.o
 .text.XMC_SCU_CLOCK_GetSystemClockFrequency
                0x00000000       0x28 ./Libraries/XMCLib/src/xmc4_scu.o
 .text.XMC_SCU_INTERRUPT_EnableEvent
                0x00000000       0x24 ./Libraries/XMCLib/src/xmc4_scu.o
 .text.XMC_SCU_INTERRUPT_DisableEvent
                0x00000000       0x24 ./Libraries/XMCLib/src/xmc4_scu.o
 .text.XMC_SCU_INTERRUPT_TriggerEvent
                0x00000000       0x24 ./Libraries/XMCLib/src/xmc4_scu.o
 .text.XMC_SCU_INTERUPT_GetEventStatus
                0x00000000       0x18 ./Libraries/XMCLib/src/xmc4_scu.o
 .text.XMC_SCU_INTERRUPT_ClearEventStatus
                0x00000000       0x1c ./Libraries/XMCLib/src/xmc4_scu.o
 .text.XMC_SCU_GetBootMode
                0x00000000       0x1c ./Libraries/XMCLib/src/xmc4_scu.o
 .text.XMC_SCU_SetBootMode
                0x00000000       0x20 ./Libraries/XMCLib/src/xmc4_scu.o
 .text.XMC_SCU_ReadGPR
                0x00000000       0x24 ./Libraries/XMCLib/src/xmc4_scu.o
 .text.XMC_SCU_WriteGPR
                0x00000000       0x28 ./Libraries/XMCLib/src/xmc4_scu.o
 .text.XMC_SCU_EnableOutOfRangeComparator
                0x00000000       0x38 ./Libraries/XMCLib/src/xmc4_scu.o
 .text.XMC_SCU_DisableOutOfRangeComparator
                0x00000000       0x38 ./Libraries/XMCLib/src/xmc4_scu.o
 .text.XMC_SCU_CalibrateTemperatureSensor
                0x00000000       0x2c ./Libraries/XMCLib/src/xmc4_scu.o
 .text.XMC_SCU_EnableTemperatureSensor
                0x00000000       0x20 ./Libraries/XMCLib/src/xmc4_scu.o
 .text.XMC_SCU_DisableTemperatureSensor
                0x00000000       0x20 ./Libraries/XMCLib/src/xmc4_scu.o
 .text.XMC_SCU_IsTemperatureSensorEnabled
                0x00000000       0x28 ./Libraries/XMCLib/src/xmc4_scu.o
 .text.XMC_SCU_IsTemperatureSensorReady
                0x00000000       0x28 ./Libraries/XMCLib/src/xmc4_scu.o
 .text.XMC_SCU_StartTemperatureMeasurement
                0x00000000       0x4c ./Libraries/XMCLib/src/xmc4_scu.o
 .text.XMC_SCU_GetTemperatureMeasurement
                0x00000000       0x38 ./Libraries/XMCLib/src/xmc4_scu.o
 .text.XMC_SCU_IsTemperatureSensorBusy
                0x00000000       0x28 ./Libraries/XMCLib/src/xmc4_scu.o
 .text.XMC_SCU_WriteToRetentionMemory
                0x00000000       0x4c ./Libraries/XMCLib/src/xmc4_scu.o
 .text.XMC_SCU_ReadFromRetentionMemory
                0x00000000       0x48 ./Libraries/XMCLib/src/xmc4_scu.o
 .text.XMC_SCU_TRAP_Enable
                0x00000000       0x24 ./Libraries/XMCLib/src/xmc4_scu.o
 .text.XMC_SCU_TRAP_Disable
                0x00000000       0x24 ./Libraries/XMCLib/src/xmc4_scu.o
 .text.XMC_SCU_TRAP_GetStatus
                0x00000000       0x18 ./Libraries/XMCLib/src/xmc4_scu.o
 .text.XMC_SCU_TRAP_Trigger
                0x00000000       0x1c ./Libraries/XMCLib/src/xmc4_scu.o
 .text.XMC_SCU_TRAP_ClearStatus
                0x00000000       0x1c ./Libraries/XMCLib/src/xmc4_scu.o
 .text.XMC_SCU_PARITY_ClearStatus
                0x00000000       0x24 ./Libraries/XMCLib/src/xmc4_scu.o
 .text.XMC_SCU_PARITY_GetStatus
                0x00000000       0x18 ./Libraries/XMCLib/src/xmc4_scu.o
 .text.XMC_SCU_PARITY_Enable
                0x00000000       0x24 ./Libraries/XMCLib/src/xmc4_scu.o
 .text.XMC_SCU_PARITY_Disable
                0x00000000       0x24 ./Libraries/XMCLib/src/xmc4_scu.o
 .text.XMC_SCU_PARITY_EnableTrapGeneration
                0x00000000       0x24 ./Libraries/XMCLib/src/xmc4_scu.o
 .text.XMC_SCU_PARITY_DisableTrapGeneration
                0x00000000       0x24 ./Libraries/XMCLib/src/xmc4_scu.o
 .text.XMC_SCU_INTERRUPT_EnableNmiRequest
                0x00000000       0x24 ./Libraries/XMCLib/src/xmc4_scu.o
 .text.XMC_SCU_INTERRUPT_DisableNmiRequest
                0x00000000       0x24 ./Libraries/XMCLib/src/xmc4_scu.o
 .text.XMC_SCU_RESET_AssertPeripheralReset
                0x00000000       0x38 ./Libraries/XMCLib/src/xmc4_scu.o
 .text.XMC_SCU_RESET_IsPeripheralResetAsserted
                0x00000000       0x48 ./Libraries/XMCLib/src/xmc4_scu.o
 .text.XMC_SCU_CLOCK_GetSystemPllClockFrequency
                0x00000000       0x7c ./Libraries/XMCLib/src/xmc4_scu.o
 .text.XMC_SCU_CLOCK_GetSystemPllClockSourceFrequency
                0x00000000       0x30 ./Libraries/XMCLib/src/xmc4_scu.o
 .text.XMC_SCU_CLOCK_GetUsbPllClockFrequency
                0x00000000       0x54 ./Libraries/XMCLib/src/xmc4_scu.o
 .text.XMC_SCU_CLOCK_GetCcuClockFrequency
                0x00000000       0x2c ./Libraries/XMCLib/src/xmc4_scu.o
 .text.XMC_SCU_CLOCK_GetUsbClockFrequency
                0x00000000       0x48 ./Libraries/XMCLib/src/xmc4_scu.o
 .text.XMC_SCU_CLOCK_GetEbuClockFrequency
                0x00000000       0x28 ./Libraries/XMCLib/src/xmc4_scu.o
 .text.XMC_SCU_CLOCK_GetWdtClockFrequency
                0x00000000       0x58 ./Libraries/XMCLib/src/xmc4_scu.o
 .text.XMC_SCU_CLOCK_GetExternalOutputClockFrequency
                0x00000000       0x74 ./Libraries/XMCLib/src/xmc4_scu.o
 .text.XMC_SCU_CLOCK_SetExternalOutputClockSource
                0x00000000       0x28 ./Libraries/XMCLib/src/xmc4_scu.o
 .text.XMC_SCU_CLOCK_SetExternalOutputClockDivider
                0x00000000       0x30 ./Libraries/XMCLib/src/xmc4_scu.o
 .text.XMC_SCU_CLOCK_DisableClock
                0x00000000       0x20 ./Libraries/XMCLib/src/xmc4_scu.o
 .text.XMC_SCU_CLOCK_IsClockEnabled
                0x00000000       0x2c ./Libraries/XMCLib/src/xmc4_scu.o
 .text.XMC_SCU_POWER_GetEVR13Voltage
                0x00000000       0x30 ./Libraries/XMCLib/src/xmc4_scu.o
 .text.XMC_SCU_POWER_GetEVR33Voltage
                0x00000000       0x34 ./Libraries/XMCLib/src/xmc4_scu.o
 .text.XMC_SCU_CLOCK_EnableUsbPll
                0x00000000       0x20 ./Libraries/XMCLib/src/xmc4_scu.o
 .text.XMC_SCU_CLOCK_DisableUsbPll
                0x00000000       0x20 ./Libraries/XMCLib/src/xmc4_scu.o
 .text.XMC_SCU_CLOCK_StopUsbPll
                0x00000000       0x1c ./Libraries/XMCLib/src/xmc4_scu.o
 .text.XMC_SCU_POWER_EnableUsb
                0x00000000       0x18 ./Libraries/XMCLib/src/xmc4_scu.o
 .text.XMC_SCU_POWER_DisableUsb
                0x00000000       0x18 ./Libraries/XMCLib/src/xmc4_scu.o
 .text.XMC_SCU_CLOCK_IsUsbPllLocked
                0x00000000       0x24 ./Libraries/XMCLib/src/xmc4_scu.o
 .text.XMC_SCU_HIB_DisableHibernateDomain
                0x00000000       0x24 ./Libraries/XMCLib/src/xmc4_scu.o
 .text.XMC_SCU_HIB_IsHibernateDomainEnabled
                0x00000000       0x3c ./Libraries/XMCLib/src/xmc4_scu.o
 .text.XMC_SCU_HIB_EnableInternalSlowClock
                0x00000000       0x30 ./Libraries/XMCLib/src/xmc4_scu.o
 .text.XMC_SCU_HIB_DisableInternalSlowClock
                0x00000000       0x30 ./Libraries/XMCLib/src/xmc4_scu.o
 .text.XMC_SCU_HIB_ClearEventStatus
                0x00000000       0x30 ./Libraries/XMCLib/src/xmc4_scu.o
 .text.XMC_SCU_HIB_TriggerEvent
                0x00000000       0x30 ./Libraries/XMCLib/src/xmc4_scu.o
 .text.XMC_SCU_HIB_EnableEvent
                0x00000000       0x38 ./Libraries/XMCLib/src/xmc4_scu.o
 .text.XMC_SCU_HIB_DisableEvent
                0x00000000       0x38 ./Libraries/XMCLib/src/xmc4_scu.o
 .text.XMC_SCU_HIB_EnterHibernateState
                0x00000000       0x30 ./Libraries/XMCLib/src/xmc4_scu.o
 .text.XMC_SCU_HIB_EnterHibernateStateEx
                0x00000000       0x1c ./Libraries/XMCLib/src/xmc4_scu.o
 .text.XMC_SCU_HIB_SetWakeupTriggerInput
                0x00000000       0x4c ./Libraries/XMCLib/src/xmc4_scu.o
 .text.XMC_SCU_HIB_SetPinMode
                0x00000000       0x54 ./Libraries/XMCLib/src/xmc4_scu.o
 .text.XMC_SCU_HIB_SetPinOutputLevel
                0x00000000       0x54 ./Libraries/XMCLib/src/xmc4_scu.o
 .text.XMC_SCU_HIB_SetInput0
                0x00000000       0x4c ./Libraries/XMCLib/src/xmc4_scu.o
 .text.XMC_SCU_HIB_SetSR0Input
                0x00000000       0x3c ./Libraries/XMCLib/src/xmc4_scu.o
 .text.XMC_SCU_CLOCK_DisableLowPowerOscillator
                0x00000000       0x30 ./Libraries/XMCLib/src/xmc4_scu.o
 .text.XMC_SCU_CLOCK_EnableLowPowerOscillatorGeneralPurposeInput
                0x00000000       0x30 ./Libraries/XMCLib/src/xmc4_scu.o
 .text.XMC_SCU_CLOCK_DisableLowPowerOscillatorGeneralPurposeInput
                0x00000000       0x34 ./Libraries/XMCLib/src/xmc4_scu.o
 .text.XMC_SCU_CLOCK_GetLowPowerOscillatorGeneralPurposeInputStatus
                0x00000000       0x1c ./Libraries/XMCLib/src/xmc4_scu.o
 .text.XMC_SCU_CLOCK_DisableHighPerformanceOscillator
                0x00000000       0x1c ./Libraries/XMCLib/src/xmc4_scu.o
 .text.XMC_SCU_CLOCK_EnableHighPerformanceOscillatorGeneralPurposeInput
                0x00000000       0x1c ./Libraries/XMCLib/src/xmc4_scu.o
 .text.XMC_SCU_CLOCK_DisableHighPerformanceOscillatorGeneralPurposeInput
                0x00000000       0x1c ./Libraries/XMCLib/src/xmc4_scu.o
 .text.XMC_SCU_CLOCK_GetHighPerformanceOscillatorGeneralPurposeInputStatus
                0x00000000       0x1c ./Libraries/XMCLib/src/xmc4_scu.o
 .text.XMC_SCU_CLOCK_StopSystemPll
                0x00000000       0x1c ./Libraries/XMCLib/src/xmc4_scu.o
 .text.XMC_SCU_CLOCK_IsSystemPllLocked
                0x00000000       0x24 ./Libraries/XMCLib/src/xmc4_scu.o
 .text.XMC_SCU_INTERRUPT_SetEventHandler
                0x00000000       0x58 ./Libraries/XMCLib/src/xmc4_scu.o
 .text.XMC_SCU_IRQHandler
                0x00000000       0x60 ./Libraries/XMCLib/src/xmc4_scu.o
 .comment       0x00000000       0x71 ./Libraries/XMCLib/src/xmc4_scu.o
 COMMON         0x00000000       0x80 ./Libraries/XMCLib/src/xmc4_scu.o
 .text          0x00000000        0x0 ./Libraries/XMCLib/src/xmc_can.o
 .data          0x00000000        0x0 ./Libraries/XMCLib/src/xmc_can.o
 .bss           0x00000000        0x0 ./Libraries/XMCLib/src/xmc_can.o
 .text.XMC_CAN_NODE_NominalBitTimeConfigureEx
                0x00000000      0x120 ./Libraries/XMCLib/src/xmc_can.o
 .text.XMC_CAN_Disable
                0x00000000       0x20 ./Libraries/XMCLib/src/xmc_can.o
 .text.XMC_CAN_SetBaudrateClockSource
                0x00000000       0x18 ./Libraries/XMCLib/src/xmc_can.o
 .text.XMC_CAN_GetBaudrateClockSource
                0x00000000       0x18 ./Libraries/XMCLib/src/xmc_can.o
 .text.XMC_CAN_GetBaudrateClockFrequency
                0x00000000       0x18 ./Libraries/XMCLib/src/xmc_can.o
 .text.XMC_CAN_InitEx
                0x00000000       0x80 ./Libraries/XMCLib/src/xmc_can.o
 .text.XMC_CAN_MO_SetIdentifier
                0x00000000       0x68 ./Libraries/XMCLib/src/xmc_can.o
 .text.XMC_CAN_MO_GetIdentifier
                0x00000000       0x40 ./Libraries/XMCLib/src/xmc_can.o
 .text.XMC_CAN_MO_GetAcceptanceMask
                0x00000000       0x50 ./Libraries/XMCLib/src/xmc_can.o
 .text.XMC_CAN_MO_SetAcceptanceMask
                0x00000000       0x70 ./Libraries/XMCLib/src/xmc_can.o
 .text.XMC_CAN_MO_Transmit
                0x00000000       0x5c ./Libraries/XMCLib/src/xmc_can.o
 .text.XMC_CAN_NODE_DisableEvent
                0x00000000       0x3c ./Libraries/XMCLib/src/xmc_can.o
 .text.XMC_CAN_TXFIFO_Transmit
                0x00000000       0x78 ./Libraries/XMCLib/src/xmc_can.o
 .text.XMC_CAN_TXFIFO_ConfigMOBaseObject
                0x00000000       0x50 ./Libraries/XMCLib/src/xmc_can.o
 .text.XMC_CAN_RXFIFO_ConfigMOBaseObject
                0x00000000       0x50 ./Libraries/XMCLib/src/xmc_can.o
 .text.XMC_CAN_TXFIFO_ConfigMOSlaveObject
                0x00000000       0x50 ./Libraries/XMCLib/src/xmc_can.o
 .text.XMC_CAN_GATEWAY_InitSourceObject
                0x00000000       0x64 ./Libraries/XMCLib/src/xmc_can.o
 .comment       0x00000000       0x71 ./Libraries/XMCLib/src/xmc_can.o
 .text          0x00000000        0x0 ./Libraries/XMCLib/src/xmc_ccu4.o
 .data          0x00000000        0x0 ./Libraries/XMCLib/src/xmc_ccu4.o
 .bss           0x00000000        0x0 ./Libraries/XMCLib/src/xmc_ccu4.o
 .text.XMC_CCU4_SLICE_SetDitherCompareValue
                0x00000000       0x1c ./Libraries/XMCLib/src/xmc_ccu4.o
 .text.XMC_CCU4_lAssertReset
                0x00000000       0x60 ./Libraries/XMCLib/src/xmc_ccu4.o
 .text.XMC_CCU4_DisableModule
                0x00000000       0x14 ./Libraries/XMCLib/src/xmc_ccu4.o
 .text.XMC_CCU4_SetModuleClock
                0x00000000       0x34 ./Libraries/XMCLib/src/xmc_ccu4.o
 .text.XMC_CCU4_SetMultiChannelShadowTransferMode
                0x00000000       0x38 ./Libraries/XMCLib/src/xmc_ccu4.o
 .text.XMC_CCU4_SLICE_CaptureInit
                0x00000000       0x4c ./Libraries/XMCLib/src/xmc_ccu4.o
 .text.XMC_CCU4_SLICE_StartConfig
                0x00000000       0x5c ./Libraries/XMCLib/src/xmc_ccu4.o
 .text.XMC_CCU4_SLICE_StopConfig
                0x00000000       0x58 ./Libraries/XMCLib/src/xmc_ccu4.o
 .text.XMC_CCU4_SLICE_LoadConfig
                0x00000000       0x34 ./Libraries/XMCLib/src/xmc_ccu4.o
 .text.XMC_CCU4_SLICE_ModulationConfig
                0x00000000       0x80 ./Libraries/XMCLib/src/xmc_ccu4.o
 .text.XMC_CCU4_SLICE_CountConfig
                0x00000000       0x34 ./Libraries/XMCLib/src/xmc_ccu4.o
 .text.XMC_CCU4_SLICE_GateConfig
                0x00000000       0x34 ./Libraries/XMCLib/src/xmc_ccu4.o
 .text.XMC_CCU4_SLICE_Capture0Config
                0x00000000       0x34 ./Libraries/XMCLib/src/xmc_ccu4.o
 .text.XMC_CCU4_SLICE_Capture1Config
                0x00000000       0x34 ./Libraries/XMCLib/src/xmc_ccu4.o
 .text.XMC_CCU4_SLICE_DirectionConfig
                0x00000000       0x34 ./Libraries/XMCLib/src/xmc_ccu4.o
 .text.XMC_CCU4_SLICE_StatusBitOverrideConfig
                0x00000000       0x30 ./Libraries/XMCLib/src/xmc_ccu4.o
 .text.XMC_CCU4_SLICE_TrapConfig
                0x00000000       0x74 ./Libraries/XMCLib/src/xmc_ccu4.o
 .text.XMC_CCU4_SLICE_ConfigureStatusBitOverrideEvent
                0x00000000       0xc4 ./Libraries/XMCLib/src/xmc_ccu4.o
 .text.XMC_CCU4_SLICE_ConfigureEvent
                0x00000000       0xd4 ./Libraries/XMCLib/src/xmc_ccu4.o
 .text.XMC_CCU4_SLICE_SetInput
                0x00000000       0x50 ./Libraries/XMCLib/src/xmc_ccu4.o
 .text.XMC_CCU4_SLICE_SetTimerRepeatMode
                0x00000000       0x38 ./Libraries/XMCLib/src/xmc_ccu4.o
 .text.XMC_CCU4_SLICE_SetTimerCountingMode
                0x00000000       0x38 ./Libraries/XMCLib/src/xmc_ccu4.o
 .text.XMC_CCU4_SLICE_GetCaptureRegisterValue
                0x00000000       0x24 ./Libraries/XMCLib/src/xmc_ccu4.o
 .text.XMC_CCU4_SLICE_GetLastCapturedTimerValue
                0x00000000       0x8c ./Libraries/XMCLib/src/xmc_ccu4.o
 .text.XMC_CCU4_GetCapturedValueFromFifo
                0x00000000       0x38 ./Libraries/XMCLib/src/xmc_ccu4.o
 .text.XMC_CCU4_SLICE_EnableDithering
                0x00000000       0x5c ./Libraries/XMCLib/src/xmc_ccu4.o
 .text.XMC_CCU4_SLICE_SetPrescaler
                0x00000000       0x3c ./Libraries/XMCLib/src/xmc_ccu4.o
 .text.XMC_CCU4_SLICE_SetPassiveLevel
                0x00000000       0x34 ./Libraries/XMCLib/src/xmc_ccu4.o
 .comment       0x00000000       0x71 ./Libraries/XMCLib/src/xmc_ccu4.o
 .text          0x00000000        0x0 ./Libraries/XMCLib/src/xmc_ccu8.o
 .data          0x00000000        0x0 ./Libraries/XMCLib/src/xmc_ccu8.o
 .bss           0x00000000        0x0 ./Libraries/XMCLib/src/xmc_ccu8.o
 .text.XMC_CCU8_StartPrescaler
                0x00000000       0x20 ./Libraries/XMCLib/src/xmc_ccu8.o
 .text.XMC_CCU8_SLICE_StopTimer
                0x00000000       0x18 ./Libraries/XMCLib/src/xmc_ccu8.o
 .text.XMC_CCU8_SLICE_SetDitherCompareValue
                0x00000000       0x1c ./Libraries/XMCLib/src/xmc_ccu8.o
 .text.XMC_CCU8_lAssertReset
                0x00000000       0x38 ./Libraries/XMCLib/src/xmc_ccu8.o
 .text.XMC_CCU8_lDeassertReset
                0x00000000       0x38 ./Libraries/XMCLib/src/xmc_ccu8.o
 .text.XMC_CCU8_EnableModule
                0x00000000       0x1c ./Libraries/XMCLib/src/xmc_ccu8.o
 .text.XMC_CCU8_DisableModule
                0x00000000       0x14 ./Libraries/XMCLib/src/xmc_ccu8.o
 .text.XMC_CCU8_Init
                0x00000000       0x3c ./Libraries/XMCLib/src/xmc_ccu8.o
 .text.XMC_CCU8_SetModuleClock
                0x00000000       0x34 ./Libraries/XMCLib/src/xmc_ccu8.o
 .text.XMC_CCU8_SLICE_CompareInit
                0x00000000       0x74 ./Libraries/XMCLib/src/xmc_ccu8.o
 .text.XMC_CCU8_SLICE_CaptureInit
                0x00000000       0x50 ./Libraries/XMCLib/src/xmc_ccu8.o
 .text.XMC_CCU8_SLICE_SetOutPath
                0x00000000       0x38 ./Libraries/XMCLib/src/xmc_ccu8.o
 .text.XMC_CCU8_SetMultiChannelShadowTransferMode
                0x00000000       0x38 ./Libraries/XMCLib/src/xmc_ccu8.o
 .text.XMC_CCU8_SLICE_StartConfig
                0x00000000       0x5c ./Libraries/XMCLib/src/xmc_ccu8.o
 .text.XMC_CCU8_SLICE_StopConfig
                0x00000000       0x58 ./Libraries/XMCLib/src/xmc_ccu8.o
 .text.XMC_CCU8_SLICE_LoadConfig
                0x00000000       0x34 ./Libraries/XMCLib/src/xmc_ccu8.o
 .text.XMC_CCU8_SLICE_LoadSelector
                0x00000000       0x34 ./Libraries/XMCLib/src/xmc_ccu8.o
 .text.XMC_CCU8_SLICE_ModulationConfig
                0x00000000       0x90 ./Libraries/XMCLib/src/xmc_ccu8.o
 .text.XMC_CCU8_SLICE_CountConfig
                0x00000000       0x34 ./Libraries/XMCLib/src/xmc_ccu8.o
 .text.XMC_CCU8_SLICE_GateConfig
                0x00000000       0x34 ./Libraries/XMCLib/src/xmc_ccu8.o
 .text.XMC_CCU8_SLICE_Capture0Config
                0x00000000       0x34 ./Libraries/XMCLib/src/xmc_ccu8.o
 .text.XMC_CCU8_SLICE_Capture1Config
                0x00000000       0x34 ./Libraries/XMCLib/src/xmc_ccu8.o
 .text.XMC_CCU8_SLICE_DirectionConfig
                0x00000000       0x34 ./Libraries/XMCLib/src/xmc_ccu8.o
 .text.XMC_CCU8_SLICE_StatusBitOverrideConfig
                0x00000000       0x30 ./Libraries/XMCLib/src/xmc_ccu8.o
 .text.XMC_CCU8_SLICE_TrapConfig
                0x00000000       0x74 ./Libraries/XMCLib/src/xmc_ccu8.o
 .text.XMC_CCU8_SLICE_ConfigureStatusBitOverrideEvent
                0x00000000       0xc4 ./Libraries/XMCLib/src/xmc_ccu8.o
 .text.XMC_CCU8_SLICE_ConfigureEvent
                0x00000000       0xd4 ./Libraries/XMCLib/src/xmc_ccu8.o
 .text.XMC_CCU8_SLICE_SetInput
                0x00000000       0x50 ./Libraries/XMCLib/src/xmc_ccu8.o
 .text.XMC_CCU8_SLICE_SetTimerRepeatMode
                0x00000000       0x3c ./Libraries/XMCLib/src/xmc_ccu8.o
 .text.XMC_CCU8_SLICE_SetTimerCountingMode
                0x00000000       0x3c ./Libraries/XMCLib/src/xmc_ccu8.o
 .text.XMC_CCU8_SLICE_SetTimerPeriodMatch
                0x00000000       0x1c ./Libraries/XMCLib/src/xmc_ccu8.o
 .text.XMC_CCU8_SLICE_GetCaptureRegisterValue
                0x00000000       0x24 ./Libraries/XMCLib/src/xmc_ccu8.o
 .text.XMC_CCU8_SLICE_GetLastCapturedTimerValue
                0x00000000       0x8c ./Libraries/XMCLib/src/xmc_ccu8.o
 .text.XMC_CCU8_GetCapturedValueFromFifo
                0x00000000       0x38 ./Libraries/XMCLib/src/xmc_ccu8.o
 .text.XMC_CCU8_SLICE_EnableDithering
                0x00000000       0x5c ./Libraries/XMCLib/src/xmc_ccu8.o
 .text.XMC_CCU8_SLICE_SetPrescaler
                0x00000000       0x3c ./Libraries/XMCLib/src/xmc_ccu8.o
 .text.XMC_CCU8_SLICE_SetTimerCompareMatch
                0x00000000       0x30 ./Libraries/XMCLib/src/xmc_ccu8.o
 .text.XMC_CCU8_SLICE_GetTimerCompareMatch
                0x00000000       0x30 ./Libraries/XMCLib/src/xmc_ccu8.o
 .text.XMC_CCU8_SLICE_SetInterruptNode
                0x00000000       0xb8 ./Libraries/XMCLib/src/xmc_ccu8.o
 .text.XMC_CCU8_SLICE_SetPassiveLevel
                0x00000000       0x40 ./Libraries/XMCLib/src/xmc_ccu8.o
 .text.XMC_CCU8_SLICE_DeadTimeInit
                0x00000000       0x2c ./Libraries/XMCLib/src/xmc_ccu8.o
 .text.XMC_CCU8_SLICE_ConfigureDeadTime
                0x00000000       0x30 ./Libraries/XMCLib/src/xmc_ccu8.o
 .text.XMC_CCU8_SLICE_SetDeadTimeValue
                0x00000000       0x44 ./Libraries/XMCLib/src/xmc_ccu8.o
 .text.XMC_CCU8_SLICE_SetDeadTimePrescaler
                0x00000000       0x30 ./Libraries/XMCLib/src/xmc_ccu8.o
 .text.XMC_CCU8_SLICE_ConfigureStatusBitOutput
                0x00000000       0x30 ./Libraries/XMCLib/src/xmc_ccu8.o
 .debug_info    0x00000000     0x1ce0 ./Libraries/XMCLib/src/xmc_ccu8.o
 .debug_abbrev  0x00000000      0x21e ./Libraries/XMCLib/src/xmc_ccu8.o
 .debug_loc     0x00000000      0xfcc ./Libraries/XMCLib/src/xmc_ccu8.o
 .debug_aranges
                0x00000000      0x180 ./Libraries/XMCLib/src/xmc_ccu8.o
 .debug_ranges  0x00000000      0x170 ./Libraries/XMCLib/src/xmc_ccu8.o
 .debug_line    0x00000000      0x6f9 ./Libraries/XMCLib/src/xmc_ccu8.o
 .debug_str     0x00000000     0x2262 ./Libraries/XMCLib/src/xmc_ccu8.o
 .comment       0x00000000       0x71 ./Libraries/XMCLib/src/xmc_ccu8.o
 .debug_frame   0x00000000      0x718 ./Libraries/XMCLib/src/xmc_ccu8.o
 .ARM.attributes
                0x00000000       0x37 ./Libraries/XMCLib/src/xmc_ccu8.o
 .text          0x00000000        0x0 ./Libraries/XMCLib/src/xmc_common.o
 .data          0x00000000        0x0 ./Libraries/XMCLib/src/xmc_common.o
 .bss           0x00000000        0x0 ./Libraries/XMCLib/src/xmc_common.o
 .text.XMC_PRIOARRAY_GetHead
                0x00000000       0x2c ./Libraries/XMCLib/src/xmc_common.o
 .text.XMC_PRIOARRAY_GetItemPriority
                0x00000000       0x28 ./Libraries/XMCLib/src/xmc_common.o
 .text.XMC_PRIOARRAY_GetItemNext
                0x00000000       0x28 ./Libraries/XMCLib/src/xmc_common.o
 .text.XMC_LIST_Init
                0x00000000       0x18 ./Libraries/XMCLib/src/xmc_common.o
 .text.XMC_LIST_GetHead
                0x00000000       0x18 ./Libraries/XMCLib/src/xmc_common.o
 .text.XMC_LIST_GetTail
                0x00000000       0x3c ./Libraries/XMCLib/src/xmc_common.o
 .text.XMC_LIST_Add
                0x00000000       0x34 ./Libraries/XMCLib/src/xmc_common.o
 .text.XMC_LIST_Remove
                0x00000000       0x60 ./Libraries/XMCLib/src/xmc_common.o
 .text.XMC_LIST_Insert
                0x00000000       0x3c ./Libraries/XMCLib/src/xmc_common.o
 .text.XMC_PRIOARRAY_Init
                0x00000000       0xb0 ./Libraries/XMCLib/src/xmc_common.o
 .text.XMC_PRIOARRAY_Add
                0x00000000       0xb0 ./Libraries/XMCLib/src/xmc_common.o
 .text.XMC_PRIOARRAY_Remove
                0x00000000       0x64 ./Libraries/XMCLib/src/xmc_common.o
 .debug_info    0x00000000      0x450 ./Libraries/XMCLib/src/xmc_common.o
 .debug_abbrev  0x00000000      0x116 ./Libraries/XMCLib/src/xmc_common.o
 .debug_loc     0x00000000      0x438 ./Libraries/XMCLib/src/xmc_common.o
 .debug_aranges
                0x00000000       0x78 ./Libraries/XMCLib/src/xmc_common.o
 .debug_ranges  0x00000000       0x68 ./Libraries/XMCLib/src/xmc_common.o
 .debug_line    0x00000000      0x30f ./Libraries/XMCLib/src/xmc_common.o
 .debug_str     0x00000000      0x392 ./Libraries/XMCLib/src/xmc_common.o
 .comment       0x00000000       0x71 ./Libraries/XMCLib/src/xmc_common.o
 .debug_frame   0x00000000      0x1f0 ./Libraries/XMCLib/src/xmc_common.o
 .ARM.attributes
                0x00000000       0x37 ./Libraries/XMCLib/src/xmc_common.o
 .text          0x00000000        0x0 ./Libraries/XMCLib/src/xmc_dac.o
 .data          0x00000000        0x0 ./Libraries/XMCLib/src/xmc_dac.o
 .bss           0x00000000        0x0 ./Libraries/XMCLib/src/xmc_dac.o
 .text.XMC_DAC_CH_EnableOutput
                0x00000000       0x30 ./Libraries/XMCLib/src/xmc_dac.o
 .text.XMC_DAC_CH_EnablePatternSignOutput
                0x00000000       0x30 ./Libraries/XMCLib/src/xmc_dac.o
 .text.XMC_DAC_CH_DisablePatternSignOutput
                0x00000000       0x30 ./Libraries/XMCLib/src/xmc_dac.o
 .text.XMC_DAC_CH_SetRampStart
                0x00000000       0x28 ./Libraries/XMCLib/src/xmc_dac.o
 .text.XMC_DAC_CH_SetRampStop
                0x00000000       0x3c ./Libraries/XMCLib/src/xmc_dac.o
 .text.XMC_DAC_CH_SetTrigger
                0x00000000       0x34 ./Libraries/XMCLib/src/xmc_dac.o
 .text.XMC_DAC_CH_SetMode
                0x00000000       0x34 ./Libraries/XMCLib/src/xmc_dac.o
 .text.XMC_DAC_Enable
                0x00000000       0x18 ./Libraries/XMCLib/src/xmc_dac.o
 .text.XMC_DAC_Disable
                0x00000000       0x18 ./Libraries/XMCLib/src/xmc_dac.o
 .text.XMC_DAC_IsEnabled
                0x00000000       0x30 ./Libraries/XMCLib/src/xmc_dac.o
 .text.XMC_DAC_CH_Init
                0x00000000       0x48 ./Libraries/XMCLib/src/xmc_dac.o
 .text.XMC_DAC_CH_SetFrequency
                0x00000000       0x60 ./Libraries/XMCLib/src/xmc_dac.o
 .text.XMC_DAC_CH_SetRampFrequency
                0x00000000       0x50 ./Libraries/XMCLib/src/xmc_dac.o
 .text.XMC_DAC_CH_StartSingleValueMode
                0x00000000       0x24 ./Libraries/XMCLib/src/xmc_dac.o
 .text.XMC_DAC_CH_StartDataMode
                0x00000000       0x60 ./Libraries/XMCLib/src/xmc_dac.o
 .text.XMC_DAC_CH_StartRampMode
                0x00000000       0x88 ./Libraries/XMCLib/src/xmc_dac.o
 .text.XMC_DAC_CH_StartPatternMode
                0x00000000       0x90 ./Libraries/XMCLib/src/xmc_dac.o
 .text.XMC_DAC_CH_StartNoiseMode
                0x00000000       0x60 ./Libraries/XMCLib/src/xmc_dac.o
 .text.XMC_DAC_CH_SetPattern
                0x00000000       0xa0 ./Libraries/XMCLib/src/xmc_dac.o
 .debug_info    0x00000000      0xac9 ./Libraries/XMCLib/src/xmc_dac.o
 .debug_abbrev  0x00000000      0x20f ./Libraries/XMCLib/src/xmc_dac.o
 .debug_loc     0x00000000      0x650 ./Libraries/XMCLib/src/xmc_dac.o
 .debug_aranges
                0x00000000       0xb0 ./Libraries/XMCLib/src/xmc_dac.o
 .debug_ranges  0x00000000       0xa0 ./Libraries/XMCLib/src/xmc_dac.o
 .debug_line    0x00000000      0x445 ./Libraries/XMCLib/src/xmc_dac.o
 .debug_str     0x00000000      0xb8d ./Libraries/XMCLib/src/xmc_dac.o
 .comment       0x00000000       0x71 ./Libraries/XMCLib/src/xmc_dac.o
 .debug_frame   0x00000000      0x308 ./Libraries/XMCLib/src/xmc_dac.o
 .ARM.attributes
                0x00000000       0x37 ./Libraries/XMCLib/src/xmc_dac.o
 .text          0x00000000        0x0 ./Libraries/XMCLib/src/xmc_dma.o
 .data          0x00000000        0x0 ./Libraries/XMCLib/src/xmc_dma.o
 .bss           0x00000000        0x0 ./Libraries/XMCLib/src/xmc_dma.o
 .text.XMC_DMA_GetEventStatus
                0x00000000       0x1c ./Libraries/XMCLib/src/xmc_dma.o
 .text.XMC_DMA_GetChannelsTransferCompleteStatus
                0x00000000       0x1c ./Libraries/XMCLib/src/xmc_dma.o
 .text.XMC_DMA_GetChannelsBlockCompleteStatus
                0x00000000       0x1c ./Libraries/XMCLib/src/xmc_dma.o
 .text.XMC_DMA_GetChannelsSourceTransactionCompleteStatus
                0x00000000       0x1c ./Libraries/XMCLib/src/xmc_dma.o
 .text.XMC_DMA_GetChannelsDestinationTransactionCompleteStatus
                0x00000000       0x1c ./Libraries/XMCLib/src/xmc_dma.o
 .text.XMC_DMA_GetChannelsErrorStatus
                0x00000000       0x1c ./Libraries/XMCLib/src/xmc_dma.o
 .text.XMC_DMA_Init
                0x00000000       0x14 ./Libraries/XMCLib/src/xmc_dma.o
 .text.XMC_DMA_Enable
                0x00000000       0x38 ./Libraries/XMCLib/src/xmc_dma.o
 .text.XMC_DMA_Disable
                0x00000000       0x38 ./Libraries/XMCLib/src/xmc_dma.o
 .text.XMC_DMA_IsEnabled
                0x00000000       0x94 ./Libraries/XMCLib/src/xmc_dma.o
 .text.XMC_DMA_EnableRequestLine
                0x00000000       0x98 ./Libraries/XMCLib/src/xmc_dma.o
 .text.XMC_DMA_DisableRequestLine
                0x00000000       0x54 ./Libraries/XMCLib/src/xmc_dma.o
 .text.XMC_DMA_ClearRequestLine
                0x00000000       0x78 ./Libraries/XMCLib/src/xmc_dma.o
 .text.XMC_DMA_GetOverrunStatus
                0x00000000       0x60 ./Libraries/XMCLib/src/xmc_dma.o
 .text.XMC_DMA_ClearOverrunStatus
                0x00000000       0x44 ./Libraries/XMCLib/src/xmc_dma.o
 .text.XMC_DMA_CH_Disable
                0x00000000       0x3c ./Libraries/XMCLib/src/xmc_dma.o
 .text.XMC_DMA_CH_IsEnabled
                0x00000000       0x34 ./Libraries/XMCLib/src/xmc_dma.o
 .text.XMC_DMA_CH_Init
                0x00000000      0x40c ./Libraries/XMCLib/src/xmc_dma.o
 .text.XMC_DMA_CH_Suspend
                0x00000000       0x3c ./Libraries/XMCLib/src/xmc_dma.o
 .text.XMC_DMA_CH_Resume
                0x00000000       0x3c ./Libraries/XMCLib/src/xmc_dma.o
 .text.XMC_DMA_CH_IsSuspended
                0x00000000       0x38 ./Libraries/XMCLib/src/xmc_dma.o
 .text.XMC_DMA_CH_EnableEvent
                0x00000000       0x50 ./Libraries/XMCLib/src/xmc_dma.o
 .text.XMC_DMA_CH_DisableEvent
                0x00000000       0x50 ./Libraries/XMCLib/src/xmc_dma.o
 .text.XMC_DMA_CH_ClearEventStatus
                0x00000000       0x4c ./Libraries/XMCLib/src/xmc_dma.o
 .text.XMC_DMA_CH_GetEventStatus
                0x00000000       0x5c ./Libraries/XMCLib/src/xmc_dma.o
 .text.XMC_DMA_CH_EnableSourceGather
                0x00000000       0x5c ./Libraries/XMCLib/src/xmc_dma.o
 .text.XMC_DMA_CH_DisableSourceGather
                0x00000000       0x3c ./Libraries/XMCLib/src/xmc_dma.o
 .text.XMC_DMA_CH_EnableDestinationScatter
                0x00000000       0x5c ./Libraries/XMCLib/src/xmc_dma.o
 .text.XMC_DMA_CH_DisableDestinationScatter
                0x00000000       0x3c ./Libraries/XMCLib/src/xmc_dma.o
 .text.XMC_DMA_CH_TriggerSourceRequest
                0x00000000       0x5c ./Libraries/XMCLib/src/xmc_dma.o
 .text.XMC_DMA_CH_TriggerDestinationRequest
                0x00000000       0x5c ./Libraries/XMCLib/src/xmc_dma.o
 .text.XMC_DMA_CH_EnableSourceAddressReload
                0x00000000       0x3c ./Libraries/XMCLib/src/xmc_dma.o
 .text.XMC_DMA_CH_DisableSourceAddressReload
                0x00000000       0x3c ./Libraries/XMCLib/src/xmc_dma.o
 .text.XMC_DMA_CH_EnableDestinationAddressReload
                0x00000000       0x3c ./Libraries/XMCLib/src/xmc_dma.o
 .text.XMC_DMA_CH_DisableDestinationAddressReload
                0x00000000       0x3c ./Libraries/XMCLib/src/xmc_dma.o
 .text.XMC_DMA_CH_RequestLastMultiblockTransfer
                0x00000000       0x60 ./Libraries/XMCLib/src/xmc_dma.o
 .text.XMC_DMA_CH_SetEventHandler
                0x00000000       0x44 ./Libraries/XMCLib/src/xmc_dma.o
 .text.XMC_DMA_CH_ClearSourcePeripheralRequest
                0x00000000       0x38 ./Libraries/XMCLib/src/xmc_dma.o
 .text.XMC_DMA_CH_ClearDestinationPeripheralRequest
                0x00000000       0x38 ./Libraries/XMCLib/src/xmc_dma.o
 .text.XMC_DMA_IRQHandler
                0x00000000      0x220 ./Libraries/XMCLib/src/xmc_dma.o
 .debug_info    0x00000000     0x1620 ./Libraries/XMCLib/src/xmc_dma.o
 .debug_abbrev  0x00000000      0x28f ./Libraries/XMCLib/src/xmc_dma.o
 .debug_loc     0x00000000      0xe00 ./Libraries/XMCLib/src/xmc_dma.o
 .debug_aranges
                0x00000000      0x158 ./Libraries/XMCLib/src/xmc_dma.o
 .debug_ranges  0x00000000      0x148 ./Libraries/XMCLib/src/xmc_dma.o
 .debug_line    0x00000000      0x6f1 ./Libraries/XMCLib/src/xmc_dma.o
 .debug_str     0x00000000     0x1639 ./Libraries/XMCLib/src/xmc_dma.o
 .comment       0x00000000       0x71 ./Libraries/XMCLib/src/xmc_dma.o
 .debug_frame   0x00000000      0x650 ./Libraries/XMCLib/src/xmc_dma.o
 .ARM.attributes
                0x00000000       0x37 ./Libraries/XMCLib/src/xmc_dma.o
 COMMON         0x00000000       0x30 ./Libraries/XMCLib/src/xmc_dma.o
 .text          0x00000000        0x0 ./Libraries/XMCLib/src/xmc_dsd.o
 .data          0x00000000        0x0 ./Libraries/XMCLib/src/xmc_dsd.o
 .bss           0x00000000        0x0 ./Libraries/XMCLib/src/xmc_dsd.o
 .text.XMC_DSD_Enable
                0x00000000       0x14 ./Libraries/XMCLib/src/xmc_dsd.o
 .text.XMC_DSD_Disable
                0x00000000       0x14 ./Libraries/XMCLib/src/xmc_dsd.o
 .text.XMC_DSD_EnableClock
                0x00000000       0x30 ./Libraries/XMCLib/src/xmc_dsd.o
 .text.XMC_DSD_DisableClock
                0x00000000       0x30 ./Libraries/XMCLib/src/xmc_dsd.o
 .text.XMC_DSD_Init
                0x00000000       0x1c ./Libraries/XMCLib/src/xmc_dsd.o
 .text.XMC_DSD_IsEnabled
                0x00000000       0x30 ./Libraries/XMCLib/src/xmc_dsd.o
 .text.XMC_DSD_Generator_Init
                0x00000000       0x30 ./Libraries/XMCLib/src/xmc_dsd.o
 .text.XMC_DSD_CH_Init
                0x00000000       0x84 ./Libraries/XMCLib/src/xmc_dsd.o
 .text.XMC_DSD_CH_MainFilter_Init
                0x00000000       0x6c ./Libraries/XMCLib/src/xmc_dsd.o
 .text.XMC_DSD_CH_Timestamp_Init
                0x00000000       0x38 ./Libraries/XMCLib/src/xmc_dsd.o
 .text.XMC_DSD_CH_AuxFilter_Init
                0x00000000       0x30 ./Libraries/XMCLib/src/xmc_dsd.o
 .text.XMC_DSD_CH_Integrator_Init
                0x00000000       0x60 ./Libraries/XMCLib/src/xmc_dsd.o
 .text.XMC_DSD_CH_Rectify_Init
                0x00000000       0x40 ./Libraries/XMCLib/src/xmc_dsd.o
 .text.XMC_DSD_CH_GetResult_TS
                0x00000000       0x44 ./Libraries/XMCLib/src/xmc_dsd.o
 .text.XMC_DSD_CH_GetResult_TS_Time
                0x00000000       0x80 ./Libraries/XMCLib/src/xmc_dsd.o
 .debug_info    0x00000000      0xe78 ./Libraries/XMCLib/src/xmc_dsd.o
 .debug_abbrev  0x00000000      0x1e6 ./Libraries/XMCLib/src/xmc_dsd.o
 .debug_loc     0x00000000      0x528 ./Libraries/XMCLib/src/xmc_dsd.o
 .debug_aranges
                0x00000000       0x90 ./Libraries/XMCLib/src/xmc_dsd.o
 .debug_ranges  0x00000000       0x80 ./Libraries/XMCLib/src/xmc_dsd.o
 .debug_line    0x00000000      0x3d4 ./Libraries/XMCLib/src/xmc_dsd.o
 .debug_str     0x00000000      0xc78 ./Libraries/XMCLib/src/xmc_dsd.o
 .comment       0x00000000       0x71 ./Libraries/XMCLib/src/xmc_dsd.o
 .debug_frame   0x00000000      0x268 ./Libraries/XMCLib/src/xmc_dsd.o
 .ARM.attributes
                0x00000000       0x37 ./Libraries/XMCLib/src/xmc_dsd.o
 .text          0x00000000        0x0 ./Libraries/XMCLib/src/xmc_ebu.o
 .data          0x00000000        0x0 ./Libraries/XMCLib/src/xmc_ebu.o
 .bss           0x00000000        0x0 ./Libraries/XMCLib/src/xmc_ebu.o
 .text.XMC_EBU_Enable
                0x00000000       0x24 ./Libraries/XMCLib/src/xmc_ebu.o
 .text.XMC_EBU_Init
                0x00000000       0x4c ./Libraries/XMCLib/src/xmc_ebu.o
 .text.XMC_EBU_ConfigureSdram
                0x00000000       0x2c ./Libraries/XMCLib/src/xmc_ebu.o
 .text.XMC_EBU_ConfigureRegion
                0x00000000       0x5c ./Libraries/XMCLib/src/xmc_ebu.o
 .debug_info    0x00000000      0xd55 ./Libraries/XMCLib/src/xmc_ebu.o
 .debug_abbrev  0x00000000      0x1ac ./Libraries/XMCLib/src/xmc_ebu.o
 .debug_loc     0x00000000      0x158 ./Libraries/XMCLib/src/xmc_ebu.o
 .debug_aranges
                0x00000000       0x38 ./Libraries/XMCLib/src/xmc_ebu.o
 .debug_ranges  0x00000000       0x28 ./Libraries/XMCLib/src/xmc_ebu.o
 .debug_line    0x00000000      0x2e4 ./Libraries/XMCLib/src/xmc_ebu.o
 .debug_str     0x00000000      0xfc3 ./Libraries/XMCLib/src/xmc_ebu.o
 .comment       0x00000000       0x71 ./Libraries/XMCLib/src/xmc_ebu.o
 .debug_frame   0x00000000       0xb0 ./Libraries/XMCLib/src/xmc_ebu.o
 .ARM.attributes
                0x00000000       0x37 ./Libraries/XMCLib/src/xmc_ebu.o
 .text          0x00000000        0x0 ./Libraries/XMCLib/src/xmc_ecat.o
 .data          0x00000000        0x0 ./Libraries/XMCLib/src/xmc_ecat.o
 .bss           0x00000000        0x0 ./Libraries/XMCLib/src/xmc_ecat.o
 .debug_info    0x00000000       0x9b ./Libraries/XMCLib/src/xmc_ecat.o
 .debug_abbrev  0x00000000       0x4b ./Libraries/XMCLib/src/xmc_ecat.o
 .debug_aranges
                0x00000000       0x18 ./Libraries/XMCLib/src/xmc_ecat.o
 .debug_line    0x00000000      0x145 ./Libraries/XMCLib/src/xmc_ecat.o
 .debug_str     0x00000000      0x201 ./Libraries/XMCLib/src/xmc_ecat.o
 .comment       0x00000000       0x71 ./Libraries/XMCLib/src/xmc_ecat.o
 .ARM.attributes
                0x00000000       0x37 ./Libraries/XMCLib/src/xmc_ecat.o
 .text          0x00000000        0x0 ./Libraries/XMCLib/src/xmc_eru.o
 .data          0x00000000        0x0 ./Libraries/XMCLib/src/xmc_eru.o
 .bss           0x00000000        0x0 ./Libraries/XMCLib/src/xmc_eru.o
 .text.XMC_ERU_ETL_Init
                0x00000000       0x4c ./Libraries/XMCLib/src/xmc_eru.o
 .text.XMC_ERU_OGU_Init
                0x00000000       0x28 ./Libraries/XMCLib/src/xmc_eru.o
 .text.XMC_ERU_ETL_SetInput
                0x00000000       0x4c ./Libraries/XMCLib/src/xmc_eru.o
 .text.XMC_ERU_ETL_SetSource
                0x00000000       0x3c ./Libraries/XMCLib/src/xmc_eru.o
 .text.XMC_ERU_ETL_SetEdgeDetection
                0x00000000       0x3c ./Libraries/XMCLib/src/xmc_eru.o
 .text.XMC_ERU_ETL_GetEdgeDetection
                0x00000000       0x2c ./Libraries/XMCLib/src/xmc_eru.o
 .text.XMC_ERU_ETL_SetStatusFlagMode
                0x00000000       0x3c ./Libraries/XMCLib/src/xmc_eru.o
 .text.XMC_ERU_ETL_EnableOutputTrigger
                0x00000000       0x50 ./Libraries/XMCLib/src/xmc_eru.o
 .text.XMC_ERU_ETL_DisableOutputTrigger
                0x00000000       0x28 ./Libraries/XMCLib/src/xmc_eru.o
 .text.XMC_ERU_OGU_EnablePatternDetection
                0x00000000       0x50 ./Libraries/XMCLib/src/xmc_eru.o
 .text.XMC_ERU_OGU_DisablePatternDetection
                0x00000000       0x28 ./Libraries/XMCLib/src/xmc_eru.o
 .text.XMC_ERU_OGU_EnablePeripheralTrigger
                0x00000000       0x3c ./Libraries/XMCLib/src/xmc_eru.o
 .text.XMC_ERU_OGU_DisablePeripheralTrigger
                0x00000000       0x28 ./Libraries/XMCLib/src/xmc_eru.o
 .text.XMC_ERU_OGU_SetServiceRequestMode
                0x00000000       0x3c ./Libraries/XMCLib/src/xmc_eru.o
 .debug_info    0x00000000      0xaaf ./Libraries/XMCLib/src/xmc_eru.o
 .debug_abbrev  0x00000000      0x1e8 ./Libraries/XMCLib/src/xmc_eru.o
 .debug_loc     0x00000000      0x4f0 ./Libraries/XMCLib/src/xmc_eru.o
 .debug_aranges
                0x00000000       0x88 ./Libraries/XMCLib/src/xmc_eru.o
 .debug_ranges  0x00000000       0x78 ./Libraries/XMCLib/src/xmc_eru.o
 .debug_line    0x00000000      0x2e8 ./Libraries/XMCLib/src/xmc_eru.o
 .debug_str     0x00000000      0xc84 ./Libraries/XMCLib/src/xmc_eru.o
 .comment       0x00000000       0x71 ./Libraries/XMCLib/src/xmc_eru.o
 .debug_frame   0x00000000      0x240 ./Libraries/XMCLib/src/xmc_eru.o
 .ARM.attributes
                0x00000000       0x37 ./Libraries/XMCLib/src/xmc_eru.o
 .text          0x00000000        0x0 ./Libraries/XMCLib/src/xmc_eth_mac.o
 .data          0x00000000        0x0 ./Libraries/XMCLib/src/xmc_eth_mac.o
 .bss           0x00000000        0x0 ./Libraries/XMCLib/src/xmc_eth_mac.o
 .text.XMC_ETH_MAC_Reset
                0x00000000       0x40 ./Libraries/XMCLib/src/xmc_eth_mac.o
 .text.XMC_ETH_MAC_SetAddress
                0x00000000       0x2c ./Libraries/XMCLib/src/xmc_eth_mac.o
 .text.XMC_SCU_CLOCK_GetSystemClockFrequency
                0x00000000       0x28 ./Libraries/XMCLib/src/xmc_eth_mac.o
 .text.XMC_SCU_CLOCK_GetEthernetClockFrequency
                0x00000000       0x10 ./Libraries/XMCLib/src/xmc_eth_mac.o
 .text.XCM_ETH_MAC_IsNormalEvent
                0x00000000       0x28 ./Libraries/XMCLib/src/xmc_eth_mac.o
 .text.XCM_ETH_MAC_IsAbnormalEvent
                0x00000000       0x28 ./Libraries/XMCLib/src/xmc_eth_mac.o
 .text.XMC_ETH_MAC_InitEx
                0x00000000       0x98 ./Libraries/XMCLib/src/xmc_eth_mac.o
 .text.XMC_ETH_MAC_Init
                0x00000000       0x34 ./Libraries/XMCLib/src/xmc_eth_mac.o
 .text.XMC_ETH_MAC_InitRxDescriptors
                0x00000000       0xb0 ./Libraries/XMCLib/src/xmc_eth_mac.o
 .text.XMC_ETH_MAC_InitTxDescriptors
                0x00000000       0xa0 ./Libraries/XMCLib/src/xmc_eth_mac.o
 .text.XMC_ETH_MAC_SetAddressEx
                0x00000000       0x58 ./Libraries/XMCLib/src/xmc_eth_mac.o
 .text.XMC_ETH_MAC_GetAddressEx
                0x00000000       0x68 ./Libraries/XMCLib/src/xmc_eth_mac.o
 .text.XMC_ETH_MAC_SetAddressPerfectFilter
                0x00000000       0x48 ./Libraries/XMCLib/src/xmc_eth_mac.o
 .text.XMC_ETH_MAC_SetAddressPerfectFilterEx
                0x00000000       0x70 ./Libraries/XMCLib/src/xmc_eth_mac.o
 .text.XMC_ETH_MAC_SetAddressHashFilter
                0x00000000       0x2c ./Libraries/XMCLib/src/xmc_eth_mac.o
 .text.XMC_ETH_MAC_SendFrame
                0x00000000      0x188 ./Libraries/XMCLib/src/xmc_eth_mac.o
 .text.XMC_ETH_MAC_ReadFrame
                0x00000000       0xa0 ./Libraries/XMCLib/src/xmc_eth_mac.o
 .text.XMC_ETH_MAC_GetRxFrameSize
                0x00000000       0x70 ./Libraries/XMCLib/src/xmc_eth_mac.o
 .text.XMC_ETH_MAC_SetManagmentClockDivider
                0x00000000       0xa0 ./Libraries/XMCLib/src/xmc_eth_mac.o
 .text.XMC_ETH_MAC_Enable
                0x00000000       0x20 ./Libraries/XMCLib/src/xmc_eth_mac.o
 .text.XMC_ETH_MAC_Disable
                0x00000000       0x20 ./Libraries/XMCLib/src/xmc_eth_mac.o
 .text.XMC_ETH_MAC_ReadPhy
                0x00000000       0x74 ./Libraries/XMCLib/src/xmc_eth_mac.o
 .text.XMC_ETH_MAC_WritePhy
                0x00000000       0x78 ./Libraries/XMCLib/src/xmc_eth_mac.o
 .text.XMC_ETH_MAC_FlushTx
                0x00000000       0x4c ./Libraries/XMCLib/src/xmc_eth_mac.o
 .text.XMC_ETH_MAC_FlushRx
                0x00000000       0x4c ./Libraries/XMCLib/src/xmc_eth_mac.o
 .text.XMC_ETH_MAC_SetWakeUpFrameFilter
                0x00000000       0x38 ./Libraries/XMCLib/src/xmc_eth_mac.o
 .text.XMC_ETH_MAC_EnableEvent
                0x00000000       0x70 ./Libraries/XMCLib/src/xmc_eth_mac.o
 .text.XMC_ETH_MAC_DisableEvent
                0x00000000       0x4c ./Libraries/XMCLib/src/xmc_eth_mac.o
 .text.XMC_ETH_MAC_ClearEventStatus
                0x00000000       0x60 ./Libraries/XMCLib/src/xmc_eth_mac.o
 .text.XMC_ETH_MAC_GetEventStatus
                0x00000000       0x3c ./Libraries/XMCLib/src/xmc_eth_mac.o
 .text.XMC_ETH_MAC_ReturnRxDescriptor
                0x00000000       0x60 ./Libraries/XMCLib/src/xmc_eth_mac.o
 .text.XMC_ETH_MAC_ReturnTxDescriptor
                0x00000000       0x74 ./Libraries/XMCLib/src/xmc_eth_mac.o
 .text.XMC_ETH_MAC_SetVLANTag
                0x00000000       0x20 ./Libraries/XMCLib/src/xmc_eth_mac.o
 .text.XMC_ETH_MAC_InitPTP
                0x00000000      0x108 ./Libraries/XMCLib/src/xmc_eth_mac.o
 .text.XMC_ETH_MAC_InitPTPEx
                0x00000000       0x34 ./Libraries/XMCLib/src/xmc_eth_mac.o
 .text.XMC_ETH_MAC_GetPTPTime
                0x00000000       0x30 ./Libraries/XMCLib/src/xmc_eth_mac.o
 .text.XMC_ETH_MAC_SetPTPTime
                0x00000000       0x54 ./Libraries/XMCLib/src/xmc_eth_mac.o
 .text.XMC_ETH_MAC_UpdatePTPTime
                0x00000000       0x5c ./Libraries/XMCLib/src/xmc_eth_mac.o
 .text.XMC_ETH_MAC_SetPTPAlarm
                0x00000000       0x2c ./Libraries/XMCLib/src/xmc_eth_mac.o
 .text.XMC_ETH_MAC_AdjustPTPClock
                0x00000000       0x74 ./Libraries/XMCLib/src/xmc_eth_mac.o
 .text.XMC_ETH_MAC_UpdateAddend
                0x00000000       0x44 ./Libraries/XMCLib/src/xmc_eth_mac.o
 .text.XMC_ETH_MAC_GetPTPStatus
                0x00000000       0x1c ./Libraries/XMCLib/src/xmc_eth_mac.o
 .text.XMC_ETH_MAC_GetRxTimeStamp
                0x00000000       0x60 ./Libraries/XMCLib/src/xmc_eth_mac.o
 .text.XMC_ETH_MAC_GetTxTimeStamp
                0x00000000       0x64 ./Libraries/XMCLib/src/xmc_eth_mac.o
 .debug_info    0x00000000     0x1b5f ./Libraries/XMCLib/src/xmc_eth_mac.o
 .debug_abbrev  0x00000000      0x251 ./Libraries/XMCLib/src/xmc_eth_mac.o
 .debug_loc     0x00000000      0xeec ./Libraries/XMCLib/src/xmc_eth_mac.o
 .debug_aranges
                0x00000000      0x178 ./Libraries/XMCLib/src/xmc_eth_mac.o
 .debug_ranges  0x00000000      0x168 ./Libraries/XMCLib/src/xmc_eth_mac.o
 .debug_line    0x00000000      0x741 ./Libraries/XMCLib/src/xmc_eth_mac.o
 .debug_str     0x00000000     0x1e83 ./Libraries/XMCLib/src/xmc_eth_mac.o
 .comment       0x00000000       0x71 ./Libraries/XMCLib/src/xmc_eth_mac.o
 .debug_frame   0x00000000      0x710 ./Libraries/XMCLib/src/xmc_eth_mac.o
 .ARM.attributes
                0x00000000       0x37 ./Libraries/XMCLib/src/xmc_eth_mac.o
 .text          0x00000000        0x0 ./Libraries/XMCLib/src/xmc_eth_phy_dp83848.o
 .data          0x00000000        0x0 ./Libraries/XMCLib/src/xmc_eth_phy_dp83848.o
 .bss           0x00000000        0x0 ./Libraries/XMCLib/src/xmc_eth_phy_dp83848.o
 .debug_line    0x00000000        0x0 ./Libraries/XMCLib/src/xmc_eth_phy_dp83848.o
 .debug_str     0x00000000      0x15b ./Libraries/XMCLib/src/xmc_eth_phy_dp83848.o
 .comment       0x00000000       0x71 ./Libraries/XMCLib/src/xmc_eth_phy_dp83848.o
 .ARM.attributes
                0x00000000       0x37 ./Libraries/XMCLib/src/xmc_eth_phy_dp83848.o
 .text          0x00000000        0x0 ./Libraries/XMCLib/src/xmc_eth_phy_ksz8031rnl.o
 .data          0x00000000        0x0 ./Libraries/XMCLib/src/xmc_eth_phy_ksz8031rnl.o
 .bss           0x00000000        0x0 ./Libraries/XMCLib/src/xmc_eth_phy_ksz8031rnl.o
 .debug_line    0x00000000        0x0 ./Libraries/XMCLib/src/xmc_eth_phy_ksz8031rnl.o
 .debug_str     0x00000000      0x15e ./Libraries/XMCLib/src/xmc_eth_phy_ksz8031rnl.o
 .comment       0x00000000       0x71 ./Libraries/XMCLib/src/xmc_eth_phy_ksz8031rnl.o
 .ARM.attributes
                0x00000000       0x37 ./Libraries/XMCLib/src/xmc_eth_phy_ksz8031rnl.o
 .text          0x00000000        0x0 ./Libraries/XMCLib/src/xmc_eth_phy_ksz8081rnb.o
 .data          0x00000000        0x0 ./Libraries/XMCLib/src/xmc_eth_phy_ksz8081rnb.o
 .bss           0x00000000        0x0 ./Libraries/XMCLib/src/xmc_eth_phy_ksz8081rnb.o
 .debug_line    0x00000000        0x0 ./Libraries/XMCLib/src/xmc_eth_phy_ksz8081rnb.o
 .debug_str     0x00000000      0x15e ./Libraries/XMCLib/src/xmc_eth_phy_ksz8081rnb.o
 .comment       0x00000000       0x71 ./Libraries/XMCLib/src/xmc_eth_phy_ksz8081rnb.o
 .ARM.attributes
                0x00000000       0x37 ./Libraries/XMCLib/src/xmc_eth_phy_ksz8081rnb.o
 .text          0x00000000        0x0 ./Libraries/XMCLib/src/xmc_fce.o
 .data          0x00000000        0x0 ./Libraries/XMCLib/src/xmc_fce.o
 .bss           0x00000000        0x0 ./Libraries/XMCLib/src/xmc_fce.o
 .text.XMC_FCE_Init
                0x00000000       0x2c ./Libraries/XMCLib/src/xmc_fce.o
 .text.XMC_FCE_Disable
                0x00000000       0x20 ./Libraries/XMCLib/src/xmc_fce.o
 .text.XMC_FCE_Enable
                0x00000000       0x20 ./Libraries/XMCLib/src/xmc_fce.o
 .text.XMC_FCE_CalculateCRC8
                0x00000000       0x58 ./Libraries/XMCLib/src/xmc_fce.o
 .text.XMC_FCE_CalculateCRC16
                0x00000000       0x60 ./Libraries/XMCLib/src/xmc_fce.o
 .text.XMC_FCE_CalculateCRC32
                0x00000000       0x60 ./Libraries/XMCLib/src/xmc_fce.o
 .text.XMC_FCE_TriggerMismatch
                0x00000000       0x4c ./Libraries/XMCLib/src/xmc_fce.o
 .text.XMC_FCE_LittleEndian16bit
                0x00000000       0xa0 ./Libraries/XMCLib/src/xmc_fce.o
 .text.XMC_FCE_LittleEndian32bit
                0x00000000       0xb4 ./Libraries/XMCLib/src/xmc_fce.o
 .debug_info    0x00000000      0x6a3 ./Libraries/XMCLib/src/xmc_fce.o
 .debug_abbrev  0x00000000      0x1a7 ./Libraries/XMCLib/src/xmc_fce.o
 .debug_loc     0x00000000      0x2dc ./Libraries/XMCLib/src/xmc_fce.o
 .debug_aranges
                0x00000000       0x60 ./Libraries/XMCLib/src/xmc_fce.o
 .debug_ranges  0x00000000       0x50 ./Libraries/XMCLib/src/xmc_fce.o
 .debug_line    0x00000000      0x3a1 ./Libraries/XMCLib/src/xmc_fce.o
 .debug_str     0x00000000      0x827 ./Libraries/XMCLib/src/xmc_fce.o
 .comment       0x00000000       0x71 ./Libraries/XMCLib/src/xmc_fce.o
 .debug_frame   0x00000000      0x160 ./Libraries/XMCLib/src/xmc_fce.o
 .ARM.attributes
                0x00000000       0x37 ./Libraries/XMCLib/src/xmc_fce.o
 .text          0x00000000        0x0 ./Libraries/XMCLib/src/xmc_gpio.o
 .data          0x00000000        0x0 ./Libraries/XMCLib/src/xmc_gpio.o
 .bss           0x00000000        0x0 ./Libraries/XMCLib/src/xmc_gpio.o
 .text.XMC_GPIO_SetMode
                0x00000000       0x80 ./Libraries/XMCLib/src/xmc_gpio.o
 .comment       0x00000000       0x71 ./Libraries/XMCLib/src/xmc_gpio.o
 .text          0x00000000        0x0 ./Libraries/XMCLib/src/xmc_hrpwm.o
 .data          0x00000000        0x0 ./Libraries/XMCLib/src/xmc_hrpwm.o
 .bss           0x00000000        0x0 ./Libraries/XMCLib/src/xmc_hrpwm.o
 .debug_info    0x00000000       0x9b ./Libraries/XMCLib/src/xmc_hrpwm.o
 .debug_abbrev  0x00000000       0x4b ./Libraries/XMCLib/src/xmc_hrpwm.o
 .debug_aranges
                0x00000000       0x18 ./Libraries/XMCLib/src/xmc_hrpwm.o
 .debug_line    0x00000000      0x145 ./Libraries/XMCLib/src/xmc_hrpwm.o
 .debug_str     0x00000000      0x202 ./Libraries/XMCLib/src/xmc_hrpwm.o
 .comment       0x00000000       0x71 ./Libraries/XMCLib/src/xmc_hrpwm.o
 .ARM.attributes
                0x00000000       0x37 ./Libraries/XMCLib/src/xmc_hrpwm.o
 .text          0x00000000        0x0 ./Libraries/XMCLib/src/xmc_i2c.o
 .data          0x00000000        0x0 ./Libraries/XMCLib/src/xmc_i2c.o
 .bss           0x00000000        0x0 ./Libraries/XMCLib/src/xmc_i2c.o
 .text.XMC_USIC_CH_GetTransmitBufferStatus
                0x00000000       0x20 ./Libraries/XMCLib/src/xmc_i2c.o
 .text.XMC_USIC_CH_SetMode
                0x00000000       0x28 ./Libraries/XMCLib/src/xmc_i2c.o
 .text.XMC_I2C_CH_ClearStatusFlag
                0x00000000       0x20 ./Libraries/XMCLib/src/xmc_i2c.o
 .text.XMC_I2C_CH_Init
                0x00000000       0x50 ./Libraries/XMCLib/src/xmc_i2c.o
 .text.XMC_I2C_CH_SetSlaveAddress
                0x00000000       0x40 ./Libraries/XMCLib/src/xmc_i2c.o
 .text.XMC_I2C_CH_GetSlaveAddress
                0x00000000       0x40 ./Libraries/XMCLib/src/xmc_i2c.o
 .text.XMC_I2C_CH_SetBaudrate
                0x00000000       0x78 ./Libraries/XMCLib/src/xmc_i2c.o
 .text.XMC_I2C_CH_MasterStart
                0x00000000       0x68 ./Libraries/XMCLib/src/xmc_i2c.o
 .text.XMC_I2C_CH_MasterRepeatedStart
                0x00000000       0x68 ./Libraries/XMCLib/src/xmc_i2c.o
 .text.XMC_I2C_CH_MasterStop
                0x00000000       0x4c ./Libraries/XMCLib/src/xmc_i2c.o
 .text.XMC_I2C_CH_MasterTransmit
                0x00000000       0x4c ./Libraries/XMCLib/src/xmc_i2c.o
 .text.XMC_I2C_CH_SlaveTransmit
                0x00000000       0x54 ./Libraries/XMCLib/src/xmc_i2c.o
 .text.XMC_I2C_CH_MasterReceiveAck
                0x00000000       0x4c ./Libraries/XMCLib/src/xmc_i2c.o
 .text.XMC_I2C_CH_MasterReceiveNack
                0x00000000       0x4c ./Libraries/XMCLib/src/xmc_i2c.o
 .text.XMC_I2C_CH_GetReceivedData
                0x00000000       0x34 ./Libraries/XMCLib/src/xmc_i2c.o
 .text.XMC_I2C_CH_Stop
                0x00000000       0x34 ./Libraries/XMCLib/src/xmc_i2c.o
 .text.XMC_I2C_CH_EnableEvent
                0x00000000       0x38 ./Libraries/XMCLib/src/xmc_i2c.o
 .text.XMC_I2C_CH_DisableEvent
                0x00000000       0x3c ./Libraries/XMCLib/src/xmc_i2c.o
 .debug_info    0x00000000      0xa5d ./Libraries/XMCLib/src/xmc_i2c.o
 .debug_abbrev  0x00000000      0x268 ./Libraries/XMCLib/src/xmc_i2c.o
 .debug_loc     0x00000000      0x600 ./Libraries/XMCLib/src/xmc_i2c.o
 .debug_aranges
                0x00000000       0xa8 ./Libraries/XMCLib/src/xmc_i2c.o
 .debug_ranges  0x00000000       0x98 ./Libraries/XMCLib/src/xmc_i2c.o
 .debug_line    0x00000000      0x3be ./Libraries/XMCLib/src/xmc_i2c.o
 .debug_str     0x00000000      0xc94 ./Libraries/XMCLib/src/xmc_i2c.o
 .comment       0x00000000       0x71 ./Libraries/XMCLib/src/xmc_i2c.o
 .debug_frame   0x00000000      0x2e0 ./Libraries/XMCLib/src/xmc_i2c.o
 .ARM.attributes
                0x00000000       0x37 ./Libraries/XMCLib/src/xmc_i2c.o
 .text          0x00000000        0x0 ./Libraries/XMCLib/src/xmc_i2s.o
 .data          0x00000000        0x0 ./Libraries/XMCLib/src/xmc_i2s.o
 .bss           0x00000000        0x0 ./Libraries/XMCLib/src/xmc_i2s.o
 .text.XMC_USIC_CH_GetTransmitBufferStatus
                0x00000000       0x20 ./Libraries/XMCLib/src/xmc_i2s.o
 .text.XMC_USIC_CH_SetMode
                0x00000000       0x28 ./Libraries/XMCLib/src/xmc_i2s.o
 .text.XMC_I2S_CH_ClearStatusFlag
                0x00000000       0x20 ./Libraries/XMCLib/src/xmc_i2s.o
 .text.XMC_I2S_CH_Init
                0x00000000       0xa0 ./Libraries/XMCLib/src/xmc_i2s.o
 .text.XMC_I2S_CH_SetBaudrate
                0x00000000       0x4c ./Libraries/XMCLib/src/xmc_i2s.o
 .text.XMC_I2S_CH_SetSystemWordLength
                0x00000000       0xb4 ./Libraries/XMCLib/src/xmc_i2s.o
 .text.XMC_I2S_CH_Transmit
                0x00000000       0x5c ./Libraries/XMCLib/src/xmc_i2s.o
 .text.XMC_I2S_CH_GetReceivedData
                0x00000000       0x34 ./Libraries/XMCLib/src/xmc_i2s.o
 .text.XMC_I2S_CH_Stop
                0x00000000       0x34 ./Libraries/XMCLib/src/xmc_i2s.o
 .text.XMC_I2S_CH_EnableEvent
                0x00000000       0x38 ./Libraries/XMCLib/src/xmc_i2s.o
 .text.XMC_I2S_CH_DisableEvent
                0x00000000       0x3c ./Libraries/XMCLib/src/xmc_i2s.o
 .debug_info    0x00000000      0x917 ./Libraries/XMCLib/src/xmc_i2s.o
 .debug_abbrev  0x00000000      0x218 ./Libraries/XMCLib/src/xmc_i2s.o
 .debug_loc     0x00000000      0x3c4 ./Libraries/XMCLib/src/xmc_i2s.o
 .debug_aranges
                0x00000000       0x70 ./Libraries/XMCLib/src/xmc_i2s.o
 .debug_ranges  0x00000000       0x60 ./Libraries/XMCLib/src/xmc_i2s.o
 .debug_line    0x00000000      0x3b2 ./Libraries/XMCLib/src/xmc_i2s.o
 .debug_str     0x00000000      0xb36 ./Libraries/XMCLib/src/xmc_i2s.o
 .comment       0x00000000       0x71 ./Libraries/XMCLib/src/xmc_i2s.o
 .debug_frame   0x00000000      0x1c8 ./Libraries/XMCLib/src/xmc_i2s.o
 .ARM.attributes
                0x00000000       0x37 ./Libraries/XMCLib/src/xmc_i2s.o
 .text          0x00000000        0x0 ./Libraries/XMCLib/src/xmc_ledts.o
 .data          0x00000000        0x0 ./Libraries/XMCLib/src/xmc_ledts.o
 .bss           0x00000000        0x0 ./Libraries/XMCLib/src/xmc_ledts.o
 .text.XMC_LEDTS_InitGlobal
                0x00000000       0x44 ./Libraries/XMCLib/src/xmc_ledts.o
 .text.XMC_LEDTS_InitLED
                0x00000000       0x50 ./Libraries/XMCLib/src/xmc_ledts.o
 .text.XMC_LEDTS_InitTSBasic
                0x00000000       0x58 ./Libraries/XMCLib/src/xmc_ledts.o
 .text.XMC_LEDTS_InitTSAdvanced
                0x00000000       0x6c ./Libraries/XMCLib/src/xmc_ledts.o
 .text.XMC_LEDTS_StartCounter
                0x00000000       0x24 ./Libraries/XMCLib/src/xmc_ledts.o
 .text.XMC_LEDTS_StopCounter
                0x00000000       0x1c ./Libraries/XMCLib/src/xmc_ledts.o
 .text.XMC_LEDTS_ReadInterruptFlag
                0x00000000       0x1c ./Libraries/XMCLib/src/xmc_ledts.o
 .text.XMC_LEDTS_SetActivePADNo
                0x00000000       0x34 ./Libraries/XMCLib/src/xmc_ledts.o
 .text.XMC_LEDTS_ClearInterruptFlag
                0x00000000       0x1c ./Libraries/XMCLib/src/xmc_ledts.o
 .text.XMC_LEDTS_SetLEDLinePattern
                0x00000000       0x6c ./Libraries/XMCLib/src/xmc_ledts.o
 .text.XMC_LEDTS_SetColumnBrightness
                0x00000000       0x6c ./Libraries/XMCLib/src/xmc_ledts.o
 .text.XMC_LEDTS_SetCommonOscillationWindow
                0x00000000       0x38 ./Libraries/XMCLib/src/xmc_ledts.o
 .text.XMC_LEDTS_ReadFNCOL
                0x00000000       0x28 ./Libraries/XMCLib/src/xmc_ledts.o
 .text.XMC_LEDTS_SetNumOfLEDColumns
                0x00000000       0x30 ./Libraries/XMCLib/src/xmc_ledts.o
 .text.XMC_LEDTS_ReadTSVAL
                0x00000000       0x1c ./Libraries/XMCLib/src/xmc_ledts.o
 .text.XMC_LEDTS_SetOscillationWindow
                0x00000000       0x6c ./Libraries/XMCLib/src/xmc_ledts.o
 .debug_info    0x00000000      0xb42 ./Libraries/XMCLib/src/xmc_ledts.o
 .debug_abbrev  0x00000000      0x231 ./Libraries/XMCLib/src/xmc_ledts.o
 .debug_loc     0x00000000      0x5b4 ./Libraries/XMCLib/src/xmc_ledts.o
 .debug_aranges
                0x00000000       0x98 ./Libraries/XMCLib/src/xmc_ledts.o
 .debug_ranges  0x00000000       0x88 ./Libraries/XMCLib/src/xmc_ledts.o
 .debug_line    0x00000000      0x3de ./Libraries/XMCLib/src/xmc_ledts.o
 .debug_str     0x00000000      0xcd3 ./Libraries/XMCLib/src/xmc_ledts.o
 .comment       0x00000000       0x71 ./Libraries/XMCLib/src/xmc_ledts.o
 .debug_frame   0x00000000      0x290 ./Libraries/XMCLib/src/xmc_ledts.o
 .ARM.attributes
                0x00000000       0x37 ./Libraries/XMCLib/src/xmc_ledts.o
 .text          0x00000000        0x0 ./Libraries/XMCLib/src/xmc_posif.o
 .data          0x00000000        0x0 ./Libraries/XMCLib/src/xmc_posif.o
 .bss           0x00000000        0x0 ./Libraries/XMCLib/src/xmc_posif.o
 .text.XMC_POSIF_Stop
                0x00000000       0x18 ./Libraries/XMCLib/src/xmc_posif.o
 .text.XMC_POSIF_Enable
                0x00000000       0x40 ./Libraries/XMCLib/src/xmc_posif.o
 .text.XMC_POSIF_Disable
                0x00000000       0x38 ./Libraries/XMCLib/src/xmc_posif.o
 .text.XMC_POSIF_Init
                0x00000000       0x24 ./Libraries/XMCLib/src/xmc_posif.o
 .text.XMC_POSIF_HSC_Init
                0x00000000       0x40 ./Libraries/XMCLib/src/xmc_posif.o
 .text.XMC_POSIF_QD_Init
                0x00000000       0x54 ./Libraries/XMCLib/src/xmc_posif.o
 .text.XMC_POSIF_MCM_Init
                0x00000000       0x40 ./Libraries/XMCLib/src/xmc_posif.o
 .text.XMC_POSIF_SelectInputSource
                0x00000000       0x54 ./Libraries/XMCLib/src/xmc_posif.o
 .text.XMC_POSIF_SetInterruptNode
                0x00000000       0x48 ./Libraries/XMCLib/src/xmc_posif.o
 .debug_info    0x00000000      0xa79 ./Libraries/XMCLib/src/xmc_posif.o
 .debug_abbrev  0x00000000      0x227 ./Libraries/XMCLib/src/xmc_posif.o
 .debug_loc     0x00000000      0x318 ./Libraries/XMCLib/src/xmc_posif.o
 .debug_aranges
                0x00000000       0x60 ./Libraries/XMCLib/src/xmc_posif.o
 .debug_ranges  0x00000000       0x50 ./Libraries/XMCLib/src/xmc_posif.o
 .debug_line    0x00000000      0x365 ./Libraries/XMCLib/src/xmc_posif.o
 .debug_str     0x00000000      0xcab ./Libraries/XMCLib/src/xmc_posif.o
 .comment       0x00000000       0x71 ./Libraries/XMCLib/src/xmc_posif.o
 .debug_frame   0x00000000      0x178 ./Libraries/XMCLib/src/xmc_posif.o
 .ARM.attributes
                0x00000000       0x37 ./Libraries/XMCLib/src/xmc_posif.o
 .text          0x00000000        0x0 ./Libraries/XMCLib/src/xmc_rtc.o
 .data          0x00000000        0x0 ./Libraries/XMCLib/src/xmc_rtc.o
 .bss           0x00000000        0x0 ./Libraries/XMCLib/src/xmc_rtc.o
 .text.XMC_SCU_GetMirrorStatus
                0x00000000       0x18 ./Libraries/XMCLib/src/xmc_rtc.o
 .text.XMC_RTC_Start
                0x00000000       0x28 ./Libraries/XMCLib/src/xmc_rtc.o
 .text.XMC_RTC_Stop
                0x00000000       0x28 ./Libraries/XMCLib/src/xmc_rtc.o
 .text.XMC_RTC_SetPrescaler
                0x00000000       0x34 ./Libraries/XMCLib/src/xmc_rtc.o
 .text.XMC_RTC_SetTime
                0x00000000       0x44 ./Libraries/XMCLib/src/xmc_rtc.o
 .text.XMC_RTC_GetTime
                0x00000000       0x28 ./Libraries/XMCLib/src/xmc_rtc.o
 .text.XMC_RTC_SetTimeStdFormat
                0x00000000       0xa4 ./Libraries/XMCLib/src/xmc_rtc.o
 .text.XMC_RTC_GetTimeStdFormat
                0x00000000       0x80 ./Libraries/XMCLib/src/xmc_rtc.o
 .text.XMC_RTC_SetAlarm
                0x00000000       0x44 ./Libraries/XMCLib/src/xmc_rtc.o
 .text.XMC_RTC_GetAlarm
                0x00000000       0x28 ./Libraries/XMCLib/src/xmc_rtc.o
 .text.XMC_RTC_SetAlarmStdFormat
                0x00000000       0x90 ./Libraries/XMCLib/src/xmc_rtc.o
 .text.XMC_RTC_GetAlarmStdFormat
                0x00000000       0x74 ./Libraries/XMCLib/src/xmc_rtc.o
 .text.XMC_RTC_GetEventStatus
                0x00000000       0x18 ./Libraries/XMCLib/src/xmc_rtc.o
 .debug_info    0x00000000      0x809 ./Libraries/XMCLib/src/xmc_rtc.o
 .debug_abbrev  0x00000000      0x223 ./Libraries/XMCLib/src/xmc_rtc.o
 .debug_loc     0x00000000      0x3e0 ./Libraries/XMCLib/src/xmc_rtc.o
 .debug_aranges
                0x00000000       0x80 ./Libraries/XMCLib/src/xmc_rtc.o
 .debug_ranges  0x00000000       0x70 ./Libraries/XMCLib/src/xmc_rtc.o
 .debug_line    0x00000000      0x3f4 ./Libraries/XMCLib/src/xmc_rtc.o
 .debug_str     0x00000000      0x50f ./Libraries/XMCLib/src/xmc_rtc.o
 .comment       0x00000000       0x71 ./Libraries/XMCLib/src/xmc_rtc.o
 .debug_frame   0x00000000      0x1f8 ./Libraries/XMCLib/src/xmc_rtc.o
 .ARM.attributes
                0x00000000       0x37 ./Libraries/XMCLib/src/xmc_rtc.o
 .text          0x00000000        0x0 ./Libraries/XMCLib/src/xmc_sdmmc.o
 .data          0x00000000        0x0 ./Libraries/XMCLib/src/xmc_sdmmc.o
 .bss           0x00000000        0x0 ./Libraries/XMCLib/src/xmc_sdmmc.o
 .text.XMC_SDMMC_GetPowerStatus
                0x00000000       0x2c ./Libraries/XMCLib/src/xmc_sdmmc.o
 .text.XMC_SDMMC_Enable
                0x00000000       0x18 ./Libraries/XMCLib/src/xmc_sdmmc.o
 .text.XMC_SDMMC_Disable
                0x00000000       0x18 ./Libraries/XMCLib/src/xmc_sdmmc.o
 .text.XMC_SDMMC_Init
                0x00000000       0x58 ./Libraries/XMCLib/src/xmc_sdmmc.o
 .text.XMC_SDMMC_EnableEventStatus
                0x00000000       0x3c ./Libraries/XMCLib/src/xmc_sdmmc.o
 .text.XMC_SDMMC_DisableEventStatus
                0x00000000       0x44 ./Libraries/XMCLib/src/xmc_sdmmc.o
 .text.XMC_SDMMC_EnableEvent
                0x00000000       0x40 ./Libraries/XMCLib/src/xmc_sdmmc.o
 .text.XMC_SDMMC_DisableEvent
                0x00000000       0x44 ./Libraries/XMCLib/src/xmc_sdmmc.o
 .text.XMC_SDMMC_ClearEvent
                0x00000000       0x28 ./Libraries/XMCLib/src/xmc_sdmmc.o
 .text.XMC_SDMMC_GetEvent
                0x00000000       0x54 ./Libraries/XMCLib/src/xmc_sdmmc.o
 .text.XMC_SDMMC_GetR2Response
                0x00000000       0x34 ./Libraries/XMCLib/src/xmc_sdmmc.o
 .text.XMC_SDMMC_SendCommand
                0x00000000       0x28 ./Libraries/XMCLib/src/xmc_sdmmc.o
 .text.XMC_SDMMC_SetDataTransferMode
                0x00000000       0x80 ./Libraries/XMCLib/src/xmc_sdmmc.o
 .debug_info    0x00000000      0xaa3 ./Libraries/XMCLib/src/xmc_sdmmc.o
 .debug_abbrev  0x00000000      0x20f ./Libraries/XMCLib/src/xmc_sdmmc.o
 .debug_loc     0x00000000      0x47c ./Libraries/XMCLib/src/xmc_sdmmc.o
 .debug_aranges
                0x00000000       0x80 ./Libraries/XMCLib/src/xmc_sdmmc.o
 .debug_ranges  0x00000000       0x70 ./Libraries/XMCLib/src/xmc_sdmmc.o
 .debug_line    0x00000000      0x384 ./Libraries/XMCLib/src/xmc_sdmmc.o
 .debug_str     0x00000000      0xe42 ./Libraries/XMCLib/src/xmc_sdmmc.o
 .comment       0x00000000       0x71 ./Libraries/XMCLib/src/xmc_sdmmc.o
 .debug_frame   0x00000000      0x218 ./Libraries/XMCLib/src/xmc_sdmmc.o
 .ARM.attributes
                0x00000000       0x37 ./Libraries/XMCLib/src/xmc_sdmmc.o
 .text          0x00000000        0x0 ./Libraries/XMCLib/src/xmc_spi.o
 .data          0x00000000        0x0 ./Libraries/XMCLib/src/xmc_spi.o
 .bss           0x00000000        0x0 ./Libraries/XMCLib/src/xmc_spi.o
 .text.XMC_USIC_CH_GetTransmitBufferStatus
                0x00000000       0x20 ./Libraries/XMCLib/src/xmc_spi.o
 .text.XMC_USIC_CH_SetMode
                0x00000000       0x28 ./Libraries/XMCLib/src/xmc_spi.o
 .text.XMC_SPI_CH_ClearStatusFlag
                0x00000000       0x20 ./Libraries/XMCLib/src/xmc_spi.o
 .text.XMC_SPI_CH_Init
                0x00000000       0x68 ./Libraries/XMCLib/src/xmc_spi.o
 .text.XMC_SPI_CH_SetBaudrate
                0x00000000       0x3c ./Libraries/XMCLib/src/xmc_spi.o
 .text.XMC_SPI_CH_EnableSlaveSelect
                0x00000000       0x2c ./Libraries/XMCLib/src/xmc_spi.o
 .text.XMC_SPI_CH_DisableSlaveSelect
                0x00000000       0x24 ./Libraries/XMCLib/src/xmc_spi.o
 .text.XMC_SPI_CH_Transmit
                0x00000000       0x6c ./Libraries/XMCLib/src/xmc_spi.o
 .text.XMC_SPI_CH_GetReceivedData
                0x00000000       0x34 ./Libraries/XMCLib/src/xmc_spi.o
 .text.XMC_SPI_CH_SetInterwordDelay
                0x00000000      0x130 ./Libraries/XMCLib/src/xmc_spi.o
 .text.XMC_SPI_CH_Stop
                0x00000000       0x34 ./Libraries/XMCLib/src/xmc_spi.o
 .text.XMC_SPI_CH_EnableEvent
                0x00000000       0x34 ./Libraries/XMCLib/src/xmc_spi.o
 .text.XMC_SPI_CH_DisableEvent
                0x00000000       0x38 ./Libraries/XMCLib/src/xmc_spi.o
 .debug_info    0x00000000      0xa27 ./Libraries/XMCLib/src/xmc_spi.o
 .debug_abbrev  0x00000000      0x218 ./Libraries/XMCLib/src/xmc_spi.o
 .debug_loc     0x00000000      0x466 ./Libraries/XMCLib/src/xmc_spi.o
 .debug_aranges
                0x00000000       0x80 ./Libraries/XMCLib/src/xmc_spi.o
 .debug_ranges  0x00000000       0x70 ./Libraries/XMCLib/src/xmc_spi.o
 .debug_line    0x00000000      0x3d9 ./Libraries/XMCLib/src/xmc_spi.o
 .debug_str     0x00000000      0xd20 ./Libraries/XMCLib/src/xmc_spi.o
 .comment       0x00000000       0x71 ./Libraries/XMCLib/src/xmc_spi.o
 .debug_frame   0x00000000      0x218 ./Libraries/XMCLib/src/xmc_spi.o
 .ARM.attributes
                0x00000000       0x37 ./Libraries/XMCLib/src/xmc_spi.o
 .text          0x00000000        0x0 ./Libraries/XMCLib/src/xmc_uart.o
 .data          0x00000000        0x0 ./Libraries/XMCLib/src/xmc_uart.o
 .bss           0x00000000        0x0 ./Libraries/XMCLib/src/xmc_uart.o
 .text.XMC_USIC_CH_SetMode
                0x00000000       0x28 ./Libraries/XMCLib/src/xmc_uart.o
 .text.XMC_UART_CH_GetStatusFlag
                0x00000000       0x18 ./Libraries/XMCLib/src/xmc_uart.o
 .text.XMC_UART_CH_SetBaudrate
                0x00000000       0x44 ./Libraries/XMCLib/src/xmc_uart.o
 .text.XMC_UART_CH_Stop
                0x00000000       0x44 ./Libraries/XMCLib/src/xmc_uart.o
 .text.XMC_UART_CH_EnableEvent
                0x00000000       0x34 ./Libraries/XMCLib/src/xmc_uart.o
 .text.XMC_UART_CH_DisableEvent
                0x00000000       0x38 ./Libraries/XMCLib/src/xmc_uart.o
 .comment       0x00000000       0x71 ./Libraries/XMCLib/src/xmc_uart.o
 .text          0x00000000        0x0 ./Libraries/XMCLib/src/xmc_usbd.o
 .data          0x00000000        0x0 ./Libraries/XMCLib/src/xmc_usbd.o
 .bss           0x00000000        0x0 ./Libraries/XMCLib/src/xmc_usbd.o
 .bss.XMC_USBD_EP_OUT_BUFFERSIZE
                0x00000000       0x1c ./Libraries/XMCLib/src/xmc_usbd.o
 .bss.XMC_USBD_EP_IN_BUFFERSIZE
                0x00000000       0x1c ./Libraries/XMCLib/src/xmc_usbd.o
 USB_RAM        0x00000000      0xe00 ./Libraries/XMCLib/src/xmc_usbd.o
 .rodata.Driver_USBD0
                0x00000000       0x40 ./Libraries/XMCLib/src/xmc_usbd.o
 .text.XMC_USBD_lDeviceActive
                0x00000000       0x6c ./Libraries/XMCLib/src/xmc_usbd.o
 .text.XMC_USBD_lReadFifo
                0x00000000       0xe8 ./Libraries/XMCLib/src/xmc_usbd.o
 .text.XMC_USBD_lWriteFifo
                0x00000000       0xa4 ./Libraries/XMCLib/src/xmc_usbd.o
 .text.XMC_USBD_lFlushTXFifo
                0x00000000       0x84 ./Libraries/XMCLib/src/xmc_usbd.o
 .text.XMC_USBD_lFlushRXFifo
                0x00000000       0x68 ./Libraries/XMCLib/src/xmc_usbd.o
 .text.XMC_USBD_lAssignTXFifo
                0x00000000       0x70 ./Libraries/XMCLib/src/xmc_usbd.o
 .text.XMC_USBD_lUnassignFifo
                0x00000000       0x38 ./Libraries/XMCLib/src/xmc_usbd.o
 .text.XMC_USBD_lStartReadXfer
                0x00000000      0x178 ./Libraries/XMCLib/src/xmc_usbd.o
 .text.XMC_USBD_lStartWriteXfer
                0x00000000      0x194 ./Libraries/XMCLib/src/xmc_usbd.o
 .text.XMC_USBD_lHandleUSBReset
                0x00000000      0x14c ./Libraries/XMCLib/src/xmc_usbd.o
 .text.XMC_USBD_lHandleOTGInt
                0x00000000       0x48 ./Libraries/XMCLib/src/xmc_usbd.o
 .text.XMC_USBD_lHandleEnumDone
                0x00000000       0x78 ./Libraries/XMCLib/src/xmc_usbd.o
 .text.XMC_USBD_lHandleOEPInt
                0x00000000      0x1b8 ./Libraries/XMCLib/src/xmc_usbd.o
 .text.XMC_USBD_lHandleIEPInt
                0x00000000      0x1b8 ./Libraries/XMCLib/src/xmc_usbd.o
 .text.XMC_USBD_lHandleRxFLvl
                0x00000000       0x80 ./Libraries/XMCLib/src/xmc_usbd.o
 .text.XMC_USBD_IRQHandler
                0x00000000      0x14c ./Libraries/XMCLib/src/xmc_usbd.o
 .text.XMC_USBD_Enable
                0x00000000       0x14 ./Libraries/XMCLib/src/xmc_usbd.o
 .text.XMC_USBD_Disable
                0x00000000       0x14 ./Libraries/XMCLib/src/xmc_usbd.o
 .text.XMC_USBD_ClearEvent
                0x00000000       0xc8 ./Libraries/XMCLib/src/xmc_usbd.o
 .text.XMC_USBD_lClearEventOTG
                0x00000000       0x28 ./Libraries/XMCLib/src/xmc_usbd.o
 .text.XMC_USBD_ClearEventINEP
                0x00000000       0x2c ./Libraries/XMCLib/src/xmc_usbd.o
 .text.XMC_USBD_ClearEventOUTEP
                0x00000000       0x30 ./Libraries/XMCLib/src/xmc_usbd.o
 .text.XMC_USBD_EnableEventOUTEP
                0x00000000       0x30 ./Libraries/XMCLib/src/xmc_usbd.o
 .text.XMC_USBD_EnableEventINEP
                0x00000000       0x30 ./Libraries/XMCLib/src/xmc_usbd.o
 .text.XMC_USBD_GetCapabilities
                0x00000000       0x68 ./Libraries/XMCLib/src/xmc_usbd.o
 .text.XMC_USBD_Init
                0x00000000      0x23c ./Libraries/XMCLib/src/xmc_usbd.o
 .text.XMC_USBD_Uninitialize
                0x00000000       0x3c ./Libraries/XMCLib/src/xmc_usbd.o
 .text.XMC_USBD_DeviceConnect
                0x00000000       0x34 ./Libraries/XMCLib/src/xmc_usbd.o
 .text.XMC_USBD_DeviceDisconnect
                0x00000000       0x34 ./Libraries/XMCLib/src/xmc_usbd.o
 .text.XMC_USBD_DeviceGetState
                0x00000000       0x64 ./Libraries/XMCLib/src/xmc_usbd.o
 .text.XMC_USBD_EndpointReadStart
                0x00000000       0x8c ./Libraries/XMCLib/src/xmc_usbd.o
 .text.XMC_USBD_EndpointRead
                0x00000000       0x78 ./Libraries/XMCLib/src/xmc_usbd.o
 .text.XMC_USBD_EndpointWrite
                0x00000000       0xa8 ./Libraries/XMCLib/src/xmc_usbd.o
 .text.XMC_USBD_DeviceSetAddress
                0x00000000       0x4c ./Libraries/XMCLib/src/xmc_usbd.o
 .text.XMC_USBD_EndpointStall
                0x00000000      0x14c ./Libraries/XMCLib/src/xmc_usbd.o
 .text.XMC_USBD_EndpointAbort
                0x00000000       0x88 ./Libraries/XMCLib/src/xmc_usbd.o
 .text.XMC_USBD_EndpointConfigure
                0x00000000      0x2f4 ./Libraries/XMCLib/src/xmc_usbd.o
 .text.XMC_USBD_EndpointUnconfigure
                0x00000000      0x170 ./Libraries/XMCLib/src/xmc_usbd.o
 .text.XMC_USBD_GetFrameNumber
                0x00000000       0x2c ./Libraries/XMCLib/src/xmc_usbd.o
 .text.XMC_USBD_IsEnumDone
                0x00000000       0x38 ./Libraries/XMCLib/src/xmc_usbd.o
 .debug_info    0x00000000     0x3751 ./Libraries/XMCLib/src/xmc_usbd.o
 .debug_abbrev  0x00000000      0x3cc ./Libraries/XMCLib/src/xmc_usbd.o
 .debug_loc     0x00000000      0xd34 ./Libraries/XMCLib/src/xmc_usbd.o
 .debug_aranges
                0x00000000      0x158 ./Libraries/XMCLib/src/xmc_usbd.o
 .debug_ranges  0x00000000      0x148 ./Libraries/XMCLib/src/xmc_usbd.o
 .debug_line    0x00000000      0x8ff ./Libraries/XMCLib/src/xmc_usbd.o
 .debug_str     0x00000000     0x247d ./Libraries/XMCLib/src/xmc_usbd.o
 .comment       0x00000000       0x71 ./Libraries/XMCLib/src/xmc_usbd.o
 .debug_frame   0x00000000      0x634 ./Libraries/XMCLib/src/xmc_usbd.o
 .ARM.attributes
                0x00000000       0x37 ./Libraries/XMCLib/src/xmc_usbd.o
 COMMON         0x00000000      0x20c ./Libraries/XMCLib/src/xmc_usbd.o
 .text          0x00000000        0x0 ./Libraries/XMCLib/src/xmc_usbh.o
 .data          0x00000000        0x0 ./Libraries/XMCLib/src/xmc_usbh.o
 .bss           0x00000000        0x0 ./Libraries/XMCLib/src/xmc_usbh.o
 .text.__NVIC_EnableIRQ
                0x00000000       0x38 ./Libraries/XMCLib/src/xmc_usbh.o
 .text.__NVIC_DisableIRQ
                0x00000000       0x44 ./Libraries/XMCLib/src/xmc_usbh.o
 .text.__NVIC_ClearPendingIRQ
                0x00000000       0x3c ./Libraries/XMCLib/src/xmc_usbh.o
 .text.__NVIC_SetPriority
                0x00000000       0x54 ./Libraries/XMCLib/src/xmc_usbh.o
 .rodata.xmc_usbh_driver_version
                0x00000000        0x4 ./Libraries/XMCLib/src/xmc_usbh.o
 .data.VBUS_port
                0x00000000        0x4 ./Libraries/XMCLib/src/xmc_usbh.o
 .data.VBUS_pin
                0x00000000        0x4 ./Libraries/XMCLib/src/xmc_usbh.o
 .rodata.xmc_usbh_driver_capabilities
                0x00000000        0x4 ./Libraries/XMCLib/src/xmc_usbh.o
 .data.XMC_USBH0_device
                0x00000000       0x14 ./Libraries/XMCLib/src/xmc_usbh.o
 .bss.XMC_USBH0_dfifo_ptr
                0x00000000       0x38 ./Libraries/XMCLib/src/xmc_usbh.o
 .text.XMC_lClockGating
                0x00000000       0x18 ./Libraries/XMCLib/src/xmc_usbh.o
 .text.XMC_lTriggerHaltChannel
                0x00000000       0x28 ./Libraries/XMCLib/src/xmc_usbh.o
 .text.XMC_lStartTransfer
                0x00000000      0x268 ./Libraries/XMCLib/src/xmc_usbh.o
 .text.XMC_USBH_GetVersion
                0x00000000       0x2c ./Libraries/XMCLib/src/xmc_usbh.o
 .text.XMC_USBH_GetCapabilities
                0x00000000       0x24 ./Libraries/XMCLib/src/xmc_usbh.o
 .text.XMC_USBH_Initialize
                0x00000000       0x7c ./Libraries/XMCLib/src/xmc_usbh.o
 .text.XMC_USBH_Uninitialize
                0x00000000       0x1c ./Libraries/XMCLib/src/xmc_usbh.o
 .text.XMC_USBH_PowerControl
                0x00000000      0x204 ./Libraries/XMCLib/src/xmc_usbh.o
 .text.XMC_USBH_PortVbusOnOff
                0x00000000       0xa0 ./Libraries/XMCLib/src/xmc_usbh.o
 .text.XMC_USBH_PortReset
                0x00000000       0xa8 ./Libraries/XMCLib/src/xmc_usbh.o
 .text.XMC_USBH_PortSuspend
                0x00000000       0x78 ./Libraries/XMCLib/src/xmc_usbh.o
 .text.XMC_USBH_PortResume
                0x00000000       0x94 ./Libraries/XMCLib/src/xmc_usbh.o
 .text.XMC_USBH_PortGetState
                0x00000000       0x8c ./Libraries/XMCLib/src/xmc_usbh.o
 .text.XMC_USBH_PipeCreate
                0x00000000      0x148 ./Libraries/XMCLib/src/xmc_usbh.o
 .text.XMC_USBH_PipeModify
                0x00000000       0xac ./Libraries/XMCLib/src/xmc_usbh.o
 .text.XMC_USBH_PipeDelete
                0x00000000       0x84 ./Libraries/XMCLib/src/xmc_usbh.o
 .text.XMC_USBH_PipeReset
                0x00000000       0x78 ./Libraries/XMCLib/src/xmc_usbh.o
 .text.XMC_USBH_PipeTransfer
                0x00000000      0x118 ./Libraries/XMCLib/src/xmc_usbh.o
 .text.XMC_USBH_PipeTransferGetResult
                0x00000000       0x40 ./Libraries/XMCLib/src/xmc_usbh.o
 .text.XMC_USBH_PipeTransferAbort
                0x00000000       0xd8 ./Libraries/XMCLib/src/xmc_usbh.o
 .text.XMC_USBH_GetFrameNumber
                0x00000000       0x38 ./Libraries/XMCLib/src/xmc_usbh.o
 .text.XMC_USBH_HandleIrq
                0x00000000      0x664 ./Libraries/XMCLib/src/xmc_usbh.o
 .text.XMC_USBH_GetInterruptStatus
                0x00000000       0x18 ./Libraries/XMCLib/src/xmc_usbh.o
 .text.XMC_USBH_Select_VBUS
                0x00000000       0x38 ./Libraries/XMCLib/src/xmc_usbh.o
 .text.XMC_USBH_TurnOffResumeBit
                0x00000000       0x38 ./Libraries/XMCLib/src/xmc_usbh.o
 .rodata.Driver_USBH0
                0x00000000       0x48 ./Libraries/XMCLib/src/xmc_usbh.o
 .text.XMC_USBH_osDelay
                0x00000000        0xc ./Libraries/XMCLib/src/xmc_usbh.o
 .debug_info    0x00000000     0x1f0b ./Libraries/XMCLib/src/xmc_usbh.o
 .debug_abbrev  0x00000000      0x365 ./Libraries/XMCLib/src/xmc_usbh.o
 .debug_loc     0x00000000      0x9b8 ./Libraries/XMCLib/src/xmc_usbh.o
 .debug_aranges
                0x00000000      0x108 ./Libraries/XMCLib/src/xmc_usbh.o
 .debug_ranges  0x00000000       0xf8 ./Libraries/XMCLib/src/xmc_usbh.o
 .debug_line    0x00000000      0x80c ./Libraries/XMCLib/src/xmc_usbh.o
 .debug_str     0x00000000     0x1a94 ./Libraries/XMCLib/src/xmc_usbh.o
 .comment       0x00000000       0x71 ./Libraries/XMCLib/src/xmc_usbh.o
 .debug_frame   0x00000000      0x4a4 ./Libraries/XMCLib/src/xmc_usbh.o
 .ARM.attributes
                0x00000000       0x37 ./Libraries/XMCLib/src/xmc_usbh.o
 COMMON         0x00000000      0x1ce ./Libraries/XMCLib/src/xmc_usbh.o
 .text          0x00000000        0x0 ./Libraries/XMCLib/src/xmc_usic.o
 .data          0x00000000        0x0 ./Libraries/XMCLib/src/xmc_usic.o
 .bss           0x00000000        0x0 ./Libraries/XMCLib/src/xmc_usic.o
 .text.XMC_USIC_CH_SetInputTriggerCombinationMode
                0x00000000       0x3c ./Libraries/XMCLib/src/xmc_usic.o
 .text.XMC_USIC_CH_SetBRGInputClockSource
                0x00000000       0x28 ./Libraries/XMCLib/src/xmc_usic.o
 .text.XMC_USIC_CH_Disable
                0x00000000       0x24 ./Libraries/XMCLib/src/xmc_usic.o
 .text.XMC_USIC_CH_ConfigExternalInputSignalToBRG
                0x00000000       0x50 ./Libraries/XMCLib/src/xmc_usic.o
 .text.XMC_USIC_CH_TXFIFO_Configure
                0x00000000       0x50 ./Libraries/XMCLib/src/xmc_usic.o
 .text.XMC_USIC_CH_TXFIFO_SetSizeTriggerLimit
                0x00000000       0x44 ./Libraries/XMCLib/src/xmc_usic.o
 .text.XMC_USIC_CH_TXFIFO_SetInterruptNodePointer
                0x00000000       0x3c ./Libraries/XMCLib/src/xmc_usic.o
 .text.XMC_USIC_Disable
                0x00000000       0x54 ./Libraries/XMCLib/src/xmc_usic.o
 .comment       0x00000000       0x71 ./Libraries/XMCLib/src/xmc_usic.o
 .text          0x00000000        0x0 ./Libraries/XMCLib/src/xmc_vadc.o
 .data          0x00000000        0x0 ./Libraries/XMCLib/src/xmc_vadc.o
 .bss           0x00000000        0x0 ./Libraries/XMCLib/src/xmc_vadc.o
 .text.XMC_VADC_GROUP_ScanEnableArbitrationSlot
                0x00000000       0x24 ./Libraries/XMCLib/src/xmc_vadc.o
 .text.XMC_VADC_GROUP_ScanDisableArbitrationSlot
                0x00000000       0x24 ./Libraries/XMCLib/src/xmc_vadc.o
 .text.XMC_VADC_GROUP_QueueEnableArbitrationSlot
                0x00000000       0x24 ./Libraries/XMCLib/src/xmc_vadc.o
 .text.XMC_VADC_GROUP_QueueDisableArbitrationSlot
                0x00000000       0x24 ./Libraries/XMCLib/src/xmc_vadc.o
 .text.XMC_VADC_GROUP_QueueFlushEntries
                0x00000000       0x34 ./Libraries/XMCLib/src/xmc_vadc.o
 .text.XMC_VADC_GLOBAL_DisableModule
                0x00000000        0xc ./Libraries/XMCLib/src/xmc_vadc.o
 .text.XMC_VADC_GLOBAL_SetBoundaries
                0x00000000       0x34 ./Libraries/XMCLib/src/xmc_vadc.o
 .text.XMC_VADC_GLOBAL_SetIndividualBoundary
                0x00000000       0x64 ./Libraries/XMCLib/src/xmc_vadc.o
 .text.XMC_VADC_GLOBAL_SetCompareValue
                0x00000000       0x38 ./Libraries/XMCLib/src/xmc_vadc.o
 .text.XMC_VADC_GLOBAL_GetCompareResult
                0x00000000       0x38 ./Libraries/XMCLib/src/xmc_vadc.o
 .text.XMC_VADC_GLOBAL_BindGroupToEMux
                0x00000000       0x58 ./Libraries/XMCLib/src/xmc_vadc.o
 .text.XMC_VADC_GLOBAL_SetResultEventInterruptNode
                0x00000000       0x4c ./Libraries/XMCLib/src/xmc_vadc.o
 .text.XMC_VADC_GROUP_SetSyncSlave
                0x00000000       0x44 ./Libraries/XMCLib/src/xmc_vadc.o
 .text.XMC_VADC_GROUP_SetSyncMaster
                0x00000000       0x2c ./Libraries/XMCLib/src/xmc_vadc.o
 .text.XMC_VADC_GROUP_CheckSlaveReadiness
                0x00000000       0x68 ./Libraries/XMCLib/src/xmc_vadc.o
 .text.XMC_VADC_GROUP_IgnoreSlaveReadiness
                0x00000000       0x68 ./Libraries/XMCLib/src/xmc_vadc.o
 .text.XMC_VADC_GROUP_SetSyncSlaveReadySignal
                0x00000000       0x3c ./Libraries/XMCLib/src/xmc_vadc.o
 .text.XMC_VADC_GROUP_EnableChannelSyncRequest
                0x00000000       0x40 ./Libraries/XMCLib/src/xmc_vadc.o
 .text.XMC_VADC_GROUP_DisableChannelSyncRequest
                0x00000000       0x40 ./Libraries/XMCLib/src/xmc_vadc.o
 .text.XMC_VADC_GROUP_IsConverterBusy
                0x00000000       0x30 ./Libraries/XMCLib/src/xmc_vadc.o
 .text.XMC_VADC_GROUP_SetBoundaries
                0x00000000       0x50 ./Libraries/XMCLib/src/xmc_vadc.o
 .text.XMC_VADC_GROUP_SetIndividualBoundary
                0x00000000       0x64 ./Libraries/XMCLib/src/xmc_vadc.o
 .text.XMC_VADC_GROUP_TriggerServiceRequest
                0x00000000       0x50 ./Libraries/XMCLib/src/xmc_vadc.o
 .text.XMC_VADC_GROUP_ScanInit
                0x00000000       0x9c ./Libraries/XMCLib/src/xmc_vadc.o
 .text.XMC_VADC_GROUP_ScanSelectTrigger
                0x00000000       0x40 ./Libraries/XMCLib/src/xmc_vadc.o
 .text.XMC_VADC_GROUP_ScanSelectTriggerEdge
                0x00000000       0x40 ./Libraries/XMCLib/src/xmc_vadc.o
 .text.XMC_VADC_GROUP_ScanSelectGating
                0x00000000       0x40 ./Libraries/XMCLib/src/xmc_vadc.o
 .text.XMC_VADC_GROUP_ScanSequenceAbort
                0x00000000       0x80 ./Libraries/XMCLib/src/xmc_vadc.o
 .text.XMC_VADC_GROUP_ScanGetNumChannelsPending
                0x00000000       0x54 ./Libraries/XMCLib/src/xmc_vadc.o
 .text.XMC_VADC_GROUP_ScanSetReqSrcEventInterruptNode
                0x00000000       0x38 ./Libraries/XMCLib/src/xmc_vadc.o
 .text.XMC_VADC_GROUP_ScanRemoveChannel
                0x00000000       0x38 ./Libraries/XMCLib/src/xmc_vadc.o
 .text.XMC_VADC_GLOBAL_BackgroundSelectTrigger
                0x00000000       0x40 ./Libraries/XMCLib/src/xmc_vadc.o
 .text.XMC_VADC_GLOBAL_BackgroundSelectTriggerEdge
                0x00000000       0x40 ./Libraries/XMCLib/src/xmc_vadc.o
 .text.XMC_VADC_GLOBAL_BackgroundSelectGating
                0x00000000       0x40 ./Libraries/XMCLib/src/xmc_vadc.o
 .text.XMC_VADC_GLOBAL_BackgroundAbortSequence
                0x00000000       0xb0 ./Libraries/XMCLib/src/xmc_vadc.o
 .text.XMC_VADC_GLOBAL_BackgroundGetNumChannelsPending
                0x00000000       0x70 ./Libraries/XMCLib/src/xmc_vadc.o
 .text.XMC_VADC_GROUP_QueueInit
                0x00000000       0x9c ./Libraries/XMCLib/src/xmc_vadc.o
 .text.XMC_VADC_GROUP_QueueSelectTrigger
                0x00000000       0x40 ./Libraries/XMCLib/src/xmc_vadc.o
 .text.XMC_VADC_GROUP_QueueSelectTriggerEdge
                0x00000000       0x40 ./Libraries/XMCLib/src/xmc_vadc.o
 .text.XMC_VADC_GROUP_QueueSelectGating
                0x00000000       0x40 ./Libraries/XMCLib/src/xmc_vadc.o
 .text.XMC_VADC_GROUP_QueueGetLength
                0x00000000       0x50 ./Libraries/XMCLib/src/xmc_vadc.o
 .text.XMC_VADC_GROUP_QueueAbortSequence
                0x00000000       0x68 ./Libraries/XMCLib/src/xmc_vadc.o
 .text.XMC_VADC_GROUP_QueueRemoveChannel
                0x00000000       0x98 ./Libraries/XMCLib/src/xmc_vadc.o
 .text.XMC_VADC_GROUP_QueueGetNextChannel
                0x00000000       0x54 ./Libraries/XMCLib/src/xmc_vadc.o
 .text.XMC_VADC_GROUP_QueueGetInterruptedChannel
                0x00000000       0x38 ./Libraries/XMCLib/src/xmc_vadc.o
 .text.XMC_VADC_GROUP_QueueSetReqSrcEventInterruptNode
                0x00000000       0x38 ./Libraries/XMCLib/src/xmc_vadc.o
 .text.XMC_VADC_GROUP_SetChannelAlias
                0x00000000       0x58 ./Libraries/XMCLib/src/xmc_vadc.o
 .text.XMC_VADC_GROUP_ChannelIsResultOutOfBounds
                0x00000000       0x60 ./Libraries/XMCLib/src/xmc_vadc.o
 .text.XMC_VADC_GROUP_ChannelSetInputReference
                0x00000000       0x44 ./Libraries/XMCLib/src/xmc_vadc.o
 .text.XMC_VADC_GROUP_ChannelSetResultRegister
                0x00000000       0x40 ./Libraries/XMCLib/src/xmc_vadc.o
 .text.XMC_VADC_GROUP_ChannelSetIclass
                0x00000000       0x40 ./Libraries/XMCLib/src/xmc_vadc.o
 .text.XMC_VADC_GROUP_ChannelGetResultRegister
                0x00000000       0x2c ./Libraries/XMCLib/src/xmc_vadc.o
 .text.XMC_VADC_GROUP_ChannelTriggerEvent
                0x00000000       0x34 ./Libraries/XMCLib/src/xmc_vadc.o
 .text.XMC_VADC_GROUP_ChannelSetEventInterruptNode
                0x00000000       0x48 ./Libraries/XMCLib/src/xmc_vadc.o
 .text.XMC_VADC_GROUP_ChannelTriggerEventGenCriteria
                0x00000000       0x44 ./Libraries/XMCLib/src/xmc_vadc.o
 .text.XMC_VADC_GROUP_ChannelSetBoundarySelection
                0x00000000       0x64 ./Libraries/XMCLib/src/xmc_vadc.o
 .text.XMC_VADC_GROUP_AddResultToFifo
                0x00000000       0x3c ./Libraries/XMCLib/src/xmc_vadc.o
 .text.XMC_VADC_GROUP_SetResultFastCompareValue
                0x00000000       0x44 ./Libraries/XMCLib/src/xmc_vadc.o
 .text.XMC_VADC_GROUP_GetFastCompareResult
                0x00000000       0x3c ./Libraries/XMCLib/src/xmc_vadc.o
 .text.XMC_VADC_GROUP_SetResultSubtractionValue
                0x00000000       0x38 ./Libraries/XMCLib/src/xmc_vadc.o
 .text.XMC_VADC_GROUP_SetResultInterruptNode
                0x00000000       0x90 ./Libraries/XMCLib/src/xmc_vadc.o
 .text.XMC_VADC_GROUP_GetResultFifoTail
                0x00000000       0x8c ./Libraries/XMCLib/src/xmc_vadc.o
 .text.XMC_VADC_GROUP_GetResultFifoHead
                0x00000000       0x60 ./Libraries/XMCLib/src/xmc_vadc.o
 .text.XMC_VADC_GROUP_IsResultRegisterFifoHead
                0x00000000       0x60 ./Libraries/XMCLib/src/xmc_vadc.o
 .comment       0x00000000       0x71 ./Libraries/XMCLib/src/xmc_vadc.o
 .text          0x00000000        0x0 ./Libraries/XMCLib/src/xmc_wdt.o
 .data          0x00000000        0x0 ./Libraries/XMCLib/src/xmc_wdt.o
 .bss           0x00000000        0x0 ./Libraries/XMCLib/src/xmc_wdt.o
 .text.XMC_WDT_Enable
                0x00000000       0x18 ./Libraries/XMCLib/src/xmc_wdt.o
 .text.XMC_WDT_Disable
                0x00000000       0x18 ./Libraries/XMCLib/src/xmc_wdt.o
 .text.XMC_WDT_Init
                0x00000000       0x30 ./Libraries/XMCLib/src/xmc_wdt.o
 .debug_info    0x00000000      0x37d ./Libraries/XMCLib/src/xmc_wdt.o
 .debug_abbrev  0x00000000      0x16d ./Libraries/XMCLib/src/xmc_wdt.o
 .debug_loc     0x00000000       0xa8 ./Libraries/XMCLib/src/xmc_wdt.o
 .debug_aranges
                0x00000000       0x30 ./Libraries/XMCLib/src/xmc_wdt.o
 .debug_ranges  0x00000000       0x20 ./Libraries/XMCLib/src/xmc_wdt.o
 .debug_line    0x00000000      0x2c1 ./Libraries/XMCLib/src/xmc_wdt.o
 .debug_str     0x00000000      0x6ae ./Libraries/XMCLib/src/xmc_wdt.o
 .comment       0x00000000       0x71 ./Libraries/XMCLib/src/xmc_wdt.o
 .debug_frame   0x00000000       0x70 ./Libraries/XMCLib/src/xmc_wdt.o
 .ARM.attributes
                0x00000000       0x37 ./Libraries/XMCLib/src/xmc_wdt.o
 .text          0x00000000        0x0 ./Libraries/Newlib/syscalls.o
 .data          0x00000000        0x0 ./Libraries/Newlib/syscalls.o
 .bss           0x00000000        0x0 ./Libraries/Newlib/syscalls.o
 .bss.__dso_handle
                0x00000000        0x4 ./Libraries/Newlib/syscalls.o
 .text._sbrk    0x00000000       0x68 ./Libraries/Newlib/syscalls.o
 .bss.heap_ptr.4331
                0x00000000        0x4 ./Libraries/Newlib/syscalls.o
 .comment       0x00000000       0x71 ./Libraries/Newlib/syscalls.o
 .text          0x00000000        0x0 ./Dave/Generated/UART/uart.o
 .data          0x00000000        0x0 ./Dave/Generated/UART/uart.o
 .bss           0x00000000        0x0 ./Dave/Generated/UART/uart.o
 .text.XMC_USIC_CH_TXFIFO_Flush
                0x00000000       0x1c ./Dave/Generated/UART/uart.o
 .text.XMC_USIC_CH_TXFIFO_IsFull
                0x00000000       0x28 ./Dave/Generated/UART/uart.o
 .text.XMC_USIC_CH_TXFIFO_IsEmpty
                0x00000000       0x28 ./Dave/Generated/UART/uart.o
 .text.XMC_UART_CH_Start
                0x00000000       0x24 ./Dave/Generated/UART/uart.o
 .text.XMC_UART_CH_SetSamplePoint
                0x00000000       0x28 ./Dave/Generated/UART/uart.o
 .rodata.uart_event_status_flags
                0x00000000       0x14 ./Dave/Generated/UART/uart.o
 .rodata.uart_event_conf_flags
                0x00000000       0x14 ./Dave/Generated/UART/uart.o
 .text.UART_GetAppVersion
                0x00000000       0x44 ./Dave/Generated/UART/uart.o
 .text.UART_Transmit
                0x00000000       0x38 ./Dave/Generated/UART/uart.o
 .text.UART_AbortReceive
                0x00000000       0x64 ./Dave/Generated/UART/uart.o
 .text.UART_SetBaudrate
                0x00000000       0xd0 ./Dave/Generated/UART/uart.o
 .text.UART_lStartTransmitPolling
                0x00000000       0xd4 ./Dave/Generated/UART/uart.o
 .comment       0x00000000       0x71 ./Dave/Generated/UART/uart.o
 .text          0x00000000        0x0 ./Dave/Generated/UART/uart_conf.o
 .data          0x00000000        0x0 ./Dave/Generated/UART/uart_conf.o
 .bss           0x00000000        0x0 ./Dave/Generated/UART/uart_conf.o
 .comment       0x00000000       0x71 ./Dave/Generated/UART/uart_conf.o
 .text          0x00000000        0x0 ./Dave/Generated/TIMER/timer.o
 .data          0x00000000        0x0 ./Dave/Generated/TIMER/timer.o
 .bss           0x00000000        0x0 ./Dave/Generated/TIMER/timer.o
 .text.XMC_CCU4_SLICE_IsTimerRunning
                0x00000000       0x28 ./Dave/Generated/TIMER/timer.o
 .text.XMC_CCU4_SLICE_StopTimer
                0x00000000       0x18 ./Dave/Generated/TIMER/timer.o
 .text.XMC_CCU4_SLICE_GetTimerValue
                0x00000000       0x1c ./Dave/Generated/TIMER/timer.o
 .text.XMC_CCU4_SLICE_ClearEvent
                0x00000000       0x2c ./Dave/Generated/TIMER/timer.o
 .text.XMC_CCU4_SLICE_GetEvent
                0x00000000       0x34 ./Dave/Generated/TIMER/timer.o
 .text.TIMER_GetAppVersion
                0x00000000       0x44 ./Dave/Generated/TIMER/timer.o
 .text.TIMER_Start
                0x00000000       0x3c ./Dave/Generated/TIMER/timer.o
 .text.TIMER_Stop
                0x00000000       0x48 ./Dave/Generated/TIMER/timer.o
 .text.TIMER_GetTimerStatus
                0x00000000       0x30 ./Dave/Generated/TIMER/timer.o
 .text.TIMER_SetTimeInterval
                0x00000000      0x128 ./Dave/Generated/TIMER/timer.o
 .text.TIMER_GetInterruptStatus
                0x00000000       0x30 ./Dave/Generated/TIMER/timer.o
 .text.TIMER_ClearEvent
                0x00000000       0x24 ./Dave/Generated/TIMER/timer.o
 .text.TIMER_GetTime
                0x00000000       0x88 ./Dave/Generated/TIMER/timer.o
 .text.TIMER_Clear
                0x00000000       0x3c ./Dave/Generated/TIMER/timer.o
 .comment       0x00000000       0x71 ./Dave/Generated/TIMER/timer.o
 .text          0x00000000        0x0 ./Dave/Generated/TIMER/timer_conf.o
 .data          0x00000000        0x0 ./Dave/Generated/TIMER/timer_conf.o
 .bss           0x00000000        0x0 ./Dave/Generated/TIMER/timer_conf.o
 .comment       0x00000000       0x71 ./Dave/Generated/TIMER/timer_conf.o
 .text          0x00000000        0x0 ./Dave/Generated/INTERRUPT/interrupt.o
 .data          0x00000000        0x0 ./Dave/Generated/INTERRUPT/interrupt.o
 .bss           0x00000000        0x0 ./Dave/Generated/INTERRUPT/interrupt.o
 .text.INTERRUPT_GetAppVersion
                0x00000000       0x44 ./Dave/Generated/INTERRUPT/interrupt.o
 .comment       0x00000000       0x71 ./Dave/Generated/INTERRUPT/interrupt.o
 .text          0x00000000        0x0 ./Dave/Generated/INTERRUPT/interrupt_conf.o
 .data          0x00000000        0x0 ./Dave/Generated/INTERRUPT/interrupt_conf.o
 .bss           0x00000000        0x0 ./Dave/Generated/INTERRUPT/interrupt_conf.o
 .comment       0x00000000       0x71 ./Dave/Generated/INTERRUPT/interrupt_conf.o
 .text          0x00000000        0x0 ./Dave/Generated/GLOBAL_CCU4/global_ccu4.o
 .data          0x00000000        0x0 ./Dave/Generated/GLOBAL_CCU4/global_ccu4.o
 .bss           0x00000000        0x0 ./Dave/Generated/GLOBAL_CCU4/global_ccu4.o
 .text.GLOBAL_CCU4_GetAppVersion
                0x00000000       0x44 ./Dave/Generated/GLOBAL_CCU4/global_ccu4.o
 .comment       0x00000000       0x71 ./Dave/Generated/GLOBAL_CCU4/global_ccu4.o
 .text          0x00000000        0x0 ./Dave/Generated/GLOBAL_CCU4/global_ccu4_conf.o
 .data          0x00000000        0x0 ./Dave/Generated/GLOBAL_CCU4/global_ccu4_conf.o
 .bss           0x00000000        0x0 ./Dave/Generated/GLOBAL_CCU4/global_ccu4_conf.o
 .comment       0x00000000       0x71 ./Dave/Generated/GLOBAL_CCU4/global_ccu4_conf.o
 .text          0x00000000        0x0 ./Dave/Generated/GLOBAL_CAN/global_can.o
 .data          0x00000000        0x0 ./Dave/Generated/GLOBAL_CAN/global_can.o
 .bss           0x00000000        0x0 ./Dave/Generated/GLOBAL_CAN/global_can.o
 .text.GLOBAL_CAN_GetAppVersion
                0x00000000       0x44 ./Dave/Generated/GLOBAL_CAN/global_can.o
 .comment       0x00000000       0x71 ./Dave/Generated/GLOBAL_CAN/global_can.o
 .text          0x00000000        0x0 ./Dave/Generated/GLOBAL_CAN/global_can_conf.o
 .data          0x00000000        0x0 ./Dave/Generated/GLOBAL_CAN/global_can_conf.o
 .bss           0x00000000        0x0 ./Dave/Generated/GLOBAL_CAN/global_can_conf.o
 .comment       0x00000000       0x71 ./Dave/Generated/GLOBAL_CAN/global_can_conf.o
 .text          0x00000000        0x0 ./Dave/Generated/GLOBAL_ADC/global_adc.o
 .data          0x00000000        0x0 ./Dave/Generated/GLOBAL_ADC/global_adc.o
 .bss           0x00000000        0x0 ./Dave/Generated/GLOBAL_ADC/global_adc.o
 .text.GLOBAL_ADC_GetAppVersion
                0x00000000       0x44 ./Dave/Generated/GLOBAL_ADC/global_adc.o
 .comment       0x00000000       0x71 ./Dave/Generated/GLOBAL_ADC/global_adc.o
 .text          0x00000000        0x0 ./Dave/Generated/GLOBAL_ADC/global_adc_conf.o
 .data          0x00000000        0x0 ./Dave/Generated/GLOBAL_ADC/global_adc_conf.o
 .bss           0x00000000        0x0 ./Dave/Generated/GLOBAL_ADC/global_adc_conf.o
 .comment       0x00000000       0x71 ./Dave/Generated/GLOBAL_ADC/global_adc_conf.o
 .text          0x00000000        0x0 ./Dave/Generated/DIGITAL_IO/digital_io.o
 .data          0x00000000        0x0 ./Dave/Generated/DIGITAL_IO/digital_io.o
 .bss           0x00000000        0x0 ./Dave/Generated/DIGITAL_IO/digital_io.o
 .text.DIGITAL_IO_GetAppVersion
                0x00000000       0x44 ./Dave/Generated/DIGITAL_IO/digital_io.o
 .comment       0x00000000       0x71 ./Dave/Generated/DIGITAL_IO/digital_io.o
 .text          0x00000000        0x0 ./Dave/Generated/DIGITAL_IO/digital_io_conf.o
 .data          0x00000000        0x0 ./Dave/Generated/DIGITAL_IO/digital_io_conf.o
 .bss           0x00000000        0x0 ./Dave/Generated/DIGITAL_IO/digital_io_conf.o
 .comment       0x00000000       0x71 ./Dave/Generated/DIGITAL_IO/digital_io_conf.o
 .text          0x00000000        0x0 ./Dave/Generated/CPU_CTRL_XMC4/cpu_ctrl_xmc4.o
 .data          0x00000000        0x0 ./Dave/Generated/CPU_CTRL_XMC4/cpu_ctrl_xmc4.o
 .bss           0x00000000        0x0 ./Dave/Generated/CPU_CTRL_XMC4/cpu_ctrl_xmc4.o
 .text.CPU_CTRL_XMC4_GetAppVersion
                0x00000000       0x44 ./Dave/Generated/CPU_CTRL_XMC4/cpu_ctrl_xmc4.o
 .text.CPU_CTRL_XMC4_Init
                0x00000000       0x18 ./Dave/Generated/CPU_CTRL_XMC4/cpu_ctrl_xmc4.o
 .text.CPU_CTRL_XMC4_MPU_Enable
                0x00000000       0x28 ./Dave/Generated/CPU_CTRL_XMC4/cpu_ctrl_xmc4.o
 .text.CPU_CTRL_XMC4_MPU_Disable
                0x00000000       0x1c ./Dave/Generated/CPU_CTRL_XMC4/cpu_ctrl_xmc4.o
 .debug_info    0x00000000      0x31f ./Dave/Generated/CPU_CTRL_XMC4/cpu_ctrl_xmc4.o
 .debug_abbrev  0x00000000      0x141 ./Dave/Generated/CPU_CTRL_XMC4/cpu_ctrl_xmc4.o
 .debug_loc     0x00000000      0x158 ./Dave/Generated/CPU_CTRL_XMC4/cpu_ctrl_xmc4.o
 .debug_aranges
                0x00000000       0x38 ./Dave/Generated/CPU_CTRL_XMC4/cpu_ctrl_xmc4.o
 .debug_ranges  0x00000000       0x28 ./Dave/Generated/CPU_CTRL_XMC4/cpu_ctrl_xmc4.o
 .debug_line    0x00000000      0x26d ./Dave/Generated/CPU_CTRL_XMC4/cpu_ctrl_xmc4.o
 .debug_str     0x00000000      0x3d9 ./Dave/Generated/CPU_CTRL_XMC4/cpu_ctrl_xmc4.o
 .comment       0x00000000       0x71 ./Dave/Generated/CPU_CTRL_XMC4/cpu_ctrl_xmc4.o
 .debug_frame   0x00000000       0xac ./Dave/Generated/CPU_CTRL_XMC4/cpu_ctrl_xmc4.o
 .ARM.attributes
                0x00000000       0x37 ./Dave/Generated/CPU_CTRL_XMC4/cpu_ctrl_xmc4.o
 .text          0x00000000        0x0 ./Dave/Generated/CPU_CTRL_XMC4/cpu_ctrl_xmc4_conf.o
 .data          0x00000000        0x0 ./Dave/Generated/CPU_CTRL_XMC4/cpu_ctrl_xmc4_conf.o
 .bss           0x00000000        0x0 ./Dave/Generated/CPU_CTRL_XMC4/cpu_ctrl_xmc4_conf.o
 .bss.CPU_CTRL_XMC4_0
                0x00000000        0x4 ./Dave/Generated/CPU_CTRL_XMC4/cpu_ctrl_xmc4_conf.o
 .comment       0x00000000       0x71 ./Dave/Generated/CPU_CTRL_XMC4/cpu_ctrl_xmc4_conf.o
 .text          0x00000000        0x0 ./Dave/Generated/CLOCK_XMC4/clock_xmc4.o
 .data          0x00000000        0x0 ./Dave/Generated/CLOCK_XMC4/clock_xmc4.o
 .bss           0x00000000        0x0 ./Dave/Generated/CLOCK_XMC4/clock_xmc4.o
 .text.CLOCK_XMC4_GetAppVersion
                0x00000000       0x44 ./Dave/Generated/CLOCK_XMC4/clock_xmc4.o
 .text.CLOCK_XMC4_StepSystemPllFrequency
                0x00000000       0x14 ./Dave/Generated/CLOCK_XMC4/clock_xmc4.o
 .comment       0x00000000       0x71 ./Dave/Generated/CLOCK_XMC4/clock_xmc4.o
 .text          0x00000000        0x0 ./Dave/Generated/CLOCK_XMC4/clock_xmc4_conf.o
 .data          0x00000000        0x0 ./Dave/Generated/CLOCK_XMC4/clock_xmc4_conf.o
 .bss           0x00000000        0x0 ./Dave/Generated/CLOCK_XMC4/clock_xmc4_conf.o
 .comment       0x00000000       0x71 ./Dave/Generated/CLOCK_XMC4/clock_xmc4_conf.o
 .text          0x00000000        0x0 ./Dave/Generated/CAN_NODE/can_node.o
 .data          0x00000000        0x0 ./Dave/Generated/CAN_NODE/can_node.o
 .bss           0x00000000        0x0 ./Dave/Generated/CAN_NODE/can_node.o
 .text.XMC_CAN_NODE_GetStatus
                0x00000000       0x18 ./Dave/Generated/CAN_NODE/can_node.o
 .text.XMC_CAN_NODE_ClearStatus
                0x00000000       0x24 ./Dave/Generated/CAN_NODE/can_node.o
 .text.XMC_CAN_MO_GetStatus
                0x00000000       0x1c ./Dave/Generated/CAN_NODE/can_node.o
 .text.XMC_CAN_MO_ResetStatus
                0x00000000       0x1c ./Dave/Generated/CAN_NODE/can_node.o
 .text.CAN_NODE_GetAppVersion
                0x00000000       0x44 ./Dave/Generated/CAN_NODE/can_node.o
 .text.CAN_NODE_EnableEvent
                0x00000000       0x20 ./Dave/Generated/CAN_NODE/can_node.o
 .text.CAN_NODE_ConfigBaudrate
                0x00000000       0x58 ./Dave/Generated/CAN_NODE/can_node.o
 .text.CAN_NODE_MO_Transmit
                0x00000000       0x24 ./Dave/Generated/CAN_NODE/can_node.o
 .text.CAN_NODE_MO_UpdateData
                0x00000000       0x40 ./Dave/Generated/CAN_NODE/can_node.o
 .text.CAN_NODE_MO_GetStatus
                0x00000000       0x20 ./Dave/Generated/CAN_NODE/can_node.o
 .text.CAN_NODE_MO_ClearStatus
                0x00000000       0x1c ./Dave/Generated/CAN_NODE/can_node.o
 .text.CAN_NODE_DisableEvent
                0x00000000       0x20 ./Dave/Generated/CAN_NODE/can_node.o
 .text.CAN_NODE_GetStatus
                0x00000000       0x20 ./Dave/Generated/CAN_NODE/can_node.o
 .text.CAN_NODE_ClearStatus
                0x00000000       0x24 ./Dave/Generated/CAN_NODE/can_node.o
 .comment       0x00000000       0x71 ./Dave/Generated/CAN_NODE/can_node.o
 .text          0x00000000        0x0 ./Dave/Generated/CAN_NODE/can_node_conf.o
 .data          0x00000000        0x0 ./Dave/Generated/CAN_NODE/can_node_conf.o
 .bss           0x00000000        0x0 ./Dave/Generated/CAN_NODE/can_node_conf.o
 .comment       0x00000000       0x71 ./Dave/Generated/CAN_NODE/can_node_conf.o
 .text          0x00000000        0x0 ./Dave/Generated/ANALOG_IO/analog_io.o
 .data          0x00000000        0x0 ./Dave/Generated/ANALOG_IO/analog_io.o
 .bss           0x00000000        0x0 ./Dave/Generated/ANALOG_IO/analog_io.o
 .text.ANALOG_IO_GetAppVersion
                0x00000000       0x44 ./Dave/Generated/ANALOG_IO/analog_io.o
 .comment       0x00000000       0x71 ./Dave/Generated/ANALOG_IO/analog_io.o
 .text          0x00000000        0x0 ./Dave/Generated/ANALOG_IO/analog_io_conf.o
 .data          0x00000000        0x0 ./Dave/Generated/ANALOG_IO/analog_io_conf.o
 .bss           0x00000000        0x0 ./Dave/Generated/ANALOG_IO/analog_io_conf.o
 .comment       0x00000000       0x71 ./Dave/Generated/ANALOG_IO/analog_io_conf.o
 .text          0x00000000        0x0 ./Dave/Generated/ADC_MEASUREMENT/adc_measurement.o
 .data          0x00000000        0x0 ./Dave/Generated/ADC_MEASUREMENT/adc_measurement.o
 .bss           0x00000000        0x0 ./Dave/Generated/ADC_MEASUREMENT/adc_measurement.o
 .text.XMC_VADC_GROUP_GetDetailedResult
                0x00000000       0x20 ./Dave/Generated/ADC_MEASUREMENT/adc_measurement.o
 .text.XMC_VADC_GROUP_GetResult
                0x00000000       0x24 ./Dave/Generated/ADC_MEASUREMENT/adc_measurement.o
 .text.ADC_MEASUREMENT_GetAppVersion
                0x00000000       0x44 ./Dave/Generated/ADC_MEASUREMENT/adc_measurement.o
 .text.ADC_MEASUREMENT_StartConversion
                0x00000000       0x1c ./Dave/Generated/ADC_MEASUREMENT/adc_measurement.o
 .text.ADC_MEASUREMENT_GetResult
                0x00000000       0x30 ./Dave/Generated/ADC_MEASUREMENT/adc_measurement.o
 .text.ADC_MEASUREMENT_GetDetailedResult
                0x00000000       0x2c ./Dave/Generated/ADC_MEASUREMENT/adc_measurement.o
 .comment       0x00000000       0x71 ./Dave/Generated/ADC_MEASUREMENT/adc_measurement.o
 .text          0x00000000        0x0 ./Dave/Generated/ADC_MEASUREMENT/adc_measurement_conf.o
 .data          0x00000000        0x0 ./Dave/Generated/ADC_MEASUREMENT/adc_measurement_conf.o
 .bss           0x00000000        0x0 ./Dave/Generated/ADC_MEASUREMENT/adc_measurement_conf.o
 .comment       0x00000000       0x71 ./Dave/Generated/ADC_MEASUREMENT/adc_measurement_conf.o
 .text          0x00000000        0x0 ./Dave/Generated/DAVE.o
 .data          0x00000000        0x0 ./Dave/Generated/DAVE.o
 .bss           0x00000000        0x0 ./Dave/Generated/DAVE.o
 .comment       0x00000000       0x71 ./Dave/Generated/DAVE.o
 .text          0x00000000        0x0 ./CAN_1.o
 .data          0x00000000        0x0 ./CAN_1.o
 .bss           0x00000000        0x0 ./CAN_1.o
 .bss.CAN_data_Tx
                0x00000000        0x8 ./CAN_1.o
 .text.CAN_1_Transmit
                0x00000000       0x14 ./CAN_1.o
 .comment       0x00000000       0x71 ./CAN_1.o
 .text          0x00000000        0x0 ./CAN_2.o
 .data          0x00000000        0x0 ./CAN_2.o
 .bss           0x00000000        0x0 ./CAN_2.o
 .comment       0x00000000       0x71 ./CAN_2.o
 .text          0x00000000        0x0 ./getbits.o
 .data          0x00000000        0x0 ./getbits.o
 .bss           0x00000000        0x0 ./getbits.o
 .text.reverse  0x00000000       0x54 ./getbits.o
 .comment       0x00000000       0x71 ./getbits.o
 .text          0x00000000        0x0 ./main.o
 .data          0x00000000        0x0 ./main.o
 .bss           0x00000000        0x0 ./main.o
 .bss.z         0x00000000        0x1 ./main.o
 .data.sync     0x00000000        0x1 ./main.o
 .comment       0x00000000       0x71 ./main.o
 .text          0x00000000       0x2c c:/dave/dave-ide-4.4.2-64bit/eclipse/arm-gcc-49/bin/../lib/gcc/arm-none-eabi/4.9.3/armv7e-m/softfp\libgcc.a(_aeabi_uldivmod.o)
 .data          0x00000000        0x0 c:/dave/dave-ide-4.4.2-64bit/eclipse/arm-gcc-49/bin/../lib/gcc/arm-none-eabi/4.9.3/armv7e-m/softfp\libgcc.a(_aeabi_uldivmod.o)
 .bss           0x00000000        0x0 c:/dave/dave-ide-4.4.2-64bit/eclipse/arm-gcc-49/bin/../lib/gcc/arm-none-eabi/4.9.3/armv7e-m/softfp\libgcc.a(_aeabi_uldivmod.o)
 .debug_frame   0x00000000       0x28 c:/dave/dave-ide-4.4.2-64bit/eclipse/arm-gcc-49/bin/../lib/gcc/arm-none-eabi/4.9.3/armv7e-m/softfp\libgcc.a(_aeabi_uldivmod.o)
 .ARM.attributes
                0x00000000       0x22 c:/dave/dave-ide-4.4.2-64bit/eclipse/arm-gcc-49/bin/../lib/gcc/arm-none-eabi/4.9.3/armv7e-m/softfp\libgcc.a(_aeabi_uldivmod.o)
 .text          0x00000000       0x60 c:/dave/dave-ide-4.4.2-64bit/eclipse/arm-gcc-49/bin/../lib/gcc/arm-none-eabi/4.9.3/armv7e-m/softfp\libgcc.a(bpabi.o)
 .data          0x00000000        0x0 c:/dave/dave-ide-4.4.2-64bit/eclipse/arm-gcc-49/bin/../lib/gcc/arm-none-eabi/4.9.3/armv7e-m/softfp\libgcc.a(bpabi.o)
 .bss           0x00000000        0x0 c:/dave/dave-ide-4.4.2-64bit/eclipse/arm-gcc-49/bin/../lib/gcc/arm-none-eabi/4.9.3/armv7e-m/softfp\libgcc.a(bpabi.o)
 .debug_frame   0x00000000       0x50 c:/dave/dave-ide-4.4.2-64bit/eclipse/arm-gcc-49/bin/../lib/gcc/arm-none-eabi/4.9.3/armv7e-m/softfp\libgcc.a(bpabi.o)
 .ARM.attributes
                0x00000000       0x32 c:/dave/dave-ide-4.4.2-64bit/eclipse/arm-gcc-49/bin/../lib/gcc/arm-none-eabi/4.9.3/armv7e-m/softfp\libgcc.a(bpabi.o)
 .text          0x00000000        0x4 c:/dave/dave-ide-4.4.2-64bit/eclipse/arm-gcc-49/bin/../lib/gcc/arm-none-eabi/4.9.3/armv7e-m/softfp\libgcc.a(_dvmd_tls.o)
 .data          0x00000000        0x0 c:/dave/dave-ide-4.4.2-64bit/eclipse/arm-gcc-49/bin/../lib/gcc/arm-none-eabi/4.9.3/armv7e-m/softfp\libgcc.a(_dvmd_tls.o)
 .bss           0x00000000        0x0 c:/dave/dave-ide-4.4.2-64bit/eclipse/arm-gcc-49/bin/../lib/gcc/arm-none-eabi/4.9.3/armv7e-m/softfp\libgcc.a(_dvmd_tls.o)
 .ARM.attributes
                0x00000000       0x22 c:/dave/dave-ide-4.4.2-64bit/eclipse/arm-gcc-49/bin/../lib/gcc/arm-none-eabi/4.9.3/armv7e-m/softfp\libgcc.a(_dvmd_tls.o)
 .text          0x00000000      0x29c c:/dave/dave-ide-4.4.2-64bit/eclipse/arm-gcc-49/bin/../lib/gcc/arm-none-eabi/4.9.3/armv7e-m/softfp\libgcc.a(_divdi3.o)
 .data          0x00000000        0x0 c:/dave/dave-ide-4.4.2-64bit/eclipse/arm-gcc-49/bin/../lib/gcc/arm-none-eabi/4.9.3/armv7e-m/softfp\libgcc.a(_divdi3.o)
 .bss           0x00000000        0x0 c:/dave/dave-ide-4.4.2-64bit/eclipse/arm-gcc-49/bin/../lib/gcc/arm-none-eabi/4.9.3/armv7e-m/softfp\libgcc.a(_divdi3.o)
 .ARM.extab     0x00000000        0x0 c:/dave/dave-ide-4.4.2-64bit/eclipse/arm-gcc-49/bin/../lib/gcc/arm-none-eabi/4.9.3/armv7e-m/softfp\libgcc.a(_divdi3.o)
 .ARM.exidx     0x00000000        0x8 c:/dave/dave-ide-4.4.2-64bit/eclipse/arm-gcc-49/bin/../lib/gcc/arm-none-eabi/4.9.3/armv7e-m/softfp\libgcc.a(_divdi3.o)
 .debug_frame   0x00000000       0x34 c:/dave/dave-ide-4.4.2-64bit/eclipse/arm-gcc-49/bin/../lib/gcc/arm-none-eabi/4.9.3/armv7e-m/softfp\libgcc.a(_divdi3.o)
 .ARM.attributes
                0x00000000       0x32 c:/dave/dave-ide-4.4.2-64bit/eclipse/arm-gcc-49/bin/../lib/gcc/arm-none-eabi/4.9.3/armv7e-m/softfp\libgcc.a(_divdi3.o)
 .text          0x00000000      0x26c c:/dave/dave-ide-4.4.2-64bit/eclipse/arm-gcc-49/bin/../lib/gcc/arm-none-eabi/4.9.3/armv7e-m/softfp\libgcc.a(_udivdi3.o)
 .data          0x00000000        0x0 c:/dave/dave-ide-4.4.2-64bit/eclipse/arm-gcc-49/bin/../lib/gcc/arm-none-eabi/4.9.3/armv7e-m/softfp\libgcc.a(_udivdi3.o)
 .bss           0x00000000        0x0 c:/dave/dave-ide-4.4.2-64bit/eclipse/arm-gcc-49/bin/../lib/gcc/arm-none-eabi/4.9.3/armv7e-m/softfp\libgcc.a(_udivdi3.o)
 .ARM.extab     0x00000000        0x0 c:/dave/dave-ide-4.4.2-64bit/eclipse/arm-gcc-49/bin/../lib/gcc/arm-none-eabi/4.9.3/armv7e-m/softfp\libgcc.a(_udivdi3.o)
 .ARM.exidx     0x00000000        0x8 c:/dave/dave-ide-4.4.2-64bit/eclipse/arm-gcc-49/bin/../lib/gcc/arm-none-eabi/4.9.3/armv7e-m/softfp\libgcc.a(_udivdi3.o)
 .debug_frame   0x00000000       0x30 c:/dave/dave-ide-4.4.2-64bit/eclipse/arm-gcc-49/bin/../lib/gcc/arm-none-eabi/4.9.3/armv7e-m/softfp\libgcc.a(_udivdi3.o)
 .ARM.attributes
                0x00000000       0x32 c:/dave/dave-ide-4.4.2-64bit/eclipse/arm-gcc-49/bin/../lib/gcc/arm-none-eabi/4.9.3/armv7e-m/softfp\libgcc.a(_udivdi3.o)
 .text          0x00000000        0x0 c:/dave/dave-ide-4.4.2-64bit/eclipse/arm-gcc-49/bin/../lib/gcc/arm-none-eabi/4.9.3/../../../../arm-none-eabi/lib/armv7e-m/softfp\libg_nano.a(lib_a-errno.o)
 .data          0x00000000        0x0 c:/dave/dave-ide-4.4.2-64bit/eclipse/arm-gcc-49/bin/../lib/gcc/arm-none-eabi/4.9.3/../../../../arm-none-eabi/lib/armv7e-m/softfp\libg_nano.a(lib_a-errno.o)
 .bss           0x00000000        0x0 c:/dave/dave-ide-4.4.2-64bit/eclipse/arm-gcc-49/bin/../lib/gcc/arm-none-eabi/4.9.3/../../../../arm-none-eabi/lib/armv7e-m/softfp\libg_nano.a(lib_a-errno.o)
 .text.__errno  0x00000000        0xc c:/dave/dave-ide-4.4.2-64bit/eclipse/arm-gcc-49/bin/../lib/gcc/arm-none-eabi/4.9.3/../../../../arm-none-eabi/lib/armv7e-m/softfp\libg_nano.a(lib_a-errno.o)
 .debug_frame   0x00000000       0x20 c:/dave/dave-ide-4.4.2-64bit/eclipse/arm-gcc-49/bin/../lib/gcc/arm-none-eabi/4.9.3/../../../../arm-none-eabi/lib/armv7e-m/softfp\libg_nano.a(lib_a-errno.o)
 .ARM.attributes
                0x00000000       0x32 c:/dave/dave-ide-4.4.2-64bit/eclipse/arm-gcc-49/bin/../lib/gcc/arm-none-eabi/4.9.3/../../../../arm-none-eabi/lib/armv7e-m/softfp\libg_nano.a(lib_a-errno.o)
 .text          0x00000000        0x0 c:/dave/dave-ide-4.4.2-64bit/eclipse/arm-gcc-49/bin/../lib/gcc/arm-none-eabi/4.9.3/../../../../arm-none-eabi/lib/armv7e-m/softfp\libg_nano.a(lib_a-impure.o)
 .data          0x00000000        0x0 c:/dave/dave-ide-4.4.2-64bit/eclipse/arm-gcc-49/bin/../lib/gcc/arm-none-eabi/4.9.3/../../../../arm-none-eabi/lib/armv7e-m/softfp\libg_nano.a(lib_a-impure.o)
 .bss           0x00000000        0x0 c:/dave/dave-ide-4.4.2-64bit/eclipse/arm-gcc-49/bin/../lib/gcc/arm-none-eabi/4.9.3/../../../../arm-none-eabi/lib/armv7e-m/softfp\libg_nano.a(lib_a-impure.o)
 .data.impure_data
                0x00000000       0x60 c:/dave/dave-ide-4.4.2-64bit/eclipse/arm-gcc-49/bin/../lib/gcc/arm-none-eabi/4.9.3/../../../../arm-none-eabi/lib/armv7e-m/softfp\libg_nano.a(lib_a-impure.o)
 .data._impure_ptr
                0x00000000        0x4 c:/dave/dave-ide-4.4.2-64bit/eclipse/arm-gcc-49/bin/../lib/gcc/arm-none-eabi/4.9.3/../../../../arm-none-eabi/lib/armv7e-m/softfp\libg_nano.a(lib_a-impure.o)
 .rodata.str1.1
                0x00000000        0x2 c:/dave/dave-ide-4.4.2-64bit/eclipse/arm-gcc-49/bin/../lib/gcc/arm-none-eabi/4.9.3/../../../../arm-none-eabi/lib/armv7e-m/softfp\libg_nano.a(lib_a-impure.o)
 .rodata._global_impure_ptr
                0x00000000        0x4 c:/dave/dave-ide-4.4.2-64bit/eclipse/arm-gcc-49/bin/../lib/gcc/arm-none-eabi/4.9.3/../../../../arm-none-eabi/lib/armv7e-m/softfp\libg_nano.a(lib_a-impure.o)
 .ARM.attributes
                0x00000000       0x32 c:/dave/dave-ide-4.4.2-64bit/eclipse/arm-gcc-49/bin/../lib/gcc/arm-none-eabi/4.9.3/../../../../arm-none-eabi/lib/armv7e-m/softfp\libg_nano.a(lib_a-impure.o)
 .text          0x00000000        0x0 c:/dave/dave-ide-4.4.2-64bit/eclipse/arm-gcc-49/bin/../lib/gcc/arm-none-eabi/4.9.3/../../../../arm-none-eabi/lib/armv7e-m/softfp\libg_nano.a(lib_a-init.o)
 .data          0x00000000        0x0 c:/dave/dave-ide-4.4.2-64bit/eclipse/arm-gcc-49/bin/../lib/gcc/arm-none-eabi/4.9.3/../../../../arm-none-eabi/lib/armv7e-m/softfp\libg_nano.a(lib_a-init.o)
 .bss           0x00000000        0x0 c:/dave/dave-ide-4.4.2-64bit/eclipse/arm-gcc-49/bin/../lib/gcc/arm-none-eabi/4.9.3/../../../../arm-none-eabi/lib/armv7e-m/softfp\libg_nano.a(lib_a-init.o)
 .text          0x00000000        0x0 c:/dave/dave-ide-4.4.2-64bit/eclipse/arm-gcc-49/bin/../lib/gcc/arm-none-eabi/4.9.3/../../../../arm-none-eabi/lib/armv7e-m/softfp\libg_nano.a(lib_a-memcpy.o)
 .data          0x00000000        0x0 c:/dave/dave-ide-4.4.2-64bit/eclipse/arm-gcc-49/bin/../lib/gcc/arm-none-eabi/4.9.3/../../../../arm-none-eabi/lib/armv7e-m/softfp\libg_nano.a(lib_a-memcpy.o)
 .bss           0x00000000        0x0 c:/dave/dave-ide-4.4.2-64bit/eclipse/arm-gcc-49/bin/../lib/gcc/arm-none-eabi/4.9.3/../../../../arm-none-eabi/lib/armv7e-m/softfp\libg_nano.a(lib_a-memcpy.o)
 .text.memcpy   0x00000000       0x16 c:/dave/dave-ide-4.4.2-64bit/eclipse/arm-gcc-49/bin/../lib/gcc/arm-none-eabi/4.9.3/../../../../arm-none-eabi/lib/armv7e-m/softfp\libg_nano.a(lib_a-memcpy.o)
 .debug_frame   0x00000000       0x28 c:/dave/dave-ide-4.4.2-64bit/eclipse/arm-gcc-49/bin/../lib/gcc/arm-none-eabi/4.9.3/../../../../arm-none-eabi/lib/armv7e-m/softfp\libg_nano.a(lib_a-memcpy.o)
 .ARM.attributes
                0x00000000       0x32 c:/dave/dave-ide-4.4.2-64bit/eclipse/arm-gcc-49/bin/../lib/gcc/arm-none-eabi/4.9.3/../../../../arm-none-eabi/lib/armv7e-m/softfp\libg_nano.a(lib_a-memcpy.o)
 .text          0x00000000        0x0 c:/dave/dave-ide-4.4.2-64bit/eclipse/arm-gcc-49/bin/../lib/gcc/arm-none-eabi/4.9.3/../../../../arm-none-eabi/lib/armv7e-m/softfp\libg_nano.a(lib_a-memset.o)
 .data          0x00000000        0x0 c:/dave/dave-ide-4.4.2-64bit/eclipse/arm-gcc-49/bin/../lib/gcc/arm-none-eabi/4.9.3/../../../../arm-none-eabi/lib/armv7e-m/softfp\libg_nano.a(lib_a-memset.o)
 .bss           0x00000000        0x0 c:/dave/dave-ide-4.4.2-64bit/eclipse/arm-gcc-49/bin/../lib/gcc/arm-none-eabi/4.9.3/../../../../arm-none-eabi/lib/armv7e-m/softfp\libg_nano.a(lib_a-memset.o)
 .text.memset   0x00000000       0x10 c:/dave/dave-ide-4.4.2-64bit/eclipse/arm-gcc-49/bin/../lib/gcc/arm-none-eabi/4.9.3/../../../../arm-none-eabi/lib/armv7e-m/softfp\libg_nano.a(lib_a-memset.o)
 .debug_frame   0x00000000       0x20 c:/dave/dave-ide-4.4.2-64bit/eclipse/arm-gcc-49/bin/../lib/gcc/arm-none-eabi/4.9.3/../../../../arm-none-eabi/lib/armv7e-m/softfp\libg_nano.a(lib_a-memset.o)
 .ARM.attributes
                0x00000000       0x32 c:/dave/dave-ide-4.4.2-64bit/eclipse/arm-gcc-49/bin/../lib/gcc/arm-none-eabi/4.9.3/../../../../arm-none-eabi/lib/armv7e-m/softfp\libg_nano.a(lib_a-memset.o)

Memory Configuration

Name             Origin             Length             Attributes
FLASH_1_cached   0x08000000         0x00100000         xr
FLASH_1_uncached 0x0c000000         0x00100000         xr
PSRAM_1          0x10000000         0x00010000         !xr
DSRAM_1_system   0x20000000         0x00010000         !xr
DSRAM_2_comm     0x30000000         0x00008000         !xr
*default*        0x00000000         0xffffffff

Linker script and memory map

LOAD ./Startup/startup_XMC4500.o
LOAD ./Startup/system_XMC4500.o
LOAD ./Libraries/XMCLib/src/xmc4_eru.o
LOAD ./Libraries/XMCLib/src/xmc4_flash.o
LOAD ./Libraries/XMCLib/src/xmc4_gpio.o
LOAD ./Libraries/XMCLib/src/xmc4_rtc.o
LOAD ./Libraries/XMCLib/src/xmc4_scu.o
LOAD ./Libraries/XMCLib/src/xmc_can.o
LOAD ./Libraries/XMCLib/src/xmc_ccu4.o
LOAD ./Libraries/XMCLib/src/xmc_ccu8.o
LOAD ./Libraries/XMCLib/src/xmc_common.o
LOAD ./Libraries/XMCLib/src/xmc_dac.o
LOAD ./Libraries/XMCLib/src/xmc_dma.o
LOAD ./Libraries/XMCLib/src/xmc_dsd.o
LOAD ./Libraries/XMCLib/src/xmc_ebu.o
LOAD ./Libraries/XMCLib/src/xmc_ecat.o
LOAD ./Libraries/XMCLib/src/xmc_eru.o
LOAD ./Libraries/XMCLib/src/xmc_eth_mac.o
LOAD ./Libraries/XMCLib/src/xmc_eth_phy_dp83848.o
LOAD ./Libraries/XMCLib/src/xmc_eth_phy_ksz8031rnl.o
LOAD ./Libraries/XMCLib/src/xmc_eth_phy_ksz8081rnb.o
LOAD ./Libraries/XMCLib/src/xmc_fce.o
LOAD ./Libraries/XMCLib/src/xmc_gpio.o
LOAD ./Libraries/XMCLib/src/xmc_hrpwm.o
LOAD ./Libraries/XMCLib/src/xmc_i2c.o
LOAD ./Libraries/XMCLib/src/xmc_i2s.o
LOAD ./Libraries/XMCLib/src/xmc_ledts.o
LOAD ./Libraries/XMCLib/src/xmc_posif.o
LOAD ./Libraries/XMCLib/src/xmc_rtc.o
LOAD ./Libraries/XMCLib/src/xmc_sdmmc.o
LOAD ./Libraries/XMCLib/src/xmc_spi.o
LOAD ./Libraries/XMCLib/src/xmc_uart.o
LOAD ./Libraries/XMCLib/src/xmc_usbd.o
LOAD ./Libraries/XMCLib/src/xmc_usbh.o
LOAD ./Libraries/XMCLib/src/xmc_usic.o
LOAD ./Libraries/XMCLib/src/xmc_vadc.o
LOAD ./Libraries/XMCLib/src/xmc_wdt.o
LOAD ./Libraries/Newlib/syscalls.o
LOAD ./Dave/Generated/UART/uart.o
LOAD ./Dave/Generated/UART/uart_conf.o
LOAD ./Dave/Generated/TIMER/timer.o
LOAD ./Dave/Generated/TIMER/timer_conf.o
LOAD ./Dave/Generated/INTERRUPT/interrupt.o
LOAD ./Dave/Generated/INTERRUPT/interrupt_conf.o
LOAD ./Dave/Generated/GLOBAL_CCU4/global_ccu4.o
LOAD ./Dave/Generated/GLOBAL_CCU4/global_ccu4_conf.o
LOAD ./Dave/Generated/GLOBAL_CAN/global_can.o
LOAD ./Dave/Generated/GLOBAL_CAN/global_can_conf.o
LOAD ./Dave/Generated/GLOBAL_ADC/global_adc.o
LOAD ./Dave/Generated/GLOBAL_ADC/global_adc_conf.o
LOAD ./Dave/Generated/DIGITAL_IO/digital_io.o
LOAD ./Dave/Generated/DIGITAL_IO/digital_io_conf.o
LOAD ./Dave/Generated/CPU_CTRL_XMC4/cpu_ctrl_xmc4.o
LOAD ./Dave/Generated/CPU_CTRL_XMC4/cpu_ctrl_xmc4_conf.o
LOAD ./Dave/Generated/CLOCK_XMC4/clock_xmc4.o
LOAD ./Dave/Generated/CLOCK_XMC4/clock_xmc4_conf.o
LOAD ./Dave/Generated/CAN_NODE/can_node.o
LOAD ./Dave/Generated/CAN_NODE/can_node_conf.o
LOAD ./Dave/Generated/ANALOG_IO/analog_io.o
LOAD ./Dave/Generated/ANALOG_IO/analog_io_conf.o
LOAD ./Dave/Generated/ADC_MEASUREMENT/adc_measurement.o
LOAD ./Dave/Generated/ADC_MEASUREMENT/adc_measurement_conf.o
LOAD ./Dave/Generated/DAVE.o
LOAD ./CAN_1.o
LOAD ./CAN_2.o
LOAD ./getbits.o
LOAD ./main.o
LOAD c:/dave/dave-ide-4.4.2-64bit/eclipse/arm-gcc-49/bin/../lib/gcc/arm-none-eabi/4.9.3/../../../../arm-none-eabi/lib/armv7e-m/softfp\libm.a
START GROUP
LOAD c:/dave/dave-ide-4.4.2-64bit/eclipse/arm-gcc-49/bin/../lib/gcc/arm-none-eabi/4.9.3/armv7e-m/softfp\libgcc.a
LOAD c:/dave/dave-ide-4.4.2-64bit/eclipse/arm-gcc-49/bin/../lib/gcc/arm-none-eabi/4.9.3/../../../../arm-none-eabi/lib/armv7e-m/softfp\libg_nano.a
LOAD c:/dave/dave-ide-4.4.2-64bit/eclipse/arm-gcc-49/bin/../lib/gcc/arm-none-eabi/4.9.3/../../../../arm-none-eabi/lib/armv7e-m/softfp\libc_nano.a
END GROUP
START GROUP
LOAD c:/dave/dave-ide-4.4.2-64bit/eclipse/arm-gcc-49/bin/../lib/gcc/arm-none-eabi/4.9.3/armv7e-m/softfp\libgcc.a
LOAD c:/dave/dave-ide-4.4.2-64bit/eclipse/arm-gcc-49/bin/../lib/gcc/arm-none-eabi/4.9.3/../../../../arm-none-eabi/lib/armv7e-m/softfp\libc_nano.a
LOAD c:/dave/dave-ide-4.4.2-64bit/eclipse/arm-gcc-49/bin/../lib/gcc/arm-none-eabi/4.9.3/../../../../arm-none-eabi/lib/armv7e-m/softfp\libnosys.a
END GROUP
START GROUP
LOAD c:/dave/dave-ide-4.4.2-64bit/eclipse/arm-gcc-49/bin/../lib/gcc/arm-none-eabi/4.9.3/armv7e-m/softfp\libgcc.a
LOAD c:/dave/dave-ide-4.4.2-64bit/eclipse/arm-gcc-49/bin/../lib/gcc/arm-none-eabi/4.9.3/../../../../arm-none-eabi/lib/armv7e-m/softfp\libc_nano.a
LOAD c:/dave/dave-ide-4.4.2-64bit/eclipse/arm-gcc-49/bin/../lib/gcc/arm-none-eabi/4.9.3/../../../../arm-none-eabi/lib/armv7e-m/softfp\libnosys.a
END GROUP
                0x00000800                stack_size = DEFINED (stack_size)?stack_size:0x800
                0x00000040                no_init_size = 0x40

.text           0x08000000     0x514c load address 0x0c000000
                0x08000000                sText = .
 *(.reset)
 .reset         0x08000000      0x2b4 ./Startup/startup_XMC4500.o
                0x08000000                __Vectors
                0x08000200                Reset_Handler
                0x080002b0                DSD0_7_IRQHandler
                0x080002b0                DebugMon_Handler
                0x080002b0                VADC0_C0_0_IRQHandler
                0x080002b0                CAN0_4_IRQHandler
                0x080002b0                VADC0_G2_0_IRQHandler
                0x080002b0                USIC0_5_IRQHandler
                0x080002b0                POSIF0_0_IRQHandler
                0x080002b0                POSIF1_0_IRQHandler
                0x080002b0                HardFault_Handler
                0x080002b0                VADC0_G1_1_IRQHandler
                0x080002b0                SysTick_Handler
                0x080002b0                PendSV_Handler
                0x080002b0                NMI_Handler
                0x080002b0                USIC1_3_IRQHandler
                0x080002b0                CCU40_2_IRQHandler
                0x080002b0                SCU_0_IRQHandler
                0x080002b0                ERU0_0_IRQHandler
                0x080002b0                CCU41_0_IRQHandler
                0x080002b0                USIC1_5_IRQHandler
                0x080002b0                DSD0_4_IRQHandler
                0x080002b0                CCU80_1_IRQHandler
                0x080002b0                CCU81_0_IRQHandler
                0x080002b0                UsageFault_Handler
                0x080002b0                USIC0_0_IRQHandler
                0x080002b0                POSIF1_1_IRQHandler
                0x080002b0                ERU0_2_IRQHandler
                0x080002b0                CCU81_1_IRQHandler
                0x080002b0                ERU1_1_IRQHandler
                0x080002b0                VADC0_G2_3_IRQHandler
                0x080002b0                VADC0_G2_2_IRQHandler
                0x080002b0                CCU42_3_IRQHandler
                0x080002b0                ERU0_3_IRQHandler
                0x080002b0                DSD0_5_IRQHandler
                0x080002b0                VADC0_C0_3_IRQHandler
                0x080002b0                CAN0_6_IRQHandler
                0x080002b0                CCU43_0_IRQHandler
                0x080002b0                VADC0_G0_1_IRQHandler
                0x080002b0                CCU81_2_IRQHandler
                0x080002b0                USIC2_4_IRQHandler
                0x080002b0                CCU81_3_IRQHandler
                0x080002b0                CCU42_1_IRQHandler
                0x080002b0                USIC1_1_IRQHandler
                0x080002b0                USIC2_5_IRQHandler
                0x080002b0                CCU40_0_IRQHandler
                0x080002b0                CAN0_0_IRQHandler
                0x080002b0                ERU1_0_IRQHandler
                0x080002b0                CCU42_2_IRQHandler
                0x080002b0                Default_Handler
                0x080002b0                USIC1_4_IRQHandler
                0x080002b0                ERU1_3_IRQHandler
                0x080002b0                POSIF0_1_IRQHandler
                0x080002b0                VADC0_G0_0_IRQHandler
                0x080002b0                DSD0_2_IRQHandler
                0x080002b0                CCU80_3_IRQHandler
                0x080002b0                CCU41_3_IRQHandler
                0x080002b0                CCU80_2_IRQHandler
                0x080002b0                VADC0_G1_3_IRQHandler
                0x080002b0                VADC0_G0_3_IRQHandler
                0x080002b0                GPDMA0_0_IRQHandler
                0x080002b0                PMU0_0_IRQHandler
                0x080002b0                CAN0_7_IRQHandler
                0x080002b0                DSD0_1_IRQHandler
                0x080002b0                CCU41_2_IRQHandler
                0x080002b0                VADC0_C0_1_IRQHandler
                0x080002b0                CCU43_2_IRQHandler
                0x080002b0                USIC2_2_IRQHandler
                0x080002b0                MemManage_Handler
                0x080002b0                VADC0_G3_1_IRQHandler
                0x080002b0                DAC0_0_IRQHandler
                0x080002b0                SVC_Handler
                0x080002b0                VADC0_G3_3_IRQHandler
                0x080002b0                ERU1_2_IRQHandler
                0x080002b0                CCU41_1_IRQHandler
                0x080002b0                DSD0_6_IRQHandler
                0x080002b0                VADC0_G1_2_IRQHandler
                0x080002b0                USIC2_3_IRQHandler
                0x080002b0                CAN0_2_IRQHandler
                0x080002b0                USIC2_0_IRQHandler
                0x080002b0                VADC0_G0_2_IRQHandler
                0x080002b0                VADC0_G2_1_IRQHandler
                0x080002b0                CAN0_3_IRQHandler
                0x080002b0                ETH0_0_IRQHandler
                0x080002b0                USIC0_3_IRQHandler
                0x080002b0                DSD0_0_IRQHandler
                0x080002b0                VADC0_C0_2_IRQHandler
                0x080002b0                CCU42_0_IRQHandler
                0x080002b0                FCE0_0_IRQHandler
                0x080002b0                VADC0_G1_0_IRQHandler
                0x080002b0                USB0_0_IRQHandler
                0x080002b0                CAN0_5_IRQHandler
                0x080002b0                CCU80_0_IRQHandler
                0x080002b0                CCU40_1_IRQHandler
                0x080002b0                USIC2_1_IRQHandler
                0x080002b0                USIC0_1_IRQHandler
                0x080002b0                VADC0_G3_2_IRQHandler
                0x080002b0                CCU40_3_IRQHandler
                0x080002b0                BusFault_Handler
                0x080002b0                LEDTS0_0_IRQHandler
                0x080002b0                USIC0_4_IRQHandler
                0x080002b0                CCU43_3_IRQHandler
                0x080002b0                ERU0_1_IRQHandler
                0x080002b0                VADC0_G3_0_IRQHandler
                0x080002b0                USIC1_2_IRQHandler
                0x080002b0                DSD0_3_IRQHandler
                0x080002b0                SDMMC0_0_IRQHandler
                0x080002b0                CAN0_1_IRQHandler
                0x080002b0                USIC0_2_IRQHandler
                0x080002b0                DAC0_1_IRQHandler
                0x080002b0                GPDMA1_0_IRQHandler
 *(.text .text.* .gnu.linkonce.t.*)
 .text.SystemInit
                0x080002b4       0x20 ./Startup/system_XMC4500.o
                0x080002b4                SystemInit
 .text.SystemCoreClockUpdate
                0x080002d4       0xd4 ./Startup/system_XMC4500.o
                0x080002d4                SystemCoreClockUpdate
 .text.XMC_GPIO_Init
                0x080003a8      0x14c ./Libraries/XMCLib/src/xmc4_gpio.o
                0x080003a8                XMC_GPIO_Init
 .text.XMC_SCU_CLOCK_GetCpuClockFrequency
                0x080004f4       0x18 ./Libraries/XMCLib/src/xmc4_scu.o
 .text.XMC_SCU_GetMirrorStatus
                0x0800050c       0x18 ./Libraries/XMCLib/src/xmc4_scu.o
 .text.XMC_SCU_lDelay
                0x08000524       0x44 ./Libraries/XMCLib/src/xmc4_scu.o
 .text.XMC_SCU_CLOCK_Init
                0x08000568       0xec ./Libraries/XMCLib/src/xmc4_scu.o
                0x08000568                XMC_SCU_CLOCK_Init
 .text.XMC_SCU_RESET_DeassertPeripheralReset
                0x08000654       0x38 ./Libraries/XMCLib/src/xmc4_scu.o
                0x08000654                XMC_SCU_RESET_DeassertPeripheralReset
 .text.XMC_SCU_CLOCK_GetPeripheralClockFrequency
                0x0800068c       0x20 ./Libraries/XMCLib/src/xmc4_scu.o
                0x0800068c                XMC_SCU_CLOCK_GetPeripheralClockFrequency
 .text.XMC_SCU_CLOCK_SetSystemClockSource
                0x080006ac       0x28 ./Libraries/XMCLib/src/xmc4_scu.o
                0x080006ac                XMC_SCU_CLOCK_SetSystemClockSource
 .text.XMC_SCU_CLOCK_SetUsbClockSource
                0x080006d4       0x28 ./Libraries/XMCLib/src/xmc4_scu.o
                0x080006d4                XMC_SCU_CLOCK_SetUsbClockSource
 .text.XMC_SCU_CLOCK_SetWdtClockSource
                0x080006fc       0x28 ./Libraries/XMCLib/src/xmc4_scu.o
                0x080006fc                XMC_SCU_CLOCK_SetWdtClockSource
 .text.XMC_SCU_CLOCK_SetSystemPllClockSource
                0x08000724       0x40 ./Libraries/XMCLib/src/xmc4_scu.o
                0x08000724                XMC_SCU_CLOCK_SetSystemPllClockSource
 .text.XMC_SCU_HIB_SetRtcClockSource
                0x08000764       0x3c ./Libraries/XMCLib/src/xmc4_scu.o
                0x08000764                XMC_SCU_HIB_SetRtcClockSource
 .text.XMC_SCU_HIB_SetStandbyClockSource
                0x080007a0       0x3c ./Libraries/XMCLib/src/xmc4_scu.o
                0x080007a0                XMC_SCU_HIB_SetStandbyClockSource
 .text.XMC_SCU_CLOCK_SetSystemClockDivider
                0x080007dc       0x28 ./Libraries/XMCLib/src/xmc4_scu.o
                0x080007dc                XMC_SCU_CLOCK_SetSystemClockDivider
 .text.XMC_SCU_CLOCK_SetCcuClockDivider
                0x08000804       0x28 ./Libraries/XMCLib/src/xmc4_scu.o
                0x08000804                XMC_SCU_CLOCK_SetCcuClockDivider
 .text.XMC_SCU_CLOCK_SetCpuClockDivider
                0x0800082c       0x28 ./Libraries/XMCLib/src/xmc4_scu.o
                0x0800082c                XMC_SCU_CLOCK_SetCpuClockDivider
 .text.XMC_SCU_CLOCK_SetPeripheralClockDivider
                0x08000854       0x28 ./Libraries/XMCLib/src/xmc4_scu.o
                0x08000854                XMC_SCU_CLOCK_SetPeripheralClockDivider
 .text.XMC_SCU_CLOCK_SetUsbClockDivider
                0x0800087c       0x28 ./Libraries/XMCLib/src/xmc4_scu.o
                0x0800087c                XMC_SCU_CLOCK_SetUsbClockDivider
 .text.XMC_SCU_CLOCK_SetEbuClockDivider
                0x080008a4       0x28 ./Libraries/XMCLib/src/xmc4_scu.o
                0x080008a4                XMC_SCU_CLOCK_SetEbuClockDivider
 .text.XMC_SCU_CLOCK_SetWdtClockDivider
                0x080008cc       0x28 ./Libraries/XMCLib/src/xmc4_scu.o
                0x080008cc                XMC_SCU_CLOCK_SetWdtClockDivider
 .text.XMC_SCU_CLOCK_EnableClock
                0x080008f4       0x20 ./Libraries/XMCLib/src/xmc4_scu.o
                0x080008f4                XMC_SCU_CLOCK_EnableClock
 .text.XMC_SCU_CLOCK_StartUsbPll
                0x08000914       0x74 ./Libraries/XMCLib/src/xmc4_scu.o
                0x08000914                XMC_SCU_CLOCK_StartUsbPll
 .text.XMC_SCU_CLOCK_SetBackupClockCalibrationMode
                0x08000988       0x4c ./Libraries/XMCLib/src/xmc4_scu.o
                0x08000988                XMC_SCU_CLOCK_SetBackupClockCalibrationMode
 .text.XMC_SCU_HIB_EnableHibernateDomain
                0x080009d4       0x58 ./Libraries/XMCLib/src/xmc4_scu.o
                0x080009d4                XMC_SCU_HIB_EnableHibernateDomain
 .text.XMC_SCU_CLOCK_IsLowPowerOscillatorStable
                0x08000a2c       0x24 ./Libraries/XMCLib/src/xmc4_scu.o
                0x08000a2c                XMC_SCU_CLOCK_IsLowPowerOscillatorStable
 .text.XMC_SCU_CLOCK_EnableLowPowerOscillator
                0x08000a50       0x68 ./Libraries/XMCLib/src/xmc4_scu.o
                0x08000a50                XMC_SCU_CLOCK_EnableLowPowerOscillator
 .text.XMC_SCU_CLOCK_EnableHighPerformanceOscillator
                0x08000ab8       0x50 ./Libraries/XMCLib/src/xmc4_scu.o
                0x08000ab8                XMC_SCU_CLOCK_EnableHighPerformanceOscillator
 .text.XMC_SCU_CLOCK_IsHighPerformanceOscillatorStable
                0x08000b08       0x28 ./Libraries/XMCLib/src/xmc4_scu.o
                0x08000b08                XMC_SCU_CLOCK_IsHighPerformanceOscillatorStable
 .text.XMC_SCU_CLOCK_EnableSystemPll
                0x08000b30       0x20 ./Libraries/XMCLib/src/xmc4_scu.o
                0x08000b30                XMC_SCU_CLOCK_EnableSystemPll
 .text.XMC_SCU_CLOCK_DisableSystemPll
                0x08000b50       0x20 ./Libraries/XMCLib/src/xmc4_scu.o
                0x08000b50                XMC_SCU_CLOCK_DisableSystemPll
 .text.XMC_SCU_CLOCK_StartSystemPll
                0x08000b70      0x174 ./Libraries/XMCLib/src/xmc4_scu.o
                0x08000b70                XMC_SCU_CLOCK_StartSystemPll
 .text.XMC_SCU_CLOCK_StepSystemPllFrequency
                0x08000ce4       0x2c ./Libraries/XMCLib/src/xmc4_scu.o
                0x08000ce4                XMC_SCU_CLOCK_StepSystemPllFrequency
 .text.XMC_CAN_IsPanelControlReady
                0x08000d10       0x28 ./Libraries/XMCLib/src/xmc_can.o
 .text.XMC_CAN_PanelControl
                0x08000d38       0x3c ./Libraries/XMCLib/src/xmc_can.o
 .text.XMC_CAN_NODE_EnableConfigurationChange
                0x08000d74       0x20 ./Libraries/XMCLib/src/xmc_can.o
 .text.XMC_CAN_NODE_DisableConfigurationChange
                0x08000d94       0x20 ./Libraries/XMCLib/src/xmc_can.o
 .text.max      0x08000db4       0x20 ./Libraries/XMCLib/src/xmc_can.o
 .text.min      0x08000dd4       0x20 ./Libraries/XMCLib/src/xmc_can.o
 .text.XMC_CAN_NODE_NominalBitTimeConfigure
                0x08000df4      0x1c4 ./Libraries/XMCLib/src/xmc_can.o
                0x08000df4                XMC_CAN_NODE_NominalBitTimeConfigure
 .text.XMC_CAN_AllocateMOtoNodeList
                0x08000fb8       0x3c ./Libraries/XMCLib/src/xmc_can.o
                0x08000fb8                XMC_CAN_AllocateMOtoNodeList
 .text.XMC_CAN_Enable
                0x08000ff4       0x34 ./Libraries/XMCLib/src/xmc_can.o
                0x08000ff4                XMC_CAN_Enable
 .text.XMC_CAN_Init
                0x08001028       0xd4 ./Libraries/XMCLib/src/xmc_can.o
                0x08001028                XMC_CAN_Init
 .text.XMC_CAN_MO_Config
                0x080010fc      0x138 ./Libraries/XMCLib/src/xmc_can.o
                0x080010fc                XMC_CAN_MO_Config
 .text.XMC_CAN_MO_UpdateData
                0x08001234       0x70 ./Libraries/XMCLib/src/xmc_can.o
                0x08001234                XMC_CAN_MO_UpdateData
 .text.XMC_CAN_MO_ReceiveData
                0x080012a4       0x98 ./Libraries/XMCLib/src/xmc_can.o
                0x080012a4                XMC_CAN_MO_ReceiveData
 .text.XMC_CAN_MO_Receive
                0x0800133c      0x1a0 ./Libraries/XMCLib/src/xmc_can.o
                0x0800133c                XMC_CAN_MO_Receive
 .text.XMC_CAN_NODE_EnableEvent
                0x080014dc       0x38 ./Libraries/XMCLib/src/xmc_can.o
                0x080014dc                XMC_CAN_NODE_EnableEvent
 .text.XMC_CCU4_StartPrescaler
                0x08001514       0x20 ./Libraries/XMCLib/src/xmc_ccu4.o
 .text.XMC_CCU4_lDeassertReset
                0x08001534       0x60 ./Libraries/XMCLib/src/xmc_ccu4.o
 .text.XMC_CCU4_EnableModule
                0x08001594       0x1c ./Libraries/XMCLib/src/xmc_ccu4.o
                0x08001594                XMC_CCU4_EnableModule
 .text.XMC_CCU4_Init
                0x080015b0       0x3c ./Libraries/XMCLib/src/xmc_ccu4.o
                0x080015b0                XMC_CCU4_Init
 .text.XMC_CCU4_SLICE_CompareInit
                0x080015ec       0x6c ./Libraries/XMCLib/src/xmc_ccu4.o
                0x080015ec                XMC_CCU4_SLICE_CompareInit
 .text.XMC_CCU4_SLICE_SetInterruptNode
                0x08001658       0xb0 ./Libraries/XMCLib/src/xmc_ccu4.o
                0x08001658                XMC_CCU4_SLICE_SetInterruptNode
 .text.XMC_GPIO_SetHardwareControl
                0x08001708       0x44 ./Libraries/XMCLib/src/xmc_gpio.o
                0x08001708                XMC_GPIO_SetHardwareControl
 .text.XMC_USIC_CH_GetTransmitBufferStatus
                0x0800174c       0x20 ./Libraries/XMCLib/src/xmc_uart.o
 .text.XMC_UART_CH_ClearStatusFlag
                0x0800176c       0x1c ./Libraries/XMCLib/src/xmc_uart.o
 .text.XMC_UART_CH_Init
                0x08001788       0xac ./Libraries/XMCLib/src/xmc_uart.o
                0x08001788                XMC_UART_CH_Init
 .text.XMC_UART_CH_Transmit
                0x08001834       0x4c ./Libraries/XMCLib/src/xmc_uart.o
                0x08001834                XMC_UART_CH_Transmit
 .text.XMC_UART_CH_GetReceivedData
                0x08001880       0x34 ./Libraries/XMCLib/src/xmc_uart.o
                0x08001880                XMC_UART_CH_GetReceivedData
 .text.XMC_USIC_CH_Enable
                0x080018b4       0x98 ./Libraries/XMCLib/src/xmc_usic.o
                0x080018b4                XMC_USIC_CH_Enable
 .text.XMC_USIC_CH_SetBaudrate
                0x0800194c       0xe0 ./Libraries/XMCLib/src/xmc_usic.o
                0x0800194c                XMC_USIC_CH_SetBaudrate
 .text.XMC_USIC_CH_RXFIFO_Configure
                0x08001a2c       0x54 ./Libraries/XMCLib/src/xmc_usic.o
                0x08001a2c                XMC_USIC_CH_RXFIFO_Configure
 .text.XMC_USIC_CH_RXFIFO_SetSizeTriggerLimit
                0x08001a80       0x44 ./Libraries/XMCLib/src/xmc_usic.o
                0x08001a80                XMC_USIC_CH_RXFIFO_SetSizeTriggerLimit
 .text.XMC_USIC_CH_SetInterruptNodePointer
                0x08001ac4       0x38 ./Libraries/XMCLib/src/xmc_usic.o
                0x08001ac4                XMC_USIC_CH_SetInterruptNodePointer
 .text.XMC_USIC_CH_RXFIFO_SetInterruptNodePointer
                0x08001afc       0x3c ./Libraries/XMCLib/src/xmc_usic.o
                0x08001afc                XMC_USIC_CH_RXFIFO_SetInterruptNodePointer
 .text.XMC_USIC_Enable
                0x08001b38       0x54 ./Libraries/XMCLib/src/xmc_usic.o
                0x08001b38                XMC_USIC_Enable
 .text.XMC_VADC_GROUP_ExternalMuxControlInit
                0x08001b8c       0x6c ./Libraries/XMCLib/src/xmc_vadc.o
 .text.XMC_VADC_GROUP_BackgroundEnableArbitrationSlot
                0x08001bf8       0x24 ./Libraries/XMCLib/src/xmc_vadc.o
 .text.XMC_VADC_GROUP_BackgroundDisableArbitrationSlot
                0x08001c1c       0x24 ./Libraries/XMCLib/src/xmc_vadc.o
 .text.XMC_VADC_GLOBAL_EnableModule
                0x08001c40        0xc ./Libraries/XMCLib/src/xmc_vadc.o
                0x08001c40                XMC_VADC_GLOBAL_EnableModule
 .text.XMC_VADC_GLOBAL_Init
                0x08001c4c       0x54 ./Libraries/XMCLib/src/xmc_vadc.o
                0x08001c4c                XMC_VADC_GLOBAL_Init
 .text.XMC_VADC_GLOBAL_InputClassInit
                0x08001ca0       0x48 ./Libraries/XMCLib/src/xmc_vadc.o
                0x08001ca0                XMC_VADC_GLOBAL_InputClassInit
 .text.XMC_VADC_GLOBAL_StartupCalibration
                0x08001ce8       0x60 ./Libraries/XMCLib/src/xmc_vadc.o
                0x08001ce8                XMC_VADC_GLOBAL_StartupCalibration
 .text.XMC_VADC_GLOBAL_BackgroundSetReqSrcEventInterruptNode
                0x08001d48       0x48 ./Libraries/XMCLib/src/xmc_vadc.o
                0x08001d48                XMC_VADC_GLOBAL_BackgroundSetReqSrcEventInterruptNode
 .text.XMC_VADC_GROUP_Init
                0x08001d90       0x68 ./Libraries/XMCLib/src/xmc_vadc.o
                0x08001d90                XMC_VADC_GROUP_Init
 .text.XMC_VADC_GROUP_InputClassInit
                0x08001df8       0xb8 ./Libraries/XMCLib/src/xmc_vadc.o
                0x08001df8                XMC_VADC_GROUP_InputClassInit
 .text.XMC_VADC_GROUP_SetPowerMode
                0x08001eb0       0x38 ./Libraries/XMCLib/src/xmc_vadc.o
                0x08001eb0                XMC_VADC_GROUP_SetPowerMode
 .text.XMC_VADC_GLOBAL_BackgroundInit
                0x08001ee8       0xfc ./Libraries/XMCLib/src/xmc_vadc.o
                0x08001ee8                XMC_VADC_GLOBAL_BackgroundInit
 .text.XMC_VADC_GROUP_ChannelInit
                0x08001fe4       0xc8 ./Libraries/XMCLib/src/xmc_vadc.o
                0x08001fe4                XMC_VADC_GROUP_ChannelInit
 .text._init    0x080020ac        0xc ./Libraries/Newlib/syscalls.o
                0x080020ac                _init
 .text.XMC_USIC_CH_EnableEvent
                0x080020b8       0x20 ./Dave/Generated/UART/uart.o
 .text.XMC_USIC_CH_DisableEvent
                0x080020d8       0x24 ./Dave/Generated/UART/uart.o
 .text.XMC_USIC_CH_RXFIFO_EnableEvent
                0x080020fc       0x24 ./Dave/Generated/UART/uart.o
 .text.XMC_USIC_CH_RXFIFO_DisableEvent
                0x08002120       0x28 ./Dave/Generated/UART/uart.o
 .text.XMC_USIC_CH_RXFIFO_Flush
                0x08002148       0x1c ./Dave/Generated/UART/uart.o
 .text.XMC_USIC_CH_RXFIFO_IsEmpty
                0x08002164       0x28 ./Dave/Generated/UART/uart.o
 .text.UART_Init
                0x0800218c       0x24 ./Dave/Generated/UART/uart.o
                0x0800218c                UART_Init
 .text.UART_Receive
                0x080021b0       0x38 ./Dave/Generated/UART/uart.o
                0x080021b0                UART_Receive
 .text.UART_StartReceiveIRQ
                0x080021e8       0xac ./Dave/Generated/UART/uart.o
                0x080021e8                UART_StartReceiveIRQ
 .text.UART_lReceiveHandler
                0x08002294      0x120 ./Dave/Generated/UART/uart.o
                0x08002294                UART_lReceiveHandler
 .text.UART_lReconfigureRxFIFO
                0x080023b4       0x50 ./Dave/Generated/UART/uart.o
 .text.__NVIC_GetPriorityGrouping
                0x08002404       0x1c ./Dave/Generated/UART/uart_conf.o
 .text.__NVIC_EnableIRQ
                0x08002420       0x38 ./Dave/Generated/UART/uart_conf.o
 .text.__NVIC_SetPriority
                0x08002458       0x54 ./Dave/Generated/UART/uart_conf.o
 .text.NVIC_EncodePriority
                0x080024ac       0x64 ./Dave/Generated/UART/uart_conf.o
 .text.XMC_USIC_CH_SetInputSource
                0x08002510       0x3c ./Dave/Generated/UART/uart_conf.o
 .text.XMC_UART_CH_Start
                0x0800254c       0x24 ./Dave/Generated/UART/uart_conf.o
 .text.UART_0_init
                0x08002570       0xa0 ./Dave/Generated/UART/uart_conf.o
                0x08002570                UART_0_init
 .text.USIC1_0_IRQHandler
                0x08002610       0x10 ./Dave/Generated/UART/uart_conf.o
                0x08002610                USIC1_0_IRQHandler
 .text.XMC_CCU4_EnableClock
                0x08002620       0x28 ./Dave/Generated/TIMER/timer.o
 .text.XMC_CCU4_SLICE_StartTimer
                0x08002648       0x18 ./Dave/Generated/TIMER/timer.o
 .text.XMC_CCU4_SLICE_ClearTimer
                0x08002660       0x18 ./Dave/Generated/TIMER/timer.o
 .text.XMC_CCU4_SLICE_SetTimerPeriodMatch
                0x08002678       0x1c ./Dave/Generated/TIMER/timer.o
 .text.XMC_CCU4_SLICE_SetTimerCompareMatch
                0x08002694       0x1c ./Dave/Generated/TIMER/timer.o
 .text.XMC_CCU4_EnableShadowTransfer
                0x080026b0       0x1c ./Dave/Generated/TIMER/timer.o
 .text.XMC_CCU4_SLICE_EnableEvent
                0x080026cc       0x2c ./Dave/Generated/TIMER/timer.o
 .text.TIMER_Init
                0x080026f8       0x3c ./Dave/Generated/TIMER/timer.o
                0x080026f8                TIMER_Init
 .text.TIMER_CCU4_lInit
                0x08002734       0x98 ./Dave/Generated/TIMER/timer.o
                0x08002734                TIMER_CCU4_lInit
 .text.TIMER_CCU4_lShadowTransfer
                0x080027cc       0x3c ./Dave/Generated/TIMER/timer.o
                0x080027cc                TIMER_CCU4_lShadowTransfer
 .text.__NVIC_GetPriorityGrouping
                0x08002808       0x1c ./Dave/Generated/INTERRUPT/interrupt.o
 .text.__NVIC_EnableIRQ
                0x08002824       0x38 ./Dave/Generated/INTERRUPT/interrupt.o
 .text.__NVIC_SetPriority
                0x0800285c       0x54 ./Dave/Generated/INTERRUPT/interrupt.o
 .text.NVIC_EncodePriority
                0x080028b0       0x64 ./Dave/Generated/INTERRUPT/interrupt.o
 .text.INTERRUPT_Enable
                0x08002914       0x1c ./Dave/Generated/INTERRUPT/interrupt.o
 .text.INTERRUPT_Init
                0x08002930       0x4c ./Dave/Generated/INTERRUPT/interrupt.o
                0x08002930                INTERRUPT_Init
 .text.XMC_CCU4_StartPrescaler
                0x0800297c       0x20 ./Dave/Generated/GLOBAL_CCU4/global_ccu4.o
 .text.GLOBAL_CCU4_Init
                0x0800299c       0x40 ./Dave/Generated/GLOBAL_CCU4/global_ccu4.o
                0x0800299c                GLOBAL_CCU4_Init
 .text.GLOBAL_CAN_Init
                0x080029dc       0x40 ./Dave/Generated/GLOBAL_CAN/global_can.o
                0x080029dc                GLOBAL_CAN_Init
 .text.XMC_VADC_GLOBAL_DisablePostCalibration
                0x08002a1c       0x2c ./Dave/Generated/GLOBAL_ADC/global_adc.o
 .text.GLOBAL_ADC_Init
                0x08002a48       0xb0 ./Dave/Generated/GLOBAL_ADC/global_adc.o
                0x08002a48                GLOBAL_ADC_Init
 .text.DIGITAL_IO_Init
                0x08002af8       0x40 ./Dave/Generated/DIGITAL_IO/digital_io.o
                0x08002af8                DIGITAL_IO_Init
 .text.__NVIC_SetPriorityGrouping
                0x08002b38       0x48 ./Dave/Generated/CPU_CTRL_XMC4/cpu_ctrl_xmc4_conf.o
 .text.SystemCoreSetup
                0x08002b80       0xa0 ./Dave/Generated/CPU_CTRL_XMC4/cpu_ctrl_xmc4_conf.o
                0x08002b80                SystemCoreSetup
 .text.CLOCK_XMC4_Init
                0x08002c20       0x20 ./Dave/Generated/CLOCK_XMC4/clock_xmc4.o
                0x08002c20                CLOCK_XMC4_Init
 .text.OSCHP_GetFrequency
                0x08002c40       0x14 ./Dave/Generated/CLOCK_XMC4/clock_xmc4.o
                0x08002c40                OSCHP_GetFrequency
 .text.SystemCoreClockSetup
                0x08002c54       0x54 ./Dave/Generated/CLOCK_XMC4/clock_xmc4_conf.o
                0x08002c54                SystemCoreClockSetup
 .text.XMC_CAN_NODE_SetEventNodePointer
                0x08002ca8       0x38 ./Dave/Generated/CAN_NODE/can_node.o
 .text.XMC_CAN_NODE_SetReceiveInput
                0x08002ce0       0x2c ./Dave/Generated/CAN_NODE/can_node.o
 .text.XMC_CAN_NODE_EnableLoopBack
                0x08002d0c       0x20 ./Dave/Generated/CAN_NODE/can_node.o
 .text.XMC_CAN_NODE_EnableConfigurationChange
                0x08002d2c       0x20 ./Dave/Generated/CAN_NODE/can_node.o
 .text.XMC_CAN_NODE_DisableConfigurationChange
                0x08002d4c       0x20 ./Dave/Generated/CAN_NODE/can_node.o
 .text.XMC_CAN_NODE_SetInitBit
                0x08002d6c       0x20 ./Dave/Generated/CAN_NODE/can_node.o
 .text.XMC_CAN_NODE_ResetInitBit
                0x08002d8c       0x20 ./Dave/Generated/CAN_NODE/can_node.o
 .text.XMC_CAN_MO_SetEventNodePointer
                0x08002dac       0x3c ./Dave/Generated/CAN_NODE/can_node.o
 .text.XMC_CAN_MO_EnableEvent
                0x08002de8       0x24 ./Dave/Generated/CAN_NODE/can_node.o
 .text.CAN_NODE_MO_EnableTxEvent
                0x08002e0c       0x1c ./Dave/Generated/CAN_NODE/can_node.o
 .text.CAN_NODE_MO_EnableRxEvent
                0x08002e28       0x1c ./Dave/Generated/CAN_NODE/can_node.o
 .text.CAN_NODE_SetNodeEvents
                0x08002e44       0x74 ./Dave/Generated/CAN_NODE/can_node.o
 .text.CAN_NODE_SetNodePointer
                0x08002eb8       0x68 ./Dave/Generated/CAN_NODE/can_node.o
 .text.CAN_NODE_MO_Init
                0x08002f20       0x58 ./Dave/Generated/CAN_NODE/can_node.o
                0x08002f20                CAN_NODE_MO_Init
 .text.CAN_NODE_MO_Receive
                0x08002f78       0x24 ./Dave/Generated/CAN_NODE/can_node.o
                0x08002f78                CAN_NODE_MO_Receive
 .text.CAN_NODE_MO_ReceiveData
                0x08002f9c       0x24 ./Dave/Generated/CAN_NODE/can_node.o
                0x08002f9c                CAN_NODE_MO_ReceiveData
 .text.CAN_NODE_Init
                0x08002fc0      0x130 ./Dave/Generated/CAN_NODE/can_node.o
                0x08002fc0                CAN_NODE_Init
 .text.ANALOG_IO_Init
                0x080030f0       0x34 ./Dave/Generated/ANALOG_IO/analog_io.o
                0x080030f0                ANALOG_IO_Init
 .text.__NVIC_GetPriorityGrouping
                0x08003124       0x1c ./Dave/Generated/ADC_MEASUREMENT/adc_measurement.o
 .text.__NVIC_EnableIRQ
                0x08003140       0x38 ./Dave/Generated/ADC_MEASUREMENT/adc_measurement.o
 .text.__NVIC_SetPriority
                0x08003178       0x54 ./Dave/Generated/ADC_MEASUREMENT/adc_measurement.o
 .text.NVIC_EncodePriority
                0x080031cc       0x64 ./Dave/Generated/ADC_MEASUREMENT/adc_measurement.o
 .text.XMC_VADC_GLOBAL_BackgroundTriggerConversion
                0x08003230       0x24 ./Dave/Generated/ADC_MEASUREMENT/adc_measurement.o
 .text.XMC_VADC_GLOBAL_BackgroundAddChannelToSequence
                0x08003254       0x38 ./Dave/Generated/ADC_MEASUREMENT/adc_measurement.o
 .text.XMC_VADC_GROUP_ResultInit
                0x0800328c       0x24 ./Dave/Generated/ADC_MEASUREMENT/adc_measurement.o
 .text.ADC_MEASUREMENT_Init
                0x080032b0      0x16c ./Dave/Generated/ADC_MEASUREMENT/adc_measurement.o
                0x080032b0                ADC_MEASUREMENT_Init
 .text.DAVE_Init
                0x0800341c       0xb0 ./Dave/Generated/DAVE.o
                0x0800341c                DAVE_Init
 .text.CAN_1_Receive
                0x080034cc      0x3c0 ./CAN_1.o
                0x080034cc                CAN_1_Receive
 .text.CAN_2_Receive
                0x0800388c     0x1324 ./CAN_2.o
                0x0800388c                CAN_2_Receive
 .text.getbits  0x08004bb0       0x34 ./getbits.o
                0x08004bb0                getbits
 .text.shift    0x08004be4       0x20 ./getbits.o
                0x08004be4                shift
 .text.UART_TransmitWord
                0x08004c04       0x24 ./main.o
 .text.main     0x08004c28       0x44 ./main.o
                0x08004c28                main
 .text.uartreceive
                0x08004c6c       0x50 ./main.o
                0x08004c6c                uartreceive
 .text.CCU43_1_IRQHandler
                0x08004cbc        0xc ./main.o
                0x08004cbc                CCU43_1_IRQHandler
 .text.sendTlm  0x08004cc8       0x18 ./main.o
                0x08004cc8                sendTlm
 .text.writeTlm
                0x08004ce0       0x38 ./main.o
                0x08004ce0                writeTlm
 .text.__libc_init_array
                0x08004d18       0x4c c:/dave/dave-ide-4.4.2-64bit/eclipse/arm-gcc-49/bin/../lib/gcc/arm-none-eabi/4.9.3/../../../../arm-none-eabi/lib/armv7e-m/softfp\libg_nano.a(lib_a-init.o)
                0x08004d18                __libc_init_array
 *(.init)
 *(.fini)
 *crtbegin.o(.ctors)
 *crtbegin?.o(.ctors)
 *(EXCLUDE_FILE(*crtend.o *crtend?.o) .ctors)
 *(SORT(.ctors.*))
 *(.ctors)
 *crtbegin.o(.dtors)
 *crtbegin?.o(.dtors)
 *(EXCLUDE_FILE(*crtend.o *crtend?.o) .dtors)
 *(SORT(.dtors.*))
 *(.dtors)
 *(.rodata .rodata.*)
 .rodata.g_xmc_vadc_group_array
                0x08004d64       0x10 ./Libraries/XMCLib/src/xmc_vadc.o
 .rodata.UART_0_channel_config
                0x08004d74        0xc ./Dave/Generated/UART/uart_conf.o
                0x08004d74                UART_0_channel_config
 .rodata.UART_0_tx_pin_config
                0x08004d80        0xc ./Dave/Generated/UART/uart_conf.o
                0x08004d80                UART_0_tx_pin_config
 .rodata.UART_0_tx_pin
                0x08004d8c        0xc ./Dave/Generated/UART/uart_conf.o
                0x08004d8c                UART_0_tx_pin
 .rodata.UART_0_config
                0x08004d98       0x2c ./Dave/Generated/UART/uart_conf.o
                0x08004d98                UART_0_config
 .rodata.UART_0_rx_pin_config
                0x08004dc4        0xc ./Dave/Generated/UART/uart_conf.o
                0x08004dc4                UART_0_rx_pin_config
 .rodata.INTERRUPT_0
                0x08004dd0        0x4 ./Dave/Generated/INTERRUPT/interrupt_conf.o
                0x08004dd0                INTERRUPT_0
 .rodata.group_init_handle0
                0x08004dd4       0x14 ./Dave/Generated/GLOBAL_ADC/global_adc_conf.o
                0x08004dd4                group_init_handle0
 .rodata.group_init_handle1
                0x08004de8       0x14 ./Dave/Generated/GLOBAL_ADC/global_adc_conf.o
                0x08004de8                group_init_handle1
 .rodata.group_init_handle2
                0x08004dfc       0x14 ./Dave/Generated/GLOBAL_ADC/global_adc_conf.o
                0x08004dfc                group_init_handle2
 .rodata.group_init_handle3
                0x08004e10       0x14 ./Dave/Generated/GLOBAL_ADC/global_adc_conf.o
                0x08004e10                group_init_handle3
 .rodata.global_config
                0x08004e24       0x18 ./Dave/Generated/GLOBAL_ADC/global_adc_conf.o
                0x08004e24                global_config
 .rodata.LED_1  0x08004e3c       0x14 ./Dave/Generated/DIGITAL_IO/digital_io_conf.o
                0x08004e3c                LED_1
 .rodata        0x08004e50       0x14 ./Dave/Generated/CLOCK_XMC4/clock_xmc4_conf.o
 .rodata.CAN_2_gpio_out
                0x08004e64        0x8 ./Dave/Generated/CAN_NODE/can_node_conf.o
                0x08004e64                CAN_2_gpio_out
 .rodata.CAN_2_gpio_out_config
                0x08004e6c        0xc ./Dave/Generated/CAN_NODE/can_node_conf.o
                0x08004e6c                CAN_2_gpio_out_config
 .rodata.CAN_2_gpio_in
                0x08004e78        0x8 ./Dave/Generated/CAN_NODE/can_node_conf.o
                0x08004e78                CAN_2_gpio_in
 .rodata.CAN_2_gpio_in_config
                0x08004e80        0xc ./Dave/Generated/CAN_NODE/can_node_conf.o
                0x08004e80                CAN_2_gpio_in_config
 .rodata.CAN_2_sr
                0x08004e8c        0x4 ./Dave/Generated/CAN_NODE/can_node_conf.o
                0x08004e8c                CAN_2_sr
 .rodata.CAN_2_LMO_01_Config
                0x08004e90        0xc ./Dave/Generated/CAN_NODE/can_node_conf.o
                0x08004e90                CAN_2_LMO_01_Config
 .rodata.CAN_2_LMO_02_Config
                0x08004e9c        0xc ./Dave/Generated/CAN_NODE/can_node_conf.o
                0x08004e9c                CAN_2_LMO_02_Config
 .rodata.CAN_2_LMO_03_Config
                0x08004ea8        0xc ./Dave/Generated/CAN_NODE/can_node_conf.o
                0x08004ea8                CAN_2_LMO_03_Config
 .rodata.CAN_2_LMO_04_Config
                0x08004eb4        0xc ./Dave/Generated/CAN_NODE/can_node_conf.o
                0x08004eb4                CAN_2_LMO_04_Config
 .rodata.CAN_2_LMO_05_Config
                0x08004ec0        0xc ./Dave/Generated/CAN_NODE/can_node_conf.o
                0x08004ec0                CAN_2_LMO_05_Config
 .rodata.CAN_2_LMO_06_Config
                0x08004ecc        0xc ./Dave/Generated/CAN_NODE/can_node_conf.o
                0x08004ecc                CAN_2_LMO_06_Config
 .rodata.CAN_2_LMO_07_Config
                0x08004ed8        0xc ./Dave/Generated/CAN_NODE/can_node_conf.o
                0x08004ed8                CAN_2_LMO_07_Config
 .rodata.CAN_2_LMO_08_Config
                0x08004ee4        0xc ./Dave/Generated/CAN_NODE/can_node_conf.o
                0x08004ee4                CAN_2_LMO_08_Config
 .rodata.CAN_2_LMO_09_Config
                0x08004ef0        0xc ./Dave/Generated/CAN_NODE/can_node_conf.o
                0x08004ef0                CAN_2_LMO_09_Config
 .rodata.CAN_2_LMO_10_Config
                0x08004efc        0xc ./Dave/Generated/CAN_NODE/can_node_conf.o
                0x08004efc                CAN_2_LMO_10_Config
 .rodata.CAN_2_LMO_11_Config
                0x08004f08        0xc ./Dave/Generated/CAN_NODE/can_node_conf.o
                0x08004f08                CAN_2_LMO_11_Config
 .rodata.CAN_2_LMO_12_Config
                0x08004f14        0xc ./Dave/Generated/CAN_NODE/can_node_conf.o
                0x08004f14                CAN_2_LMO_12_Config
 .rodata.CAN_2_LMO_13_Config
                0x08004f20        0xc ./Dave/Generated/CAN_NODE/can_node_conf.o
                0x08004f20                CAN_2_LMO_13_Config
 .rodata.CAN_2_LMO_14_Config
                0x08004f2c        0xc ./Dave/Generated/CAN_NODE/can_node_conf.o
                0x08004f2c                CAN_2_LMO_14_Config
 .rodata.CAN_2_LMO_15_Config
                0x08004f38        0xc ./Dave/Generated/CAN_NODE/can_node_conf.o
                0x08004f38                CAN_2_LMO_15_Config
 .rodata.CAN_2_LMO_16_Config
                0x08004f44        0xc ./Dave/Generated/CAN_NODE/can_node_conf.o
                0x08004f44                CAN_2_LMO_16_Config
 .rodata.CAN_2_LMO_17_Config
                0x08004f50        0xc ./Dave/Generated/CAN_NODE/can_node_conf.o
                0x08004f50                CAN_2_LMO_17_Config
 .rodata.CAN_2_LMO_18_Config
                0x08004f5c        0xc ./Dave/Generated/CAN_NODE/can_node_conf.o
                0x08004f5c                CAN_2_LMO_18_Config
 .rodata.CAN_2  0x08004f68       0xa8 ./Dave/Generated/CAN_NODE/can_node_conf.o
                0x08004f68                CAN_2
 .rodata.CAN_1_gpio_out
                0x08005010        0x8 ./Dave/Generated/CAN_NODE/can_node_conf.o
                0x08005010                CAN_1_gpio_out
 .rodata.CAN_1_gpio_out_config
                0x08005018        0xc ./Dave/Generated/CAN_NODE/can_node_conf.o
                0x08005018                CAN_1_gpio_out_config
 .rodata.CAN_1_gpio_in
                0x08005024        0x8 ./Dave/Generated/CAN_NODE/can_node_conf.o
                0x08005024                CAN_1_gpio_in
 .rodata.CAN_1_gpio_in_config
                0x0800502c        0xc ./Dave/Generated/CAN_NODE/can_node_conf.o
                0x0800502c                CAN_1_gpio_in_config
 .rodata.CAN_1_sr
                0x08005038        0x4 ./Dave/Generated/CAN_NODE/can_node_conf.o
                0x08005038                CAN_1_sr
 .rodata.CAN_1_LMO_01_Config
                0x0800503c        0xc ./Dave/Generated/CAN_NODE/can_node_conf.o
                0x0800503c                CAN_1_LMO_01_Config
 .rodata.CAN_1_LMO_02_Config
                0x08005048        0xc ./Dave/Generated/CAN_NODE/can_node_conf.o
                0x08005048                CAN_1_LMO_02_Config
 .rodata.CAN_1_LMO_03_Config
                0x08005054        0xc ./Dave/Generated/CAN_NODE/can_node_conf.o
                0x08005054                CAN_1_LMO_03_Config
 .rodata.CAN_1_LMO_04_Config
                0x08005060        0xc ./Dave/Generated/CAN_NODE/can_node_conf.o
                0x08005060                CAN_1_LMO_04_Config
 .rodata.CAN_1_LMO_05_Config
                0x0800506c        0xc ./Dave/Generated/CAN_NODE/can_node_conf.o
                0x0800506c                CAN_1_LMO_05_Config
 .rodata.CAN_1_LMO_06_Config
                0x08005078        0xc ./Dave/Generated/CAN_NODE/can_node_conf.o
                0x08005078                CAN_1_LMO_06_Config
 .rodata.CAN_1  0x08005084       0xa8 ./Dave/Generated/CAN_NODE/can_node_conf.o
                0x08005084                CAN_1
 .rodata.ANALOG_IO_0
                0x0800512c       0x10 ./Dave/Generated/ANALOG_IO/analog_io_conf.o
                0x0800512c                ANALOG_IO_0
 .rodata.global_iclass_config
                0x0800513c        0x4 ./Dave/Generated/ADC_MEASUREMENT/adc_measurement_conf.o
                0x0800513c                global_iclass_config
 .rodata.backgnd_config
                0x08005140        0xc ./Dave/Generated/ADC_MEASUREMENT/adc_measurement_conf.o
                0x08005140                backgnd_config
 *(.gnu.linkonce.r*)
 *(vtable)
                0x0800514c                . = ALIGN (0x4)

.glue_7         0x0800514c        0x0 load address 0x0c00514c
 .glue_7        0x00000000        0x0 linker stubs

.glue_7t        0x0800514c        0x0 load address 0x0c00514c
 .glue_7t       0x00000000        0x0 linker stubs

.vfp11_veneer   0x0800514c        0x0 load address 0x0c00514c
 .vfp11_veneer  0x00000000        0x0 linker stubs

.v4_bx          0x0800514c        0x0 load address 0x0c00514c
 .v4_bx         0x00000000        0x0 linker stubs

.iplt           0x0800514c        0x0 load address 0x0c00514c
 .iplt          0x00000000        0x0 ./Startup/startup_XMC4500.o

.rel.dyn        0x0800514c        0x0 load address 0x0c00514c
 .rel.iplt      0x00000000        0x0 ./Startup/startup_XMC4500.o

.eh_frame_hdr
 *(.eh_frame_hdr)

.eh_frame
 *(.eh_frame)

.ARM.extab
 *(.ARM.extab* .gnu.linkonce.armextab.*)
                0x0800514c                . = ALIGN (0x4)
                0x0800514c                __exidx_start = .

.ARM.exidx
 *(.ARM.exidx* .gnu.linkonce.armexidx.*)
                0x0800514c                __exidx_end = .
                0x0800514c                . = ALIGN (0x4)

Stack           0x10000000      0x800
                0x10000000                __stack_start = .
                0x10000800                . = (. + stack_size)
 *fill*         0x10000000      0x800 
                0x10000800                __stack_end = .
                0x10000800                __initial_sp = .

.ram_code       0x10000800        0x0 load address 0x0c00514c
                0x10000800                . = ALIGN (0x4)
                0x10000800                __ram_code_start = .
 *(.ram_code)
                0x10000800                . = ALIGN (0x4)
                0x10000800                __ram_code_end = .
                0x0c00514c                __ram_code_load = LOADADDR (.ram_code)
                0x00000000                __ram_code_size = (__ram_code_end - __ram_code_start)

PSRAM_DATA      0x10000800        0x0 load address 0x0c00514c
                0x10000800                . = ALIGN (0x4)
                0x10000800                __data3_start = .
 *(PSRAM_DATA)
                0x10000800                . = ALIGN (0x4)
                0x10000800                __data3_end = .
                0x0c00514c                __data3_load = LOADADDR (PSRAM_DATA)
                0x00000000                __data3_size = (__data3_end - __data3_start)

PSRAM_BSS       0x10000800        0x0 load address 0x0c00514c
                0x10000800                . = ALIGN (0x4)
                0x10000800                __bss3_start = .
 *(PSRAM_BSS)
                0x10000800                . = ALIGN (0x4)
                0x10000800                __bss3_end = .
                0x10000800                . = ALIGN (0x8)
                0x10000800                Heap_Bank3_Start = .
                0x00000000                __bss3_size = (__bss3_end - __bss3_start)

.data           0x20000000      0x404 load address 0x0c00514c
                0x20000000                . = ALIGN (0x4)
                0x20000000                __data_start = .
 *(.data)
 *(.data*)
 .data.UART_0   0x20000000        0xc ./Dave/Generated/UART/uart_conf.o
                0x20000000                UART_0
 .data.TIMER_0_config
                0x2000000c        0x8 ./Dave/Generated/TIMER/timer_conf.o
                0x2000000c                TIMER_0_config
 .data.TIMER_0  0x20000014       0x28 ./Dave/Generated/TIMER/timer_conf.o
                0x20000014                TIMER_0
 .data.GLOBAL_CCU4_0
                0x2000003c       0x10 ./Dave/Generated/GLOBAL_CCU4/global_ccu4_conf.o
                0x2000003c                GLOBAL_CCU4_0
 .data.GLOBAL_CAN_0
                0x2000004c        0xc ./Dave/Generated/GLOBAL_CAN/global_can_conf.o
                0x2000004c                GLOBAL_CAN_0
 .data.group_0_config
                0x20000058        0xc ./Dave/Generated/GLOBAL_ADC/global_adc_conf.o
                0x20000058                group_0_config
 .data.group_1_config
                0x20000064        0xc ./Dave/Generated/GLOBAL_ADC/global_adc_conf.o
                0x20000064                group_1_config
 .data.group_2_config
                0x20000070        0xc ./Dave/Generated/GLOBAL_ADC/global_adc_conf.o
                0x20000070                group_2_config
 .data.group_3_config
                0x2000007c        0xc ./Dave/Generated/GLOBAL_ADC/global_adc_conf.o
                0x2000007c                group_3_config
 .data.GLOBAL_ADC_0
                0x20000088       0x1c ./Dave/Generated/GLOBAL_ADC/global_adc_conf.o
                0x20000088                GLOBAL_ADC_0
 .data.CAN_2_BitTimeConfig
                0x200000a4        0xc ./Dave/Generated/CAN_NODE/can_node_conf.o
                0x200000a4                CAN_2_BitTimeConfig
 .data.CAN_2_LMO_01
                0x200000b0       0x20 ./Dave/Generated/CAN_NODE/can_node_conf.o
                0x200000b0                CAN_2_LMO_01
 .data.CAN_2_LMO_02
                0x200000d0       0x20 ./Dave/Generated/CAN_NODE/can_node_conf.o
                0x200000d0                CAN_2_LMO_02
 .data.CAN_2_LMO_03
                0x200000f0       0x20 ./Dave/Generated/CAN_NODE/can_node_conf.o
                0x200000f0                CAN_2_LMO_03
 .data.CAN_2_LMO_04
                0x20000110       0x20 ./Dave/Generated/CAN_NODE/can_node_conf.o
                0x20000110                CAN_2_LMO_04
 .data.CAN_2_LMO_05
                0x20000130       0x20 ./Dave/Generated/CAN_NODE/can_node_conf.o
                0x20000130                CAN_2_LMO_05
 .data.CAN_2_LMO_06
                0x20000150       0x20 ./Dave/Generated/CAN_NODE/can_node_conf.o
                0x20000150                CAN_2_LMO_06
 .data.CAN_2_LMO_07
                0x20000170       0x20 ./Dave/Generated/CAN_NODE/can_node_conf.o
                0x20000170                CAN_2_LMO_07
 .data.CAN_2_LMO_08
                0x20000190       0x20 ./Dave/Generated/CAN_NODE/can_node_conf.o
                0x20000190                CAN_2_LMO_08
 .data.CAN_2_LMO_09
                0x200001b0       0x20 ./Dave/Generated/CAN_NODE/can_node_conf.o
                0x200001b0                CAN_2_LMO_09
 .data.CAN_2_LMO_10
                0x200001d0       0x20 ./Dave/Generated/CAN_NODE/can_node_conf.o
                0x200001d0                CAN_2_LMO_10
 .data.CAN_2_LMO_11
                0x200001f0       0x20 ./Dave/Generated/CAN_NODE/can_node_conf.o
                0x200001f0                CAN_2_LMO_11
 .data.CAN_2_LMO_12
                0x20000210       0x20 ./Dave/Generated/CAN_NODE/can_node_conf.o
                0x20000210                CAN_2_LMO_12
 .data.CAN_2_LMO_13
                0x20000230       0x20 ./Dave/Generated/CAN_NODE/can_node_conf.o
                0x20000230                CAN_2_LMO_13
 .data.CAN_2_LMO_14
                0x20000250       0x20 ./Dave/Generated/CAN_NODE/can_node_conf.o
                0x20000250                CAN_2_LMO_14
 .data.CAN_2_LMO_15
                0x20000270       0x20 ./Dave/Generated/CAN_NODE/can_node_conf.o
                0x20000270                CAN_2_LMO_15
 .data.CAN_2_LMO_16
                0x20000290       0x20 ./Dave/Generated/CAN_NODE/can_node_conf.o
                0x20000290                CAN_2_LMO_16
 .data.CAN_2_LMO_17
                0x200002b0       0x20 ./Dave/Generated/CAN_NODE/can_node_conf.o
                0x200002b0                CAN_2_LMO_17
 .data.CAN_2_LMO_18
                0x200002d0       0x20 ./Dave/Generated/CAN_NODE/can_node_conf.o
                0x200002d0                CAN_2_LMO_18
 .data.CAN_1_BitTimeConfig
                0x200002f0        0xc ./Dave/Generated/CAN_NODE/can_node_conf.o
                0x200002f0                CAN_1_BitTimeConfig
 *fill*         0x200002fc        0x4 
 .data.CAN_1_LMO_01
                0x20000300       0x20 ./Dave/Generated/CAN_NODE/can_node_conf.o
                0x20000300                CAN_1_LMO_01
 .data.CAN_1_LMO_02
                0x20000320       0x20 ./Dave/Generated/CAN_NODE/can_node_conf.o
                0x20000320                CAN_1_LMO_02
 .data.CAN_1_LMO_03
                0x20000340       0x20 ./Dave/Generated/CAN_NODE/can_node_conf.o
                0x20000340                CAN_1_LMO_03
 .data.CAN_1_LMO_04
                0x20000360       0x20 ./Dave/Generated/CAN_NODE/can_node_conf.o
                0x20000360                CAN_1_LMO_04
 .data.CAN_1_LMO_05
                0x20000380       0x20 ./Dave/Generated/CAN_NODE/can_node_conf.o
                0x20000380                CAN_1_LMO_05
 .data.CAN_1_LMO_06
                0x200003a0       0x20 ./Dave/Generated/CAN_NODE/can_node_conf.o
                0x200003a0                CAN_1_LMO_06
 .data.Channel_A_ch_config
                0x200003c0        0xc ./Dave/Generated/ADC_MEASUREMENT/adc_measurement_conf.o
                0x200003c0                Channel_A_ch_config
 .data.ADC_MEASUREMENT_Channel_A_handle
                0x200003cc       0x14 ./Dave/Generated/ADC_MEASUREMENT/adc_measurement_conf.o
                0x200003cc                ADC_MEASUREMENT_Channel_A_handle
 .data.ADC_MEASUREMENT_channel_array
                0x200003e0        0x4 ./Dave/Generated/ADC_MEASUREMENT/adc_measurement_conf.o
                0x200003e0                ADC_MEASUREMENT_channel_array
 .data.ADC_MEASUREMENT_0
                0x200003e4       0x1c ./Dave/Generated/ADC_MEASUREMENT/adc_measurement_conf.o
                0x200003e4                ADC_MEASUREMENT_0
 .data.id       0x20000400        0x1 ./main.o
                0x20000400                id
 .data.id_check
                0x20000401        0x1 ./main.o
                0x20000401                id_check
 .data.ok       0x20000402        0x1 ./main.o
                0x20000402                ok
 *(*.data)
 *(.gnu.linkonce.d*)
                0x20000404                . = ALIGN (0x4)
 *fill*         0x20000403        0x1 
                0x20000404                PROVIDE (__preinit_array_start, .)
 *(.preinit_array)
                0x20000404                PROVIDE (__preinit_array_end, .)
                0x20000404                . = ALIGN (0x4)
                0x20000404                PROVIDE (__init_array_start, .)
 *(SORT(.init_array.*))
 *(.init_array)
                0x20000404                PROVIDE (__init_array_end, .)
                0x20000404                . = ALIGN (0x4)
                0x20000404                PROVIDE (__fini_array_start, .)
 *(SORT(.fini_array.*))
 *(.fini_array)
                0x20000404                PROVIDE (__fini_array_end, .)
                0x20000404                . = ALIGN (0x4)
                0x20000404                __data_end = .
                0x0c00514c                __data_load = LOADADDR (.data)
                0x00000404                __data_size = (__data_end - __data_start)

.igot.plt       0x20000404        0x0 load address 0x0c005550
 .igot.plt      0x00000000        0x0 ./Startup/startup_XMC4500.o

.bss            0x20000404      0x2dc load address 0x0c005550
                0x20000404                . = ALIGN (0x4)
                0x20000404                __bss_start = .
 *(.bss)
 *(.bss*)
 .bss.UART_0_runtime
                0x20000404       0x1c ./Dave/Generated/UART/uart_conf.o
                0x20000404                UART_0_runtime
 .bss.CLOCK_XMC4_0
                0x20000420        0x4 ./Dave/Generated/CLOCK_XMC4/clock_xmc4_conf.o
                0x20000420                CLOCK_XMC4_0
 .bss.ANALOG_IO_0_state
                0x20000424        0x1 ./Dave/Generated/ANALOG_IO/analog_io_conf.o
 *fill*         0x20000425        0x3 
 .bss.Channel_A_res_config
                0x20000428        0x4 ./Dave/Generated/ADC_MEASUREMENT/adc_measurement_conf.o
                0x20000428                Channel_A_res_config
 .bss.p_air_22  0x2000042c        0x4 ./CAN_1.o
                0x2000042c                p_air_22
 .bss.n_engine  0x20000430        0x4 ./CAN_1.o
                0x20000430                n_engine
 .bss.gear      0x20000434        0x4 ./CAN_1.o
                0x20000434                gear
 .bss.gear_1    0x20000438        0x1 ./CAN_1.o
                0x20000438                gear_1
 *fill*         0x20000439        0x3 
 .bss.ign_angle
                0x2000043c        0x4 ./CAN_1.o
                0x2000043c                ign_angle
 .bss.ign_angle_1
                0x20000440        0x2 ./CAN_1.o
                0x20000440                ign_angle_1
 .bss.shift_up  0x20000442        0x1 ./CAN_1.o
                0x20000442                shift_up
 .bss.shift_down
                0x20000443        0x1 ./CAN_1.o
                0x20000443                shift_down
 .bss.eng_map   0x20000444        0x1 ./CAN_1.o
                0x20000444                eng_map
 *fill*         0x20000445        0x3 
 .bss.p_pneu    0x20000448        0x4 ./CAN_1.o
                0x20000448                p_pneu
 .bss.x_RH_RL   0x2000044c        0x4 ./CAN_1.o
                0x2000044c                x_RH_RL
 .bss.x_RH_RR   0x20000450        0x4 ./CAN_1.o
                0x20000450                x_RH_RR
 .bss.t_oil_gb  0x20000454        0x4 ./CAN_1.o
                0x20000454                t_oil_gb
 .bss.t_canmod  0x20000458        0x4 ./CAN_1.o
                0x20000458                t_canmod
 .bss.p_oil     0x2000045c        0x4 ./CAN_1.o
                0x2000045c                p_oil
 .bss.p_fuel_rail
                0x20000460        0x4 ./CAN_1.o
                0x20000460                p_fuel_rail
 .bss.a_ath     0x20000464        0x4 ./CAN_1.o
                0x20000464                a_ath
 .bss.t_water_engine
                0x20000468        0x4 ./CAN_1.o
                0x20000468                t_water_engine
 .bss.t_air_22  0x2000046c        0x4 ./CAN_1.o
                0x2000046c                t_air_22
 .bss.t_oil_engine
                0x20000470        0x4 ./CAN_1.o
                0x20000470                t_oil_engine
 .bss.lambda1   0x20000474        0x4 ./CAN_1.o
                0x20000474                lambda1
 .bss.lambda    0x20000478        0x2 ./CAN_1.o
                0x20000478                lambda
 *fill*         0x2000047a        0x2 
 .bss.trigger_error
                0x2000047c        0x4 ./CAN_1.o
                0x2000047c                trigger_error
 .bss.p_brake_rear
                0x20000480        0x4 ./CAN_1.o
                0x20000480                p_brake_rear
 .bss.i_tot     0x20000484        0x4 ./CAN_2.o
                0x20000484                i_tot
 .bss.t_pcm     0x20000488        0x4 ./CAN_2.o
                0x20000488                t_pcm
 .bss.f_rl      0x2000048c        0x4 ./CAN_2.o
                0x2000048c                f_rl
 .bss.f_rr      0x20000490        0x4 ./CAN_2.o
                0x20000490                f_rr
 .bss.x_dp_RL   0x20000494        0x4 ./CAN_2.o
                0x20000494                x_dp_RL
 .bss.x_dp_RR   0x20000498        0x4 ./CAN_2.o
                0x20000498                x_dp_RR
 .bss.f_fl      0x2000049c        0x4 ./CAN_2.o
                0x2000049c                f_fl
 .bss.f_fr      0x200004a0        0x4 ./CAN_2.o
                0x200004a0                f_fr
 .bss.t_VCU     0x200004a4        0x4 ./CAN_2.o
                0x200004a4                t_VCU
 .bss.x_RH_F    0x200004a8        0x4 ./CAN_2.o
                0x200004a8                x_RH_F
 .bss.x_clutch  0x200004ac        0x4 ./CAN_2.o
                0x200004ac                x_clutch
 .bss.x_clutch_STW
                0x200004b0        0x4 ./CAN_2.o
                0x200004b0                x_clutch_STW
 .bss.u_bat     0x200004b4        0x4 ./CAN_2.o
                0x200004b4                u_bat
 .bss.n_wheel_FL
                0x200004b8        0x4 ./CAN_2.o
                0x200004b8                n_wheel_FL
 .bss.n_wheel_FR
                0x200004bc        0x4 ./CAN_2.o
                0x200004bc                n_wheel_FR
 .bss.n_wheel_RL
                0x200004c0        0x4 ./CAN_2.o
                0x200004c0                n_wheel_RL
 .bss.n_wheel_RR
                0x200004c4        0x4 ./CAN_2.o
                0x200004c4                n_wheel_RR
 .bss.p_brake_front
                0x200004c8        0x4 ./CAN_2.o
                0x200004c8                p_brake_front
 .bss.AY        0x200004cc        0x4 ./CAN_2.o
                0x200004cc                AY
 .bss.AX        0x200004d0        0x4 ./CAN_2.o
                0x200004d0                AX
 .bss.t_tyre_FL_1_MSB
                0x200004d4        0x4 ./CAN_2.o
                0x200004d4                t_tyre_FL_1_MSB
 .bss.t_tyre_FL_1_LSB
                0x200004d8        0x4 ./CAN_2.o
                0x200004d8                t_tyre_FL_1_LSB
 .bss.t_tyre_FL_2_MSB
                0x200004dc        0x4 ./CAN_2.o
                0x200004dc                t_tyre_FL_2_MSB
 .bss.t_tyre_FL_2_LSB
                0x200004e0        0x4 ./CAN_2.o
                0x200004e0                t_tyre_FL_2_LSB
 .bss.t_tyre_FL_3_MSB
                0x200004e4        0x4 ./CAN_2.o
                0x200004e4                t_tyre_FL_3_MSB
 .bss.t_tyre_FL_3_LSB
                0x200004e8        0x4 ./CAN_2.o
                0x200004e8                t_tyre_FL_3_LSB
 .bss.t_tyre_FL_4_MSB
                0x200004ec        0x4 ./CAN_2.o
                0x200004ec                t_tyre_FL_4_MSB
 .bss.t_tyre_FL_4_LSB
                0x200004f0        0x4 ./CAN_2.o
                0x200004f0                t_tyre_FL_4_LSB
 .bss.t_tyre_FL_5_MSB
                0x200004f4        0x4 ./CAN_2.o
                0x200004f4                t_tyre_FL_5_MSB
 .bss.t_tyre_FL_5_LSB
                0x200004f8        0x4 ./CAN_2.o
                0x200004f8                t_tyre_FL_5_LSB
 .bss.t_tyre_FL_6_MSB
                0x200004fc        0x4 ./CAN_2.o
                0x200004fc                t_tyre_FL_6_MSB
 .bss.t_tyre_FL_6_LSB
                0x20000500        0x4 ./CAN_2.o
                0x20000500                t_tyre_FL_6_LSB
 .bss.t_tyre_FL_7_MSB
                0x20000504        0x4 ./CAN_2.o
                0x20000504                t_tyre_FL_7_MSB
 .bss.t_tyre_FL_7_LSB
                0x20000508        0x4 ./CAN_2.o
                0x20000508                t_tyre_FL_7_LSB
 .bss.t_tyre_FL_8_MSB
                0x2000050c        0x4 ./CAN_2.o
                0x2000050c                t_tyre_FL_8_MSB
 .bss.t_tyre_FL_8_LSB
                0x20000510        0x4 ./CAN_2.o
                0x20000510                t_tyre_FL_8_LSB
 .bss.t_tyre_FR_1_MSB
                0x20000514        0x4 ./CAN_2.o
                0x20000514                t_tyre_FR_1_MSB
 .bss.t_tyre_FR_1_LSB
                0x20000518        0x4 ./CAN_2.o
                0x20000518                t_tyre_FR_1_LSB
 .bss.t_tyre_FR_2_MSB
                0x2000051c        0x4 ./CAN_2.o
                0x2000051c                t_tyre_FR_2_MSB
 .bss.t_tyre_FR_2_LSB
                0x20000520        0x4 ./CAN_2.o
                0x20000520                t_tyre_FR_2_LSB
 .bss.t_tyre_FR_3_MSB
                0x20000524        0x4 ./CAN_2.o
                0x20000524                t_tyre_FR_3_MSB
 .bss.t_tyre_FR_3_LSB
                0x20000528        0x4 ./CAN_2.o
                0x20000528                t_tyre_FR_3_LSB
 .bss.t_tyre_FR_4_MSB
                0x2000052c        0x4 ./CAN_2.o
                0x2000052c                t_tyre_FR_4_MSB
 .bss.t_tyre_FR_4_LSB
                0x20000530        0x4 ./CAN_2.o
                0x20000530                t_tyre_FR_4_LSB
 .bss.t_tyre_FR_5_MSB
                0x20000534        0x4 ./CAN_2.o
                0x20000534                t_tyre_FR_5_MSB
 .bss.t_tyre_FR_5_LSB
                0x20000538        0x4 ./CAN_2.o
                0x20000538                t_tyre_FR_5_LSB
 .bss.t_tyre_FR_6_MSB
                0x2000053c        0x4 ./CAN_2.o
                0x2000053c                t_tyre_FR_6_MSB
 .bss.t_tyre_FR_6_LSB
                0x20000540        0x4 ./CAN_2.o
                0x20000540                t_tyre_FR_6_LSB
 .bss.t_tyre_FR_7_MSB
                0x20000544        0x4 ./CAN_2.o
                0x20000544                t_tyre_FR_7_MSB
 .bss.t_tyre_FR_7_LSB
                0x20000548        0x4 ./CAN_2.o
                0x20000548                t_tyre_FR_7_LSB
 .bss.t_tyre_FR_8_MSB
                0x2000054c        0x4 ./CAN_2.o
                0x2000054c                t_tyre_FR_8_MSB
 .bss.t_tyre_FR_8_LSB
                0x20000550        0x4 ./CAN_2.o
                0x20000550                t_tyre_FR_8_LSB
 .bss.t_tyre_RL_1_MSB
                0x20000554        0x4 ./CAN_2.o
                0x20000554                t_tyre_RL_1_MSB
 .bss.t_tyre_RL_1_LSB
                0x20000558        0x4 ./CAN_2.o
                0x20000558                t_tyre_RL_1_LSB
 .bss.t_tyre_RL_2_MSB
                0x2000055c        0x4 ./CAN_2.o
                0x2000055c                t_tyre_RL_2_MSB
 .bss.t_tyre_RL_2_LSB
                0x20000560        0x4 ./CAN_2.o
                0x20000560                t_tyre_RL_2_LSB
 .bss.t_tyre_RL_3_MSB
                0x20000564        0x4 ./CAN_2.o
                0x20000564                t_tyre_RL_3_MSB
 .bss.t_tyre_RL_3_LSB
                0x20000568        0x4 ./CAN_2.o
                0x20000568                t_tyre_RL_3_LSB
 .bss.t_tyre_RL_4_MSB
                0x2000056c        0x4 ./CAN_2.o
                0x2000056c                t_tyre_RL_4_MSB
 .bss.t_tyre_RL_4_LSB
                0x20000570        0x4 ./CAN_2.o
                0x20000570                t_tyre_RL_4_LSB
 .bss.t_tyre_RL_5_MSB
                0x20000574        0x4 ./CAN_2.o
                0x20000574                t_tyre_RL_5_MSB
 .bss.t_tyre_RL_5_LSB
                0x20000578        0x4 ./CAN_2.o
                0x20000578                t_tyre_RL_5_LSB
 .bss.t_tyre_RL_6_MSB
                0x2000057c        0x4 ./CAN_2.o
                0x2000057c                t_tyre_RL_6_MSB
 .bss.t_tyre_RL_6_LSB
                0x20000580        0x4 ./CAN_2.o
                0x20000580                t_tyre_RL_6_LSB
 .bss.t_tyre_RL_7_MSB
                0x20000584        0x4 ./CAN_2.o
                0x20000584                t_tyre_RL_7_MSB
 .bss.t_tyre_RL_7_LSB
                0x20000588        0x4 ./CAN_2.o
                0x20000588                t_tyre_RL_7_LSB
 .bss.t_tyre_RL_8_MSB
                0x2000058c        0x4 ./CAN_2.o
                0x2000058c                t_tyre_RL_8_MSB
 .bss.t_tyre_RL_8_LSB
                0x20000590        0x4 ./CAN_2.o
                0x20000590                t_tyre_RL_8_LSB
 .bss.t_tyre_RR_1_MSB
                0x20000594        0x4 ./CAN_2.o
                0x20000594                t_tyre_RR_1_MSB
 .bss.t_tyre_RR_1_LSB
                0x20000598        0x4 ./CAN_2.o
                0x20000598                t_tyre_RR_1_LSB
 .bss.t_tyre_RR_2_MSB
                0x2000059c        0x4 ./CAN_2.o
                0x2000059c                t_tyre_RR_2_MSB
 .bss.t_tyre_RR_2_LSB
                0x200005a0        0x4 ./CAN_2.o
                0x200005a0                t_tyre_RR_2_LSB
 .bss.t_tyre_RR_3_MSB
                0x200005a4        0x4 ./CAN_2.o
                0x200005a4                t_tyre_RR_3_MSB
 .bss.t_tyre_RR_3_LSB
                0x200005a8        0x4 ./CAN_2.o
                0x200005a8                t_tyre_RR_3_LSB
 .bss.t_tyre_RR_4_MSB
                0x200005ac        0x4 ./CAN_2.o
                0x200005ac                t_tyre_RR_4_MSB
 .bss.t_tyre_RR_4_LSB
                0x200005b0        0x4 ./CAN_2.o
                0x200005b0                t_tyre_RR_4_LSB
 .bss.t_tyre_RR_5_MSB
                0x200005b4        0x4 ./CAN_2.o
                0x200005b4                t_tyre_RR_5_MSB
 .bss.t_tyre_RR_5_LSB
                0x200005b8        0x4 ./CAN_2.o
                0x200005b8                t_tyre_RR_5_LSB
 .bss.t_tyre_RR_6_MSB
                0x200005bc        0x4 ./CAN_2.o
                0x200005bc                t_tyre_RR_6_MSB
 .bss.t_tyre_RR_6_LSB
                0x200005c0        0x4 ./CAN_2.o
                0x200005c0                t_tyre_RR_6_LSB
 .bss.t_tyre_RR_7_MSB
                0x200005c4        0x4 ./CAN_2.o
                0x200005c4                t_tyre_RR_7_MSB
 .bss.t_tyre_RR_7_LSB
                0x200005c8        0x4 ./CAN_2.o
                0x200005c8                t_tyre_RR_7_LSB
 .bss.t_tyre_RR_8_MSB
                0x200005cc        0x4 ./CAN_2.o
                0x200005cc                t_tyre_RR_8_MSB
 .bss.t_tyre_RR_8_LSB
                0x200005d0        0x4 ./CAN_2.o
                0x200005d0                t_tyre_RR_8_LSB
 .bss.t_tyre_FL_1
                0x200005d4        0x2 ./CAN_2.o
                0x200005d4                t_tyre_FL_1
 .bss.t_tyre_FL_2
                0x200005d6        0x2 ./CAN_2.o
                0x200005d6                t_tyre_FL_2
 .bss.t_tyre_FL_3
                0x200005d8        0x2 ./CAN_2.o
                0x200005d8                t_tyre_FL_3
 .bss.t_tyre_FL_4
                0x200005da        0x2 ./CAN_2.o
                0x200005da                t_tyre_FL_4
 .bss.t_tyre_FL_5
                0x200005dc        0x2 ./CAN_2.o
                0x200005dc                t_tyre_FL_5
 .bss.t_tyre_FL_6
                0x200005de        0x2 ./CAN_2.o
                0x200005de                t_tyre_FL_6
 .bss.t_tyre_FL_7
                0x200005e0        0x2 ./CAN_2.o
                0x200005e0                t_tyre_FL_7
 .bss.t_tyre_FL_8
                0x200005e2        0x2 ./CAN_2.o
                0x200005e2                t_tyre_FL_8
 .bss.t_tyre_FR_1
                0x200005e4        0x2 ./CAN_2.o
                0x200005e4                t_tyre_FR_1
 .bss.t_tyre_FR_2
                0x200005e6        0x2 ./CAN_2.o
                0x200005e6                t_tyre_FR_2
 .bss.t_tyre_FR_3
                0x200005e8        0x2 ./CAN_2.o
                0x200005e8                t_tyre_FR_3
 .bss.t_tyre_FR_4
                0x200005ea        0x2 ./CAN_2.o
                0x200005ea                t_tyre_FR_4
 .bss.t_tyre_FR_5
                0x200005ec        0x2 ./CAN_2.o
                0x200005ec                t_tyre_FR_5
 .bss.t_tyre_FR_6
                0x200005ee        0x2 ./CAN_2.o
                0x200005ee                t_tyre_FR_6
 .bss.t_tyre_FR_7
                0x200005f0        0x2 ./CAN_2.o
                0x200005f0                t_tyre_FR_7
 .bss.t_tyre_FR_8
                0x200005f2        0x2 ./CAN_2.o
                0x200005f2                t_tyre_FR_8
 .bss.t_tyre_RL_1
                0x200005f4        0x2 ./CAN_2.o
                0x200005f4                t_tyre_RL_1
 .bss.t_tyre_RL_2
                0x200005f6        0x2 ./CAN_2.o
                0x200005f6                t_tyre_RL_2
 .bss.t_tyre_RL_3
                0x200005f8        0x2 ./CAN_2.o
                0x200005f8                t_tyre_RL_3
 .bss.t_tyre_RL_4
                0x200005fa        0x2 ./CAN_2.o
                0x200005fa                t_tyre_RL_4
 .bss.t_tyre_RL_5
                0x200005fc        0x2 ./CAN_2.o
                0x200005fc                t_tyre_RL_5
 .bss.t_tyre_RL_6
                0x200005fe        0x2 ./CAN_2.o
                0x200005fe                t_tyre_RL_6
 .bss.t_tyre_RL_7
                0x20000600        0x2 ./CAN_2.o
                0x20000600                t_tyre_RL_7
 .bss.t_tyre_RL_8
                0x20000602        0x2 ./CAN_2.o
                0x20000602                t_tyre_RL_8
 .bss.t_tyre_RR_1
                0x20000604        0x2 ./CAN_2.o
                0x20000604                t_tyre_RR_1
 .bss.t_tyre_RR_2
                0x20000606        0x2 ./CAN_2.o
                0x20000606                t_tyre_RR_2
 .bss.t_tyre_RR_3
                0x20000608        0x2 ./CAN_2.o
                0x20000608                t_tyre_RR_3
 .bss.t_tyre_RR_4
                0x2000060a        0x2 ./CAN_2.o
                0x2000060a                t_tyre_RR_4
 .bss.t_tyre_RR_5
                0x2000060c        0x2 ./CAN_2.o
                0x2000060c                t_tyre_RR_5
 .bss.t_tyre_RR_6
                0x2000060e        0x2 ./CAN_2.o
                0x2000060e                t_tyre_RR_6
 .bss.t_tyre_RR_7
                0x20000610        0x2 ./CAN_2.o
                0x20000610                t_tyre_RR_7
 .bss.t_tyre_RR_8
                0x20000612        0x2 ./CAN_2.o
                0x20000612                t_tyre_RR_8
 *(COMMON)
 COMMON         0x20000614       0xc6 ./main.o
                0x20000614                delay_count
                0x20000618                carData
                0x200006d4                buffer
 *(.gnu.linkonce.b*)
                0x200006dc                . = ALIGN (0x4)
 *fill*         0x200006da        0x2 
                0x200006dc                __bss_end = .
                0x200006e0                . = ALIGN (0x8)
 *fill*         0x200006dc        0x4 
                0x200006e0                Heap_Bank1_Start = .
                0x000002d8                __bss_size = (__bss_end - __bss_start)

.no_init        0x2000ffc0       0x14
                0x2000ffc0                Heap_Bank1_End = .
 *(.no_init)
 .no_init       0x2000ffc0       0x14 ./Startup/system_XMC4500.o
                0x2000ffc0                SystemCoreClock
                0x2000ffc4                g_chipid

DSRAM2_DATA     0x30000000        0x0 load address 0x0c005550
                0x30000000                . = ALIGN (0x4)
                0x30000000                __data2_start = .
 *(DSRAM2_DATA)
                0x30000000                . = ALIGN (0x4)
                0x30000000                __data2_end = .
                0x0c005550                __data2_load = LOADADDR (DSRAM2_DATA)
                0x00000000                __data2_size = (__data2_end - __data2_start)
                0x00005550                __text_size = (((((__exidx_end - sText) + __data_size) + __ram_code_size) + __data2_size) + __data3_size)
                0x08005550                eText = (sText + __text_size)

DSRAM2_BSS      0x30000000        0x0 load address 0x0c005550
                0x30000000                . = ALIGN (0x4)
                0x30000000                __bss2_start = .
 *(ETH_RAM)
 *(USB_RAM)
 *(DSRAM2_BSS)
                0x30000000                . = ALIGN (0x4)
                0x30000000                __bss2_end = .
                0x30000000                . = ALIGN (0x8)
                0x30000000                Heap_Bank2_Start = .
                0x00000000                __bss2_size = (__bss2_end - __bss2_start)
                0x0000f8e0                Heap_Bank1_Size = (Heap_Bank1_End - Heap_Bank1_Start)
                0x00008000                Heap_Bank2_Size = (0x8000 - (Heap_Bank2_Start - ORIGIN (DSRAM_2_comm)))
                0x0000f800                Heap_Bank3_Size = (0x10000 - (Heap_Bank3_Start - ORIGIN (PSRAM_1)))
                0x00000001                ASSERT ((Heap_Bank1_Start <= Heap_Bank1_End), region SRAM_combined overflowed no_init section)

/DISCARD/
 *(.comment)

.stab
 *(.stab)

.stabstr
 *(.stabstr)

.debug
 *(.debug)

.line
 *(.line)

.debug_srcinfo
 *(.debug_srcinfo)

.debug_sfnames
 *(.debug_sfnames)

.debug_aranges  0x00000000     0x1150
 *(.debug_aranges)
 .debug_aranges
                0x00000000       0x20 ./Startup/startup_XMC4500.o
 .debug_aranges
                0x00000020       0x48 ./Startup/system_XMC4500.o
 .debug_aranges
                0x00000068       0x28 ./Libraries/XMCLib/src/xmc4_gpio.o
 .debug_aranges
                0x00000090      0x3c8 ./Libraries/XMCLib/src/xmc4_scu.o
 .debug_aranges
                0x00000458      0x118 ./Libraries/XMCLib/src/xmc_can.o
 .debug_aranges
                0x00000570      0x128 ./Libraries/XMCLib/src/xmc_ccu4.o
 .debug_aranges
                0x00000698       0x28 ./Libraries/XMCLib/src/xmc_gpio.o
 .debug_aranges
                0x000006c0       0x70 ./Libraries/XMCLib/src/xmc_uart.o
 .debug_aranges
                0x00000730       0x90 ./Libraries/XMCLib/src/xmc_usic.o
 .debug_aranges
                0x000007c0      0x280 ./Libraries/XMCLib/src/xmc_vadc.o
 .debug_aranges
                0x00000a40       0x28 ./Libraries/Newlib/syscalls.o
 .debug_aranges
                0x00000a68       0xc0 ./Dave/Generated/UART/uart.o
 .debug_aranges
                0x00000b28       0x58 ./Dave/Generated/UART/uart_conf.o
 .debug_aranges
                0x00000b80       0xd8 ./Dave/Generated/TIMER/timer.o
 .debug_aranges
                0x00000c58       0x18 ./Dave/Generated/TIMER/timer_conf.o
 .debug_aranges
                0x00000c70       0x50 ./Dave/Generated/INTERRUPT/interrupt.o
 .debug_aranges
                0x00000cc0       0x18 ./Dave/Generated/INTERRUPT/interrupt_conf.o
 .debug_aranges
                0x00000cd8       0x30 ./Dave/Generated/GLOBAL_CCU4/global_ccu4.o
 .debug_aranges
                0x00000d08       0x18 ./Dave/Generated/GLOBAL_CCU4/global_ccu4_conf.o
 .debug_aranges
                0x00000d20       0x28 ./Dave/Generated/GLOBAL_CAN/global_can.o
 .debug_aranges
                0x00000d48       0x18 ./Dave/Generated/GLOBAL_CAN/global_can_conf.o
 .debug_aranges
                0x00000d60       0x30 ./Dave/Generated/GLOBAL_ADC/global_adc.o
 .debug_aranges
                0x00000d90       0x18 ./Dave/Generated/GLOBAL_ADC/global_adc_conf.o
 .debug_aranges
                0x00000da8       0x28 ./Dave/Generated/DIGITAL_IO/digital_io.o
 .debug_aranges
                0x00000dd0       0x18 ./Dave/Generated/DIGITAL_IO/digital_io_conf.o
 .debug_aranges
                0x00000de8       0x28 ./Dave/Generated/CPU_CTRL_XMC4/cpu_ctrl_xmc4_conf.o
 .debug_aranges
                0x00000e10       0x38 ./Dave/Generated/CLOCK_XMC4/clock_xmc4.o
 .debug_aranges
                0x00000e48       0x20 ./Dave/Generated/CLOCK_XMC4/clock_xmc4_conf.o
 .debug_aranges
                0x00000e68      0x110 ./Dave/Generated/CAN_NODE/can_node.o
 .debug_aranges
                0x00000f78       0x18 ./Dave/Generated/CAN_NODE/can_node_conf.o
 .debug_aranges
                0x00000f90       0x28 ./Dave/Generated/ANALOG_IO/analog_io.o
 .debug_aranges
                0x00000fb8       0x18 ./Dave/Generated/ANALOG_IO/analog_io_conf.o
 .debug_aranges
                0x00000fd0       0x88 ./Dave/Generated/ADC_MEASUREMENT/adc_measurement.o
 .debug_aranges
                0x00001058       0x18 ./Dave/Generated/ADC_MEASUREMENT/adc_measurement_conf.o
 .debug_aranges
                0x00001070       0x20 ./Dave/Generated/DAVE.o
 .debug_aranges
                0x00001090       0x28 ./CAN_1.o
 .debug_aranges
                0x000010b8       0x20 ./CAN_2.o
 .debug_aranges
                0x000010d8       0x30 ./getbits.o
 .debug_aranges
                0x00001108       0x48 ./main.o

.debug_pubnames
 *(.debug_pubnames)

.debug_pubtypes
 *(.debug_pubtypes)

.debug_info     0x00000000    0x1e92b
 *(.debug_info .gnu.linkonce.wi.*)
 .debug_info    0x00000000       0x99 ./Startup/startup_XMC4500.o
 .debug_info    0x00000099      0x8b7 ./Startup/system_XMC4500.o
 .debug_info    0x00000950      0x422 ./Libraries/XMCLib/src/xmc4_gpio.o
 .debug_info    0x00000d72     0x20c4 ./Libraries/XMCLib/src/xmc4_scu.o
 .debug_info    0x00002e36     0x1304 ./Libraries/XMCLib/src/xmc_can.o
 .debug_info    0x0000413a     0x15c1 ./Libraries/XMCLib/src/xmc_ccu4.o
 .debug_info    0x000056fb      0x39d ./Libraries/XMCLib/src/xmc_gpio.o
 .debug_info    0x00005a98      0x88c ./Libraries/XMCLib/src/xmc_uart.o
 .debug_info    0x00006324      0xb5e ./Libraries/XMCLib/src/xmc_usic.o
 .debug_info    0x00006e82     0x2e68 ./Libraries/XMCLib/src/xmc_vadc.o
 .debug_info    0x00009cea      0x11f ./Libraries/Newlib/syscalls.o
 .debug_info    0x00009e09     0x12bc ./Dave/Generated/UART/uart.o
 .debug_info    0x0000b0c5     0x1330 ./Dave/Generated/UART/uart_conf.o
 .debug_info    0x0000c3f5      0xd93 ./Dave/Generated/TIMER/timer.o
 .debug_info    0x0000d188      0x83b ./Dave/Generated/TIMER/timer_conf.o
 .debug_info    0x0000d9c3      0x910 ./Dave/Generated/INTERRUPT/interrupt.o
 .debug_info    0x0000e2d3      0x405 ./Dave/Generated/INTERRUPT/interrupt_conf.o
 .debug_info    0x0000e6d8      0x3be ./Dave/Generated/GLOBAL_CCU4/global_ccu4.o
 .debug_info    0x0000ea96      0x2be ./Dave/Generated/GLOBAL_CCU4/global_ccu4_conf.o
 .debug_info    0x0000ed54      0x389 ./Dave/Generated/GLOBAL_CAN/global_can.o
 .debug_info    0x0000f0dd      0x2bb ./Dave/Generated/GLOBAL_CAN/global_can_conf.o
 .debug_info    0x0000f398      0xfae ./Dave/Generated/GLOBAL_ADC/global_adc.o
 .debug_info    0x00010346      0xfb0 ./Dave/Generated/GLOBAL_ADC/global_adc_conf.o
 .debug_info    0x000112f6      0x4dc ./Dave/Generated/DIGITAL_IO/digital_io.o
 .debug_info    0x000117d2      0x417 ./Dave/Generated/DIGITAL_IO/digital_io_conf.o
 .debug_info    0x00011be9      0x475 ./Dave/Generated/CPU_CTRL_XMC4/cpu_ctrl_xmc4_conf.o
 .debug_info    0x0001205e      0x224 ./Dave/Generated/CLOCK_XMC4/clock_xmc4.o
 .debug_info    0x00012282      0x385 ./Dave/Generated/CLOCK_XMC4/clock_xmc4_conf.o
 .debug_info    0x00012607     0x1447 ./Dave/Generated/CAN_NODE/can_node.o
 .debug_info    0x00013a4e     0x1026 ./Dave/Generated/CAN_NODE/can_node_conf.o
 .debug_info    0x00014a74      0x38c ./Dave/Generated/ANALOG_IO/analog_io.o
 .debug_info    0x00014e00      0x2d8 ./Dave/Generated/ANALOG_IO/analog_io_conf.o
 .debug_info    0x000150d8     0x1fbd ./Dave/Generated/ADC_MEASUREMENT/adc_measurement.o
 .debug_info    0x00017095     0x1944 ./Dave/Generated/ADC_MEASUREMENT/adc_measurement_conf.o
 .debug_info    0x000189d9     0x3081 ./Dave/Generated/DAVE.o
 .debug_info    0x0001ba5a      0xb02 ./CAN_1.o
 .debug_info    0x0001c55c     0x11c1 ./CAN_2.o
 .debug_info    0x0001d71d       0xe4 ./getbits.o
 .debug_info    0x0001d801     0x112a ./main.o

.debug_abbrev   0x00000000     0x3ce3
 *(.debug_abbrev)
 .debug_abbrev  0x00000000       0x14 ./Startup/startup_XMC4500.o
 .debug_abbrev  0x00000014      0x1a1 ./Startup/system_XMC4500.o
 .debug_abbrev  0x000001b5      0x11b ./Libraries/XMCLib/src/xmc4_gpio.o
 .debug_abbrev  0x000002d0      0x289 ./Libraries/XMCLib/src/xmc4_scu.o
 .debug_abbrev  0x00000559      0x2b8 ./Libraries/XMCLib/src/xmc_can.o
 .debug_abbrev  0x00000811      0x1fc ./Libraries/XMCLib/src/xmc_ccu4.o
 .debug_abbrev  0x00000a0d      0x10c ./Libraries/XMCLib/src/xmc_gpio.o
 .debug_abbrev  0x00000b19      0x1fe ./Libraries/XMCLib/src/xmc_uart.o
 .debug_abbrev  0x00000d17      0x1eb ./Libraries/XMCLib/src/xmc_usic.o
 .debug_abbrev  0x00000f02      0x266 ./Libraries/XMCLib/src/xmc_vadc.o
 .debug_abbrev  0x00001168       0xbd ./Libraries/Newlib/syscalls.o
 .debug_abbrev  0x00001225      0x280 ./Dave/Generated/UART/uart.o
 .debug_abbrev  0x000014a5      0x24b ./Dave/Generated/UART/uart_conf.o
 .debug_abbrev  0x000016f0      0x22b ./Dave/Generated/TIMER/timer.o
 .debug_abbrev  0x0000191b      0x15a ./Dave/Generated/TIMER/timer_conf.o
 .debug_abbrev  0x00001a75      0x1da ./Dave/Generated/INTERRUPT/interrupt.o
 .debug_abbrev  0x00001c4f       0x97 ./Dave/Generated/INTERRUPT/interrupt_conf.o
 .debug_abbrev  0x00001ce6      0x16f ./Dave/Generated/GLOBAL_CCU4/global_ccu4.o
 .debug_abbrev  0x00001e55       0xfd ./Dave/Generated/GLOBAL_CCU4/global_ccu4_conf.o
 .debug_abbrev  0x00001f52      0x148 ./Dave/Generated/GLOBAL_CAN/global_can.o
 .debug_abbrev  0x0000209a       0xe5 ./Dave/Generated/GLOBAL_CAN/global_can_conf.o
 .debug_abbrev  0x0000217f      0x1e6 ./Dave/Generated/GLOBAL_ADC/global_adc.o
 .debug_abbrev  0x00002365      0x185 ./Dave/Generated/GLOBAL_ADC/global_adc_conf.o
 .debug_abbrev  0x000024ea      0x148 ./Dave/Generated/DIGITAL_IO/digital_io.o
 .debug_abbrev  0x00002632       0xfd ./Dave/Generated/DIGITAL_IO/digital_io_conf.o
 .debug_abbrev  0x0000272f      0x184 ./Dave/Generated/CPU_CTRL_XMC4/cpu_ctrl_xmc4_conf.o
 .debug_abbrev  0x000028b3      0x10f ./Dave/Generated/CLOCK_XMC4/clock_xmc4.o
 .debug_abbrev  0x000029c2      0x104 ./Dave/Generated/CLOCK_XMC4/clock_xmc4_conf.o
 .debug_abbrev  0x00002ac6      0x2a0 ./Dave/Generated/CAN_NODE/can_node.o
 .debug_abbrev  0x00002d66      0x187 ./Dave/Generated/CAN_NODE/can_node_conf.o
 .debug_abbrev  0x00002eed      0x140 ./Dave/Generated/ANALOG_IO/analog_io.o
 .debug_abbrev  0x0000302d      0x104 ./Dave/Generated/ANALOG_IO/analog_io_conf.o
 .debug_abbrev  0x00003131      0x27c ./Dave/Generated/ADC_MEASUREMENT/adc_measurement.o
 .debug_abbrev  0x000033ad      0x18a ./Dave/Generated/ADC_MEASUREMENT/adc_measurement_conf.o
 .debug_abbrev  0x00003537      0x1cf ./Dave/Generated/DAVE.o
 .debug_abbrev  0x00003706      0x1a1 ./CAN_1.o
 .debug_abbrev  0x000038a7      0x178 ./CAN_2.o
 .debug_abbrev  0x00003a1f       0x71 ./getbits.o
 .debug_abbrev  0x00003a90      0x253 ./main.o

.debug_line     0x00000000     0x9372
 *(.debug_line)
 .debug_line    0x00000000       0x88 ./Startup/startup_XMC4500.o
 .debug_line    0x00000088      0x311 ./Startup/system_XMC4500.o
 .debug_line    0x00000399      0x226 ./Libraries/XMCLib/src/xmc4_gpio.o
 .debug_line    0x000005bf      0xdd0 ./Libraries/XMCLib/src/xmc4_scu.o
 .debug_line    0x0000138f      0x6c3 ./Libraries/XMCLib/src/xmc_can.o
 .debug_line    0x00001a52      0x60b ./Libraries/XMCLib/src/xmc_ccu4.o
 .debug_line    0x0000205d      0x213 ./Libraries/XMCLib/src/xmc_gpio.o
 .debug_line    0x00002270      0x38f ./Libraries/XMCLib/src/xmc_uart.o
 .debug_line    0x000025ff      0x43e ./Libraries/XMCLib/src/xmc_usic.o
 .debug_line    0x00002a3d      0xb16 ./Libraries/XMCLib/src/xmc_vadc.o
 .debug_line    0x00003553       0xbf ./Libraries/Newlib/syscalls.o
 .debug_line    0x00003612      0x54f ./Dave/Generated/UART/uart.o
 .debug_line    0x00003b61      0x37f ./Dave/Generated/UART/uart_conf.o
 .debug_line    0x00003ee0      0x5a8 ./Dave/Generated/TIMER/timer.o
 .debug_line    0x00004488      0x328 ./Dave/Generated/TIMER/timer_conf.o
 .debug_line    0x000047b0      0x332 ./Dave/Generated/INTERRUPT/interrupt.o
 .debug_line    0x00004ae2      0x20f ./Dave/Generated/INTERRUPT/interrupt_conf.o
 .debug_line    0x00004cf1      0x353 ./Dave/Generated/GLOBAL_CCU4/global_ccu4.o
 .debug_line    0x00005044      0x2a8 ./Dave/Generated/GLOBAL_CCU4/global_ccu4_conf.o
 .debug_line    0x000052ec      0x32c ./Dave/Generated/GLOBAL_CAN/global_can.o
 .debug_line    0x00005618      0x296 ./Dave/Generated/GLOBAL_CAN/global_can_conf.o
 .debug_line    0x000058ae      0x35f ./Dave/Generated/GLOBAL_ADC/global_adc.o
 .debug_line    0x00005c0d      0x297 ./Dave/Generated/GLOBAL_ADC/global_adc_conf.o
 .debug_line    0x00005ea4      0x29a ./Dave/Generated/DIGITAL_IO/digital_io.o
 .debug_line    0x0000613e      0x207 ./Dave/Generated/DIGITAL_IO/digital_io_conf.o
 .debug_line    0x00006345      0x28c ./Dave/Generated/CPU_CTRL_XMC4/cpu_ctrl_xmc4_conf.o
 .debug_line    0x000065d1      0x2d0 ./Dave/Generated/CLOCK_XMC4/clock_xmc4.o
 .debug_line    0x000068a1      0x2a6 ./Dave/Generated/CLOCK_XMC4/clock_xmc4_conf.o
 .debug_line    0x00006b47      0x609 ./Dave/Generated/CAN_NODE/can_node.o
 .debug_line    0x00007150      0x2fd ./Dave/Generated/CAN_NODE/can_node_conf.o
 .debug_line    0x0000744d      0x28b ./Dave/Generated/ANALOG_IO/analog_io.o
 .debug_line    0x000076d8      0x1f6 ./Dave/Generated/ANALOG_IO/analog_io_conf.o
 .debug_line    0x000078ce      0x584 ./Dave/Generated/ADC_MEASUREMENT/adc_measurement.o
 .debug_line    0x00007e52      0x3d0 ./Dave/Generated/ADC_MEASUREMENT/adc_measurement_conf.o
 .debug_line    0x00008222      0x573 ./Dave/Generated/DAVE.o
 .debug_line    0x00008795      0x35f ./CAN_1.o
 .debug_line    0x00008af4      0x3fc ./CAN_2.o
 .debug_line    0x00008ef0       0x63 ./getbits.o
 .debug_line    0x00008f53      0x41f ./main.o

.debug_frame    0x00000000     0x4500
 *(.debug_frame)
 .debug_frame   0x00000000       0xec ./Startup/system_XMC4500.o
 .debug_frame   0x000000ec       0x60 ./Libraries/XMCLib/src/xmc4_gpio.o
 .debug_frame   0x0000014c     0x11c0 ./Libraries/XMCLib/src/xmc4_scu.o
 .debug_frame   0x0000130c      0x510 ./Libraries/XMCLib/src/xmc_can.o
 .debug_frame   0x0000181c      0x560 ./Libraries/XMCLib/src/xmc_ccu4.o
 .debug_frame   0x00001d7c       0x60 ./Libraries/XMCLib/src/xmc_gpio.o
 .debug_frame   0x00001ddc      0x1c8 ./Libraries/XMCLib/src/xmc_uart.o
 .debug_frame   0x00001fa4      0x268 ./Libraries/XMCLib/src/xmc_usic.o
 .debug_frame   0x0000220c      0xc00 ./Libraries/XMCLib/src/xmc_vadc.o
 .debug_frame   0x00002e0c       0x5c ./Libraries/Newlib/syscalls.o
 .debug_frame   0x00002e68      0x35c ./Dave/Generated/UART/uart.o
 .debug_frame   0x000031c4      0x140 ./Dave/Generated/UART/uart_conf.o
 .debug_frame   0x00003304      0x3e0 ./Dave/Generated/TIMER/timer.o
 .debug_frame   0x000036e4      0x124 ./Dave/Generated/INTERRUPT/interrupt.o
 .debug_frame   0x00003808       0x88 ./Dave/Generated/GLOBAL_CCU4/global_ccu4.o
 .debug_frame   0x00003890       0x60 ./Dave/Generated/GLOBAL_CAN/global_can.o
 .debug_frame   0x000038f0       0x88 ./Dave/Generated/GLOBAL_ADC/global_adc.o
 .debug_frame   0x00003978       0x60 ./Dave/Generated/DIGITAL_IO/digital_io.o
 .debug_frame   0x000039d8       0x60 ./Dave/Generated/CPU_CTRL_XMC4/cpu_ctrl_xmc4_conf.o
 .debug_frame   0x00003a38       0xac ./Dave/Generated/CLOCK_XMC4/clock_xmc4.o
 .debug_frame   0x00003ae4       0x3c ./Dave/Generated/CLOCK_XMC4/clock_xmc4_conf.o
 .debug_frame   0x00003b20      0x4e8 ./Dave/Generated/CAN_NODE/can_node.o
 .debug_frame   0x00004008       0x60 ./Dave/Generated/ANALOG_IO/analog_io.o
 .debug_frame   0x00004068      0x240 ./Dave/Generated/ADC_MEASUREMENT/adc_measurement.o
 .debug_frame   0x000042a8       0x38 ./Dave/Generated/DAVE.o
 .debug_frame   0x000042e0       0x60 ./CAN_1.o
 .debug_frame   0x00004340       0x38 ./CAN_2.o
 .debug_frame   0x00004378       0x88 ./getbits.o
 .debug_frame   0x00004400       0xd4 ./main.o
 .debug_frame   0x000044d4       0x2c c:/dave/dave-ide-4.4.2-64bit/eclipse/arm-gcc-49/bin/../lib/gcc/arm-none-eabi/4.9.3/../../../../arm-none-eabi/lib/armv7e-m/softfp\libg_nano.a(lib_a-init.o)

.debug_str      0x00000000     0xbf3e
 *(.debug_str)
 .debug_str     0x00000000      0x50b ./Startup/system_XMC4500.o
                                0x58b (size before relaxing)
 .debug_str     0x0000050b      0x544 ./Libraries/XMCLib/src/xmc4_gpio.o
                                0x780 (size before relaxing)
 .debug_str     0x00000a4f     0x1f6f ./Libraries/XMCLib/src/xmc4_scu.o
                               0x2442 (size before relaxing)
 .debug_str     0x000029be      0xb79 ./Libraries/XMCLib/src/xmc_can.o
                               0x1166 (size before relaxing)
 .debug_str     0x00003537     0x14d6 ./Libraries/XMCLib/src/xmc_ccu4.o
                               0x1b14 (size before relaxing)
 .debug_str     0x00004a0d       0xca ./Libraries/XMCLib/src/xmc_gpio.o
                                0x62e (size before relaxing)
 .debug_str     0x00004ad7      0x86e ./Libraries/XMCLib/src/xmc_uart.o
                                0xb04 (size before relaxing)
 .debug_str     0x00005345      0x95b ./Libraries/XMCLib/src/xmc_usic.o
                               0x1073 (size before relaxing)
 .debug_str     0x00005ca0     0x20b7 ./Libraries/XMCLib/src/xmc_vadc.o
                               0x2706 (size before relaxing)
 .debug_str     0x00007d57       0x6a ./Libraries/Newlib/syscalls.o
                                0x234 (size before relaxing)
 .debug_str     0x00007dc1      0x9fe ./Dave/Generated/UART/uart.o
                               0x1a2c (size before relaxing)
 .debug_str     0x000087bf      0x7aa ./Dave/Generated/UART/uart_conf.o
                               0x191c (size before relaxing)
 .debug_str     0x00008f69      0x539 ./Dave/Generated/TIMER/timer.o
                                0xc2a (size before relaxing)
 .debug_str     0x000094a2      0x29a ./Dave/Generated/TIMER/timer_conf.o
                                0xb6f (size before relaxing)
 .debug_str     0x0000973c       0xdd ./Dave/Generated/INTERRUPT/interrupt.o
                                0xaab (size before relaxing)
 .debug_str     0x00009819       0x39 ./Dave/Generated/INTERRUPT/interrupt_conf.o
                                0x866 (size before relaxing)
 .debug_str     0x00009852       0xb5 ./Dave/Generated/GLOBAL_CCU4/global_ccu4.o
                                0x58d (size before relaxing)
 .debug_str     0x00009907       0x31 ./Dave/Generated/GLOBAL_CCU4/global_ccu4_conf.o
                                0x4a1 (size before relaxing)
 .debug_str     0x00009938       0xed ./Dave/Generated/GLOBAL_CAN/global_can.o
                                0x3d3 (size before relaxing)
 .debug_str     0x00009a25       0x3c ./Dave/Generated/GLOBAL_CAN/global_can_conf.o
                                0x316 (size before relaxing)
 .debug_str     0x00009a61      0x1b2 ./Dave/Generated/GLOBAL_ADC/global_adc.o
                                0xa2f (size before relaxing)
 .debug_str     0x00009c13      0x21d ./Dave/Generated/GLOBAL_ADC/global_adc_conf.o
                                0xb2e (size before relaxing)
 .debug_str     0x00009e30       0xdf ./Dave/Generated/DIGITAL_IO/digital_io.o
                                0x8bd (size before relaxing)
 .debug_str     0x00009f0f       0x35 ./Dave/Generated/DIGITAL_IO/digital_io_conf.o
                                0x804 (size before relaxing)
 .debug_str     0x00009f44       0x88 ./Dave/Generated/CPU_CTRL_XMC4/cpu_ctrl_xmc4_conf.o
                                0x3c0 (size before relaxing)
 .debug_str     0x00009fcc       0xe7 ./Dave/Generated/CLOCK_XMC4/clock_xmc4.o
                                0x371 (size before relaxing)
 .debug_str     0x0000a0b3       0x50 ./Dave/Generated/CLOCK_XMC4/clock_xmc4_conf.o
                                0x751 (size before relaxing)
 .debug_str     0x0000a103      0x8f8 ./Dave/Generated/CAN_NODE/can_node.o
                               0x1543 (size before relaxing)
 .debug_str     0x0000a9fb      0x4b8 ./Dave/Generated/CAN_NODE/can_node_conf.o
                               0x1219 (size before relaxing)
 .debug_str     0x0000aeb3      0x12b ./Dave/Generated/ANALOG_IO/analog_io.o
                                0x3eb (size before relaxing)
 .debug_str     0x0000afde       0x4b ./Dave/Generated/ANALOG_IO/analog_io_conf.o
                                0x351 (size before relaxing)
 .debug_str     0x0000b029      0x3f0 ./Dave/Generated/ADC_MEASUREMENT/adc_measurement.o
                               0x1924 (size before relaxing)
 .debug_str     0x0000b419      0x2b1 ./Dave/Generated/ADC_MEASUREMENT/adc_measurement_conf.o
                               0x1889 (size before relaxing)
 .debug_str     0x0000b6ca       0x65 ./Dave/Generated/DAVE.o
                               0x2cd9 (size before relaxing)
 .debug_str     0x0000b72f      0x357 ./CAN_1.o
                                0x971 (size before relaxing)
 .debug_str     0x0000ba86      0x42d ./CAN_2.o
                                0xe34 (size before relaxing)
 .debug_str     0x0000beb3       0x23 ./getbits.o
                                0x16b (size before relaxing)
 .debug_str     0x0000bed6       0x68 ./main.o
                               0x12e5 (size before relaxing)

.debug_loc      0x00000000     0x90b4
 *(.debug_loc)
 .debug_loc     0x00000000      0x1a4 ./Startup/system_XMC4500.o
 .debug_loc     0x000001a4       0xb8 ./Libraries/XMCLib/src/xmc4_gpio.o
 .debug_loc     0x0000025c     0x2504 ./Libraries/XMCLib/src/xmc4_scu.o
 .debug_loc     0x00002760      0xb16 ./Libraries/XMCLib/src/xmc_can.o
 .debug_loc     0x00003276      0xbf0 ./Libraries/XMCLib/src/xmc_ccu4.o
 .debug_loc     0x00003e66       0xb8 ./Libraries/XMCLib/src/xmc_gpio.o
 .debug_loc     0x00003f1e      0x3c4 ./Libraries/XMCLib/src/xmc_uart.o
 .debug_loc     0x000042e2      0x52a ./Libraries/XMCLib/src/xmc_usic.o
 .debug_loc     0x0000480c     0x1ac8 ./Libraries/XMCLib/src/xmc_vadc.o
 .debug_loc     0x000062d4       0x94 ./Libraries/Newlib/syscalls.o
 .debug_loc     0x00006368      0x720 ./Dave/Generated/UART/uart.o
 .debug_loc     0x00006a88      0x28c ./Dave/Generated/UART/uart_conf.o
 .debug_loc     0x00006d14      0x81c ./Dave/Generated/TIMER/timer.o
 .debug_loc     0x00007530      0x254 ./Dave/Generated/INTERRUPT/interrupt.o
 .debug_loc     0x00007784      0x108 ./Dave/Generated/GLOBAL_CCU4/global_ccu4.o
 .debug_loc     0x0000788c       0xac ./Dave/Generated/GLOBAL_CAN/global_can.o
 .debug_loc     0x00007938      0x108 ./Dave/Generated/GLOBAL_ADC/global_adc.o
 .debug_loc     0x00007a40       0xac ./Dave/Generated/DIGITAL_IO/digital_io.o
 .debug_loc     0x00007aec       0xac ./Dave/Generated/CPU_CTRL_XMC4/cpu_ctrl_xmc4_conf.o
 .debug_loc     0x00007b98      0x14c ./Dave/Generated/CLOCK_XMC4/clock_xmc4.o
 .debug_loc     0x00007ce4       0x50 ./Dave/Generated/CLOCK_XMC4/clock_xmc4_conf.o
 .debug_loc     0x00007d34      0xa58 ./Dave/Generated/CAN_NODE/can_node.o
 .debug_loc     0x0000878c       0xac ./Dave/Generated/ANALOG_IO/analog_io.o
 .debug_loc     0x00008838      0x4c0 ./Dave/Generated/ADC_MEASUREMENT/adc_measurement.o
 .debug_loc     0x00008cf8       0x50 ./Dave/Generated/DAVE.o
 .debug_loc     0x00008d48       0xac ./CAN_1.o
 .debug_loc     0x00008df4       0x50 ./CAN_2.o
 .debug_loc     0x00008e44      0x114 ./getbits.o
 .debug_loc     0x00008f58      0x15c ./main.o

.debug_macinfo
 *(.debug_macinfo)

.debug_ranges   0x00000000      0xe88
 *(.debug_ranges)
 .debug_ranges  0x00000000       0x38 ./Startup/system_XMC4500.o
 .debug_ranges  0x00000038       0x18 ./Libraries/XMCLib/src/xmc4_gpio.o
 .debug_ranges  0x00000050      0x3b8 ./Libraries/XMCLib/src/xmc4_scu.o
 .debug_ranges  0x00000408      0x108 ./Libraries/XMCLib/src/xmc_can.o
 .debug_ranges  0x00000510      0x118 ./Libraries/XMCLib/src/xmc_ccu4.o
 .debug_ranges  0x00000628       0x18 ./Libraries/XMCLib/src/xmc_gpio.o
 .debug_ranges  0x00000640       0x60 ./Libraries/XMCLib/src/xmc_uart.o
 .debug_ranges  0x000006a0       0x80 ./Libraries/XMCLib/src/xmc_usic.o
 .debug_ranges  0x00000720      0x270 ./Libraries/XMCLib/src/xmc_vadc.o
 .debug_ranges  0x00000990       0x18 ./Libraries/Newlib/syscalls.o
 .debug_ranges  0x000009a8       0xb0 ./Dave/Generated/UART/uart.o
 .debug_ranges  0x00000a58       0x48 ./Dave/Generated/UART/uart_conf.o
 .debug_ranges  0x00000aa0       0xc8 ./Dave/Generated/TIMER/timer.o
 .debug_ranges  0x00000b68       0x40 ./Dave/Generated/INTERRUPT/interrupt.o
 .debug_ranges  0x00000ba8       0x20 ./Dave/Generated/GLOBAL_CCU4/global_ccu4.o
 .debug_ranges  0x00000bc8       0x18 ./Dave/Generated/GLOBAL_CAN/global_can.o
 .debug_ranges  0x00000be0       0x20 ./Dave/Generated/GLOBAL_ADC/global_adc.o
 .debug_ranges  0x00000c00       0x18 ./Dave/Generated/DIGITAL_IO/digital_io.o
 .debug_ranges  0x00000c18       0x18 ./Dave/Generated/CPU_CTRL_XMC4/cpu_ctrl_xmc4_conf.o
 .debug_ranges  0x00000c30       0x28 ./Dave/Generated/CLOCK_XMC4/clock_xmc4.o
 .debug_ranges  0x00000c58       0x10 ./Dave/Generated/CLOCK_XMC4/clock_xmc4_conf.o
 .debug_ranges  0x00000c68      0x100 ./Dave/Generated/CAN_NODE/can_node.o
 .debug_ranges  0x00000d68       0x18 ./Dave/Generated/ANALOG_IO/analog_io.o
 .debug_ranges  0x00000d80       0x78 ./Dave/Generated/ADC_MEASUREMENT/adc_measurement.o
 .debug_ranges  0x00000df8       0x10 ./Dave/Generated/DAVE.o
 .debug_ranges  0x00000e08       0x18 ./CAN_1.o
 .debug_ranges  0x00000e20       0x10 ./CAN_2.o
 .debug_ranges  0x00000e30       0x20 ./getbits.o
 .debug_ranges  0x00000e50       0x38 ./main.o

.debug_weaknames
 *(.debug_weaknames)

.debug_funcnames
 *(.debug_funcnames)

.debug_typenames
 *(.debug_typenames)

.debug_varnames
 *(.debug_varnames)

.build_attributes
                0x00000000      0x881
 *(.ARM.attributes)
 .ARM.attributes
                0x00000000       0x25 ./Startup/startup_XMC4500.o
 .ARM.attributes
                0x00000025       0x37 ./Startup/system_XMC4500.o
 .ARM.attributes
                0x0000005c       0x37 ./Libraries/XMCLib/src/xmc4_gpio.o
 .ARM.attributes
                0x00000093       0x37 ./Libraries/XMCLib/src/xmc4_scu.o
 .ARM.attributes
                0x000000ca       0x37 ./Libraries/XMCLib/src/xmc_can.o
 .ARM.attributes
                0x00000101       0x37 ./Libraries/XMCLib/src/xmc_ccu4.o
 .ARM.attributes
                0x00000138       0x37 ./Libraries/XMCLib/src/xmc_gpio.o
 .ARM.attributes
                0x0000016f       0x37 ./Libraries/XMCLib/src/xmc_uart.o
 .ARM.attributes
                0x000001a6       0x37 ./Libraries/XMCLib/src/xmc_usic.o
 .ARM.attributes
                0x000001dd       0x37 ./Libraries/XMCLib/src/xmc_vadc.o
 .ARM.attributes
                0x00000214       0x37 ./Libraries/Newlib/syscalls.o
 .ARM.attributes
                0x0000024b       0x37 ./Dave/Generated/UART/uart.o
 .ARM.attributes
                0x00000282       0x37 ./Dave/Generated/UART/uart_conf.o
 .ARM.attributes
                0x000002b9       0x37 ./Dave/Generated/TIMER/timer.o
 .ARM.attributes
                0x000002f0       0x37 ./Dave/Generated/TIMER/timer_conf.o
 .ARM.attributes
                0x00000327       0x37 ./Dave/Generated/INTERRUPT/interrupt.o
 .ARM.attributes
                0x0000035e       0x37 ./Dave/Generated/INTERRUPT/interrupt_conf.o
 .ARM.attributes
                0x00000395       0x37 ./Dave/Generated/GLOBAL_CCU4/global_ccu4.o
 .ARM.attributes
                0x000003cc       0x37 ./Dave/Generated/GLOBAL_CCU4/global_ccu4_conf.o
 .ARM.attributes
                0x00000403       0x37 ./Dave/Generated/GLOBAL_CAN/global_can.o
 .ARM.attributes
                0x0000043a       0x37 ./Dave/Generated/GLOBAL_CAN/global_can_conf.o
 .ARM.attributes
                0x00000471       0x37 ./Dave/Generated/GLOBAL_ADC/global_adc.o
 .ARM.attributes
                0x000004a8       0x37 ./Dave/Generated/GLOBAL_ADC/global_adc_conf.o
 .ARM.attributes
                0x000004df       0x37 ./Dave/Generated/DIGITAL_IO/digital_io.o
 .ARM.attributes
                0x00000516       0x37 ./Dave/Generated/DIGITAL_IO/digital_io_conf.o
 .ARM.attributes
                0x0000054d       0x37 ./Dave/Generated/CPU_CTRL_XMC4/cpu_ctrl_xmc4_conf.o
 .ARM.attributes
                0x00000584       0x37 ./Dave/Generated/CLOCK_XMC4/clock_xmc4.o
 .ARM.attributes
                0x000005bb       0x37 ./Dave/Generated/CLOCK_XMC4/clock_xmc4_conf.o
 .ARM.attributes
                0x000005f2       0x37 ./Dave/Generated/CAN_NODE/can_node.o
 .ARM.attributes
                0x00000629       0x37 ./Dave/Generated/CAN_NODE/can_node_conf.o
 .ARM.attributes
                0x00000660       0x37 ./Dave/Generated/ANALOG_IO/analog_io.o
 .ARM.attributes
                0x00000697       0x37 ./Dave/Generated/ANALOG_IO/analog_io_conf.o
 .ARM.attributes
                0x000006ce       0x37 ./Dave/Generated/ADC_MEASUREMENT/adc_measurement.o
 .ARM.attributes
                0x00000705       0x37 ./Dave/Generated/ADC_MEASUREMENT/adc_measurement_conf.o
 .ARM.attributes
                0x0000073c       0x37 ./Dave/Generated/DAVE.o
 .ARM.attributes
                0x00000773       0x37 ./CAN_1.o
 .ARM.attributes
                0x000007aa       0x37 ./CAN_2.o
 .ARM.attributes
                0x000007e1       0x37 ./getbits.o
 .ARM.attributes
                0x00000818       0x37 ./main.o
 .ARM.attributes
                0x0000084f       0x32 c:/dave/dave-ide-4.4.2-64bit/eclipse/arm-gcc-49/bin/../lib/gcc/arm-none-eabi/4.9.3/../../../../arm-none-eabi/lib/armv7e-m/softfp\libg_nano.a(lib_a-init.o)
OUTPUT(Telemetrie_Jr18.elf elf32-littlearm)
